Component: Arm Compiler for Embedded 6.23 Tool: armlink [5f102400]

==============================================================================

Section Cross References

    main.o(.text) refers to main.o(.bss.iBug) for iBug
    main.o(.text) refers to setup.o(.text) for ConfigRead
    main.o(.text) refers to system_gd32f1x0.o(.text) for SystemCoreClockUpdate
    main.o(.text) refers to system_gd32f1x0.o(.data.SystemCoreClock) for SystemCoreClock
    main.o(.text) refers to gd32f1x0_gpio.o(.text) for gpio_bit_write
    main.o(.text) refers to bldcsine.o(.text) for InitBldc
    main.o(.text) refers to gd32f1x0_fwdgt.o(.text) for fwdgt_counter_reload
    main.o(.text) refers to bldc.o(.bss.buzzerFreq) for buzzerFreq
    main.o(.text) refers to it.o(.text) for Delay
    main.o(.text) refers to main.o(.bss.iTimeNextLoop) for iTimeNextLoop
    main.o(.text) refers to main.o(.bss.speed) for speed
    main.o(.text) refers to main.o(.bss.steerCounter) for steerCounter
    main.o(.text) refers to remotedummy.o(.text) for RemoteUpdate
    main.o(.text) refers to main.o(.bss.speedShutoff) for speedShutoff
    main.o(.text) refers to ffltui.o(.text) for __aeabi_ui2f
    main.o(.text) refers to f2d.o(.text) for __aeabi_f2d
    main.o(.text) refers to dmul.o(.text) for __aeabi_dmul
    main.o(.text) refers to ddiv.o(.text) for __aeabi_ddiv
    main.o(.text) refers to dadd.o(.text) for __aeabi_dadd
    main.o(.text) refers to d2f.o(.text) for __aeabi_d2f
    main.o(.text) refers to main.o(.data.speedLimit) for speedLimit
    main.o(.text) refers to main.o(.bss.steer) for steer
    main.o(.text) refers to fflti.o(.text) for __aeabi_i2f
    main.o(.text) refers to fmul.o(.text) for __aeabi_fmul
    main.o(.text) refers to ffixi.o(.text) for __aeabi_f2iz
    main.o(.text) refers to fadd.o(.text) for __aeabi_fsub
    main.o(.text) refers to fdiv.o(.text) for __aeabi_fdiv
    main.o(.text) refers to main.o(.rodata.lookUpTableAngle) for lookUpTableAngle
    main.o(.text) refers to fcmplt.o(.text) for __aeabi_fcmplt
    main.o(.text) refers to main.o(.bss.pwmSlave) for pwmSlave
    main.o(.text) refers to bldc.o(.text) for SetPWM
    main.o(.text) refers to bldc.o(.data.batteryVoltage) for batteryVoltage
    main.o(.text) refers to fcmple.o(.text) for __aeabi_fcmple
    main.o(.text) refers to main.o(.data.wState) for wState
    main.o(.text) refers to main.o(.data.beepsBackwards) for beepsBackwards
    main.o(.text) refers to bldc.o(.bss.buzzerPattern) for buzzerPattern
    main.o(.text) refers to main.o(.bss.inactivity_timeout_counter) for inactivity_timeout_counter
    main.o(.text) refers to main.o(.bss.enable) for enable
    main.o(.ARM.exidx) refers to main.o(.text) for [Anonymous Symbol]
    bldc.o(.text) refers to bldc.o(.rodata..L__const.up_or_down.up_down) for .L__const.up_or_down.up_down
    bldc.o(.text) refers to bldc.o(.bss.bldc_enable) for bldc_enable
    bldc.o(.text) refers to dflti.o(.text) for __aeabi_i2d
    bldc.o(.text) refers to ddiv.o(.text) for __aeabi_ddiv
    bldc.o(.text) refers to dmul.o(.text) for __aeabi_dmul
    bldc.o(.text) refers to dfixi.o(.text) for __aeabi_d2iz
    bldc.o(.text) refers to bldc.o(.bss.bldc_inputFilterPwm) for bldc_inputFilterPwm
    bldc.o(.text) refers to bldc.o(.data.iFILTER_SHIFT) for iFILTER_SHIFT
    bldc.o(.text) refers to bldc.o(.bss.bldc_outputFilterPwm) for bldc_outputFilterPwm
    bldc.o(.text) refers to bldc.o(.bss.filter_reg) for filter_reg
    bldc.o(.text) refers to bldc.o(.bss.offsetcount) for offsetcount
    bldc.o(.text) refers to bldc.o(.bss.adc_buffer) for adc_buffer
    bldc.o(.text) refers to bldc.o(.data.offsetdc) for offsetdc
    bldc.o(.text) refers to bldc.o(.bss.buzzerTimer) for buzzerTimer
    bldc.o(.text) refers to bldc.o(.data.batteryVoltage) for batteryVoltage
    bldc.o(.text) refers to f2d.o(.text) for __aeabi_f2d
    bldc.o(.text) refers to dfltui.o(.text) for __aeabi_ui2d
    bldc.o(.text) refers to dadd.o(.text) for __aeabi_dadd
    bldc.o(.text) refers to d2f.o(.text) for __aeabi_d2f
    bldc.o(.text) refers to bldc.o(.bss.buzzerFreq) for buzzerFreq
    bldc.o(.text) refers to bldc.o(.bss.buzzerPattern) for buzzerPattern
    bldc.o(.text) refers to gd32f1x0_gpio.o(.text) for gpio_bit_write
    bldc.o(.text) refers to bldc.o(.data.currentDC) for currentDC
    bldc.o(.text) refers to fcmpgt.o(.text) for __aeabi_fcmpgt
    bldc.o(.text) refers to it.o(.bss.timedOut) for timedOut
    bldc.o(.text) refers to gd32f1x0_timer.o(.text) for timer_automatic_output_enable
    bldc.o(.text) refers to bldc.o(.bss.hall_a) for hall_a
    bldc.o(.text) refers to bldc.o(.bss.hall_b) for hall_b
    bldc.o(.text) refers to bldc.o(.bss.hall_c) for hall_c
    bldc.o(.text) refers to bldc.o(.bss.hall) for hall
    bldc.o(.text) refers to bldc.o(.rodata.hall_to_pos) for hall_to_pos
    bldc.o(.text) refers to bldc.o(.bss.pos) for pos
    bldc.o(.text) refers to bldcsine.o(.text) for bldc_get_pwm
    bldc.o(.text) refers to bldc.o(.bss.lastPos) for lastPos
    bldc.o(.text) refers to bldc.o(.bss.iOdom) for iOdom
    bldc.o(.text) refers to bldc.o(.bss.speedCounter) for speedCounter
    bldc.o(.text) refers to ffltui.o(.text) for __aeabi_ui2f
    bldc.o(.text) refers to fdiv.o(.text) for __aeabi_fdiv
    bldc.o(.text) refers to bldc.o(.bss.realSpeed) for realSpeed
    bldc.o(.text) refers to bldc.o(.bss.buzzerToggle) for buzzerToggle
    bldc.o(.ARM.exidx) refers to bldc.o(.text) for [Anonymous Symbol]
    bldcsine.o(.text) refers to gd32f1x0_syscfg.o(.text) for syscfg_exti_line_config
    bldcsine.o(.text) refers to gd32f1x0_exti.o(.text) for exti_init
    bldcsine.o(.text) refers to gd32f1x0_misc.o(.text) for nvic_irq_enable
    bldcsine.o(.text) refers to gd32f1x0_rcu.o(.text) for rcu_periph_clock_enable
    bldcsine.o(.text) refers to bldcsine.o(.bss.aHallEXTI) for aHallEXTI
    bldcsine.o(.text) refers to bldcsine.o(.bss.hall_time_last) for hall_time_last
    bldcsine.o(.text) refers to bldc.o(.bss.hall) for hall
    bldcsine.o(.text) refers to bldcsine.o(.bss.bInterrupt) for bInterrupt
    bldcsine.o(.text) refers to bldc.o(.bss.buzzerTimer) for buzzerTimer
    bldcsine.o(.text) refers to bldcsine.o(.bss.hall_time_step) for hall_time_step
    bldcsine.o(.text) refers to bldcsine.o(.bss.hall_last) for hall_last
    bldcsine.o(.text) refers to gd32f1x0_gpio.o(.text) for gpio_input_bit_get
    bldcsine.o(.text) refers to bldcsine.o(.bss.pwmGo) for pwmGo
    bldcsine.o(.text) refers to bldcsine.o(.rodata.cst8) for hall_to_sector
    bldcsine.o(.text) refers to bldcsine.o(.bss.sector) for sector
    bldcsine.o(.text) refers to bldcsine.o(.bss.sector10x) for sector10x
    bldcsine.o(.text) refers to fflti.o(.text) for __aeabi_i2f
    bldcsine.o(.text) refers to fmul.o(.text) for __aeabi_fmul
    bldcsine.o(.text) refers to bldcsine.o(.bss.angle_deg) for angle_deg
    bldcsine.o(.text) refers to bldcsine.o(.bss.hall_time_step_LPR) for hall_time_step_LPR
    bldcsine.o(.text) refers to bldcsine.o(.bss.angle_deg_add) for angle_deg_add
    bldcsine.o(.text) refers to bldcsine.o(.bss.sectorChange) for sectorChange
    bldcsine.o(.text) refers to bldcsine.o(.bss.hall_time_step_LP) for hall_time_step_LP
    bldcsine.o(.text) refers to bldcsine.o(.bss.iDT) for iDT
    bldcsine.o(.text) refers to dfltui.o(.text) for __aeabi_ui2d
    bldcsine.o(.text) refers to ddiv.o(.text) for __aeabi_ddiv
    bldcsine.o(.text) refers to d2f.o(.text) for __aeabi_d2f
    bldcsine.o(.text) refers to bldcsine.o(.bss.fGradient) for fGradient
    bldcsine.o(.text) refers to bldcsine.o(.bss.fGradientX) for fGradientX
    bldcsine.o(.text) refers to ffltui.o(.text) for __aeabi_ui2f
    bldcsine.o(.text) refers to bldcsine.o(.bss.fDT) for fDT
    bldcsine.o(.text) refers to fcmpge.o(.text) for __aeabi_fcmpge
    bldcsine.o(.text) refers to fadd.o(.text) for __aeabi_fadd
    bldcsine.o(.text) refers to bldcsine.o(.bss.angle_deg_final) for angle_deg_final
    bldcsine.o(.text) refers to ffixi.o(.text) for __aeabi_f2iz
    bldcsine.o(.text) refers to bldcsine.o(.rodata.sine_table) for sine_table
    bldcsine.o(.text) refers to bldcsine.o(.bss.angle_idx) for angle_idx
    bldcsine.o(.ARM.exidx) refers to bldcsine.o(.text) for [Anonymous Symbol]
    setup.o(.text) refers to gd32f1x0_gpio.o(.text) for gpio_mode_set
    setup.o(.text) refers to gd32f1x0_misc.o(.text) for nvic_priority_group_set
    setup.o(.text) refers to gd32f1x0_rcu.o(.text) for rcu_flag_get
    setup.o(.text) refers to gd32f1x0_fwdgt.o(.text) for fwdgt_config
    setup.o(.text) refers to gd32f1x0_timer.o(.text) for timer_deinit
    setup.o(.text) refers to setup.o(.bss.timeoutTimer_paramter_struct) for timeoutTimer_paramter_struct
    setup.o(.text) refers to setup.o(.bss.timerBldc_paramter_struct) for timerBldc_paramter_struct
    setup.o(.text) refers to setup.o(.bss.timerBldc_oc_parameter_struct) for timerBldc_oc_parameter_struct
    setup.o(.text) refers to setup.o(.bss.timerBldc_break_parameter_struct) for timerBldc_break_parameter_struct
    setup.o(.text) refers to gd32f1x0_dma.o(.text) for dma_deinit
    setup.o(.text) refers to setup.o(.bss.dma_init_struct_adc) for dma_init_struct_adc
    setup.o(.text) refers to bldc.o(.bss.adc_buffer) for adc_buffer
    setup.o(.text) refers to gd32f1x0_adc.o(.text) for adc_channel_length_config
    setup.o(.text) refers to gd32f1x0_fmc.o(.text) for fmc_unlock
    setup.o(.text) refers to setup.o(.bss.oConfig) for oConfig
    setup.o(.ARM.exidx) refers to setup.o(.text) for [Anonymous Symbol]
    it.o(.text) refers to it.o(.bss.msTicks) for msTicks
    it.o(.text) refers to it.o(.bss.timeoutCounter_ms) for timeoutCounter_ms
    it.o(.text) refers to it.o(.bss.timedOut) for timedOut
    it.o(.text) refers to main.o(.bss.speed) for speed
    it.o(.text) refers to gd32f1x0_timer.o(.text) for timer_interrupt_flag_clear
    it.o(.text) refers to it.o(.bss.iPwmCounter) for iPwmCounter
    it.o(.text) refers to it.o(.bss.iPwmTicks0) for iPwmTicks0
    it.o(.text) refers to it.o(.bss.iPwmTicks) for iPwmTicks
    it.o(.text) refers to gd32f1x0_adc.o(.text) for adc_software_trigger_enable
    it.o(.text) refers to it.o(.bss.iAdcCounter) for iAdcCounter
    it.o(.text) refers to it.o(.bss.iAdcTicks0) for iAdcTicks0
    it.o(.text) refers to it.o(.bss.iAdcTicks) for iAdcTicks
    it.o(.text) refers to bldc.o(.text) for CalculateBLDC
    it.o(.text) refers to gd32f1x0_dma.o(.text) for dma_interrupt_flag_get
    it.o(.ARM.exidx) refers to it.o(.text) for [Anonymous Symbol]
    comms.o(.text) refers to gd32f1x0_usart.o(.text) for usart_data_transmit
    comms.o(.ARM.exidx) refers to comms.o(.text) for [Anonymous Symbol]
    remotedummy.o(.text) refers to it.o(.bss.msTicks) for msTicks
    remotedummy.o(.text) refers to main.o(.bss.speed) for speed
    remotedummy.o(.text) refers to it.o(.text) for ResetTimeout
    remotedummy.o(.ARM.exidx) refers to remotedummy.o(.text) for [Anonymous Symbol]
    gd32f1x0_adc.o(.text) refers to gd32f1x0_rcu.o(.text) for rcu_periph_reset_enable
    gd32f1x0_adc.o(.ARM.exidx) refers to gd32f1x0_adc.o(.text) for [Anonymous Symbol]
    gd32f1x0_dbg.o(.ARM.exidx) refers to gd32f1x0_dbg.o(.text) for [Anonymous Symbol]
    gd32f1x0_dma.o(.ARM.exidx) refers to gd32f1x0_dma.o(.text) for [Anonymous Symbol]
    gd32f1x0_exti.o(.ARM.exidx) refers to gd32f1x0_exti.o(.text) for [Anonymous Symbol]
    gd32f1x0_fmc.o(.ARM.exidx) refers to gd32f1x0_fmc.o(.text) for [Anonymous Symbol]
    gd32f1x0_fwdgt.o(.ARM.exidx) refers to gd32f1x0_fwdgt.o(.text) for [Anonymous Symbol]
    gd32f1x0_gpio.o(.text) refers to gd32f1x0_gpio.o(.rodata..Lswitch.table.gpio_deinit.1) for .Lswitch.table.gpio_deinit.1
    gd32f1x0_gpio.o(.text) refers to gd32f1x0_rcu.o(.text) for rcu_periph_reset_enable
    gd32f1x0_gpio.o(.ARM.exidx) refers to gd32f1x0_gpio.o(.text) for [Anonymous Symbol]
    gd32f1x0_i2c.o(.text) refers to gd32f1x0_rcu.o(.text) for rcu_periph_reset_enable
    gd32f1x0_i2c.o(.ARM.exidx) refers to gd32f1x0_i2c.o(.text) for [Anonymous Symbol]
    gd32f1x0_misc.o(.ARM.exidx) refers to gd32f1x0_misc.o(.text) for [Anonymous Symbol]
    gd32f1x0_pmu.o(.text) refers to gd32f1x0_rcu.o(.text) for rcu_periph_reset_enable
    gd32f1x0_pmu.o(.text) refers to gd32f1x0_pmu.o(.bss.pmu_to_deepsleepmode.reg_snap.1) for pmu_to_deepsleepmode.reg_snap.1
    gd32f1x0_pmu.o(.text) refers to gd32f1x0_pmu.o(.bss.pmu_to_deepsleepmode.reg_snap.0) for pmu_to_deepsleepmode.reg_snap.0
    gd32f1x0_pmu.o(.text) refers to gd32f1x0_pmu.o(.bss.pmu_to_deepsleepmode.reg_snap.2) for pmu_to_deepsleepmode.reg_snap.2
    gd32f1x0_pmu.o(.text) refers to gd32f1x0_pmu.o(.bss.pmu_to_deepsleepmode.reg_snap.3) for pmu_to_deepsleepmode.reg_snap.3
    gd32f1x0_pmu.o(.ARM.exidx) refers to gd32f1x0_pmu.o(.text) for [Anonymous Symbol]
    gd32f1x0_rcu.o(.text) refers to gd32f1x0_rcu.o(.rodata.cst8) for .L__const.rcu_clock_freq_get.apb2_exp
    gd32f1x0_rcu.o(.ARM.exidx) refers to gd32f1x0_rcu.o(.text) for [Anonymous Symbol]
    gd32f1x0_syscfg.o(.text) refers to gd32f1x0_rcu.o(.text) for rcu_periph_reset_enable
    gd32f1x0_syscfg.o(.ARM.exidx) refers to gd32f1x0_syscfg.o(.text) for [Anonymous Symbol]
    gd32f1x0_timer.o(.text) refers to gd32f1x0_rcu.o(.text) for rcu_periph_reset_enable
    gd32f1x0_timer.o(.ARM.exidx) refers to gd32f1x0_timer.o(.text) for [Anonymous Symbol]
    gd32f1x0_usart.o(.text) refers to gd32f1x0_rcu.o(.text) for rcu_periph_reset_enable
    gd32f1x0_usart.o(.ARM.exidx) refers to gd32f1x0_usart.o(.text) for [Anonymous Symbol]
    gd32f1x0_wwdgt.o(.text) refers to gd32f1x0_rcu.o(.text) for rcu_periph_reset_enable
    gd32f1x0_wwdgt.o(.ARM.exidx) refers to gd32f1x0_wwdgt.o(.text) for [Anonymous Symbol]
    startup_gd32f1x0.o(RESET) refers to startup_gd32f1x0.o(STACK) for __initial_sp
    startup_gd32f1x0.o(RESET) refers to startup_gd32f1x0.o(.text) for Reset_Handler
    startup_gd32f1x0.o(RESET) refers to it.o(.text) for NMI_Handler
    startup_gd32f1x0.o(RESET) refers to bldcsine.o(.text) for EXTI0_1_IRQHandler
    startup_gd32f1x0.o(.text) refers to system_gd32f1x0.o(.text) for SystemInit
    startup_gd32f1x0.o(.text) refers to entry.o(.ARM.Collect$$$$00000000) for __main
    system_gd32f1x0.o(.text) refers to system_gd32f1x0.o(.data.SystemCoreClock) for SystemCoreClock
    system_gd32f1x0.o(.ARM.exidx) refers to system_gd32f1x0.o(.text) for [Anonymous Symbol]
    entry.o(.ARM.Collect$$$$00000000) refers (Special) to entry10a.o(.ARM.Collect$$$$0000000D) for __rt_final_cpp
    entry.o(.ARM.Collect$$$$00000000) refers (Special) to entry11a.o(.ARM.Collect$$$$0000000F) for __rt_final_exit
    entry.o(.ARM.Collect$$$$00000000) refers (Special) to entry7b.o(.ARM.Collect$$$$00000008) for _main_clock
    entry.o(.ARM.Collect$$$$00000000) refers (Special) to entry8b.o(.ARM.Collect$$$$0000000A) for _main_cpp_init
    entry.o(.ARM.Collect$$$$00000000) refers (Special) to entry9a.o(.ARM.Collect$$$$0000000B) for _main_init
    entry.o(.ARM.Collect$$$$00000000) refers (Special) to entry5.o(.ARM.Collect$$$$00000004) for _main_scatterload
    entry.o(.ARM.Collect$$$$00000000) refers (Special) to entry2.o(.ARM.Collect$$$$00000001) for _main_stk
    fadd.o(.text) refers (Special) to iusefp.o(.text) for __I$use$fp
    fadd.o(.text) refers to fepilogue.o(.text) for _float_epilogue
    fmul.o(.text) refers (Special) to iusefp.o(.text) for __I$use$fp
    fdiv.o(.text) refers (Special) to iusefp.o(.text) for __I$use$fp
    fdiv.o(.text) refers to fepilogue.o(.text) for _float_round
    dadd.o(.text) refers (Special) to iusefp.o(.text) for __I$use$fp
    dadd.o(.text) refers to llshl.o(.text) for __aeabi_llsl
    dadd.o(.text) refers to llsshr.o(.text) for __aeabi_lasr
    dadd.o(.text) refers to depilogue.o(.text) for _double_epilogue
    dmul.o(.text) refers (Special) to iusefp.o(.text) for __I$use$fp
    dmul.o(.text) refers to depilogue.o(.text) for _double_epilogue
    ddiv.o(.text) refers (Special) to iusefp.o(.text) for __I$use$fp
    ddiv.o(.text) refers to depilogue.o(.text) for _double_round
    fcmple.o(.text) refers (Special) to iusefp.o(.text) for __I$use$fp
    fcmplt.o(.text) refers (Special) to iusefp.o(.text) for __I$use$fp
    fcmpge.o(.text) refers (Special) to iusefp.o(.text) for __I$use$fp
    fcmpgt.o(.text) refers (Special) to iusefp.o(.text) for __I$use$fp
    fflti.o(.text) refers (Special) to iusefp.o(.text) for __I$use$fp
    fflti.o(.text) refers to fepilogue.o(.text) for _float_epilogue
    ffltui.o(.text) refers (Special) to iusefp.o(.text) for __I$use$fp
    ffltui.o(.text) refers to fepilogue.o(.text) for _float_epilogue
    dflti.o(.text) refers (Special) to iusefp.o(.text) for __I$use$fp
    dflti.o(.text) refers to depilogue.o(.text) for _double_epilogue
    dfltui.o(.text) refers (Special) to iusefp.o(.text) for __I$use$fp
    dfltui.o(.text) refers to depilogue.o(.text) for _double_epilogue
    ffixi.o(.text) refers (Special) to iusefp.o(.text) for __I$use$fp
    dfixi.o(.text) refers (Special) to iusefp.o(.text) for __I$use$fp
    dfixi.o(.text) refers to llushr.o(.text) for __aeabi_llsr
    f2d.o(.text) refers (Special) to iusefp.o(.text) for __I$use$fp
    d2f.o(.text) refers (Special) to iusefp.o(.text) for __I$use$fp
    d2f.o(.text) refers to fepilogue.o(.text) for _float_round
    entry2.o(.ARM.Collect$$$$00000001) refers to entry2.o(.ARM.Collect$$$$00002712) for __lit__00000000
    entry2.o(.ARM.Collect$$$$00002712) refers to startup_gd32f1x0.o(STACK) for __initial_sp
    entry2.o(__vectab_stack_and_reset_area) refers to startup_gd32f1x0.o(STACK) for __initial_sp
    entry2.o(__vectab_stack_and_reset_area) refers to entry.o(.ARM.Collect$$$$00000000) for __main
    entry5.o(.ARM.Collect$$$$00000004) refers to init.o(.text) for __scatterload
    entry9a.o(.ARM.Collect$$$$0000000B) refers to main.o(.text) for main
    entry9b.o(.ARM.Collect$$$$0000000C) refers to main.o(.text) for main
    fepilogue.o(.text) refers (Special) to iusefp.o(.text) for __I$use$fp
    depilogue.o(.text) refers (Special) to iusefp.o(.text) for __I$use$fp
    depilogue.o(.text) refers to llshl.o(.text) for __aeabi_llsl
    depilogue.o(.text) refers to llushr.o(.text) for __aeabi_llsr
    init.o(.text) refers to entry5.o(.ARM.Collect$$$$00000004) for __main_after_scatterload


==============================================================================

Removing Unused input sections from the image.

    Removing main.o(.ARM.exidx), (24 bytes).
    Removing main.o(.data.wStateSlave), (1 bytes).
    Removing main.o(.bss.activateWeakening), (1 bytes).
    Removing main.o(.bss.slaveError), (1 bytes).
    Removing main.o(.ARM.use_no_argv), (4 bytes).
    Removing bldc.o(.ARM.exidx), (48 bytes).
    Removing bldcbc.o(.text), (0 bytes).
    Removing bldcsine.o(.ARM.exidx), (56 bytes).
    Removing setup.o(.ARM.exidx), (152 bytes).
    Removing setup.o(.bss.dma_init_struct_usart), (36 bytes).
    Removing setup.o(.bss.usart0_rx_buf), (1 bytes).
    Removing setup.o(.bss.usart1_rx_buf), (1 bytes).
    Removing setup.o(.bss.usart2_rx_buf), (1 bytes).
    Removing it.o(.ARM.exidx), (120 bytes).
    Removing it.o(.bss.iCounterUsart0), (4 bytes).
    Removing it.o(.bss.iCounter2Usart0), (4 bytes).
    Removing it.o(.bss.iCounterUsart2), (4 bytes).
    Removing it.o(.bss.iCounter2Usart2), (4 bytes).
    Removing led.o(.text), (0 bytes).
    Removing comms.o(.text), (124 bytes).
    Removing comms.o(.ARM.exidx), (16 bytes).
    Removing remoteuart.o(.text), (0 bytes).
    Removing remotecrsf.o(.text), (0 bytes).
    Removing remotedummy.o(.ARM.exidx), (16 bytes).
    Removing remoteuartbus.o(.text), (0 bytes).
    Removing commsmasterslave.o(.text), (0 bytes).
    Removing commsmasterslave.o(.bss.mosfetOutMaster), (1 bytes).
    Removing commsmasterslave.o(.bss.beepsBackwardsMaster), (1 bytes).
    Removing remoteadc.o(.text), (0 bytes).
    Removing remoteautodetect.o(.text), (0 bytes).
    Removing remoteautodetect.o(.bss.i), (2 bytes).
    Removing gd32f1x0_adc.o(.ARM.exidx), (256 bytes).
    Removing gd32f1x0_dbg.o(.text), (128 bytes).
    Removing gd32f1x0_dbg.o(.ARM.exidx), (48 bytes).
    Removing gd32f1x0_dma.o(.ARM.exidx), (216 bytes).
    Removing gd32f1x0_exti.o(.ARM.exidx), (96 bytes).
    Removing gd32f1x0_fmc.o(.ARM.exidx), (216 bytes).
    Removing gd32f1x0_fwdgt.o(.ARM.exidx), (48 bytes).
    Removing gd32f1x0_gpio.o(.ARM.exidx), (104 bytes).
    Removing gd32f1x0_i2c.o(.text), (802 bytes).
    Removing gd32f1x0_i2c.o(.ARM.exidx), (248 bytes).
    Removing gd32f1x0_misc.o(.ARM.exidx), (56 bytes).
    Removing gd32f1x0_opa.o(.text), (0 bytes).
    Removing gd32f1x0_pmu.o(.text), (490 bytes).
    Removing gd32f1x0_pmu.o(.ARM.exidx), (96 bytes).
    Removing gd32f1x0_pmu.o(.bss.pmu_to_deepsleepmode.reg_snap.0), (4 bytes).
    Removing gd32f1x0_pmu.o(.bss.pmu_to_deepsleepmode.reg_snap.1), (4 bytes).
    Removing gd32f1x0_pmu.o(.bss.pmu_to_deepsleepmode.reg_snap.2), (4 bytes).
    Removing gd32f1x0_pmu.o(.bss.pmu_to_deepsleepmode.reg_snap.3), (4 bytes).
    Removing gd32f1x0_rcu.o(.ARM.exidx), (336 bytes).
    Removing gd32f1x0_syscfg.o(.ARM.exidx), (72 bytes).
    Removing gd32f1x0_timer.o(.ARM.exidx), (568 bytes).
    Removing gd32f1x0_usart.o(.text), (1602 bytes).
    Removing gd32f1x0_usart.o(.ARM.exidx), (544 bytes).
    Removing gd32f1x0_wwdgt.o(.text), (170 bytes).
    Removing gd32f1x0_wwdgt.o(.ARM.exidx), (56 bytes).
    Removing startup_gd32f1x0.o(HEAP), (1024 bytes).
    Removing system_gd32f1x0.o(.ARM.exidx), (16 bytes).

58 unused section(s) (total 7830 bytes) removed from the image.

==============================================================================

Image Symbol Table

    Local Symbols

    Symbol Name                              Value     Ov Type        Size  Object(Section)

    ../clib/microlib/init/entry.s            0x00000000   Number         0  entry.o ABSOLUTE
    ../clib/microlib/init/entry.s            0x00000000   Number         0  entry2.o ABSOLUTE
    ../clib/microlib/init/entry.s            0x00000000   Number         0  entry5.o ABSOLUTE
    ../clib/microlib/init/entry.s            0x00000000   Number         0  entry7a.o ABSOLUTE
    ../clib/microlib/init/entry.s            0x00000000   Number         0  entry7b.o ABSOLUTE
    ../clib/microlib/init/entry.s            0x00000000   Number         0  entry8a.o ABSOLUTE
    ../clib/microlib/init/entry.s            0x00000000   Number         0  entry8b.o ABSOLUTE
    ../clib/microlib/init/entry.s            0x00000000   Number         0  entry9a.o ABSOLUTE
    ../clib/microlib/init/entry.s            0x00000000   Number         0  entry9b.o ABSOLUTE
    ../clib/microlib/init/entry.s            0x00000000   Number         0  entry10a.o ABSOLUTE
    ../clib/microlib/init/entry.s            0x00000000   Number         0  entry10b.o ABSOLUTE
    ../clib/microlib/init/entry.s            0x00000000   Number         0  entry11a.o ABSOLUTE
    ../clib/microlib/init/entry.s            0x00000000   Number         0  entry11b.o ABSOLUTE
    ../clib/microlib/longlong.c              0x00000000   Number         0  llshl.o ABSOLUTE
    ../clib/microlib/longlong.c              0x00000000   Number         0  llushr.o ABSOLUTE
    ../clib/microlib/longlong.c              0x00000000   Number         0  llsshr.o ABSOLUTE
    ../clib/microlib/stubs.s                 0x00000000   Number         0  iusefp.o ABSOLUTE
    ../fplib/microlib/d2f.c                  0x00000000   Number         0  d2f.o ABSOLUTE
    ../fplib/microlib/f2d.c                  0x00000000   Number         0  f2d.o ABSOLUTE
    ../fplib/microlib/fpadd.c                0x00000000   Number         0  fadd.o ABSOLUTE
    ../fplib/microlib/fpadd.c                0x00000000   Number         0  dadd.o ABSOLUTE
    ../fplib/microlib/fpcmp.c                0x00000000   Number         0  fcmple.o ABSOLUTE
    ../fplib/microlib/fpcmp.c                0x00000000   Number         0  fcmplt.o ABSOLUTE
    ../fplib/microlib/fpcmp.c                0x00000000   Number         0  fcmpge.o ABSOLUTE
    ../fplib/microlib/fpcmp.c                0x00000000   Number         0  fcmpgt.o ABSOLUTE
    ../fplib/microlib/fpdiv.c                0x00000000   Number         0  fdiv.o ABSOLUTE
    ../fplib/microlib/fpdiv.c                0x00000000   Number         0  ddiv.o ABSOLUTE
    ../fplib/microlib/fpepilogue.c           0x00000000   Number         0  fepilogue.o ABSOLUTE
    ../fplib/microlib/fpepilogue.c           0x00000000   Number         0  depilogue.o ABSOLUTE
    ../fplib/microlib/fpfix.c                0x00000000   Number         0  ffixi.o ABSOLUTE
    ../fplib/microlib/fpfix.c                0x00000000   Number         0  dfixi.o ABSOLUTE
    ../fplib/microlib/fpflt.c                0x00000000   Number         0  fflti.o ABSOLUTE
    ../fplib/microlib/fpflt.c                0x00000000   Number         0  ffltui.o ABSOLUTE
    ../fplib/microlib/fpflt.c                0x00000000   Number         0  dflti.o ABSOLUTE
    ../fplib/microlib/fpflt.c                0x00000000   Number         0  dfltui.o ABSOLUTE
    ../fplib/microlib/fpmul.c                0x00000000   Number         0  fmul.o ABSOLUTE
    ../fplib/microlib/fpmul.c                0x00000000   Number         0  dmul.o ABSOLUTE
    RTE/Device/GD32F130C8/startup_gd32f1x0.s 0x00000000   Number         0  startup_gd32f1x0.o ABSOLUTE
    RemoteAdc.c                              0x00000000   Number         0  remoteadc.o ABSOLUTE
    RemoteAutodetect.c                       0x00000000   Number         0  remoteautodetect.o ABSOLUTE
    bldc.c                                   0x00000000   Number         0  bldc.o ABSOLUTE
    bldcBC.c                                 0x00000000   Number         0  bldcbc.o ABSOLUTE
    bldcSINE.c                               0x00000000   Number         0  bldcsine.o ABSOLUTE
    comms.c                                  0x00000000   Number         0  comms.o ABSOLUTE
    commsMasterSlave.c                       0x00000000   Number         0  commsmasterslave.o ABSOLUTE
    dc.s                                     0x00000000   Number         0  dc.o ABSOLUTE
    gd32f1x0_adc.c                           0x00000000   Number         0  gd32f1x0_adc.o ABSOLUTE
    gd32f1x0_dbg.c                           0x00000000   Number         0  gd32f1x0_dbg.o ABSOLUTE
    gd32f1x0_dma.c                           0x00000000   Number         0  gd32f1x0_dma.o ABSOLUTE
    gd32f1x0_exti.c                          0x00000000   Number         0  gd32f1x0_exti.o ABSOLUTE
    gd32f1x0_fmc.c                           0x00000000   Number         0  gd32f1x0_fmc.o ABSOLUTE
    gd32f1x0_fwdgt.c                         0x00000000   Number         0  gd32f1x0_fwdgt.o ABSOLUTE
    gd32f1x0_gpio.c                          0x00000000   Number         0  gd32f1x0_gpio.o ABSOLUTE
    gd32f1x0_i2c.c                           0x00000000   Number         0  gd32f1x0_i2c.o ABSOLUTE
    gd32f1x0_misc.c                          0x00000000   Number         0  gd32f1x0_misc.o ABSOLUTE
    gd32f1x0_opa.c                           0x00000000   Number         0  gd32f1x0_opa.o ABSOLUTE
    gd32f1x0_pmu.c                           0x00000000   Number         0  gd32f1x0_pmu.o ABSOLUTE
    gd32f1x0_rcu.c                           0x00000000   Number         0  gd32f1x0_rcu.o ABSOLUTE
    gd32f1x0_syscfg.c                        0x00000000   Number         0  gd32f1x0_syscfg.o ABSOLUTE
    gd32f1x0_timer.c                         0x00000000   Number         0  gd32f1x0_timer.o ABSOLUTE
    gd32f1x0_usart.c                         0x00000000   Number         0  gd32f1x0_usart.o ABSOLUTE
    gd32f1x0_wwdgt.c                         0x00000000   Number         0  gd32f1x0_wwdgt.o ABSOLUTE
    handlers.s                               0x00000000   Number         0  handlers.o ABSOLUTE
    init.s                                   0x00000000   Number         0  init.o ABSOLUTE
    it.c                                     0x00000000   Number         0  it.o ABSOLUTE
    led.c                                    0x00000000   Number         0  led.o ABSOLUTE
    main.c                                   0x00000000   Number         0  main.o ABSOLUTE
    remoteCrsf.c                             0x00000000   Number         0  remotecrsf.o ABSOLUTE
    remoteDummy.c                            0x00000000   Number         0  remotedummy.o ABSOLUTE
    remoteUart.c                             0x00000000   Number         0  remoteuart.o ABSOLUTE
    remoteUartBus.c                          0x00000000   Number         0  remoteuartbus.o ABSOLUTE
    setup.c                                  0x00000000   Number         0  setup.o ABSOLUTE
    system_gd32f1x0.c                        0x00000000   Number         0  system_gd32f1x0.o ABSOLUTE
    RESET                                    0x08000000   Section      360  startup_gd32f1x0.o(RESET)
    .ARM.Collect$$$$00000000                 0x08000168   Section        0  entry.o(.ARM.Collect$$$$00000000)
    .ARM.Collect$$$$00000001                 0x08000168   Section        4  entry2.o(.ARM.Collect$$$$00000001)
    .ARM.Collect$$$$00000004                 0x0800016c   Section        4  entry5.o(.ARM.Collect$$$$00000004)
    .ARM.Collect$$$$00000008                 0x08000170   Section        0  entry7b.o(.ARM.Collect$$$$00000008)
    .ARM.Collect$$$$0000000A                 0x08000170   Section        0  entry8b.o(.ARM.Collect$$$$0000000A)
    .ARM.Collect$$$$0000000B                 0x08000170   Section        8  entry9a.o(.ARM.Collect$$$$0000000B)
    __lit__00000000                          0x08000178   Data           4  entry2.o(.ARM.Collect$$$$00002712)
    .ARM.Collect$$$$0000000D                 0x08000178   Section        0  entry10a.o(.ARM.Collect$$$$0000000D)
    .ARM.Collect$$$$0000000F                 0x08000178   Section        0  entry11a.o(.ARM.Collect$$$$0000000F)
    .ARM.Collect$$$$00002712                 0x08000178   Section        4  entry2.o(.ARM.Collect$$$$00002712)
    [Anonymous Symbol]                       0x0800017c   Section        0  main.o(.text)
    [Anonymous Symbol]                       0x08000914   Section        0  bldc.o(.text)
    [Anonymous Symbol]                       0x08000e1c   Section        0  bldcsine.o(.text)
    [Anonymous Symbol]                       0x0800124c   Section        0  setup.o(.text)
    [Anonymous Symbol]                       0x08001a9c   Section        0  it.o(.text)
    [Anonymous Symbol]                       0x08001c08   Section        0  remotedummy.o(.text)
    [Anonymous Symbol]                       0x08001c7c   Section        0  gd32f1x0_adc.o(.text)
    [Anonymous Symbol]                       0x08002224   Section        0  gd32f1x0_dma.o(.text)
    [Anonymous Symbol]                       0x08002594   Section        0  gd32f1x0_exti.o(.text)
    [Anonymous Symbol]                       0x08002704   Section        0  gd32f1x0_fmc.o(.text)
    [Anonymous Symbol]                       0x080030d4   Section        0  gd32f1x0_fwdgt.o(.text)
    [Anonymous Symbol]                       0x080031b8   Section        0  gd32f1x0_gpio.o(.text)
    [Anonymous Symbol]                       0x08003350   Section        0  gd32f1x0_misc.o(.text)
    [Anonymous Symbol]                       0x0800347c   Section        0  gd32f1x0_rcu.o(.text)
    [Anonymous Symbol]                       0x08003ba0   Section        0  gd32f1x0_syscfg.o(.text)
    [Anonymous Symbol]                       0x08003ca4   Section        0  gd32f1x0_timer.o(.text)
    .text                                    0x080049f4   Section       36  startup_gd32f1x0.o(.text)
    [Anonymous Symbol]                       0x08004a18   Section        0  system_gd32f1x0.o(.text)
    .text                                    0x08004b54   Section        0  fadd.o(.text)
    .text                                    0x08004c04   Section        0  fmul.o(.text)
    .text                                    0x08004c68   Section        0  fdiv.o(.text)
    .text                                    0x08004ce4   Section        0  dadd.o(.text)
    .text                                    0x08004e32   Section        0  dmul.o(.text)
    .text                                    0x08004f16   Section        0  ddiv.o(.text)
    .text                                    0x08004ff4   Section        0  fcmple.o(.text)
    .text                                    0x08005010   Section        0  fcmplt.o(.text)
    .text                                    0x0800502c   Section        0  fcmpge.o(.text)
    .text                                    0x08005048   Section        0  fcmpgt.o(.text)
    .text                                    0x08005064   Section        0  fflti.o(.text)
    .text                                    0x08005076   Section        0  ffltui.o(.text)
    .text                                    0x08005080   Section        0  dflti.o(.text)
    .text                                    0x080050a2   Section        0  dfltui.o(.text)
    .text                                    0x080050bc   Section        0  ffixi.o(.text)
    .text                                    0x080050ee   Section        0  dfixi.o(.text)
    .text                                    0x0800512c   Section        0  f2d.o(.text)
    .text                                    0x08005152   Section        0  d2f.o(.text)
    .text                                    0x0800518a   Section        0  llshl.o(.text)
    .text                                    0x080051a8   Section        0  llushr.o(.text)
    .text                                    0x080051c8   Section        0  llsshr.o(.text)
    .text                                    0x080051ec   Section        0  iusefp.o(.text)
    .text                                    0x080051ec   Section        0  fepilogue.o(.text)
    .text                                    0x0800525a   Section        0  depilogue.o(.text)
    .text                                    0x08005314   Section       48  init.o(.text)
    i.__scatterload_copy                     0x08005344   Section       14  handlers.o(i.__scatterload_copy)
    i.__scatterload_null                     0x08005352   Section        2  handlers.o(i.__scatterload_null)
    i.__scatterload_zeroinit                 0x08005354   Section       14  handlers.o(i.__scatterload_zeroinit)
    .L__const.up_or_down.up_down             0x08005362   Data          12  bldc.o(.rodata..L__const.up_or_down.up_down)
    .Lswitch.table.gpio_deinit.1             0x0800536e   Data          12  gd32f1x0_gpio.o(.rodata..Lswitch.table.gpio_deinit.1)
    hall_to_sector                           0x0800537a   Data           8  bldcsine.o(.rodata.cst8)
    [Anonymous Symbol]                       0x0800537a   Section        0  bldcsine.o(.rodata.cst8)
    .L__const.rcu_clock_freq_get.apb2_exp    0x08005382   Data           8  gd32f1x0_rcu.o(.rodata.cst8)
    sine_table                               0x08005668   Data         720  bldcsine.o(.rodata.sine_table)
    [Anonymous Symbol]                       0x08005668   Section        0  bldcsine.o(.rodata.sine_table)
    STACK                                    0x20000150   Section     1024  startup_gd32f1x0.o(STACK)

    Global Symbols

    Symbol Name                              Value     Ov Type        Size  Object(Section)

    BuildAttributes$$THM_ISAv4$P$D$K$B$S$PE$A:L22UL41UL21$X:L11$S22US41US21$IEEE1$IW$~IW$USESV6$~STKCKD$USESV7$~SHL$OTIME$ROPI$EBA8$MICROLIB$REQ8$PRES8$EABIv2 0x00000000   Number         0  anon$$obj.o ABSOLUTE
    __cpp_initialize__aeabi_                  - Undefined Weak Reference
    __cxa_finalize                            - Undefined Weak Reference
    __decompress                              - Undefined Weak Reference
    _clock_init                               - Undefined Weak Reference
    _microlib_exit                            - Undefined Weak Reference
    __Vectors_Size                           0x00000168   Number         0  startup_gd32f1x0.o ABSOLUTE
    __Vectors                                0x08000000   Data           4  startup_gd32f1x0.o(RESET)
    __Vectors_End                            0x08000168   Data           0  startup_gd32f1x0.o(RESET)
    __main                                   0x08000169   Thumb Code     0  entry.o(.ARM.Collect$$$$00000000)
    _main_stk                                0x08000169   Thumb Code     0  entry2.o(.ARM.Collect$$$$00000001)
    _main_scatterload                        0x0800016d   Thumb Code     0  entry5.o(.ARM.Collect$$$$00000004)
    __main_after_scatterload                 0x08000171   Thumb Code     0  entry5.o(.ARM.Collect$$$$00000004)
    _main_clock                              0x08000171   Thumb Code     0  entry7b.o(.ARM.Collect$$$$00000008)
    _main_cpp_init                           0x08000171   Thumb Code     0  entry8b.o(.ARM.Collect$$$$0000000A)
    _main_init                               0x08000171   Thumb Code     0  entry9a.o(.ARM.Collect$$$$0000000B)
    __rt_final_cpp                           0x08000179   Thumb Code     0  entry10a.o(.ARM.Collect$$$$0000000D)
    __rt_final_exit                          0x08000179   Thumb Code     0  entry11a.o(.ARM.Collect$$$$0000000F)
    main                                     0x0800017d   Thumb Code  1654  main.o(.text)
    ShutOff                                  0x080007f5   Thumb Code   132  main.o(.text)
    ShowBatteryState                         0x08000879   Thumb Code   156  main.o(.text)
    modulo                                   0x08000915   Thumb Code    22  bldc.o(.text)
    up_or_down                               0x0800092d   Thumb Code    66  bldc.o(.text)
    SetEnable                                0x08000971   Thumb Code    12  bldc.o(.text)
    SetPWM                                   0x0800097d   Thumb Code    74  bldc.o(.text)
    SetFilter                                0x080009c9   Thumb Code    46  bldc.o(.text)
    CalculateBLDC                            0x080009f9   Thumb Code  1060  bldc.o(.text)
    InitEXTI                                 0x08000e1d   Thumb Code    62  bldcsine.o(.text)
    InitBldc                                 0x08000e5d   Thumb Code   146  bldcsine.o(.text)
    _HandleEXTI                              0x08000ef1   Thumb Code   188  bldcsine.o(.text)
    EXTI0_1_IRQHandler                       0x08000fad   Thumb Code     4  bldcsine.o(.text)
    EXTI2_3_IRQHandler                       0x08000fb1   Thumb Code     4  bldcsine.o(.text)
    EXTI4_15_IRQHandler                      0x08000fb5   Thumb Code     4  bldcsine.o(.text)
    bldc_get_pwm                             0x08000fb9   Thumb Code   658  bldcsine.o(.text)
    pinMode                                  0x0800124d   Thumb Code    42  setup.o(.text)
    pinModePull                              0x08001279   Thumb Code    40  setup.o(.text)
    Interrupt_init                           0x080012a1   Thumb Code     8  setup.o(.text)
    Watchdog_init                            0x080012a9   Thumb Code    56  setup.o(.text)
    TimeoutTimer_init                        0x080012e1   Thumb Code    92  setup.o(.text)
    GPIO_init                                0x0800133d   Thumb Code   764  setup.o(.text)
    PWM_init                                 0x08001639   Thumb Code   368  setup.o(.text)
    ADC_init                                 0x080017a9   Thumb Code   234  setup.o(.text)
    USART0_Init                              0x08001895   Thumb Code     2  setup.o(.text)
    USART1_Init                              0x08001899   Thumb Code     2  setup.o(.text)
    USART2_Init                              0x0800189d   Thumb Code     2  setup.o(.text)
    flashErase                               0x080018a1   Thumb Code    28  setup.o(.text)
    flashRead                                0x080018bd   Thumb Code     4  setup.o(.text)
    flashWrite                               0x080018c1   Thumb Code    52  setup.o(.text)
    flashWriteBuffer                         0x080018f5   Thumb Code    82  setup.o(.text)
    flashReadBuffer                          0x08001949   Thumb Code    34  setup.o(.text)
    ConfigReset                              0x0800196d   Thumb Code    38  setup.o(.text)
    ConfigWrite                              0x08001995   Thumb Code   142  setup.o(.text)
    ConfigRead                               0x08001a25   Thumb Code   120  setup.o(.text)
    SysTick_Handler                          0x08001a9d   Thumb Code    16  it.o(.text)
    ResetTimeout                             0x08001aad   Thumb Code    14  it.o(.text)
    TIMER13_IRQHandler                       0x08001abd   Thumb Code    76  it.o(.text)
    TIMER0_BRK_UP_TRG_COM_IRQHandler         0x08001b09   Thumb Code    88  it.o(.text)
    DMA_Channel0_IRQHandler                  0x08001b61   Thumb Code    94  it.o(.text)
    millis                                   0x08001bc1   Thumb Code    12  it.o(.text)
    Delay                                    0x08001bcd   Thumb Code    28  it.o(.text)
    NMI_Handler                              0x08001be9   Thumb Code     2  it.o(.text)
    HardFault_Handler                        0x08001bed   Thumb Code     2  it.o(.text)
    MemManage_Handler                        0x08001bf1   Thumb Code     2  it.o(.text)
    BusFault_Handler                         0x08001bf5   Thumb Code     2  it.o(.text)
    UsageFault_Handler                       0x08001bf9   Thumb Code     2  it.o(.text)
    SVC_Handler                              0x08001bfd   Thumb Code     2  it.o(.text)
    DebugMon_Handler                         0x08001c01   Thumb Code     2  it.o(.text)
    PendSV_Handler                           0x08001c05   Thumb Code     2  it.o(.text)
    RemoteUpdate                             0x08001c09   Thumb Code   110  remotedummy.o(.text)
    RemoteCallback                           0x08001c79   Thumb Code     2  remotedummy.o(.text)
    adc_deinit                               0x08001c7d   Thumb Code    22  gd32f1x0_adc.o(.text)
    adc_enable                               0x08001c95   Thumb Code    26  gd32f1x0_adc.o(.text)
    adc_disable                              0x08001cb1   Thumb Code    18  gd32f1x0_adc.o(.text)
    adc_calibration_enable                   0x08001cc5   Thumb Code    40  gd32f1x0_adc.o(.text)
    adc_dma_mode_enable                      0x08001ced   Thumb Code    18  gd32f1x0_adc.o(.text)
    adc_dma_mode_disable                     0x08001d01   Thumb Code    18  gd32f1x0_adc.o(.text)
    adc_tempsensor_vrefint_enable            0x08001d15   Thumb Code    18  gd32f1x0_adc.o(.text)
    adc_tempsensor_vrefint_disable           0x08001d29   Thumb Code    18  gd32f1x0_adc.o(.text)
    adc_vbat_enable                          0x08001d3d   Thumb Code    18  gd32f1x0_adc.o(.text)
    adc_vbat_disable                         0x08001d51   Thumb Code    18  gd32f1x0_adc.o(.text)
    adc_discontinuous_mode_config            0x08001d65   Thumb Code    68  gd32f1x0_adc.o(.text)
    adc_special_function_config              0x08001da9   Thumb Code   100  gd32f1x0_adc.o(.text)
    adc_data_alignment_config                0x08001e0d   Thumb Code    26  gd32f1x0_adc.o(.text)
    adc_channel_length_config                0x08001e29   Thumb Code    82  gd32f1x0_adc.o(.text)
    adc_regular_channel_config               0x08001e7d   Thumb Code   180  gd32f1x0_adc.o(.text)
    adc_inserted_channel_config              0x08001f31   Thumb Code   114  gd32f1x0_adc.o(.text)
    adc_inserted_channel_offset_config       0x08001fa5   Thumb Code    32  gd32f1x0_adc.o(.text)
    adc_external_trigger_config              0x08001fc5   Thumb Code    72  gd32f1x0_adc.o(.text)
    adc_external_trigger_source_config       0x0800200d   Thumb Code    42  gd32f1x0_adc.o(.text)
    adc_software_trigger_enable              0x08002039   Thumb Code    36  gd32f1x0_adc.o(.text)
    adc_regular_data_read                    0x0800205d   Thumb Code    14  gd32f1x0_adc.o(.text)
    adc_inserted_data_read                   0x0800206d   Thumb Code    74  gd32f1x0_adc.o(.text)
    adc_flag_get                             0x080020b9   Thumb Code    18  gd32f1x0_adc.o(.text)
    adc_flag_clear                           0x080020cd   Thumb Code    18  gd32f1x0_adc.o(.text)
    adc_interrupt_flag_get                   0x080020e1   Thumb Code    56  gd32f1x0_adc.o(.text)
    adc_interrupt_flag_clear                 0x08002119   Thumb Code    18  gd32f1x0_adc.o(.text)
    adc_interrupt_enable                     0x0800212d   Thumb Code    48  gd32f1x0_adc.o(.text)
    adc_interrupt_disable                    0x0800215d   Thumb Code    48  gd32f1x0_adc.o(.text)
    adc_watchdog_single_channel_enable       0x0800218d   Thumb Code    42  gd32f1x0_adc.o(.text)
    adc_watchdog_group_channel_enable        0x080021b9   Thumb Code    48  gd32f1x0_adc.o(.text)
    adc_watchdog_disable                     0x080021f5   Thumb Code    24  gd32f1x0_adc.o(.text)
    adc_watchdog_threshold_config            0x0800220d   Thumb Code    22  gd32f1x0_adc.o(.text)
    dma_deinit                               0x08002225   Thumb Code    48  gd32f1x0_dma.o(.text)
    dma_struct_para_init                     0x08002255   Thumb Code    24  gd32f1x0_dma.o(.text)
    dma_init                                 0x0800226d   Thumb Code   122  gd32f1x0_dma.o(.text)
    dma_circulation_enable                   0x080022e9   Thumb Code    24  gd32f1x0_dma.o(.text)
    dma_circulation_disable                  0x08002301   Thumb Code    24  gd32f1x0_dma.o(.text)
    dma_memory_to_memory_enable              0x08002319   Thumb Code    24  gd32f1x0_dma.o(.text)
    dma_memory_to_memory_disable             0x08002331   Thumb Code    24  gd32f1x0_dma.o(.text)
    dma_channel_enable                       0x08002349   Thumb Code    24  gd32f1x0_dma.o(.text)
    dma_channel_disable                      0x08002361   Thumb Code    24  gd32f1x0_dma.o(.text)
    dma_periph_address_config                0x08002379   Thumb Code    16  gd32f1x0_dma.o(.text)
    dma_memory_address_config                0x08002389   Thumb Code    16  gd32f1x0_dma.o(.text)
    dma_transfer_number_config               0x08002399   Thumb Code    16  gd32f1x0_dma.o(.text)
    dma_transfer_number_get                  0x080023a9   Thumb Code    16  gd32f1x0_dma.o(.text)
    dma_priority_config                      0x080023b9   Thumb Code    26  gd32f1x0_dma.o(.text)
    dma_memory_width_config                  0x080023d5   Thumb Code    26  gd32f1x0_dma.o(.text)
    dma_periph_width_config                  0x080023f1   Thumb Code    26  gd32f1x0_dma.o(.text)
    dma_memory_increase_enable               0x0800240d   Thumb Code    24  gd32f1x0_dma.o(.text)
    dma_memory_increase_disable              0x08002425   Thumb Code    24  gd32f1x0_dma.o(.text)
    dma_periph_increase_enable               0x0800243d   Thumb Code    24  gd32f1x0_dma.o(.text)
    dma_periph_increase_disable              0x08002455   Thumb Code    24  gd32f1x0_dma.o(.text)
    dma_transfer_direction_config            0x0800246d   Thumb Code    30  gd32f1x0_dma.o(.text)
    dma_interrupt_flag_get                   0x0800248d   Thumb Code    88  gd32f1x0_dma.o(.text)
    dma_interrupt_flag_clear                 0x08002525   Thumb Code    20  gd32f1x0_dma.o(.text)
    dma_interrupt_enable                     0x08002539   Thumb Code    22  gd32f1x0_dma.o(.text)
    dma_interrupt_disable                    0x08002551   Thumb Code    24  gd32f1x0_dma.o(.text)
    dma_flag_get                             0x08002569   Thumb Code    22  gd32f1x0_dma.o(.text)
    dma_flag_clear                           0x08002581   Thumb Code    20  gd32f1x0_dma.o(.text)
    exti_deinit                              0x08002595   Thumb Code    26  gd32f1x0_exti.o(.text)
    exti_init                                0x080025b1   Thumb Code   156  gd32f1x0_exti.o(.text)
    exti_interrupt_enable                    0x0800264d   Thumb Code    16  gd32f1x0_exti.o(.text)
    exti_event_enable                        0x0800265d   Thumb Code    16  gd32f1x0_exti.o(.text)
    exti_interrupt_disable                   0x0800266d   Thumb Code    18  gd32f1x0_exti.o(.text)
    exti_event_disable                       0x08002681   Thumb Code    18  gd32f1x0_exti.o(.text)
    exti_flag_get                            0x08002695   Thumb Code    18  gd32f1x0_exti.o(.text)
    exti_flag_clear                          0x080026a9   Thumb Code    12  gd32f1x0_exti.o(.text)
    exti_interrupt_flag_get                  0x080026b5   Thumb Code    32  gd32f1x0_exti.o(.text)
    exti_interrupt_flag_clear                0x080026d5   Thumb Code    12  gd32f1x0_exti.o(.text)
    exti_software_interrupt_enable           0x080026e1   Thumb Code    16  gd32f1x0_exti.o(.text)
    exti_software_interrupt_disable          0x080026f1   Thumb Code    18  gd32f1x0_exti.o(.text)
    fmc_unlock                               0x08002705   Thumb Code    38  gd32f1x0_fmc.o(.text)
    fmc_lock                                 0x0800272d   Thumb Code    18  gd32f1x0_fmc.o(.text)
    fmc_wscnt_set                            0x08002741   Thumb Code    20  gd32f1x0_fmc.o(.text)
    fmc_wait_state_enable                    0x08002755   Thumb Code    18  gd32f1x0_fmc.o(.text)
    fmc_wait_state_disable                   0x08002769   Thumb Code    18  gd32f1x0_fmc.o(.text)
    fmc_page_erase                           0x0800277d   Thumb Code   158  gd32f1x0_fmc.o(.text)
    fmc_mass_erase                           0x0800281d   Thumb Code   150  gd32f1x0_fmc.o(.text)
    fmc_word_program                         0x080028b5   Thumb Code   150  gd32f1x0_fmc.o(.text)
    fmc_halfword_program                     0x0800294d   Thumb Code   150  gd32f1x0_fmc.o(.text)
    ob_unlock                                0x080029e5   Thumb Code    38  gd32f1x0_fmc.o(.text)
    ob_lock                                  0x08002a0d   Thumb Code    18  gd32f1x0_fmc.o(.text)
    ob_reset                                 0x08002a21   Thumb Code    18  gd32f1x0_fmc.o(.text)
    ob_erase                                 0x08002a35   Thumb Code   294  gd32f1x0_fmc.o(.text)
    ob_obstat_plevel_get                     0x08002b5d   Thumb Code    16  gd32f1x0_fmc.o(.text)
    ob_write_protection_enable               0x08002b6d   Thumb Code   312  gd32f1x0_fmc.o(.text)
    ob_security_protection_config            0x08002ca5   Thumb Code   304  gd32f1x0_fmc.o(.text)
    ob_user_write                            0x08002dd5   Thumb Code   308  gd32f1x0_fmc.o(.text)
    ob_data_program                          0x08002f09   Thumb Code   304  gd32f1x0_fmc.o(.text)
    ob_user_get                              0x08003039   Thumb Code    16  gd32f1x0_fmc.o(.text)
    ob_data_get                              0x08003049   Thumb Code    14  gd32f1x0_fmc.o(.text)
    ob_write_protection_get                  0x08003059   Thumb Code    14  gd32f1x0_fmc.o(.text)
    fmc_interrupt_enable                     0x08003069   Thumb Code    16  gd32f1x0_fmc.o(.text)
    fmc_interrupt_disable                    0x08003079   Thumb Code    18  gd32f1x0_fmc.o(.text)
    fmc_flag_get                             0x0800308d   Thumb Code    18  gd32f1x0_fmc.o(.text)
    fmc_flag_clear                           0x080030a1   Thumb Code    16  gd32f1x0_fmc.o(.text)
    fmc_interrupt_flag_get                   0x080030b1   Thumb Code    18  gd32f1x0_fmc.o(.text)
    fmc_interrupt_flag_clear                 0x080030c5   Thumb Code    16  gd32f1x0_fmc.o(.text)
    fwdgt_write_disable                      0x080030d5   Thumb Code    14  gd32f1x0_fwdgt.o(.text)
    fwdgt_counter_reload                     0x080030e5   Thumb Code    16  gd32f1x0_fwdgt.o(.text)
    fwdgt_enable                             0x080030f5   Thumb Code    16  gd32f1x0_fwdgt.o(.text)
    fwdgt_window_value_config                0x08003105   Thumb Code    58  gd32f1x0_fwdgt.o(.text)
    fwdgt_config                             0x08003141   Thumb Code   100  gd32f1x0_fwdgt.o(.text)
    fwdgt_flag_get                           0x080031a5   Thumb Code    18  gd32f1x0_fwdgt.o(.text)
    gpio_deinit                              0x080031b9   Thumb Code    58  gd32f1x0_gpio.o(.text)
    gpio_mode_set                            0x080031f5   Thumb Code    84  gd32f1x0_gpio.o(.text)
    gpio_output_options_set                  0x08003249   Thumb Code    70  gd32f1x0_gpio.o(.text)
    gpio_bit_set                             0x08003291   Thumb Code     4  gd32f1x0_gpio.o(.text)
    gpio_bit_reset                           0x08003295   Thumb Code     4  gd32f1x0_gpio.o(.text)
    gpio_bit_write                           0x08003299   Thumb Code    12  gd32f1x0_gpio.o(.text)
    gpio_port_write                          0x080032a5   Thumb Code     4  gd32f1x0_gpio.o(.text)
    gpio_input_bit_get                       0x080032a9   Thumb Code    10  gd32f1x0_gpio.o(.text)
    gpio_input_port_get                      0x080032b5   Thumb Code     6  gd32f1x0_gpio.o(.text)
    gpio_output_bit_get                      0x080032bd   Thumb Code    10  gd32f1x0_gpio.o(.text)
    gpio_output_port_get                     0x080032c9   Thumb Code     6  gd32f1x0_gpio.o(.text)
    gpio_af_set                              0x080032d1   Thumb Code   110  gd32f1x0_gpio.o(.text)
    gpio_pin_lock                            0x08003341   Thumb Code    16  gd32f1x0_gpio.o(.text)
    nvic_priority_group_set                  0x08003351   Thumb Code    20  gd32f1x0_misc.o(.text)
    nvic_irq_enable                          0x08003365   Thumb Code   168  gd32f1x0_misc.o(.text)
    nvic_irq_disable                         0x0800340d   Thumb Code    28  gd32f1x0_misc.o(.text)
    nvic_vector_table_set                    0x08003429   Thumb Code    24  gd32f1x0_misc.o(.text)
    system_lowpower_set                      0x08003441   Thumb Code    16  gd32f1x0_misc.o(.text)
    system_lowpower_reset                    0x08003451   Thumb Code    18  gd32f1x0_misc.o(.text)
    systick_clksource_set                    0x08003465   Thumb Code    24  gd32f1x0_misc.o(.text)
    rcu_deinit                               0x0800347d   Thumb Code   112  gd32f1x0_rcu.o(.text)
    rcu_periph_clock_enable                  0x080034ed   Thumb Code    30  gd32f1x0_rcu.o(.text)
    rcu_periph_clock_disable                 0x0800350d   Thumb Code    32  gd32f1x0_rcu.o(.text)
    rcu_periph_clock_sleep_enable            0x0800352d   Thumb Code    30  gd32f1x0_rcu.o(.text)
    rcu_periph_clock_sleep_disable           0x0800354d   Thumb Code    32  gd32f1x0_rcu.o(.text)
    rcu_periph_reset_enable                  0x0800356d   Thumb Code    30  gd32f1x0_rcu.o(.text)
    rcu_periph_reset_disable                 0x0800358d   Thumb Code    32  gd32f1x0_rcu.o(.text)
    rcu_bkp_reset_enable                     0x080035ad   Thumb Code    18  gd32f1x0_rcu.o(.text)
    rcu_bkp_reset_disable                    0x080035c1   Thumb Code    18  gd32f1x0_rcu.o(.text)
    rcu_system_clock_source_config           0x080035d5   Thumb Code    20  gd32f1x0_rcu.o(.text)
    rcu_system_clock_source_get              0x080035e9   Thumb Code    16  gd32f1x0_rcu.o(.text)
    rcu_ahb_clock_config                     0x080035f9   Thumb Code    20  gd32f1x0_rcu.o(.text)
    rcu_apb1_clock_config                    0x0800360d   Thumb Code    20  gd32f1x0_rcu.o(.text)
    rcu_apb2_clock_config                    0x08003621   Thumb Code    20  gd32f1x0_rcu.o(.text)
    rcu_adc_clock_config                     0x08003635   Thumb Code    88  gd32f1x0_rcu.o(.text)
    rcu_usbd_clock_config                    0x0800368d   Thumb Code    24  gd32f1x0_rcu.o(.text)
    rcu_ckout_config                         0x080036a5   Thumb Code    22  gd32f1x0_rcu.o(.text)
    rcu_pll_config                           0x080036bd   Thumb Code    40  gd32f1x0_rcu.o(.text)
    rcu_usart_clock_config                   0x080036e5   Thumb Code    24  gd32f1x0_rcu.o(.text)
    rcu_cec_clock_config                     0x080036fd   Thumb Code    24  gd32f1x0_rcu.o(.text)
    rcu_rtc_clock_config                     0x08003715   Thumb Code    24  gd32f1x0_rcu.o(.text)
    rcu_hxtal_prediv_config                  0x0800372d   Thumb Code    20  gd32f1x0_rcu.o(.text)
    rcu_lxtal_drive_capability_config        0x08003741   Thumb Code    24  gd32f1x0_rcu.o(.text)
    rcu_flag_get                             0x08003759   Thumb Code    26  gd32f1x0_rcu.o(.text)
    rcu_all_reset_flag_clear                 0x08003775   Thumb Code    18  gd32f1x0_rcu.o(.text)
    rcu_interrupt_flag_get                   0x08003789   Thumb Code    18  gd32f1x0_rcu.o(.text)
    rcu_interrupt_flag_clear                 0x0800379d   Thumb Code    16  gd32f1x0_rcu.o(.text)
    rcu_interrupt_enable                     0x080037ad   Thumb Code    16  gd32f1x0_rcu.o(.text)
    rcu_interrupt_disable                    0x080037bd   Thumb Code    18  gd32f1x0_rcu.o(.text)
    rcu_osci_stab_wait                       0x080037d1   Thumb Code   312  gd32f1x0_rcu.o(.text)
    rcu_osci_on                              0x08003909   Thumb Code    30  gd32f1x0_rcu.o(.text)
    rcu_osci_off                             0x08003929   Thumb Code    32  gd32f1x0_rcu.o(.text)
    rcu_osci_bypass_mode_enable              0x08003949   Thumb Code    64  gd32f1x0_rcu.o(.text)
    rcu_osci_bypass_mode_disable             0x08003989   Thumb Code    64  gd32f1x0_rcu.o(.text)
    rcu_hxtal_clock_monitor_enable           0x080039c9   Thumb Code    18  gd32f1x0_rcu.o(.text)
    rcu_hxtal_clock_monitor_disable          0x080039dd   Thumb Code    18  gd32f1x0_rcu.o(.text)
    rcu_irc8m_adjust_value_set               0x080039f1   Thumb Code    22  gd32f1x0_rcu.o(.text)
    rcu_irc14m_adjust_value_set              0x08003a09   Thumb Code    22  gd32f1x0_rcu.o(.text)
    rcu_voltage_key_unlock                   0x08003a21   Thumb Code    30  gd32f1x0_rcu.o(.text)
    rcu_deepsleep_voltage_set                0x08003a41   Thumb Code    24  gd32f1x0_rcu.o(.text)
    rcu_power_down_voltage_set               0x08003a59   Thumb Code    24  gd32f1x0_rcu.o(.text)
    rcu_clock_freq_get                       0x08003a71   Thumb Code   288  gd32f1x0_rcu.o(.text)
    syscfg_deinit                            0x08003ba1   Thumb Code    22  gd32f1x0_syscfg.o(.text)
    syscfg_dma_remap_enable                  0x08003bb9   Thumb Code    14  gd32f1x0_syscfg.o(.text)
    syscfg_dma_remap_disable                 0x08003bc9   Thumb Code    16  gd32f1x0_syscfg.o(.text)
    syscfg_high_current_enable               0x08003bd9   Thumb Code    16  gd32f1x0_syscfg.o(.text)
    syscfg_high_current_disable              0x08003be9   Thumb Code    16  gd32f1x0_syscfg.o(.text)
    syscfg_exti_line_config                  0x08003bf9   Thumb Code   124  gd32f1x0_syscfg.o(.text)
    syscfg_lock_config                       0x08003c75   Thumb Code    14  gd32f1x0_syscfg.o(.text)
    syscfg_flag_get                          0x08003c85   Thumb Code    16  gd32f1x0_syscfg.o(.text)
    syscfg_flag_clear                        0x08003c95   Thumb Code    14  gd32f1x0_syscfg.o(.text)
    timer_deinit                             0x08003ca5   Thumb Code   194  gd32f1x0_timer.o(.text)
    timer_struct_para_init                   0x08003d69   Thumb Code    16  gd32f1x0_timer.o(.text)
    timer_init                               0x08003d79   Thumb Code   216  gd32f1x0_timer.o(.text)
    timer_enable                             0x08003e51   Thumb Code    10  gd32f1x0_timer.o(.text)
    timer_disable                            0x08003e5d   Thumb Code    10  gd32f1x0_timer.o(.text)
    timer_auto_reload_shadow_enable          0x08003e69   Thumb Code    10  gd32f1x0_timer.o(.text)
    timer_auto_reload_shadow_disable         0x08003e75   Thumb Code    10  gd32f1x0_timer.o(.text)
    timer_update_event_enable                0x08003e81   Thumb Code    10  gd32f1x0_timer.o(.text)
    timer_update_event_disable               0x08003e8d   Thumb Code    10  gd32f1x0_timer.o(.text)
    timer_counter_alignment                  0x08003e99   Thumb Code    16  gd32f1x0_timer.o(.text)
    timer_counter_up_direction               0x08003ea9   Thumb Code    10  gd32f1x0_timer.o(.text)
    timer_counter_down_direction             0x08003eb5   Thumb Code    10  gd32f1x0_timer.o(.text)
    timer_prescaler_config                   0x08003ec1   Thumb Code    18  gd32f1x0_timer.o(.text)
    timer_repetition_value_config            0x08003ed5   Thumb Code     4  gd32f1x0_timer.o(.text)
    timer_autoreload_value_config            0x08003ed9   Thumb Code     4  gd32f1x0_timer.o(.text)
    timer_counter_value_config               0x08003edd   Thumb Code     4  gd32f1x0_timer.o(.text)
    timer_counter_read                       0x08003ee1   Thumb Code     4  gd32f1x0_timer.o(.text)
    timer_prescaler_read                     0x08003ee5   Thumb Code     6  gd32f1x0_timer.o(.text)
    timer_single_pulse_mode_config           0x08003eed   Thumb Code    30  gd32f1x0_timer.o(.text)
    timer_update_source_config               0x08003f0d   Thumb Code    30  gd32f1x0_timer.o(.text)
    timer_ocpre_clear_source_config          0x08003f2d   Thumb Code    28  gd32f1x0_timer.o(.text)
    timer_interrupt_enable                   0x08003f49   Thumb Code     8  gd32f1x0_timer.o(.text)
    timer_interrupt_disable                  0x08003f51   Thumb Code    10  gd32f1x0_timer.o(.text)
    timer_interrupt_flag_get                 0x08003f5d   Thumb Code    22  gd32f1x0_timer.o(.text)
    timer_interrupt_flag_clear               0x08003f75   Thumb Code     6  gd32f1x0_timer.o(.text)
    timer_flag_get                           0x08003f7d   Thumb Code    10  gd32f1x0_timer.o(.text)
    timer_flag_clear                         0x08003f89   Thumb Code     6  gd32f1x0_timer.o(.text)
    timer_dma_enable                         0x08003f91   Thumb Code     8  gd32f1x0_timer.o(.text)
    timer_dma_disable                        0x08003f99   Thumb Code    10  gd32f1x0_timer.o(.text)
    timer_channel_dma_request_source_select  0x08003fa5   Thumb Code    30  gd32f1x0_timer.o(.text)
    timer_dma_transfer_config                0x08003fc5   Thumb Code    24  gd32f1x0_timer.o(.text)
    timer_event_software_generate            0x08003fdd   Thumb Code     8  gd32f1x0_timer.o(.text)
    timer_break_struct_para_init             0x08003fe5   Thumb Code    16  gd32f1x0_timer.o(.text)
    timer_break_config                       0x08003ff5   Thumb Code    36  gd32f1x0_timer.o(.text)
    timer_break_enable                       0x08004019   Thumb Code    10  gd32f1x0_timer.o(.text)
    timer_break_disable                      0x08004025   Thumb Code    10  gd32f1x0_timer.o(.text)
    timer_automatic_output_enable            0x08004031   Thumb Code    10  gd32f1x0_timer.o(.text)
    timer_automatic_output_disable           0x0800403d   Thumb Code    10  gd32f1x0_timer.o(.text)
    timer_primary_output_config              0x08004049   Thumb Code    18  gd32f1x0_timer.o(.text)
    timer_channel_control_shadow_config      0x0800405d   Thumb Code    16  gd32f1x0_timer.o(.text)
    timer_channel_control_shadow_update_config 0x0800406d   Thumb Code    30  gd32f1x0_timer.o(.text)
    timer_channel_output_struct_para_init    0x0800408d   Thumb Code    12  gd32f1x0_timer.o(.text)
    timer_channel_output_config              0x08004099   Thumb Code   562  gd32f1x0_timer.o(.text)
    timer_channel_output_mode_config         0x080042cd   Thumb Code    56  gd32f1x0_timer.o(.text)
    timer_channel_output_pulse_value_config  0x08004305   Thumb Code    16  gd32f1x0_timer.o(.text)
    timer_channel_output_shadow_config       0x08004315   Thumb Code    56  gd32f1x0_timer.o(.text)
    timer_channel_output_fast_config         0x0800434d   Thumb Code    56  gd32f1x0_timer.o(.text)
    timer_channel_output_clear_config        0x08004385   Thumb Code    56  gd32f1x0_timer.o(.text)
    timer_channel_output_polarity_config     0x080043bd   Thumb Code    68  gd32f1x0_timer.o(.text)
    timer_channel_complementary_output_polarity_config 0x08004401   Thumb Code    68  gd32f1x0_timer.o(.text)
    timer_channel_output_state_config        0x08004445   Thumb Code    68  gd32f1x0_timer.o(.text)
    timer_channel_complementary_output_state_config 0x08004489   Thumb Code    56  gd32f1x0_timer.o(.text)
    timer_channel_input_struct_para_init     0x080044c1   Thumb Code    12  gd32f1x0_timer.o(.text)
    timer_input_capture_config               0x080044cd   Thumb Code   350  gd32f1x0_timer.o(.text)
    timer_channel_input_capture_prescaler_config 0x0800462d   Thumb Code    56  gd32f1x0_timer.o(.text)
    timer_channel_capture_value_register_read 0x08004665   Thumb Code    18  gd32f1x0_timer.o(.text)
    timer_input_pwm_capture_config           0x08004679   Thumb Code   354  gd32f1x0_timer.o(.text)
    timer_hall_mode_config                   0x080047dd   Thumb Code    30  gd32f1x0_timer.o(.text)
    timer_input_trigger_source_select        0x080047fd   Thumb Code    16  gd32f1x0_timer.o(.text)
    timer_master_output_trigger_source_select 0x0800480d   Thumb Code    16  gd32f1x0_timer.o(.text)
    timer_slave_mode_select                  0x0800481d   Thumb Code    16  gd32f1x0_timer.o(.text)
    timer_master_slave_mode_config           0x0800482d   Thumb Code    30  gd32f1x0_timer.o(.text)
    timer_external_trigger_config            0x0800484d   Thumb Code    34  gd32f1x0_timer.o(.text)
    timer_quadrature_decoder_mode_config     0x08004871   Thumb Code    78  gd32f1x0_timer.o(.text)
    timer_internal_clock_config              0x080048c1   Thumb Code    10  gd32f1x0_timer.o(.text)
    timer_internal_trigger_as_external_clock_config 0x080048cd   Thumb Code    32  gd32f1x0_timer.o(.text)
    timer_external_trigger_as_external_clock_config 0x080048ed   Thumb Code   152  gd32f1x0_timer.o(.text)
    timer_external_clock_mode0_config        0x08004985   Thumb Code    50  gd32f1x0_timer.o(.text)
    timer_external_clock_mode1_config        0x080049b9   Thumb Code    42  gd32f1x0_timer.o(.text)
    timer_external_clock_mode1_disable       0x080049e5   Thumb Code    10  gd32f1x0_timer.o(.text)
    timer_channel_remap_config               0x080049f1   Thumb Code     4  gd32f1x0_timer.o(.text)
    Reset_Handler                            0x080049f5   Thumb Code     8  startup_gd32f1x0.o(.text)
    ADC_CMP_IRQHandler                       0x08004a0f   Thumb Code     0  startup_gd32f1x0.o(.text)
    CAN0_RX0_IRQHandler                      0x08004a0f   Thumb Code     0  startup_gd32f1x0.o(.text)
    CAN0_RX1_IRQHandler                      0x08004a0f   Thumb Code     0  startup_gd32f1x0.o(.text)
    CAN0_SCE_IRQHandler                      0x08004a0f   Thumb Code     0  startup_gd32f1x0.o(.text)
    CAN0_TX_IRQHandler                       0x08004a0f   Thumb Code     0  startup_gd32f1x0.o(.text)
    CAN1_RX0_IRQHandler                      0x08004a0f   Thumb Code     0  startup_gd32f1x0.o(.text)
    CAN1_RX1_IRQHandler                      0x08004a0f   Thumb Code     0  startup_gd32f1x0.o(.text)
    CAN1_SCE_IRQHandler                      0x08004a0f   Thumb Code     0  startup_gd32f1x0.o(.text)
    CAN1_TX_IRQHandler                       0x08004a0f   Thumb Code     0  startup_gd32f1x0.o(.text)
    CEC_IRQHandler                           0x08004a0f   Thumb Code     0  startup_gd32f1x0.o(.text)
    DMA_Channel1_2_IRQHandler                0x08004a0f   Thumb Code     0  startup_gd32f1x0.o(.text)
    DMA_Channel3_4_IRQHandler                0x08004a0f   Thumb Code     0  startup_gd32f1x0.o(.text)
    DMA_Channel5_6_IRQHandler                0x08004a0f   Thumb Code     0  startup_gd32f1x0.o(.text)
    FMC_IRQHandler                           0x08004a0f   Thumb Code     0  startup_gd32f1x0.o(.text)
    I2C0_ER_IRQHandler                       0x08004a0f   Thumb Code     0  startup_gd32f1x0.o(.text)
    I2C0_EV_IRQHandler                       0x08004a0f   Thumb Code     0  startup_gd32f1x0.o(.text)
    I2C1_ER_IRQHandler                       0x08004a0f   Thumb Code     0  startup_gd32f1x0.o(.text)
    I2C1_EV_IRQHandler                       0x08004a0f   Thumb Code     0  startup_gd32f1x0.o(.text)
    I2C2_ER_IRQHandler                       0x08004a0f   Thumb Code     0  startup_gd32f1x0.o(.text)
    I2C2_EV_IRQHandler                       0x08004a0f   Thumb Code     0  startup_gd32f1x0.o(.text)
    LVD_IRQHandler                           0x08004a0f   Thumb Code     0  startup_gd32f1x0.o(.text)
    RCU_IRQHandler                           0x08004a0f   Thumb Code     0  startup_gd32f1x0.o(.text)
    RTC_IRQHandler                           0x08004a0f   Thumb Code     0  startup_gd32f1x0.o(.text)
    SLCD_IRQHandler                          0x08004a0f   Thumb Code     0  startup_gd32f1x0.o(.text)
    SPI0_IRQHandler                          0x08004a0f   Thumb Code     0  startup_gd32f1x0.o(.text)
    SPI1_IRQHandler                          0x08004a0f   Thumb Code     0  startup_gd32f1x0.o(.text)
    SPI2_IRQHandler                          0x08004a0f   Thumb Code     0  startup_gd32f1x0.o(.text)
    TIMER0_Channel_IRQHandler                0x08004a0f   Thumb Code     0  startup_gd32f1x0.o(.text)
    TIMER14_IRQHandler                       0x08004a0f   Thumb Code     0  startup_gd32f1x0.o(.text)
    TIMER15_IRQHandler                       0x08004a0f   Thumb Code     0  startup_gd32f1x0.o(.text)
    TIMER16_IRQHandler                       0x08004a0f   Thumb Code     0  startup_gd32f1x0.o(.text)
    TIMER1_IRQHandler                        0x08004a0f   Thumb Code     0  startup_gd32f1x0.o(.text)
    TIMER2_IRQHandler                        0x08004a0f   Thumb Code     0  startup_gd32f1x0.o(.text)
    TIMER5_DAC_IRQHandler                    0x08004a0f   Thumb Code     0  startup_gd32f1x0.o(.text)
    TSI_IRQHandler                           0x08004a0f   Thumb Code     0  startup_gd32f1x0.o(.text)
    USART0_IRQHandler                        0x08004a0f   Thumb Code     0  startup_gd32f1x0.o(.text)
    USART1_IRQHandler                        0x08004a0f   Thumb Code     0  startup_gd32f1x0.o(.text)
    USBDWakeUp_IRQHandler                    0x08004a0f   Thumb Code     0  startup_gd32f1x0.o(.text)
    USBD_HP_IRQHandler                       0x08004a0f   Thumb Code     0  startup_gd32f1x0.o(.text)
    USBD_LP_IRQHandler                       0x08004a0f   Thumb Code     0  startup_gd32f1x0.o(.text)
    WWDGT_IRQHandler                         0x08004a0f   Thumb Code     0  startup_gd32f1x0.o(.text)
    SystemInit                               0x08004a19   Thumb Code   188  system_gd32f1x0.o(.text)
    SystemCoreClockUpdate                    0x08004ad5   Thumb Code   112  system_gd32f1x0.o(.text)
    __aeabi_fadd                             0x08004b55   Thumb Code   164  fadd.o(.text)
    __aeabi_fsub                             0x08004bf9   Thumb Code     6  fadd.o(.text)
    __aeabi_frsub                            0x08004bff   Thumb Code     6  fadd.o(.text)
    __aeabi_fmul                             0x08004c05   Thumb Code   100  fmul.o(.text)
    __aeabi_fdiv                             0x08004c69   Thumb Code   124  fdiv.o(.text)
    __aeabi_dadd                             0x08004ce5   Thumb Code   322  dadd.o(.text)
    __aeabi_dsub                             0x08004e27   Thumb Code     6  dadd.o(.text)
    __aeabi_drsub                            0x08004e2d   Thumb Code     6  dadd.o(.text)
    __aeabi_dmul                             0x08004e33   Thumb Code   228  dmul.o(.text)
    __aeabi_ddiv                             0x08004f17   Thumb Code   222  ddiv.o(.text)
    __aeabi_fcmple                           0x08004ff5   Thumb Code    28  fcmple.o(.text)
    __aeabi_fcmplt                           0x08005011   Thumb Code    28  fcmplt.o(.text)
    __aeabi_fcmpge                           0x0800502d   Thumb Code    28  fcmpge.o(.text)
    __aeabi_fcmpgt                           0x08005049   Thumb Code    28  fcmpgt.o(.text)
    __aeabi_i2f                              0x08005065   Thumb Code    18  fflti.o(.text)
    __aeabi_ui2f                             0x08005077   Thumb Code    10  ffltui.o(.text)
    __aeabi_i2d                              0x08005081   Thumb Code    34  dflti.o(.text)
    __aeabi_ui2d                             0x080050a3   Thumb Code    26  dfltui.o(.text)
    __aeabi_f2iz                             0x080050bd   Thumb Code    50  ffixi.o(.text)
    __aeabi_d2iz                             0x080050ef   Thumb Code    62  dfixi.o(.text)
    __aeabi_f2d                              0x0800512d   Thumb Code    38  f2d.o(.text)
    __aeabi_d2f                              0x08005153   Thumb Code    56  d2f.o(.text)
    __aeabi_llsl                             0x0800518b   Thumb Code    30  llshl.o(.text)
    _ll_shift_l                              0x0800518b   Thumb Code     0  llshl.o(.text)
    __aeabi_llsr                             0x080051a9   Thumb Code    32  llushr.o(.text)
    _ll_ushift_r                             0x080051a9   Thumb Code     0  llushr.o(.text)
    __aeabi_lasr                             0x080051c9   Thumb Code    36  llsshr.o(.text)
    _ll_sshift_r                             0x080051c9   Thumb Code     0  llsshr.o(.text)
    __I$use$fp                               0x080051ed   Thumb Code     0  iusefp.o(.text)
    _float_round                             0x080051ed   Thumb Code    18  fepilogue.o(.text)
    _float_epilogue                          0x080051ff   Thumb Code    92  fepilogue.o(.text)
    _double_round                            0x0800525b   Thumb Code    30  depilogue.o(.text)
    _double_epilogue                         0x08005279   Thumb Code   156  depilogue.o(.text)
    __scatterload                            0x08005315   Thumb Code    38  init.o(.text)
    __scatterload_rt2                        0x08005315   Thumb Code     0  init.o(.text)
    __scatterload_copy                       0x08005345   Thumb Code    14  handlers.o(i.__scatterload_copy)
    __scatterload_null                       0x08005353   Thumb Code     2  handlers.o(i.__scatterload_null)
    __scatterload_zeroinit                   0x08005355   Thumb Code    14  handlers.o(i.__scatterload_zeroinit)
    hall_to_pos                              0x0800538a   Data           8  bldc.o(.rodata.hall_to_pos)
    lookUpTableAngle                         0x08005394   Data         724  main.o(.rodata.lookUpTableAngle)
    Region$$Table$$Base                      0x08005938   Number         0  anon$$obj.o(Region$$Table)
    Region$$Table$$Limit                     0x08005958   Number         0  anon$$obj.o(Region$$Table)
    SystemCoreClock                          0x20000000   Data           4  system_gd32f1x0.o(.data.SystemCoreClock)
    batteryVoltage                           0x20000004   Data           4  bldc.o(.data.batteryVoltage)
    beepsBackwards                           0x20000008   Data           1  main.o(.data.beepsBackwards)
    currentDC                                0x2000000c   Data           4  bldc.o(.data.currentDC)
    iFILTER_SHIFT                            0x20000010   Data           1  bldc.o(.data.iFILTER_SHIFT)
    offsetdc                                 0x20000012   Data           2  bldc.o(.data.offsetdc)
    speedLimit                               0x20000014   Data           2  main.o(.data.speedLimit)
    wState                                   0x20000016   Data           1  main.o(.data.wState)
    aHallEXTI                                0x20000018   Data          12  bldcsine.o(.bss.aHallEXTI)
    adc_buffer                               0x20000024   Data           4  bldc.o(.bss.adc_buffer)
    angle_deg                                0x20000028   Data           4  bldcsine.o(.bss.angle_deg)
    angle_deg_add                            0x2000002c   Data           4  bldcsine.o(.bss.angle_deg_add)
    angle_deg_final                          0x20000030   Data           4  bldcsine.o(.bss.angle_deg_final)
    angle_idx                                0x20000034   Data           2  bldcsine.o(.bss.angle_idx)
    bInterrupt                               0x20000036   Data           1  bldcsine.o(.bss.bInterrupt)
    bldc_enable                              0x20000037   Data           1  bldc.o(.bss.bldc_enable)
    bldc_inputFilterPwm                      0x20000038   Data           2  bldc.o(.bss.bldc_inputFilterPwm)
    bldc_outputFilterPwm                     0x2000003a   Data           2  bldc.o(.bss.bldc_outputFilterPwm)
    buzzerFreq                               0x2000003c   Data           1  bldc.o(.bss.buzzerFreq)
    buzzerPattern                            0x2000003d   Data           1  bldc.o(.bss.buzzerPattern)
    buzzerTimer                              0x2000003e   Data           2  bldc.o(.bss.buzzerTimer)
    buzzerToggle                             0x20000040   Data           1  bldc.o(.bss.buzzerToggle)
    dma_init_struct_adc                      0x20000044   Data          36  setup.o(.bss.dma_init_struct_adc)
    enable                                   0x20000068   Data           1  main.o(.bss.enable)
    fDT                                      0x2000006c   Data           4  bldcsine.o(.bss.fDT)
    fGradient                                0x20000070   Data           4  bldcsine.o(.bss.fGradient)
    fGradientX                               0x20000074   Data           4  bldcsine.o(.bss.fGradientX)
    filter_reg                               0x20000078   Data           4  bldc.o(.bss.filter_reg)
    hall                                     0x2000007c   Data           1  bldc.o(.bss.hall)
    hall_a                                   0x2000007d   Data           1  bldc.o(.bss.hall_a)
    hall_b                                   0x2000007e   Data           1  bldc.o(.bss.hall_b)
    hall_c                                   0x2000007f   Data           1  bldc.o(.bss.hall_c)
    hall_last                                0x20000080   Data           1  bldcsine.o(.bss.hall_last)
    hall_time_last                           0x20000082   Data           2  bldcsine.o(.bss.hall_time_last)
    hall_time_step                           0x20000084   Data           2  bldcsine.o(.bss.hall_time_step)
    hall_time_step_LP                        0x20000088   Data           4  bldcsine.o(.bss.hall_time_step_LP)
    hall_time_step_LPR                       0x2000008c   Data           4  bldcsine.o(.bss.hall_time_step_LPR)
    iAdcCounter                              0x20000090   Data           4  it.o(.bss.iAdcCounter)
    iAdcTicks                                0x20000094   Data           4  it.o(.bss.iAdcTicks)
    iAdcTicks0                               0x20000098   Data           4  it.o(.bss.iAdcTicks0)
    iBug                                     0x2000009c   Data           4  main.o(.bss.iBug)
    iDT                                      0x200000a0   Data           2  bldcsine.o(.bss.iDT)
    iOdom                                    0x200000a4   Data           4  bldc.o(.bss.iOdom)
    iPwmCounter                              0x200000a8   Data           4  it.o(.bss.iPwmCounter)
    iPwmTicks                                0x200000ac   Data           4  it.o(.bss.iPwmTicks)
    iPwmTicks0                               0x200000b0   Data           4  it.o(.bss.iPwmTicks0)
    iTimeNextLoop                            0x200000b4   Data           4  main.o(.bss.iTimeNextLoop)
    inactivity_timeout_counter               0x200000b8   Data           4  main.o(.bss.inactivity_timeout_counter)
    lastPos                                  0x200000bc   Data           1  bldc.o(.bss.lastPos)
    msTicks                                  0x200000c0   Data           4  it.o(.bss.msTicks)
    oConfig                                  0x200000c4   Data          20  setup.o(.bss.oConfig)
    offsetcount                              0x200000d8   Data           2  bldc.o(.bss.offsetcount)
    pos                                      0x200000da   Data           1  bldc.o(.bss.pos)
    pwmGo                                    0x200000dc   Data           4  bldcsine.o(.bss.pwmGo)
    pwmSlave                                 0x200000e0   Data           2  main.o(.bss.pwmSlave)
    realSpeed                                0x200000e4   Data           4  bldc.o(.bss.realSpeed)
    sector                                   0x200000e8   Data           1  bldcsine.o(.bss.sector)
    sector10x                                0x200000e9   Data           1  bldcsine.o(.bss.sector10x)
    sectorChange                             0x200000ea   Data           1  bldcsine.o(.bss.sectorChange)
    speed                                    0x200000ec   Data           4  main.o(.bss.speed)
    speedCounter                             0x200000f0   Data           4  bldc.o(.bss.speedCounter)
    speedShutoff                             0x200000f4   Data           4  main.o(.bss.speedShutoff)
    steer                                    0x200000f8   Data           4  main.o(.bss.steer)
    steerCounter                             0x200000fc   Data           4  main.o(.bss.steerCounter)
    timedOut                                 0x20000100   Data           1  it.o(.bss.timedOut)
    timeoutCounter_ms                        0x20000104   Data           4  it.o(.bss.timeoutCounter_ms)
    timeoutTimer_paramter_struct             0x20000108   Data          16  setup.o(.bss.timeoutTimer_paramter_struct)
    timerBldc_break_parameter_struct         0x20000118   Data          24  setup.o(.bss.timerBldc_break_parameter_struct)
    timerBldc_oc_parameter_struct            0x20000130   Data          16  setup.o(.bss.timerBldc_oc_parameter_struct)
    timerBldc_paramter_struct                0x20000140   Data          16  setup.o(.bss.timerBldc_paramter_struct)
    __initial_sp                             0x20000550   Data           0  startup_gd32f1x0.o(STACK)



==============================================================================

Memory Map of the image

  Image Entry point : 0x08000169

  Load Region LR_IROM1 (Base: 0x08000000, Size: 0x00005970, Max: 0x00010000, ABSOLUTE)

    Execution Region ER_IROM1 (Exec base: 0x08000000, Load base: 0x08000000, Size: 0x00005958, Max: 0x00010000, ABSOLUTE)

    Exec Addr    Load Addr    Size         Type   Attr      Idx    E Section Name        Object

    0x08000000   0x08000000   0x00000168   Data   RO          296    RESET               startup_gd32f1x0.o
    0x08000168   0x08000168   0x00000000   Code   RO          313  * .ARM.Collect$$$$00000000  mc_w.l(entry.o)
    0x08000168   0x08000168   0x00000004   Code   RO          352    .ARM.Collect$$$$00000001  mc_w.l(entry2.o)
    0x0800016c   0x0800016c   0x00000004   Code   RO          355    .ARM.Collect$$$$00000004  mc_w.l(entry5.o)
    0x08000170   0x08000170   0x00000000   Code   RO          357    .ARM.Collect$$$$00000008  mc_w.l(entry7b.o)
    0x08000170   0x08000170   0x00000000   Code   RO          359    .ARM.Collect$$$$0000000A  mc_w.l(entry8b.o)
    0x08000170   0x08000170   0x00000008   Code   RO          360    .ARM.Collect$$$$0000000B  mc_w.l(entry9a.o)
    0x08000178   0x08000178   0x00000000   Code   RO          362    .ARM.Collect$$$$0000000D  mc_w.l(entry10a.o)
    0x08000178   0x08000178   0x00000000   Code   RO          364    .ARM.Collect$$$$0000000F  mc_w.l(entry11a.o)
    0x08000178   0x08000178   0x00000004   Code   RO          353    .ARM.Collect$$$$00002712  mc_w.l(entry2.o)
    0x0800017c   0x0800017c   0x00000798   Code   RO            1    .text               main.o
    0x08000914   0x08000914   0x00000508   Code   RO           27    .text               bldc.o
    0x08000e1c   0x08000e1c   0x0000042e   Code   RO           62    .text               bldcsine.o
    0x0800124a   0x0800124a   0x00000002   PAD
    0x0800124c   0x0800124c   0x00000850   Code   RO           92    .text               setup.o
    0x08001a9c   0x08001a9c   0x0000016a   Code   RO          111    .text               it.o
    0x08001c06   0x08001c06   0x00000002   PAD
    0x08001c08   0x08001c08   0x00000072   Code   RO          143    .text               remotedummy.o
    0x08001c7a   0x08001c7a   0x00000002   PAD
    0x08001c7c   0x08001c7c   0x000005a6   Code   RO          165    .text               gd32f1x0_adc.o
    0x08002222   0x08002222   0x00000002   PAD
    0x08002224   0x08002224   0x00000370   Code   RO          181    .text               gd32f1x0_dma.o
    0x08002594   0x08002594   0x0000016e   Code   RO          189    .text               gd32f1x0_exti.o
    0x08002702   0x08002702   0x00000002   PAD
    0x08002704   0x08002704   0x000009d0   Code   RO          197    .text               gd32f1x0_fmc.o
    0x080030d4   0x080030d4   0x000000e2   Code   RO          206    .text               gd32f1x0_fwdgt.o
    0x080031b6   0x080031b6   0x00000002   PAD
    0x080031b8   0x080031b8   0x00000198   Code   RO          214    .text               gd32f1x0_gpio.o
    0x08003350   0x08003350   0x0000012c   Code   RO          231    .text               gd32f1x0_misc.o
    0x0800347c   0x0800347c   0x00000724   Code   RO          252    .text               gd32f1x0_rcu.o
    0x08003ba0   0x08003ba0   0x00000102   Code   RO          261    .text               gd32f1x0_syscfg.o
    0x08003ca2   0x08003ca2   0x00000002   PAD
    0x08003ca4   0x08003ca4   0x00000d50   Code   RO          269    .text               gd32f1x0_timer.o
    0x080049f4   0x080049f4   0x00000024   Code   RO          297    .text               startup_gd32f1x0.o
    0x08004a18   0x08004a18   0x0000013c   Code   RO          303    .text               system_gd32f1x0.o
    0x08004b54   0x08004b54   0x000000b0   Code   RO          316    .text               mf_w.l(fadd.o)
    0x08004c04   0x08004c04   0x00000064   Code   RO          318    .text               mf_w.l(fmul.o)
    0x08004c68   0x08004c68   0x0000007c   Code   RO          320    .text               mf_w.l(fdiv.o)
    0x08004ce4   0x08004ce4   0x0000014e   Code   RO          322    .text               mf_w.l(dadd.o)
    0x08004e32   0x08004e32   0x000000e4   Code   RO          324    .text               mf_w.l(dmul.o)
    0x08004f16   0x08004f16   0x000000de   Code   RO          326    .text               mf_w.l(ddiv.o)
    0x08004ff4   0x08004ff4   0x0000001c   Code   RO          328    .text               mf_w.l(fcmple.o)
    0x08005010   0x08005010   0x0000001c   Code   RO          330    .text               mf_w.l(fcmplt.o)
    0x0800502c   0x0800502c   0x0000001c   Code   RO          332    .text               mf_w.l(fcmpge.o)
    0x08005048   0x08005048   0x0000001c   Code   RO          334    .text               mf_w.l(fcmpgt.o)
    0x08005064   0x08005064   0x00000012   Code   RO          336    .text               mf_w.l(fflti.o)
    0x08005076   0x08005076   0x0000000a   Code   RO          338    .text               mf_w.l(ffltui.o)
    0x08005080   0x08005080   0x00000022   Code   RO          340    .text               mf_w.l(dflti.o)
    0x080050a2   0x080050a2   0x0000001a   Code   RO          342    .text               mf_w.l(dfltui.o)
    0x080050bc   0x080050bc   0x00000032   Code   RO          344    .text               mf_w.l(ffixi.o)
    0x080050ee   0x080050ee   0x0000003e   Code   RO          346    .text               mf_w.l(dfixi.o)
    0x0800512c   0x0800512c   0x00000026   Code   RO          348    .text               mf_w.l(f2d.o)
    0x08005152   0x08005152   0x00000038   Code   RO          350    .text               mf_w.l(d2f.o)
    0x0800518a   0x0800518a   0x0000001e   Code   RO          366    .text               mc_w.l(llshl.o)
    0x080051a8   0x080051a8   0x00000020   Code   RO          368    .text               mc_w.l(llushr.o)
    0x080051c8   0x080051c8   0x00000024   Code   RO          370    .text               mc_w.l(llsshr.o)
    0x080051ec   0x080051ec   0x00000000   Code   RO          372    .text               mc_w.l(iusefp.o)
    0x080051ec   0x080051ec   0x0000006e   Code   RO          373    .text               mf_w.l(fepilogue.o)
    0x0800525a   0x0800525a   0x000000ba   Code   RO          375    .text               mf_w.l(depilogue.o)
    0x08005314   0x08005314   0x00000030   Code   RO          377    .text               mc_w.l(init.o)
    0x08005344   0x08005344   0x0000000e   Code   RO          381    i.__scatterload_copy  mc_w.l(handlers.o)
    0x08005352   0x08005352   0x00000002   Code   RO          382    i.__scatterload_null  mc_w.l(handlers.o)
    0x08005354   0x08005354   0x0000000e   Code   RO          383    i.__scatterload_zeroinit  mc_w.l(handlers.o)
    0x08005362   0x08005362   0x0000000c   Data   RO           45    .rodata..L__const.up_or_down.up_down  bldc.o
    0x0800536e   0x0800536e   0x0000000c   Data   RO          216    .rodata..Lswitch.table.gpio_deinit.1  gd32f1x0_gpio.o
    0x0800537a   0x0800537a   0x00000008   Data   RO           81    .rodata.cst8        bldcsine.o
    0x08005382   0x08005382   0x00000008   Data   RO          254    .rodata.cst8        gd32f1x0_rcu.o
    0x0800538a   0x0800538a   0x00000008   Data   RO           46    .rodata.hall_to_pos  bldc.o
    0x08005392   0x08005392   0x00000002   PAD
    0x08005394   0x08005394   0x000002d4   Data   RO           15    .rodata.lookUpTableAngle  main.o
    0x08005668   0x08005668   0x000002d0   Data   RO           84    .rodata.sine_table  bldcsine.o
    0x08005938   0x08005938   0x00000020   Data   RO          380    Region$$Table       anon$$obj.o


    Execution Region RW_IRAM1 (Exec base: 0x20000000, Load base: 0x08005958, Size: 0x00000550, Max: 0x00002000, ABSOLUTE)

    Exec Addr    Load Addr    Size         Type   Attr      Idx    E Section Name        Object

    0x20000000   0x08005958   0x00000004   Data   RW          305    .data.SystemCoreClock  system_gd32f1x0.o
    0x20000004   0x0800595c   0x00000004   Data   RW           29    .data.batteryVoltage  bldc.o
    0x20000008   0x08005960   0x00000001   Data   RW           12    .data.beepsBackwards  main.o
    0x20000009   0x08005961   0x00000003   PAD
    0x2000000c   0x08005964   0x00000004   Data   RW           30    .data.currentDC     bldc.o
    0x20000010   0x08005968   0x00000001   Data   RW           36    .data.iFILTER_SHIFT  bldc.o
    0x20000011   0x08005969   0x00000001   PAD
    0x20000012   0x0800596a   0x00000002   Data   RW           39    .data.offsetdc      bldc.o
    0x20000014   0x0800596c   0x00000002   Data   RW            7    .data.speedLimit    main.o
    0x20000016   0x0800596e   0x00000001   Data   RW            8    .data.wState        main.o
    0x20000017   0x0800596f   0x00000001   PAD
    0x20000018        -       0x0000000c   Zero   RW           73    .bss.aHallEXTI      bldcsine.o
    0x20000024        -       0x00000004   Zero   RW           48    .bss.adc_buffer     bldc.o
    0x20000028        -       0x00000004   Zero   RW           68    .bss.angle_deg      bldcsine.o
    0x2000002c        -       0x00000004   Zero   RW           69    .bss.angle_deg_add  bldcsine.o
    0x20000030        -       0x00000004   Zero   RW           70    .bss.angle_deg_final  bldcsine.o
    0x20000034        -       0x00000002   Zero   RW           71    .bss.angle_idx      bldcsine.o
    0x20000036        -       0x00000001   Zero   RW           74    .bss.bInterrupt     bldcsine.o
    0x20000037        -       0x00000001   Zero   RW           33    .bss.bldc_enable    bldc.o
    0x20000038        -       0x00000002   Zero   RW           32    .bss.bldc_inputFilterPwm  bldc.o
    0x2000003a        -       0x00000002   Zero   RW           35    .bss.bldc_outputFilterPwm  bldc.o
    0x2000003c        -       0x00000001   Zero   RW           42    .bss.buzzerFreq     bldc.o
    0x2000003d        -       0x00000001   Zero   RW           43    .bss.buzzerPattern  bldc.o
    0x2000003e        -       0x00000002   Zero   RW           37    .bss.buzzerTimer    bldc.o
    0x20000040        -       0x00000001   Zero   RW           41    .bss.buzzerToggle   bldc.o
    0x20000041   0x0800596f   0x00000003   PAD
    0x20000044        -       0x00000024   Zero   RW           98    .bss.dma_init_struct_adc  setup.o
    0x20000068        -       0x00000001   Zero   RW           16    .bss.enable         main.o
    0x20000069   0x0800596f   0x00000003   PAD
    0x2000006c        -       0x00000004   Zero   RW           67    .bss.fDT            bldcsine.o
    0x20000070        -       0x00000004   Zero   RW           78    .bss.fGradient      bldcsine.o
    0x20000074        -       0x00000004   Zero   RW           79    .bss.fGradientX     bldcsine.o
    0x20000078        -       0x00000004   Zero   RW           47    .bss.filter_reg     bldc.o
    0x2000007c        -       0x00000001   Zero   RW           34    .bss.hall           bldc.o
    0x2000007d        -       0x00000001   Zero   RW           49    .bss.hall_a         bldc.o
    0x2000007e        -       0x00000001   Zero   RW           50    .bss.hall_b         bldc.o
    0x2000007f        -       0x00000001   Zero   RW           51    .bss.hall_c         bldc.o
    0x20000080        -       0x00000001   Zero   RW           77    .bss.hall_last      bldcsine.o
    0x20000081   0x0800596f   0x00000001   PAD
    0x20000082        -       0x00000002   Zero   RW           75    .bss.hall_time_last  bldcsine.o
    0x20000084        -       0x00000002   Zero   RW           76    .bss.hall_time_step  bldcsine.o
    0x20000086   0x0800596f   0x00000002   PAD
    0x20000088        -       0x00000004   Zero   RW           83    .bss.hall_time_step_LP  bldcsine.o
    0x2000008c        -       0x00000004   Zero   RW           82    .bss.hall_time_step_LPR  bldcsine.o
    0x20000090        -       0x00000004   Zero   RW          121    .bss.iAdcCounter    it.o
    0x20000094        -       0x00000004   Zero   RW          119    .bss.iAdcTicks      it.o
    0x20000098        -       0x00000004   Zero   RW          120    .bss.iAdcTicks0     it.o
    0x2000009c        -       0x00000004   Zero   RW            3    .bss.iBug           main.o
    0x200000a0        -       0x00000002   Zero   RW           80    .bss.iDT            bldcsine.o
    0x200000a2   0x0800596f   0x00000002   PAD
    0x200000a4        -       0x00000004   Zero   RW           44    .bss.iOdom          bldc.o
    0x200000a8        -       0x00000004   Zero   RW          118    .bss.iPwmCounter    it.o
    0x200000ac        -       0x00000004   Zero   RW          116    .bss.iPwmTicks      it.o
    0x200000b0        -       0x00000004   Zero   RW          117    .bss.iPwmTicks0     it.o
    0x200000b4        -       0x00000004   Zero   RW           18    .bss.iTimeNextLoop  main.o
    0x200000b8        -       0x00000004   Zero   RW           14    .bss.inactivity_timeout_counter  main.o
    0x200000bc        -       0x00000001   Zero   RW           53    .bss.lastPos        bldc.o
    0x200000bd   0x0800596f   0x00000003   PAD
    0x200000c0        -       0x00000004   Zero   RW          115    .bss.msTicks        it.o
    0x200000c4        -       0x00000014   Zero   RW           99    .bss.oConfig        setup.o
    0x200000d8        -       0x00000002   Zero   RW           38    .bss.offsetcount    bldc.o
    0x200000da        -       0x00000001   Zero   RW           52    .bss.pos            bldc.o
    0x200000db   0x0800596f   0x00000001   PAD
    0x200000dc        -       0x00000004   Zero   RW           72    .bss.pwmGo          bldcsine.o
    0x200000e0        -       0x00000002   Zero   RW           17    .bss.pwmSlave       main.o
    0x200000e2   0x0800596f   0x00000002   PAD
    0x200000e4        -       0x00000004   Zero   RW           31    .bss.realSpeed      bldc.o
    0x200000e8        -       0x00000001   Zero   RW           65    .bss.sector         bldcsine.o
    0x200000e9        -       0x00000001   Zero   RW           66    .bss.sector10x      bldcsine.o
    0x200000ea        -       0x00000001   Zero   RW           64    .bss.sectorChange   bldcsine.o
    0x200000eb   0x0800596f   0x00000001   PAD
    0x200000ec        -       0x00000004   Zero   RW            5    .bss.speed          main.o
    0x200000f0        -       0x00000004   Zero   RW           40    .bss.speedCounter   bldc.o
    0x200000f4        -       0x00000004   Zero   RW            6    .bss.speedShutoff   main.o
    0x200000f8        -       0x00000004   Zero   RW           10    .bss.steer          main.o
    0x200000fc        -       0x00000004   Zero   RW            4    .bss.steerCounter   main.o
    0x20000100        -       0x00000001   Zero   RW          114    .bss.timedOut       it.o
    0x20000101   0x0800596f   0x00000003   PAD
    0x20000104        -       0x00000004   Zero   RW          113    .bss.timeoutCounter_ms  it.o
    0x20000108        -       0x00000010   Zero   RW           94    .bss.timeoutTimer_paramter_struct  setup.o
    0x20000118        -       0x00000018   Zero   RW           97    .bss.timerBldc_break_parameter_struct  setup.o
    0x20000130        -       0x00000010   Zero   RW           96    .bss.timerBldc_oc_parameter_struct  setup.o
    0x20000140        -       0x00000010   Zero   RW           95    .bss.timerBldc_paramter_struct  setup.o
    0x20000150        -       0x00000400   Zero   RW          294    STACK               startup_gd32f1x0.o


==============================================================================

Image component sizes


      Code (inc. data)   RO Data    RW Data    ZI Data      Debug   Object Name

      1288          0         20         11         38       3907   bldc.o
      1070          0        728          0         61       6608   bldcsine.o
      1446         16          0          0          0       7635   gd32f1x0_adc.o
       880         64          0          0          0       5997   gd32f1x0_dma.o
       366          0          0          0          0       3198   gd32f1x0_exti.o
      2512          0          0          0          0      13341   gd32f1x0_fmc.o
       226          0          0          0          0       2007   gd32f1x0_fwdgt.o
       408          0         12          0          0       4183   gd32f1x0_gpio.o
       300          0          0          0          0       3163   gd32f1x0_misc.o
      1828         34          8          0          0      13497   gd32f1x0_rcu.o
       258          4          0          0          0       2988   gd32f1x0_syscfg.o
      3408         44          0          0          0      18497   gd32f1x0_timer.o
       362          0          0          0         33       2762   it.o
      1944          0        724          4         31       7353   main.o
       114          0          0          0          0        659   remotedummy.o
      2128          0          0          0        128      10358   setup.o
        36          8        360          0       1024        844   startup_gd32f1x0.o
       316         16          0          4          0       1621   system_gd32f1x0.o

    ----------------------------------------------------------------------
     18904        186       1886         24       1336     108618   Object Totals
         0          0         32          0          0          0   (incl. Generated)
        14          0          2          5         21          0   (incl. Padding)

    ----------------------------------------------------------------------

      Code (inc. data)   RO Data    RW Data    ZI Data      Debug   Library Member Name

         0          0          0          0          0          0   entry.o
         0          0          0          0          0          0   entry10a.o
         0          0          0          0          0          0   entry11a.o
         8          4          0          0          0          0   entry2.o
         4          0          0          0          0          0   entry5.o
         0          0          0          0          0          0   entry7b.o
         0          0          0          0          0          0   entry8b.o
         8          4          0          0          0          0   entry9a.o
        30          0          0          0          0          0   handlers.o
        48         10          0          0          0         68   init.o
         0          0          0          0          0          0   iusefp.o
        30          0          0          0          0         68   llshl.o
        36          0          0          0          0         68   llsshr.o
        32          0          0          0          0         68   llushr.o
        56          0          0          0          0         88   d2f.o
       334          0          0          0          0        148   dadd.o
       222          0          0          0          0        100   ddiv.o
       186          0          0          0          0        176   depilogue.o
        62          0          0          0          0         80   dfixi.o
        34          0          0          0          0         76   dflti.o
        26          0          0          0          0         76   dfltui.o
       228          0          0          0          0         96   dmul.o
        38          0          0          0          0         68   f2d.o
       176          0          0          0          0        140   fadd.o
        28          0          0          0          0         68   fcmpge.o
        28          0          0          0          0         68   fcmpgt.o
        28          0          0          0          0         68   fcmple.o
        28          0          0          0          0         68   fcmplt.o
       124          0          0          0          0         88   fdiv.o
       110          0          0          0          0        168   fepilogue.o
        50          0          0          0          0         68   ffixi.o
        18          0          0          0          0         68   fflti.o
        10          0          0          0          0         68   ffltui.o
       100          0          0          0          0         76   fmul.o

    ----------------------------------------------------------------------
      2082         18          0          0          0       2128   Library Totals
         0          0          0          0          0          0   (incl. Padding)

    ----------------------------------------------------------------------

      Code (inc. data)   RO Data    RW Data    ZI Data      Debug   Library Name

       196         18          0          0          0        272   mc_w.l
      1886          0          0          0          0       1856   mf_w.l

    ----------------------------------------------------------------------
      2082         18          0          0          0       2128   Library Totals

    ----------------------------------------------------------------------

==============================================================================


      Code (inc. data)   RO Data    RW Data    ZI Data      Debug   

     20986        204       1886         24       1336     109486   Grand Totals
     20986        204       1886         24       1336     109486   ELF Image Totals
     20986        204       1886         24          0          0   ROM Totals

==============================================================================

    Total RO  Size (Code + RO Data)                22872 (  22.34kB)
    Total RW  Size (RW Data + ZI Data)              1360 (   1.33kB)
    Total ROM Size (Code + RO Data + RW Data)      22896 (  22.36kB)

==============================================================================

