Component: Arm Compiler for Embedded 6.23 Tool: armlink [5f102400]

==============================================================================

Section Cross References

    main.o(.text) refers to main.o(.bss.iBug) for iBug
    main.o(.text) refers to setup.o(.text) for ConfigRead
    main.o(.text) refers to system_gd32f1x0.o(.text) for SystemCoreClockUpdate
    main.o(.text) refers to system_gd32f1x0.o(.data.SystemCoreClock) for SystemCoreClock
    main.o(.text) refers to gd32f1x0_gpio.o(.text) for gpio_bit_write
    main.o(.text) refers to bldcsine.o(.text) for InitBldc
    main.o(.text) refers to main.o(.data.iDrivingMode) for iDrivingMode
    main.o(.text) refers to driver.o(.text) for DriverInit
    main.o(.text) refers to gd32f1x0_fwdgt.o(.text) for fwdgt_counter_reload
    main.o(.text) refers to bldc.o(.bss.buzzerFreq) for buzzerFreq
    main.o(.text) refers to it.o(.text) for Delay
    main.o(.text) refers to main.o(.bss.iTimeNextLoop) for iTimeNextLoop
    main.o(.text) refers to main.o(.bss.speed) for speed
    main.o(.text) refers to main.o(.bss.pwmSlave) for pwmSlave
    main.o(.text) refers to main.o(.bss.steerCounter) for steerCounter
    main.o(.text) refers to remoteuartbus.o(.text) for RemoteUpdate
    main.o(.text) refers to main.o(.bss.speedShutoff) for speedShutoff
    main.o(.text) refers to dflti.o(.text) for __aeabi_i2d
    main.o(.text) refers to main.o(.bss.steer) for steer
    main.o(.text) refers to ddiv.o(.text) for __aeabi_ddiv
    main.o(.text) refers to dadd.o(.text) for __aeabi_dadd
    main.o(.text) refers to dmul.o(.text) for __aeabi_dmul
    main.o(.text) refers to dfixi.o(.text) for __aeabi_d2iz
    main.o(.text) refers to main.o(.data.wState) for wState
    main.o(.text) refers to ffltui.o(.text) for __aeabi_ui2f
    main.o(.text) refers to f2d.o(.text) for __aeabi_f2d
    main.o(.text) refers to d2f.o(.text) for __aeabi_d2f
    main.o(.text) refers to main.o(.data.speedLimit) for speedLimit
    main.o(.text) refers to fflti.o(.text) for __aeabi_i2f
    main.o(.text) refers to fmul.o(.text) for __aeabi_fmul
    main.o(.text) refers to ffixi.o(.text) for __aeabi_f2iz
    main.o(.text) refers to fadd.o(.text) for __aeabi_fsub
    main.o(.text) refers to fdiv.o(.text) for __aeabi_fdiv
    main.o(.text) refers to main.o(.rodata.lookUpTableAngle) for lookUpTableAngle
    main.o(.text) refers to fcmplt.o(.text) for __aeabi_fcmplt
    main.o(.text) refers to bldc.o(.text) for SetBldcInput
    main.o(.text) refers to main.o(.bss.enable) for enable
    main.o(.text) refers to it.o(.bss.timedOut) for timedOut
    main.o(.text) refers to main.o(.data.wStateSlave) for wStateSlave
    main.o(.text) refers to commsmasterslave.o(.text) for SendSlave
    main.o(.text) refers to bldc.o(.data.batteryVoltage) for batteryVoltage
    main.o(.text) refers to fcmple.o(.text) for __aeabi_fcmple
    main.o(.text) refers to main.o(.data.beepsBackwards) for beepsBackwards
    main.o(.text) refers to dcmple.o(.text) for __aeabi_dcmple
    main.o(.text) refers to bldc.o(.bss.buzzerPattern) for buzzerPattern
    main.o(.text) refers to main.o(.bss.inactivity_timeout_counter) for inactivity_timeout_counter
    main.o(.text) refers to gd32f1x0_usart.o(.text) for usart_deinit
    main.o(.ARM.exidx) refers to main.o(.text) for [Anonymous Symbol]
    bldc.o(.text) refers to bldc.o(.rodata..L__const.up_or_down.up_down) for .L__const.up_or_down.up_down
    bldc.o(.text) refers to bldc.o(.bss.bldc_enable) for bldc_enable
    bldc.o(.text) refers to main.o(.data.iDrivingMode) for iDrivingMode
    bldc.o(.text) refers to dflti.o(.text) for __aeabi_i2d
    bldc.o(.text) refers to ddiv.o(.text) for __aeabi_ddiv
    bldc.o(.text) refers to dmul.o(.text) for __aeabi_dmul
    bldc.o(.text) refers to dfixi.o(.text) for __aeabi_d2iz
    bldc.o(.text) refers to bldc.o(.bss.iBldcInput) for iBldcInput
    bldc.o(.text) refers to bldc.o(.data.iFILTER_SHIFT) for iFILTER_SHIFT
    bldc.o(.text) refers to bldc.o(.bss.bldc_outputFilterPwm) for bldc_outputFilterPwm
    bldc.o(.text) refers to bldc.o(.bss.filter_reg) for filter_reg
    bldc.o(.text) refers to bldc.o(.bss.offsetcount) for offsetcount
    bldc.o(.text) refers to bldc.o(.bss.adc_buffer) for adc_buffer
    bldc.o(.text) refers to bldc.o(.data.offsetdc) for offsetdc
    bldc.o(.text) refers to bldc.o(.bss.buzzerTimer) for buzzerTimer
    bldc.o(.text) refers to bldc.o(.data.batteryVoltage) for batteryVoltage
    bldc.o(.text) refers to f2d.o(.text) for __aeabi_f2d
    bldc.o(.text) refers to dfltui.o(.text) for __aeabi_ui2d
    bldc.o(.text) refers to dadd.o(.text) for __aeabi_dadd
    bldc.o(.text) refers to d2f.o(.text) for __aeabi_d2f
    bldc.o(.text) refers to bldc.o(.bss.buzzerFreq) for buzzerFreq
    bldc.o(.text) refers to bldc.o(.bss.buzzerPattern) for buzzerPattern
    bldc.o(.text) refers to gd32f1x0_gpio.o(.text) for gpio_bit_write
    bldc.o(.text) refers to bldc.o(.data.currentDC) for currentDC
    bldc.o(.text) refers to fcmpgt.o(.text) for __aeabi_fcmpgt
    bldc.o(.text) refers to it.o(.bss.timedOut) for timedOut
    bldc.o(.text) refers to gd32f1x0_timer.o(.text) for timer_automatic_output_enable
    bldc.o(.text) refers to bldc.o(.bss.iDrivingModeOverride) for iDrivingModeOverride
    bldc.o(.text) refers to bldc.o(.bss.bldc_inputFilterPwm) for bldc_inputFilterPwm
    bldc.o(.text) refers to bldc.o(.bss.hall_a) for hall_a
    bldc.o(.text) refers to bldc.o(.bss.hall_b) for hall_b
    bldc.o(.text) refers to bldc.o(.bss.hall_c) for hall_c
    bldc.o(.text) refers to bldc.o(.bss.hall) for hall
    bldc.o(.text) refers to bldc.o(.rodata.hall_to_pos) for hall_to_pos
    bldc.o(.text) refers to bldc.o(.bss.pos) for pos
    bldc.o(.text) refers to driver.o(.text) for Driver
    bldc.o(.text) refers to bldcsine.o(.text) for bldc_get_pwm
    bldc.o(.text) refers to bldc.o(.bss.lastPos) for lastPos
    bldc.o(.text) refers to bldc.o(.bss.iOdom) for iOdom
    bldc.o(.text) refers to bldc.o(.bss.speedCounterSlow) for speedCounterSlow
    bldc.o(.text) refers to bldc.o(.bss.iOdomLast) for iOdomLast
    bldc.o(.text) refers to bldc.o(.data.revs32ScaleSlow) for revs32ScaleSlow
    bldc.o(.text) refers to bldc.o(.bss.revs32_reg) for revs32_reg
    bldc.o(.text) refers to bldc.o(.bss.revs32) for revs32
    bldc.o(.text) refers to bldc.o(.bss.speedCounterSlowLog) for speedCounterSlowLog
    bldc.o(.text) refers to bldc.o(.bss.speedCounter) for speedCounter
    bldc.o(.text) refers to ffltui.o(.text) for __aeabi_ui2f
    bldc.o(.text) refers to fdiv.o(.text) for __aeabi_fdiv
    bldc.o(.text) refers to bldc.o(.data.revs32Scale) for revs32Scale
    bldc.o(.text) refers to bldc.o(.bss.realSpeed) for realSpeed
    bldc.o(.text) refers to bldc.o(.bss.revs32x) for revs32x
    bldc.o(.text) refers to bldc.o(.bss.speedCounterLog) for speedCounterLog
    bldc.o(.text) refers to bldc.o(.bss.buzzerToggle) for buzzerToggle
    bldc.o(.ARM.exidx) refers to bldc.o(.text) for [Anonymous Symbol]
    bldcsine.o(.text) refers to gd32f1x0_syscfg.o(.text) for syscfg_exti_line_config
    bldcsine.o(.text) refers to gd32f1x0_exti.o(.text) for exti_init
    bldcsine.o(.text) refers to gd32f1x0_misc.o(.text) for nvic_irq_enable
    bldcsine.o(.text) refers to gd32f1x0_rcu.o(.text) for rcu_periph_clock_enable
    bldcsine.o(.text) refers to bldcsine.o(.bss.aHallEXTI) for aHallEXTI
    bldcsine.o(.text) refers to bldcsine.o(.bss.hall_time_last) for hall_time_last
    bldcsine.o(.text) refers to bldc.o(.bss.hall) for hall
    bldcsine.o(.text) refers to bldcsine.o(.bss.bInterrupt) for bInterrupt
    bldcsine.o(.text) refers to bldc.o(.bss.buzzerTimer) for buzzerTimer
    bldcsine.o(.text) refers to bldcsine.o(.bss.hall_time_step) for hall_time_step
    bldcsine.o(.text) refers to bldcsine.o(.bss.hall_last) for hall_last
    bldcsine.o(.text) refers to gd32f1x0_gpio.o(.text) for gpio_input_bit_get
    bldcsine.o(.text) refers to bldcsine.o(.bss.pwmGo) for pwmGo
    bldcsine.o(.text) refers to bldcsine.o(.rodata.cst8) for hall_to_sector
    bldcsine.o(.text) refers to bldcsine.o(.bss.sector) for sector
    bldcsine.o(.text) refers to bldcsine.o(.bss.sector10x) for sector10x
    bldcsine.o(.text) refers to bldcsine.o(.bss.angle_deg) for angle_deg
    bldcsine.o(.text) refers to bldcsine.o(.bss.hall_time_step_LPR) for hall_time_step_LPR
    bldcsine.o(.text) refers to bldcsine.o(.bss.angle_deg_add) for angle_deg_add
    bldcsine.o(.text) refers to bldcsine.o(.bss.sectorChange) for sectorChange
    bldcsine.o(.text) refers to bldcsine.o(.bss.hall_time_step_LP) for hall_time_step_LP
    bldcsine.o(.text) refers to bldcsine.o(.bss.iDT) for iDT
    bldcsine.o(.text) refers to bldcsine.o(.bss.iAdd) for iAdd
    bldcsine.o(.text) refers to bldcsine.o(.bss.angle_deg_final) for angle_deg_final
    bldcsine.o(.text) refers to bldcsine.o(.rodata.sine_table) for sine_table
    bldcsine.o(.text) refers to bldcsine.o(.bss.angle_idx) for angle_idx
    bldcsine.o(.ARM.exidx) refers to bldcsine.o(.text) for [Anonymous Symbol]
    setup.o(.text) refers to gd32f1x0_gpio.o(.text) for gpio_mode_set
    setup.o(.text) refers to gd32f1x0_misc.o(.text) for nvic_priority_group_set
    setup.o(.text) refers to gd32f1x0_rcu.o(.text) for rcu_flag_get
    setup.o(.text) refers to gd32f1x0_fwdgt.o(.text) for fwdgt_config
    setup.o(.text) refers to gd32f1x0_timer.o(.text) for timer_deinit
    setup.o(.text) refers to setup.o(.bss.timeoutTimer_paramter_struct) for timeoutTimer_paramter_struct
    setup.o(.text) refers to setup.o(.bss.timerBldc_paramter_struct) for timerBldc_paramter_struct
    setup.o(.text) refers to setup.o(.bss.timerBldc_oc_parameter_struct) for timerBldc_oc_parameter_struct
    setup.o(.text) refers to setup.o(.bss.timerBldc_break_parameter_struct) for timerBldc_break_parameter_struct
    setup.o(.text) refers to gd32f1x0_dma.o(.text) for dma_deinit
    setup.o(.text) refers to setup.o(.bss.dma_init_struct_adc) for dma_init_struct_adc
    setup.o(.text) refers to bldc.o(.bss.adc_buffer) for adc_buffer
    setup.o(.text) refers to gd32f1x0_adc.o(.text) for adc_channel_length_config
    setup.o(.text) refers to gd32f1x0_usart.o(.text) for usart_deinit
    setup.o(.text) refers to setup.o(.bss.dma_init_struct_usart) for dma_init_struct_usart
    setup.o(.text) refers to setup.o(.bss.usart0_rx_buf) for usart0_rx_buf
    setup.o(.text) refers to setup.o(.bss.usart1_rx_buf) for usart1_rx_buf
    setup.o(.text) refers to gd32f1x0_fmc.o(.text) for fmc_unlock
    setup.o(.text) refers to setup.o(.bss.oConfig) for oConfig
    setup.o(.ARM.exidx) refers to setup.o(.text) for [Anonymous Symbol]
    it.o(.text) refers to it.o(.bss.msTicks) for msTicks
    it.o(.text) refers to it.o(.bss.timeoutCounter_ms) for timeoutCounter_ms
    it.o(.text) refers to it.o(.bss.timedOut) for timedOut
    it.o(.text) refers to main.o(.bss.steer) for steer
    it.o(.text) refers to main.o(.bss.speed) for speed
    it.o(.text) refers to main.o(.data.beepsBackwards) for beepsBackwards
    it.o(.text) refers to gd32f1x0_timer.o(.text) for timer_interrupt_flag_clear
    it.o(.text) refers to it.o(.bss.iPwmCounter) for iPwmCounter
    it.o(.text) refers to it.o(.bss.iPwmTicks0) for iPwmTicks0
    it.o(.text) refers to it.o(.bss.iPwmTicks) for iPwmTicks
    it.o(.text) refers to gd32f1x0_adc.o(.text) for adc_software_trigger_enable
    it.o(.text) refers to it.o(.bss.iAdcCounter) for iAdcCounter
    it.o(.text) refers to it.o(.bss.iAdcTicks0) for iAdcTicks0
    it.o(.text) refers to it.o(.bss.iAdcTicks) for iAdcTicks
    it.o(.text) refers to bldc.o(.text) for CalculateBLDC
    it.o(.text) refers to gd32f1x0_dma.o(.text) for dma_interrupt_flag_get
    it.o(.text) refers to it.o(.bss.iCounterUsart0) for iCounterUsart0
    it.o(.text) refers to it.o(.bss.iCounter2Usart0) for iCounter2Usart0
    it.o(.text) refers to remoteuartbus.o(.text) for RemoteCallback
    it.o(.text) refers to it.o(.bss.iCounterUsart1) for iCounterUsart1
    it.o(.text) refers to it.o(.bss.iCounter2Usart1) for iCounter2Usart1
    it.o(.text) refers to commsmasterslave.o(.text) for UpdateUSARTMasterSlaveInput
    it.o(.ARM.exidx) refers to it.o(.text) for [Anonymous Symbol]
    comms.o(.text) refers to gd32f1x0_usart.o(.text) for usart_data_transmit
    comms.o(.ARM.exidx) refers to comms.o(.text) for [Anonymous Symbol]
    remoteuartbus.o(.text) refers to it.o(.text) for millis
    remoteuartbus.o(.text) refers to remoteuartbus.o(.bss.iTimeLastRx) for iTimeLastRx
    remoteuartbus.o(.text) refers to main.o(.bss.steer) for steer
    remoteuartbus.o(.text) refers to main.o(.bss.speed) for speed
    remoteuartbus.o(.text) refers to bldc.o(.data.batteryVoltage) for batteryVoltage
    remoteuartbus.o(.text) refers to fmul.o(.text) for __aeabi_fmul
    remoteuartbus.o(.text) refers to ffixi.o(.text) for __aeabi_f2iz
    remoteuartbus.o(.text) refers to bldc.o(.data.currentDC) for currentDC
    remoteuartbus.o(.text) refers to bldc.o(.bss.realSpeed) for realSpeed
    remoteuartbus.o(.text) refers to remoteuartbus.o(.bss.iAnswerMaster) for iAnswerMaster
    remoteuartbus.o(.text) refers to comms.o(.text) for CalcCRC
    remoteuartbus.o(.text) refers to remoteuartbus.o(.bss.iReceivePos) for iReceivePos
    remoteuartbus.o(.text) refers to setup.o(.bss.usart0_rx_buf) for usart0_rx_buf
    remoteuartbus.o(.text) refers to remoteuartbus.o(.bss.aReceiveBuffer) for aReceiveBuffer
    remoteuartbus.o(.text) refers to remoteuartbus.o(.bss.iRxDataType) for iRxDataType
    remoteuartbus.o(.text) refers to remoteuartbus.o(.bss.iRxDataSize) for iRxDataSize
    remoteuartbus.o(.text) refers to main.o(.data.wState) for wState
    remoteuartbus.o(.text) refers to main.o(.data.wStateSlave) for wStateSlave
    remoteuartbus.o(.text) refers to main.o(.data.iDrivingMode) for iDrivingMode
    remoteuartbus.o(.text) refers to driver.o(.text) for DriverInit
    remoteuartbus.o(.ARM.exidx) refers to remoteuartbus.o(.text) for [Anonymous Symbol]
    commsmasterslave.o(.text) refers to setup.o(.bss.usart1_rx_buf) for usart1_rx_buf
    commsmasterslave.o(.text) refers to commsmasterslave.o(.data.iReceivePos) for iReceivePos
    commsmasterslave.o(.text) refers to commsmasterslave.o(.bss.aReceiveBuffer) for aReceiveBuffer
    commsmasterslave.o(.text) refers to comms.o(.text) for CalcCRC
    commsmasterslave.o(.text) refers to main.o(.bss.oDataSlave) for oDataSlave
    commsmasterslave.o(.text) refers to main.o(.data.wStateSlave) for wStateSlave
    commsmasterslave.o(.ARM.exidx) refers to commsmasterslave.o(.text) for [Anonymous Symbol]
    driver.o(.text) refers to fmul.o(.text) for __aeabi_fmul
    driver.o(.text) refers to fadd.o(.text) for __aeabi_fadd
    driver.o(.text) refers to ffixi.o(.text) for __aeabi_f2iz
    driver.o(.text) refers to fdiv.o(.text) for __aeabi_fdiv
    driver.o(.text) refers to driver.o(.bss.pid) for pid
    driver.o(.text) refers to bldc.o(.bss.revs32) for revs32
    driver.o(.ARM.exidx) refers to driver.o(.text) for [Anonymous Symbol]
    gd32f1x0_adc.o(.text) refers to gd32f1x0_rcu.o(.text) for rcu_periph_reset_enable
    gd32f1x0_adc.o(.ARM.exidx) refers to gd32f1x0_adc.o(.text) for [Anonymous Symbol]
    gd32f1x0_dbg.o(.ARM.exidx) refers to gd32f1x0_dbg.o(.text) for [Anonymous Symbol]
    gd32f1x0_dma.o(.ARM.exidx) refers to gd32f1x0_dma.o(.text) for [Anonymous Symbol]
    gd32f1x0_exti.o(.ARM.exidx) refers to gd32f1x0_exti.o(.text) for [Anonymous Symbol]
    gd32f1x0_fmc.o(.ARM.exidx) refers to gd32f1x0_fmc.o(.text) for [Anonymous Symbol]
    gd32f1x0_fwdgt.o(.ARM.exidx) refers to gd32f1x0_fwdgt.o(.text) for [Anonymous Symbol]
    gd32f1x0_gpio.o(.text) refers to gd32f1x0_gpio.o(.rodata..Lswitch.table.gpio_deinit.1) for .Lswitch.table.gpio_deinit.1
    gd32f1x0_gpio.o(.text) refers to gd32f1x0_rcu.o(.text) for rcu_periph_reset_enable
    gd32f1x0_gpio.o(.ARM.exidx) refers to gd32f1x0_gpio.o(.text) for [Anonymous Symbol]
    gd32f1x0_i2c.o(.text) refers to gd32f1x0_rcu.o(.text) for rcu_periph_reset_enable
    gd32f1x0_i2c.o(.ARM.exidx) refers to gd32f1x0_i2c.o(.text) for [Anonymous Symbol]
    gd32f1x0_misc.o(.ARM.exidx) refers to gd32f1x0_misc.o(.text) for [Anonymous Symbol]
    gd32f1x0_pmu.o(.text) refers to gd32f1x0_rcu.o(.text) for rcu_periph_reset_enable
    gd32f1x0_pmu.o(.text) refers to gd32f1x0_pmu.o(.bss.pmu_to_deepsleepmode.reg_snap.1) for pmu_to_deepsleepmode.reg_snap.1
    gd32f1x0_pmu.o(.text) refers to gd32f1x0_pmu.o(.bss.pmu_to_deepsleepmode.reg_snap.0) for pmu_to_deepsleepmode.reg_snap.0
    gd32f1x0_pmu.o(.text) refers to gd32f1x0_pmu.o(.bss.pmu_to_deepsleepmode.reg_snap.2) for pmu_to_deepsleepmode.reg_snap.2
    gd32f1x0_pmu.o(.text) refers to gd32f1x0_pmu.o(.bss.pmu_to_deepsleepmode.reg_snap.3) for pmu_to_deepsleepmode.reg_snap.3
    gd32f1x0_pmu.o(.ARM.exidx) refers to gd32f1x0_pmu.o(.text) for [Anonymous Symbol]
    gd32f1x0_rcu.o(.text) refers to gd32f1x0_rcu.o(.rodata.cst8) for .L__const.rcu_clock_freq_get.apb2_exp
    gd32f1x0_rcu.o(.ARM.exidx) refers to gd32f1x0_rcu.o(.text) for [Anonymous Symbol]
    gd32f1x0_syscfg.o(.text) refers to gd32f1x0_rcu.o(.text) for rcu_periph_reset_enable
    gd32f1x0_syscfg.o(.ARM.exidx) refers to gd32f1x0_syscfg.o(.text) for [Anonymous Symbol]
    gd32f1x0_timer.o(.text) refers to gd32f1x0_rcu.o(.text) for rcu_periph_reset_enable
    gd32f1x0_timer.o(.ARM.exidx) refers to gd32f1x0_timer.o(.text) for [Anonymous Symbol]
    gd32f1x0_usart.o(.text) refers to gd32f1x0_rcu.o(.text) for rcu_periph_reset_enable
    gd32f1x0_usart.o(.ARM.exidx) refers to gd32f1x0_usart.o(.text) for [Anonymous Symbol]
    gd32f1x0_wwdgt.o(.text) refers to gd32f1x0_rcu.o(.text) for rcu_periph_reset_enable
    gd32f1x0_wwdgt.o(.ARM.exidx) refers to gd32f1x0_wwdgt.o(.text) for [Anonymous Symbol]
    startup_gd32f1x0.o(RESET) refers to startup_gd32f1x0.o(STACK) for __initial_sp
    startup_gd32f1x0.o(RESET) refers to startup_gd32f1x0.o(.text) for Reset_Handler
    startup_gd32f1x0.o(RESET) refers to it.o(.text) for NMI_Handler
    startup_gd32f1x0.o(RESET) refers to bldcsine.o(.text) for EXTI0_1_IRQHandler
    startup_gd32f1x0.o(.text) refers to system_gd32f1x0.o(.text) for SystemInit
    startup_gd32f1x0.o(.text) refers to entry.o(.ARM.Collect$$$$00000000) for __main
    system_gd32f1x0.o(.text) refers to system_gd32f1x0.o(.data.SystemCoreClock) for SystemCoreClock
    system_gd32f1x0.o(.ARM.exidx) refers to system_gd32f1x0.o(.text) for [Anonymous Symbol]
    entry.o(.ARM.Collect$$$$00000000) refers (Special) to entry10a.o(.ARM.Collect$$$$0000000D) for __rt_final_cpp
    entry.o(.ARM.Collect$$$$00000000) refers (Special) to entry11a.o(.ARM.Collect$$$$0000000F) for __rt_final_exit
    entry.o(.ARM.Collect$$$$00000000) refers (Special) to entry7b.o(.ARM.Collect$$$$00000008) for _main_clock
    entry.o(.ARM.Collect$$$$00000000) refers (Special) to entry8b.o(.ARM.Collect$$$$0000000A) for _main_cpp_init
    entry.o(.ARM.Collect$$$$00000000) refers (Special) to entry9a.o(.ARM.Collect$$$$0000000B) for _main_init
    entry.o(.ARM.Collect$$$$00000000) refers (Special) to entry5.o(.ARM.Collect$$$$00000004) for _main_scatterload
    entry.o(.ARM.Collect$$$$00000000) refers (Special) to entry2.o(.ARM.Collect$$$$00000001) for _main_stk
    fadd.o(.text) refers (Special) to iusefp.o(.text) for __I$use$fp
    fadd.o(.text) refers to fepilogue.o(.text) for _float_epilogue
    fmul.o(.text) refers (Special) to iusefp.o(.text) for __I$use$fp
    fdiv.o(.text) refers (Special) to iusefp.o(.text) for __I$use$fp
    fdiv.o(.text) refers to fepilogue.o(.text) for _float_round
    dadd.o(.text) refers (Special) to iusefp.o(.text) for __I$use$fp
    dadd.o(.text) refers to llshl.o(.text) for __aeabi_llsl
    dadd.o(.text) refers to llsshr.o(.text) for __aeabi_lasr
    dadd.o(.text) refers to depilogue.o(.text) for _double_epilogue
    dmul.o(.text) refers (Special) to iusefp.o(.text) for __I$use$fp
    dmul.o(.text) refers to depilogue.o(.text) for _double_epilogue
    ddiv.o(.text) refers (Special) to iusefp.o(.text) for __I$use$fp
    ddiv.o(.text) refers to depilogue.o(.text) for _double_round
    fcmple.o(.text) refers (Special) to iusefp.o(.text) for __I$use$fp
    fcmplt.o(.text) refers (Special) to iusefp.o(.text) for __I$use$fp
    fcmpgt.o(.text) refers (Special) to iusefp.o(.text) for __I$use$fp
    dcmple.o(.text) refers (Special) to iusefp.o(.text) for __I$use$fp
    fflti.o(.text) refers (Special) to iusefp.o(.text) for __I$use$fp
    fflti.o(.text) refers to fepilogue.o(.text) for _float_epilogue
    ffltui.o(.text) refers (Special) to iusefp.o(.text) for __I$use$fp
    ffltui.o(.text) refers to fepilogue.o(.text) for _float_epilogue
    dflti.o(.text) refers (Special) to iusefp.o(.text) for __I$use$fp
    dflti.o(.text) refers to depilogue.o(.text) for _double_epilogue
    dfltui.o(.text) refers (Special) to iusefp.o(.text) for __I$use$fp
    dfltui.o(.text) refers to depilogue.o(.text) for _double_epilogue
    ffixi.o(.text) refers (Special) to iusefp.o(.text) for __I$use$fp
    dfixi.o(.text) refers (Special) to iusefp.o(.text) for __I$use$fp
    dfixi.o(.text) refers to llushr.o(.text) for __aeabi_llsr
    f2d.o(.text) refers (Special) to iusefp.o(.text) for __I$use$fp
    d2f.o(.text) refers (Special) to iusefp.o(.text) for __I$use$fp
    d2f.o(.text) refers to fepilogue.o(.text) for _float_round
    entry2.o(.ARM.Collect$$$$00000001) refers to entry2.o(.ARM.Collect$$$$00002712) for __lit__00000000
    entry2.o(.ARM.Collect$$$$00002712) refers to startup_gd32f1x0.o(STACK) for __initial_sp
    entry2.o(__vectab_stack_and_reset_area) refers to startup_gd32f1x0.o(STACK) for __initial_sp
    entry2.o(__vectab_stack_and_reset_area) refers to entry.o(.ARM.Collect$$$$00000000) for __main
    entry5.o(.ARM.Collect$$$$00000004) refers to init.o(.text) for __scatterload
    entry9a.o(.ARM.Collect$$$$0000000B) refers to main.o(.text) for main
    entry9b.o(.ARM.Collect$$$$0000000C) refers to main.o(.text) for main
    fepilogue.o(.text) refers (Special) to iusefp.o(.text) for __I$use$fp
    depilogue.o(.text) refers (Special) to iusefp.o(.text) for __I$use$fp
    depilogue.o(.text) refers to llshl.o(.text) for __aeabi_llsl
    depilogue.o(.text) refers to llushr.o(.text) for __aeabi_llsr
    init.o(.text) refers to entry5.o(.ARM.Collect$$$$00000004) for __main_after_scatterload


==============================================================================

Removing Unused input sections from the image.

    Removing main.o(.ARM.exidx), (24 bytes).
    Removing main.o(.bss.activateWeakening), (1 bytes).
    Removing main.o(.bss.slaveError), (1 bytes).
    Removing main.o(.ARM.use_no_argv), (4 bytes).
    Removing bldc.o(.ARM.exidx), (48 bytes).
    Removing bldcbc.o(.text), (0 bytes).
    Removing bldcsine.o(.ARM.exidx), (56 bytes).
    Removing bldcsine.o(.bss.fGradient), (4 bytes).
    Removing bldcsine.o(.bss.fGradientX), (4 bytes).
    Removing setup.o(.ARM.exidx), (152 bytes).
    Removing setup.o(.bss.usart2_rx_buf), (1 bytes).
    Removing it.o(.ARM.exidx), (136 bytes).
    Removing it.o(.bss.iCounterUsart2), (4 bytes).
    Removing it.o(.bss.iCounter2Usart2), (4 bytes).
    Removing led.o(.text), (0 bytes).
    Removing comms.o(.ARM.exidx), (16 bytes).
    Removing remoteuart.o(.text), (0 bytes).
    Removing remotecrsf.o(.text), (0 bytes).
    Removing remotedummy.o(.text), (0 bytes).
    Removing remoteuartbus.o(.ARM.exidx), (24 bytes).
    Removing commsmasterslave.o(.ARM.exidx), (24 bytes).
    Removing commsmasterslave.o(.bss.mosfetOutMaster), (1 bytes).
    Removing commsmasterslave.o(.bss.beepsBackwardsMaster), (1 bytes).
    Removing remoteadc.o(.text), (0 bytes).
    Removing remoteautodetect.o(.text), (0 bytes).
    Removing remoteautodetect.o(.bss.i), (2 bytes).
    Removing remoteros2.o(.text), (0 bytes).
    Removing driver.o(.ARM.exidx), (32 bytes).
    Removing gd32f1x0_adc.o(.ARM.exidx), (256 bytes).
    Removing gd32f1x0_dbg.o(.text), (128 bytes).
    Removing gd32f1x0_dbg.o(.ARM.exidx), (48 bytes).
    Removing gd32f1x0_dma.o(.ARM.exidx), (216 bytes).
    Removing gd32f1x0_exti.o(.ARM.exidx), (96 bytes).
    Removing gd32f1x0_fmc.o(.ARM.exidx), (216 bytes).
    Removing gd32f1x0_fwdgt.o(.ARM.exidx), (48 bytes).
    Removing gd32f1x0_gpio.o(.ARM.exidx), (104 bytes).
    Removing gd32f1x0_i2c.o(.text), (802 bytes).
    Removing gd32f1x0_i2c.o(.ARM.exidx), (248 bytes).
    Removing gd32f1x0_misc.o(.ARM.exidx), (56 bytes).
    Removing gd32f1x0_opa.o(.text), (0 bytes).
    Removing gd32f1x0_pmu.o(.text), (490 bytes).
    Removing gd32f1x0_pmu.o(.ARM.exidx), (96 bytes).
    Removing gd32f1x0_pmu.o(.bss.pmu_to_deepsleepmode.reg_snap.0), (4 bytes).
    Removing gd32f1x0_pmu.o(.bss.pmu_to_deepsleepmode.reg_snap.1), (4 bytes).
    Removing gd32f1x0_pmu.o(.bss.pmu_to_deepsleepmode.reg_snap.2), (4 bytes).
    Removing gd32f1x0_pmu.o(.bss.pmu_to_deepsleepmode.reg_snap.3), (4 bytes).
    Removing gd32f1x0_rcu.o(.ARM.exidx), (336 bytes).
    Removing gd32f1x0_syscfg.o(.ARM.exidx), (72 bytes).
    Removing gd32f1x0_timer.o(.ARM.exidx), (568 bytes).
    Removing gd32f1x0_usart.o(.ARM.exidx), (544 bytes).
    Removing gd32f1x0_wwdgt.o(.text), (170 bytes).
    Removing gd32f1x0_wwdgt.o(.ARM.exidx), (56 bytes).
    Removing startup_gd32f1x0.o(HEAP), (1024 bytes).
    Removing system_gd32f1x0.o(.ARM.exidx), (16 bytes).

54 unused section(s) (total 6145 bytes) removed from the image.

==============================================================================

Image Symbol Table

    Local Symbols

    Symbol Name                              Value     Ov Type        Size  Object(Section)

    ../clib/microlib/init/entry.s            0x00000000   Number         0  entry.o ABSOLUTE
    ../clib/microlib/init/entry.s            0x00000000   Number         0  entry2.o ABSOLUTE
    ../clib/microlib/init/entry.s            0x00000000   Number         0  entry5.o ABSOLUTE
    ../clib/microlib/init/entry.s            0x00000000   Number         0  entry7a.o ABSOLUTE
    ../clib/microlib/init/entry.s            0x00000000   Number         0  entry7b.o ABSOLUTE
    ../clib/microlib/init/entry.s            0x00000000   Number         0  entry8a.o ABSOLUTE
    ../clib/microlib/init/entry.s            0x00000000   Number         0  entry8b.o ABSOLUTE
    ../clib/microlib/init/entry.s            0x00000000   Number         0  entry9a.o ABSOLUTE
    ../clib/microlib/init/entry.s            0x00000000   Number         0  entry9b.o ABSOLUTE
    ../clib/microlib/init/entry.s            0x00000000   Number         0  entry10a.o ABSOLUTE
    ../clib/microlib/init/entry.s            0x00000000   Number         0  entry10b.o ABSOLUTE
    ../clib/microlib/init/entry.s            0x00000000   Number         0  entry11a.o ABSOLUTE
    ../clib/microlib/init/entry.s            0x00000000   Number         0  entry11b.o ABSOLUTE
    ../clib/microlib/longlong.c              0x00000000   Number         0  llshl.o ABSOLUTE
    ../clib/microlib/longlong.c              0x00000000   Number         0  llushr.o ABSOLUTE
    ../clib/microlib/longlong.c              0x00000000   Number         0  llsshr.o ABSOLUTE
    ../clib/microlib/stubs.s                 0x00000000   Number         0  iusefp.o ABSOLUTE
    ../fplib/microlib/d2f.c                  0x00000000   Number         0  d2f.o ABSOLUTE
    ../fplib/microlib/f2d.c                  0x00000000   Number         0  f2d.o ABSOLUTE
    ../fplib/microlib/fpadd.c                0x00000000   Number         0  fadd.o ABSOLUTE
    ../fplib/microlib/fpadd.c                0x00000000   Number         0  dadd.o ABSOLUTE
    ../fplib/microlib/fpcmp.c                0x00000000   Number         0  fcmple.o ABSOLUTE
    ../fplib/microlib/fpcmp.c                0x00000000   Number         0  fcmplt.o ABSOLUTE
    ../fplib/microlib/fpcmp.c                0x00000000   Number         0  fcmpgt.o ABSOLUTE
    ../fplib/microlib/fpcmp.c                0x00000000   Number         0  dcmple.o ABSOLUTE
    ../fplib/microlib/fpdiv.c                0x00000000   Number         0  fdiv.o ABSOLUTE
    ../fplib/microlib/fpdiv.c                0x00000000   Number         0  ddiv.o ABSOLUTE
    ../fplib/microlib/fpepilogue.c           0x00000000   Number         0  fepilogue.o ABSOLUTE
    ../fplib/microlib/fpepilogue.c           0x00000000   Number         0  depilogue.o ABSOLUTE
    ../fplib/microlib/fpfix.c                0x00000000   Number         0  ffixi.o ABSOLUTE
    ../fplib/microlib/fpfix.c                0x00000000   Number         0  dfixi.o ABSOLUTE
    ../fplib/microlib/fpflt.c                0x00000000   Number         0  fflti.o ABSOLUTE
    ../fplib/microlib/fpflt.c                0x00000000   Number         0  ffltui.o ABSOLUTE
    ../fplib/microlib/fpflt.c                0x00000000   Number         0  dflti.o ABSOLUTE
    ../fplib/microlib/fpflt.c                0x00000000   Number         0  dfltui.o ABSOLUTE
    ../fplib/microlib/fpmul.c                0x00000000   Number         0  fmul.o ABSOLUTE
    ../fplib/microlib/fpmul.c                0x00000000   Number         0  dmul.o ABSOLUTE
    RTE/Device/GD32F130C8/startup_gd32f1x0.s 0x00000000   Number         0  startup_gd32f1x0.o ABSOLUTE
    RemoteAdc.c                              0x00000000   Number         0  remoteadc.o ABSOLUTE
    RemoteAutodetect.c                       0x00000000   Number         0  remoteautodetect.o ABSOLUTE
    RemoteROS2.c                             0x00000000   Number         0  remoteros2.o ABSOLUTE
    bldc.c                                   0x00000000   Number         0  bldc.o ABSOLUTE
    bldcBC.c                                 0x00000000   Number         0  bldcbc.o ABSOLUTE
    bldcSINE.c                               0x00000000   Number         0  bldcsine.o ABSOLUTE
    comms.c                                  0x00000000   Number         0  comms.o ABSOLUTE
    commsMasterSlave.c                       0x00000000   Number         0  commsmasterslave.o ABSOLUTE
    dc.s                                     0x00000000   Number         0  dc.o ABSOLUTE
    driver.c                                 0x00000000   Number         0  driver.o ABSOLUTE
    gd32f1x0_adc.c                           0x00000000   Number         0  gd32f1x0_adc.o ABSOLUTE
    gd32f1x0_dbg.c                           0x00000000   Number         0  gd32f1x0_dbg.o ABSOLUTE
    gd32f1x0_dma.c                           0x00000000   Number         0  gd32f1x0_dma.o ABSOLUTE
    gd32f1x0_exti.c                          0x00000000   Number         0  gd32f1x0_exti.o ABSOLUTE
    gd32f1x0_fmc.c                           0x00000000   Number         0  gd32f1x0_fmc.o ABSOLUTE
    gd32f1x0_fwdgt.c                         0x00000000   Number         0  gd32f1x0_fwdgt.o ABSOLUTE
    gd32f1x0_gpio.c                          0x00000000   Number         0  gd32f1x0_gpio.o ABSOLUTE
    gd32f1x0_i2c.c                           0x00000000   Number         0  gd32f1x0_i2c.o ABSOLUTE
    gd32f1x0_misc.c                          0x00000000   Number         0  gd32f1x0_misc.o ABSOLUTE
    gd32f1x0_opa.c                           0x00000000   Number         0  gd32f1x0_opa.o ABSOLUTE
    gd32f1x0_pmu.c                           0x00000000   Number         0  gd32f1x0_pmu.o ABSOLUTE
    gd32f1x0_rcu.c                           0x00000000   Number         0  gd32f1x0_rcu.o ABSOLUTE
    gd32f1x0_syscfg.c                        0x00000000   Number         0  gd32f1x0_syscfg.o ABSOLUTE
    gd32f1x0_timer.c                         0x00000000   Number         0  gd32f1x0_timer.o ABSOLUTE
    gd32f1x0_usart.c                         0x00000000   Number         0  gd32f1x0_usart.o ABSOLUTE
    gd32f1x0_wwdgt.c                         0x00000000   Number         0  gd32f1x0_wwdgt.o ABSOLUTE
    handlers.s                               0x00000000   Number         0  handlers.o ABSOLUTE
    init.s                                   0x00000000   Number         0  init.o ABSOLUTE
    it.c                                     0x00000000   Number         0  it.o ABSOLUTE
    led.c                                    0x00000000   Number         0  led.o ABSOLUTE
    main.c                                   0x00000000   Number         0  main.o ABSOLUTE
    remoteCrsf.c                             0x00000000   Number         0  remotecrsf.o ABSOLUTE
    remoteDummy.c                            0x00000000   Number         0  remotedummy.o ABSOLUTE
    remoteUart.c                             0x00000000   Number         0  remoteuart.o ABSOLUTE
    remoteUartBus.c                          0x00000000   Number         0  remoteuartbus.o ABSOLUTE
    setup.c                                  0x00000000   Number         0  setup.o ABSOLUTE
    system_gd32f1x0.c                        0x00000000   Number         0  system_gd32f1x0.o ABSOLUTE
    RESET                                    0x08000000   Section      360  startup_gd32f1x0.o(RESET)
    .ARM.Collect$$$$00000000                 0x08000168   Section        0  entry.o(.ARM.Collect$$$$00000000)
    .ARM.Collect$$$$00000001                 0x08000168   Section        4  entry2.o(.ARM.Collect$$$$00000001)
    .ARM.Collect$$$$00000004                 0x0800016c   Section        4  entry5.o(.ARM.Collect$$$$00000004)
    .ARM.Collect$$$$00000008                 0x08000170   Section        0  entry7b.o(.ARM.Collect$$$$00000008)
    .ARM.Collect$$$$0000000A                 0x08000170   Section        0  entry8b.o(.ARM.Collect$$$$0000000A)
    .ARM.Collect$$$$0000000B                 0x08000170   Section        8  entry9a.o(.ARM.Collect$$$$0000000B)
    __lit__00000000                          0x08000178   Data           4  entry2.o(.ARM.Collect$$$$00002712)
    .ARM.Collect$$$$0000000D                 0x08000178   Section        0  entry10a.o(.ARM.Collect$$$$0000000D)
    .ARM.Collect$$$$0000000F                 0x08000178   Section        0  entry11a.o(.ARM.Collect$$$$0000000F)
    .ARM.Collect$$$$00002712                 0x08000178   Section        4  entry2.o(.ARM.Collect$$$$00002712)
    [Anonymous Symbol]                       0x0800017c   Section        0  main.o(.text)
    [Anonymous Symbol]                       0x08000954   Section        0  bldc.o(.text)
    [Anonymous Symbol]                       0x08000f40   Section        0  bldcsine.o(.text)
    [Anonymous Symbol]                       0x080012fc   Section        0  setup.o(.text)
    [Anonymous Symbol]                       0x08001cb4   Section        0  it.o(.text)
    [Anonymous Symbol]                       0x08001eac   Section        0  comms.o(.text)
    [Anonymous Symbol]                       0x08001f28   Section        0  remoteuartbus.o(.text)
    [Anonymous Symbol]                       0x080021d0   Section        0  commsmasterslave.o(.text)
    [Anonymous Symbol]                       0x080022bc   Section        0  driver.o(.text)
    [Anonymous Symbol]                       0x08002484   Section        0  gd32f1x0_adc.o(.text)
    [Anonymous Symbol]                       0x08002a2c   Section        0  gd32f1x0_dma.o(.text)
    [Anonymous Symbol]                       0x08002d9c   Section        0  gd32f1x0_exti.o(.text)
    [Anonymous Symbol]                       0x08002f0c   Section        0  gd32f1x0_fmc.o(.text)
    [Anonymous Symbol]                       0x080038dc   Section        0  gd32f1x0_fwdgt.o(.text)
    [Anonymous Symbol]                       0x080039c0   Section        0  gd32f1x0_gpio.o(.text)
    [Anonymous Symbol]                       0x08003b58   Section        0  gd32f1x0_misc.o(.text)
    [Anonymous Symbol]                       0x08003c84   Section        0  gd32f1x0_rcu.o(.text)
    [Anonymous Symbol]                       0x080043a8   Section        0  gd32f1x0_syscfg.o(.text)
    [Anonymous Symbol]                       0x080044ac   Section        0  gd32f1x0_timer.o(.text)
    [Anonymous Symbol]                       0x080051fc   Section        0  gd32f1x0_usart.o(.text)
    .text                                    0x08005840   Section       36  startup_gd32f1x0.o(.text)
    [Anonymous Symbol]                       0x08005864   Section        0  system_gd32f1x0.o(.text)
    .text                                    0x080059a0   Section        0  fadd.o(.text)
    .text                                    0x08005a50   Section        0  fmul.o(.text)
    .text                                    0x08005ab4   Section        0  fdiv.o(.text)
    .text                                    0x08005b30   Section        0  dadd.o(.text)
    .text                                    0x08005c7e   Section        0  dmul.o(.text)
    .text                                    0x08005d62   Section        0  ddiv.o(.text)
    .text                                    0x08005e40   Section        0  fcmple.o(.text)
    .text                                    0x08005e5c   Section        0  fcmplt.o(.text)
    .text                                    0x08005e78   Section        0  fcmpgt.o(.text)
    .text                                    0x08005e94   Section        0  dcmple.o(.text)
    .text                                    0x08005eca   Section        0  fflti.o(.text)
    .text                                    0x08005edc   Section        0  ffltui.o(.text)
    .text                                    0x08005ee6   Section        0  dflti.o(.text)
    .text                                    0x08005f08   Section        0  dfltui.o(.text)
    .text                                    0x08005f22   Section        0  ffixi.o(.text)
    .text                                    0x08005f54   Section        0  dfixi.o(.text)
    .text                                    0x08005f92   Section        0  f2d.o(.text)
    .text                                    0x08005fb8   Section        0  d2f.o(.text)
    .text                                    0x08005ff0   Section        0  llshl.o(.text)
    .text                                    0x0800600e   Section        0  llushr.o(.text)
    .text                                    0x0800602e   Section        0  llsshr.o(.text)
    .text                                    0x08006052   Section        0  iusefp.o(.text)
    .text                                    0x08006052   Section        0  fepilogue.o(.text)
    .text                                    0x080060c0   Section        0  depilogue.o(.text)
    .text                                    0x0800617c   Section       48  init.o(.text)
    i.__scatterload_copy                     0x080061ac   Section       14  handlers.o(i.__scatterload_copy)
    i.__scatterload_null                     0x080061ba   Section        2  handlers.o(i.__scatterload_null)
    i.__scatterload_zeroinit                 0x080061bc   Section       14  handlers.o(i.__scatterload_zeroinit)
    .L__const.up_or_down.up_down             0x080061ca   Data          12  bldc.o(.rodata..L__const.up_or_down.up_down)
    .Lswitch.table.gpio_deinit.1             0x080061d6   Data          12  gd32f1x0_gpio.o(.rodata..Lswitch.table.gpio_deinit.1)
    hall_to_sector                           0x080061e2   Data           8  bldcsine.o(.rodata.cst8)
    [Anonymous Symbol]                       0x080061e2   Section        0  bldcsine.o(.rodata.cst8)
    .L__const.rcu_clock_freq_get.apb2_exp    0x080061ea   Data           8  gd32f1x0_rcu.o(.rodata.cst8)
    sine_table                               0x080064d0   Data         720  bldcsine.o(.rodata.sine_table)
    [Anonymous Symbol]                       0x080064d0   Section        0  bldcsine.o(.rodata.sine_table)
    iReceivePos                              0x20000012   Data           2  commsmasterslave.o(.data.iReceivePos)
    [Anonymous Symbol]                       0x20000012   Section        0  commsmasterslave.o(.data.iReceivePos)
    aReceiveBuffer                           0x20000034   Data         255  remoteuartbus.o(.bss.aReceiveBuffer)
    [Anonymous Symbol]                       0x20000034   Section        0  remoteuartbus.o(.bss.aReceiveBuffer)
    aReceiveBuffer                           0x20000133   Data          16  commsmasterslave.o(.bss.aReceiveBuffer)
    [Anonymous Symbol]                       0x20000133   Section        0  commsmasterslave.o(.bss.aReceiveBuffer)
    iReceivePos                              0x2000020c   Data           2  remoteuartbus.o(.bss.iReceivePos)
    [Anonymous Symbol]                       0x2000020c   Section        0  remoteuartbus.o(.bss.iReceivePos)
    STACK                                    0x20000300   Section     1024  startup_gd32f1x0.o(STACK)

    Global Symbols

    Symbol Name                              Value     Ov Type        Size  Object(Section)

    BuildAttributes$$THM_ISAv4$P$D$K$B$S$PE$A:L22UL41UL21$X:L11$S22US41US21$IEEE1$IW$~IW$USESV6$~STKCKD$USESV7$~SHL$OTIME$ROPI$EBA8$MICROLIB$REQ8$PRES8$EABIv2 0x00000000   Number         0  anon$$obj.o ABSOLUTE
    __cpp_initialize__aeabi_                  - Undefined Weak Reference
    __cxa_finalize                            - Undefined Weak Reference
    __decompress                              - Undefined Weak Reference
    _clock_init                               - Undefined Weak Reference
    _microlib_exit                            - Undefined Weak Reference
    __Vectors_Size                           0x00000168   Number         0  startup_gd32f1x0.o ABSOLUTE
    __Vectors                                0x08000000   Data           4  startup_gd32f1x0.o(RESET)
    __Vectors_End                            0x08000168   Data           0  startup_gd32f1x0.o(RESET)
    __main                                   0x08000169   Thumb Code     0  entry.o(.ARM.Collect$$$$00000000)
    _main_stk                                0x08000169   Thumb Code     0  entry2.o(.ARM.Collect$$$$00000001)
    _main_scatterload                        0x0800016d   Thumb Code     0  entry5.o(.ARM.Collect$$$$00000004)
    __main_after_scatterload                 0x08000171   Thumb Code     0  entry5.o(.ARM.Collect$$$$00000004)
    _main_clock                              0x08000171   Thumb Code     0  entry7b.o(.ARM.Collect$$$$00000008)
    _main_cpp_init                           0x08000171   Thumb Code     0  entry8b.o(.ARM.Collect$$$$0000000A)
    _main_init                               0x08000171   Thumb Code     0  entry9a.o(.ARM.Collect$$$$0000000B)
    __rt_final_cpp                           0x08000179   Thumb Code     0  entry10a.o(.ARM.Collect$$$$0000000D)
    __rt_final_exit                          0x08000179   Thumb Code     0  entry11a.o(.ARM.Collect$$$$0000000F)
    main                                     0x0800017d   Thumb Code  1696  main.o(.text)
    ShutOff                                  0x0800081d   Thumb Code   156  main.o(.text)
    ShowBatteryState                         0x080008b9   Thumb Code   156  main.o(.text)
    modulo                                   0x08000955   Thumb Code    22  bldc.o(.text)
    up_or_down                               0x0800096d   Thumb Code    66  bldc.o(.text)
    SetEnable                                0x080009b1   Thumb Code    12  bldc.o(.text)
    SetBldcInput                             0x080009bd   Thumb Code    92  bldc.o(.text)
    SetFilter                                0x08000a19   Thumb Code    44  bldc.o(.text)
    CalculateBLDC                            0x08000a45   Thumb Code  1274  bldc.o(.text)
    InitEXTI                                 0x08000f41   Thumb Code    62  bldcsine.o(.text)
    InitBldc                                 0x08000f81   Thumb Code   146  bldcsine.o(.text)
    _HandleEXTI                              0x08001015   Thumb Code   188  bldcsine.o(.text)
    EXTI0_1_IRQHandler                       0x080010d1   Thumb Code     4  bldcsine.o(.text)
    EXTI2_3_IRQHandler                       0x080010d5   Thumb Code     4  bldcsine.o(.text)
    EXTI4_15_IRQHandler                      0x080010d9   Thumb Code     4  bldcsine.o(.text)
    bldc_get_pwm                             0x080010dd   Thumb Code   544  bldcsine.o(.text)
    pinMode                                  0x080012fd   Thumb Code    42  setup.o(.text)
    pinModePull                              0x08001329   Thumb Code    40  setup.o(.text)
    Interrupt_init                           0x08001351   Thumb Code     8  setup.o(.text)
    Watchdog_init                            0x08001359   Thumb Code    56  setup.o(.text)
    TimeoutTimer_init                        0x08001391   Thumb Code    92  setup.o(.text)
    GPIO_init                                0x080013ed   Thumb Code   620  setup.o(.text)
    PWM_init                                 0x08001659   Thumb Code   368  setup.o(.text)
    ADC_init                                 0x080017c9   Thumb Code   234  setup.o(.text)
    USART0_Init                              0x080018b5   Thumb Code   286  setup.o(.text)
    USART1_Init                              0x080019d5   Thumb Code   288  setup.o(.text)
    USART2_Init                              0x08001af5   Thumb Code     2  setup.o(.text)
    flashErase                               0x08001af9   Thumb Code    28  setup.o(.text)
    flashRead                                0x08001b15   Thumb Code     4  setup.o(.text)
    flashWrite                               0x08001b19   Thumb Code    38  setup.o(.text)
    flashWriteBuffer                         0x08001b41   Thumb Code    64  setup.o(.text)
    flashReadBuffer                          0x08001b81   Thumb Code    34  setup.o(.text)
    ConfigReset                              0x08001ba5   Thumb Code    38  setup.o(.text)
    ConfigWrite                              0x08001bcd   Thumb Code   112  setup.o(.text)
    ConfigRead                               0x08001c3d   Thumb Code   120  setup.o(.text)
    SysTick_Handler                          0x08001cb5   Thumb Code    16  it.o(.text)
    ResetTimeout                             0x08001cc5   Thumb Code    14  it.o(.text)
    TIMER13_IRQHandler                       0x08001cd5   Thumb Code    96  it.o(.text)
    TIMER0_BRK_UP_TRG_COM_IRQHandler         0x08001d35   Thumb Code    88  it.o(.text)
    DMA_Channel0_IRQHandler                  0x08001d8d   Thumb Code    94  it.o(.text)
    DMA_Channel1_2_IRQHandler                0x08001ded   Thumb Code    60  it.o(.text)
    DMA_Channel3_4_IRQHandler                0x08001e29   Thumb Code    60  it.o(.text)
    millis                                   0x08001e65   Thumb Code    12  it.o(.text)
    Delay                                    0x08001e71   Thumb Code    28  it.o(.text)
    NMI_Handler                              0x08001e8d   Thumb Code     2  it.o(.text)
    HardFault_Handler                        0x08001e91   Thumb Code     2  it.o(.text)
    MemManage_Handler                        0x08001e95   Thumb Code     2  it.o(.text)
    BusFault_Handler                         0x08001e99   Thumb Code     2  it.o(.text)
    UsageFault_Handler                       0x08001e9d   Thumb Code     2  it.o(.text)
    SVC_Handler                              0x08001ea1   Thumb Code     2  it.o(.text)
    DebugMon_Handler                         0x08001ea5   Thumb Code     2  it.o(.text)
    PendSV_Handler                           0x08001ea9   Thumb Code     2  it.o(.text)
    SendBuffer                               0x08001ead   Thumb Code    56  comms.o(.text)
    CalcCRC                                  0x08001ee5   Thumb Code    68  comms.o(.text)
    RemoteUpdate                             0x08001f29   Thumb Code    50  remoteuartbus.o(.text)
    AnswerMaster                             0x08001f5d   Thumb Code   152  remoteuartbus.o(.text)
    RemoteCallback                           0x08001ff5   Thumb Code   474  remoteuartbus.o(.text)
    UpdateUSARTMasterSlaveInput              0x080021d1   Thumb Code   112  commsmasterslave.o(.text)
    ProessReceived                           0x08002241   Thumb Code    32  commsmasterslave.o(.text)
    SendSlave                                0x08002261   Thumb Code    90  commsmasterslave.o(.text)
    PID_Init                                 0x080022bd   Thumb Code   146  driver.o(.text)
    PID_Update                               0x08002351   Thumb Code   106  driver.o(.text)
    DriverInit                               0x080023bd   Thumb Code    60  driver.o(.text)
    Driver                                   0x080023f9   Thumb Code   140  driver.o(.text)
    adc_deinit                               0x08002485   Thumb Code    22  gd32f1x0_adc.o(.text)
    adc_enable                               0x0800249d   Thumb Code    26  gd32f1x0_adc.o(.text)
    adc_disable                              0x080024b9   Thumb Code    18  gd32f1x0_adc.o(.text)
    adc_calibration_enable                   0x080024cd   Thumb Code    40  gd32f1x0_adc.o(.text)
    adc_dma_mode_enable                      0x080024f5   Thumb Code    18  gd32f1x0_adc.o(.text)
    adc_dma_mode_disable                     0x08002509   Thumb Code    18  gd32f1x0_adc.o(.text)
    adc_tempsensor_vrefint_enable            0x0800251d   Thumb Code    18  gd32f1x0_adc.o(.text)
    adc_tempsensor_vrefint_disable           0x08002531   Thumb Code    18  gd32f1x0_adc.o(.text)
    adc_vbat_enable                          0x08002545   Thumb Code    18  gd32f1x0_adc.o(.text)
    adc_vbat_disable                         0x08002559   Thumb Code    18  gd32f1x0_adc.o(.text)
    adc_discontinuous_mode_config            0x0800256d   Thumb Code    68  gd32f1x0_adc.o(.text)
    adc_special_function_config              0x080025b1   Thumb Code   100  gd32f1x0_adc.o(.text)
    adc_data_alignment_config                0x08002615   Thumb Code    26  gd32f1x0_adc.o(.text)
    adc_channel_length_config                0x08002631   Thumb Code    82  gd32f1x0_adc.o(.text)
    adc_regular_channel_config               0x08002685   Thumb Code   180  gd32f1x0_adc.o(.text)
    adc_inserted_channel_config              0x08002739   Thumb Code   114  gd32f1x0_adc.o(.text)
    adc_inserted_channel_offset_config       0x080027ad   Thumb Code    32  gd32f1x0_adc.o(.text)
    adc_external_trigger_config              0x080027cd   Thumb Code    72  gd32f1x0_adc.o(.text)
    adc_external_trigger_source_config       0x08002815   Thumb Code    42  gd32f1x0_adc.o(.text)
    adc_software_trigger_enable              0x08002841   Thumb Code    36  gd32f1x0_adc.o(.text)
    adc_regular_data_read                    0x08002865   Thumb Code    14  gd32f1x0_adc.o(.text)
    adc_inserted_data_read                   0x08002875   Thumb Code    74  gd32f1x0_adc.o(.text)
    adc_flag_get                             0x080028c1   Thumb Code    18  gd32f1x0_adc.o(.text)
    adc_flag_clear                           0x080028d5   Thumb Code    18  gd32f1x0_adc.o(.text)
    adc_interrupt_flag_get                   0x080028e9   Thumb Code    56  gd32f1x0_adc.o(.text)
    adc_interrupt_flag_clear                 0x08002921   Thumb Code    18  gd32f1x0_adc.o(.text)
    adc_interrupt_enable                     0x08002935   Thumb Code    48  gd32f1x0_adc.o(.text)
    adc_interrupt_disable                    0x08002965   Thumb Code    48  gd32f1x0_adc.o(.text)
    adc_watchdog_single_channel_enable       0x08002995   Thumb Code    42  gd32f1x0_adc.o(.text)
    adc_watchdog_group_channel_enable        0x080029c1   Thumb Code    48  gd32f1x0_adc.o(.text)
    adc_watchdog_disable                     0x080029fd   Thumb Code    24  gd32f1x0_adc.o(.text)
    adc_watchdog_threshold_config            0x08002a15   Thumb Code    22  gd32f1x0_adc.o(.text)
    dma_deinit                               0x08002a2d   Thumb Code    48  gd32f1x0_dma.o(.text)
    dma_struct_para_init                     0x08002a5d   Thumb Code    24  gd32f1x0_dma.o(.text)
    dma_init                                 0x08002a75   Thumb Code   122  gd32f1x0_dma.o(.text)
    dma_circulation_enable                   0x08002af1   Thumb Code    24  gd32f1x0_dma.o(.text)
    dma_circulation_disable                  0x08002b09   Thumb Code    24  gd32f1x0_dma.o(.text)
    dma_memory_to_memory_enable              0x08002b21   Thumb Code    24  gd32f1x0_dma.o(.text)
    dma_memory_to_memory_disable             0x08002b39   Thumb Code    24  gd32f1x0_dma.o(.text)
    dma_channel_enable                       0x08002b51   Thumb Code    24  gd32f1x0_dma.o(.text)
    dma_channel_disable                      0x08002b69   Thumb Code    24  gd32f1x0_dma.o(.text)
    dma_periph_address_config                0x08002b81   Thumb Code    16  gd32f1x0_dma.o(.text)
    dma_memory_address_config                0x08002b91   Thumb Code    16  gd32f1x0_dma.o(.text)
    dma_transfer_number_config               0x08002ba1   Thumb Code    16  gd32f1x0_dma.o(.text)
    dma_transfer_number_get                  0x08002bb1   Thumb Code    16  gd32f1x0_dma.o(.text)
    dma_priority_config                      0x08002bc1   Thumb Code    26  gd32f1x0_dma.o(.text)
    dma_memory_width_config                  0x08002bdd   Thumb Code    26  gd32f1x0_dma.o(.text)
    dma_periph_width_config                  0x08002bf9   Thumb Code    26  gd32f1x0_dma.o(.text)
    dma_memory_increase_enable               0x08002c15   Thumb Code    24  gd32f1x0_dma.o(.text)
    dma_memory_increase_disable              0x08002c2d   Thumb Code    24  gd32f1x0_dma.o(.text)
    dma_periph_increase_enable               0x08002c45   Thumb Code    24  gd32f1x0_dma.o(.text)
    dma_periph_increase_disable              0x08002c5d   Thumb Code    24  gd32f1x0_dma.o(.text)
    dma_transfer_direction_config            0x08002c75   Thumb Code    30  gd32f1x0_dma.o(.text)
    dma_interrupt_flag_get                   0x08002c95   Thumb Code    88  gd32f1x0_dma.o(.text)
    dma_interrupt_flag_clear                 0x08002d2d   Thumb Code    20  gd32f1x0_dma.o(.text)
    dma_interrupt_enable                     0x08002d41   Thumb Code    22  gd32f1x0_dma.o(.text)
    dma_interrupt_disable                    0x08002d59   Thumb Code    24  gd32f1x0_dma.o(.text)
    dma_flag_get                             0x08002d71   Thumb Code    22  gd32f1x0_dma.o(.text)
    dma_flag_clear                           0x08002d89   Thumb Code    20  gd32f1x0_dma.o(.text)
    exti_deinit                              0x08002d9d   Thumb Code    26  gd32f1x0_exti.o(.text)
    exti_init                                0x08002db9   Thumb Code   156  gd32f1x0_exti.o(.text)
    exti_interrupt_enable                    0x08002e55   Thumb Code    16  gd32f1x0_exti.o(.text)
    exti_event_enable                        0x08002e65   Thumb Code    16  gd32f1x0_exti.o(.text)
    exti_interrupt_disable                   0x08002e75   Thumb Code    18  gd32f1x0_exti.o(.text)
    exti_event_disable                       0x08002e89   Thumb Code    18  gd32f1x0_exti.o(.text)
    exti_flag_get                            0x08002e9d   Thumb Code    18  gd32f1x0_exti.o(.text)
    exti_flag_clear                          0x08002eb1   Thumb Code    12  gd32f1x0_exti.o(.text)
    exti_interrupt_flag_get                  0x08002ebd   Thumb Code    32  gd32f1x0_exti.o(.text)
    exti_interrupt_flag_clear                0x08002edd   Thumb Code    12  gd32f1x0_exti.o(.text)
    exti_software_interrupt_enable           0x08002ee9   Thumb Code    16  gd32f1x0_exti.o(.text)
    exti_software_interrupt_disable          0x08002ef9   Thumb Code    18  gd32f1x0_exti.o(.text)
    fmc_unlock                               0x08002f0d   Thumb Code    38  gd32f1x0_fmc.o(.text)
    fmc_lock                                 0x08002f35   Thumb Code    18  gd32f1x0_fmc.o(.text)
    fmc_wscnt_set                            0x08002f49   Thumb Code    20  gd32f1x0_fmc.o(.text)
    fmc_wait_state_enable                    0x08002f5d   Thumb Code    18  gd32f1x0_fmc.o(.text)
    fmc_wait_state_disable                   0x08002f71   Thumb Code    18  gd32f1x0_fmc.o(.text)
    fmc_page_erase                           0x08002f85   Thumb Code   158  gd32f1x0_fmc.o(.text)
    fmc_mass_erase                           0x08003025   Thumb Code   150  gd32f1x0_fmc.o(.text)
    fmc_word_program                         0x080030bd   Thumb Code   150  gd32f1x0_fmc.o(.text)
    fmc_halfword_program                     0x08003155   Thumb Code   150  gd32f1x0_fmc.o(.text)
    ob_unlock                                0x080031ed   Thumb Code    38  gd32f1x0_fmc.o(.text)
    ob_lock                                  0x08003215   Thumb Code    18  gd32f1x0_fmc.o(.text)
    ob_reset                                 0x08003229   Thumb Code    18  gd32f1x0_fmc.o(.text)
    ob_erase                                 0x0800323d   Thumb Code   294  gd32f1x0_fmc.o(.text)
    ob_obstat_plevel_get                     0x08003365   Thumb Code    16  gd32f1x0_fmc.o(.text)
    ob_write_protection_enable               0x08003375   Thumb Code   312  gd32f1x0_fmc.o(.text)
    ob_security_protection_config            0x080034ad   Thumb Code   304  gd32f1x0_fmc.o(.text)
    ob_user_write                            0x080035dd   Thumb Code   308  gd32f1x0_fmc.o(.text)
    ob_data_program                          0x08003711   Thumb Code   304  gd32f1x0_fmc.o(.text)
    ob_user_get                              0x08003841   Thumb Code    16  gd32f1x0_fmc.o(.text)
    ob_data_get                              0x08003851   Thumb Code    14  gd32f1x0_fmc.o(.text)
    ob_write_protection_get                  0x08003861   Thumb Code    14  gd32f1x0_fmc.o(.text)
    fmc_interrupt_enable                     0x08003871   Thumb Code    16  gd32f1x0_fmc.o(.text)
    fmc_interrupt_disable                    0x08003881   Thumb Code    18  gd32f1x0_fmc.o(.text)
    fmc_flag_get                             0x08003895   Thumb Code    18  gd32f1x0_fmc.o(.text)
    fmc_flag_clear                           0x080038a9   Thumb Code    16  gd32f1x0_fmc.o(.text)
    fmc_interrupt_flag_get                   0x080038b9   Thumb Code    18  gd32f1x0_fmc.o(.text)
    fmc_interrupt_flag_clear                 0x080038cd   Thumb Code    16  gd32f1x0_fmc.o(.text)
    fwdgt_write_disable                      0x080038dd   Thumb Code    14  gd32f1x0_fwdgt.o(.text)
    fwdgt_counter_reload                     0x080038ed   Thumb Code    16  gd32f1x0_fwdgt.o(.text)
    fwdgt_enable                             0x080038fd   Thumb Code    16  gd32f1x0_fwdgt.o(.text)
    fwdgt_window_value_config                0x0800390d   Thumb Code    58  gd32f1x0_fwdgt.o(.text)
    fwdgt_config                             0x08003949   Thumb Code   100  gd32f1x0_fwdgt.o(.text)
    fwdgt_flag_get                           0x080039ad   Thumb Code    18  gd32f1x0_fwdgt.o(.text)
    gpio_deinit                              0x080039c1   Thumb Code    58  gd32f1x0_gpio.o(.text)
    gpio_mode_set                            0x080039fd   Thumb Code    84  gd32f1x0_gpio.o(.text)
    gpio_output_options_set                  0x08003a51   Thumb Code    70  gd32f1x0_gpio.o(.text)
    gpio_bit_set                             0x08003a99   Thumb Code     4  gd32f1x0_gpio.o(.text)
    gpio_bit_reset                           0x08003a9d   Thumb Code     4  gd32f1x0_gpio.o(.text)
    gpio_bit_write                           0x08003aa1   Thumb Code    12  gd32f1x0_gpio.o(.text)
    gpio_port_write                          0x08003aad   Thumb Code     4  gd32f1x0_gpio.o(.text)
    gpio_input_bit_get                       0x08003ab1   Thumb Code    10  gd32f1x0_gpio.o(.text)
    gpio_input_port_get                      0x08003abd   Thumb Code     6  gd32f1x0_gpio.o(.text)
    gpio_output_bit_get                      0x08003ac5   Thumb Code    10  gd32f1x0_gpio.o(.text)
    gpio_output_port_get                     0x08003ad1   Thumb Code     6  gd32f1x0_gpio.o(.text)
    gpio_af_set                              0x08003ad9   Thumb Code   110  gd32f1x0_gpio.o(.text)
    gpio_pin_lock                            0x08003b49   Thumb Code    16  gd32f1x0_gpio.o(.text)
    nvic_priority_group_set                  0x08003b59   Thumb Code    20  gd32f1x0_misc.o(.text)
    nvic_irq_enable                          0x08003b6d   Thumb Code   168  gd32f1x0_misc.o(.text)
    nvic_irq_disable                         0x08003c15   Thumb Code    28  gd32f1x0_misc.o(.text)
    nvic_vector_table_set                    0x08003c31   Thumb Code    24  gd32f1x0_misc.o(.text)
    system_lowpower_set                      0x08003c49   Thumb Code    16  gd32f1x0_misc.o(.text)
    system_lowpower_reset                    0x08003c59   Thumb Code    18  gd32f1x0_misc.o(.text)
    systick_clksource_set                    0x08003c6d   Thumb Code    24  gd32f1x0_misc.o(.text)
    rcu_deinit                               0x08003c85   Thumb Code   112  gd32f1x0_rcu.o(.text)
    rcu_periph_clock_enable                  0x08003cf5   Thumb Code    30  gd32f1x0_rcu.o(.text)
    rcu_periph_clock_disable                 0x08003d15   Thumb Code    32  gd32f1x0_rcu.o(.text)
    rcu_periph_clock_sleep_enable            0x08003d35   Thumb Code    30  gd32f1x0_rcu.o(.text)
    rcu_periph_clock_sleep_disable           0x08003d55   Thumb Code    32  gd32f1x0_rcu.o(.text)
    rcu_periph_reset_enable                  0x08003d75   Thumb Code    30  gd32f1x0_rcu.o(.text)
    rcu_periph_reset_disable                 0x08003d95   Thumb Code    32  gd32f1x0_rcu.o(.text)
    rcu_bkp_reset_enable                     0x08003db5   Thumb Code    18  gd32f1x0_rcu.o(.text)
    rcu_bkp_reset_disable                    0x08003dc9   Thumb Code    18  gd32f1x0_rcu.o(.text)
    rcu_system_clock_source_config           0x08003ddd   Thumb Code    20  gd32f1x0_rcu.o(.text)
    rcu_system_clock_source_get              0x08003df1   Thumb Code    16  gd32f1x0_rcu.o(.text)
    rcu_ahb_clock_config                     0x08003e01   Thumb Code    20  gd32f1x0_rcu.o(.text)
    rcu_apb1_clock_config                    0x08003e15   Thumb Code    20  gd32f1x0_rcu.o(.text)
    rcu_apb2_clock_config                    0x08003e29   Thumb Code    20  gd32f1x0_rcu.o(.text)
    rcu_adc_clock_config                     0x08003e3d   Thumb Code    88  gd32f1x0_rcu.o(.text)
    rcu_usbd_clock_config                    0x08003e95   Thumb Code    24  gd32f1x0_rcu.o(.text)
    rcu_ckout_config                         0x08003ead   Thumb Code    22  gd32f1x0_rcu.o(.text)
    rcu_pll_config                           0x08003ec5   Thumb Code    40  gd32f1x0_rcu.o(.text)
    rcu_usart_clock_config                   0x08003eed   Thumb Code    24  gd32f1x0_rcu.o(.text)
    rcu_cec_clock_config                     0x08003f05   Thumb Code    24  gd32f1x0_rcu.o(.text)
    rcu_rtc_clock_config                     0x08003f1d   Thumb Code    24  gd32f1x0_rcu.o(.text)
    rcu_hxtal_prediv_config                  0x08003f35   Thumb Code    20  gd32f1x0_rcu.o(.text)
    rcu_lxtal_drive_capability_config        0x08003f49   Thumb Code    24  gd32f1x0_rcu.o(.text)
    rcu_flag_get                             0x08003f61   Thumb Code    26  gd32f1x0_rcu.o(.text)
    rcu_all_reset_flag_clear                 0x08003f7d   Thumb Code    18  gd32f1x0_rcu.o(.text)
    rcu_interrupt_flag_get                   0x08003f91   Thumb Code    18  gd32f1x0_rcu.o(.text)
    rcu_interrupt_flag_clear                 0x08003fa5   Thumb Code    16  gd32f1x0_rcu.o(.text)
    rcu_interrupt_enable                     0x08003fb5   Thumb Code    16  gd32f1x0_rcu.o(.text)
    rcu_interrupt_disable                    0x08003fc5   Thumb Code    18  gd32f1x0_rcu.o(.text)
    rcu_osci_stab_wait                       0x08003fd9   Thumb Code   312  gd32f1x0_rcu.o(.text)
    rcu_osci_on                              0x08004111   Thumb Code    30  gd32f1x0_rcu.o(.text)
    rcu_osci_off                             0x08004131   Thumb Code    32  gd32f1x0_rcu.o(.text)
    rcu_osci_bypass_mode_enable              0x08004151   Thumb Code    64  gd32f1x0_rcu.o(.text)
    rcu_osci_bypass_mode_disable             0x08004191   Thumb Code    64  gd32f1x0_rcu.o(.text)
    rcu_hxtal_clock_monitor_enable           0x080041d1   Thumb Code    18  gd32f1x0_rcu.o(.text)
    rcu_hxtal_clock_monitor_disable          0x080041e5   Thumb Code    18  gd32f1x0_rcu.o(.text)
    rcu_irc8m_adjust_value_set               0x080041f9   Thumb Code    22  gd32f1x0_rcu.o(.text)
    rcu_irc14m_adjust_value_set              0x08004211   Thumb Code    22  gd32f1x0_rcu.o(.text)
    rcu_voltage_key_unlock                   0x08004229   Thumb Code    30  gd32f1x0_rcu.o(.text)
    rcu_deepsleep_voltage_set                0x08004249   Thumb Code    24  gd32f1x0_rcu.o(.text)
    rcu_power_down_voltage_set               0x08004261   Thumb Code    24  gd32f1x0_rcu.o(.text)
    rcu_clock_freq_get                       0x08004279   Thumb Code   288  gd32f1x0_rcu.o(.text)
    syscfg_deinit                            0x080043a9   Thumb Code    22  gd32f1x0_syscfg.o(.text)
    syscfg_dma_remap_enable                  0x080043c1   Thumb Code    14  gd32f1x0_syscfg.o(.text)
    syscfg_dma_remap_disable                 0x080043d1   Thumb Code    16  gd32f1x0_syscfg.o(.text)
    syscfg_high_current_enable               0x080043e1   Thumb Code    16  gd32f1x0_syscfg.o(.text)
    syscfg_high_current_disable              0x080043f1   Thumb Code    16  gd32f1x0_syscfg.o(.text)
    syscfg_exti_line_config                  0x08004401   Thumb Code   124  gd32f1x0_syscfg.o(.text)
    syscfg_lock_config                       0x0800447d   Thumb Code    14  gd32f1x0_syscfg.o(.text)
    syscfg_flag_get                          0x0800448d   Thumb Code    16  gd32f1x0_syscfg.o(.text)
    syscfg_flag_clear                        0x0800449d   Thumb Code    14  gd32f1x0_syscfg.o(.text)
    timer_deinit                             0x080044ad   Thumb Code   194  gd32f1x0_timer.o(.text)
    timer_struct_para_init                   0x08004571   Thumb Code    16  gd32f1x0_timer.o(.text)
    timer_init                               0x08004581   Thumb Code   216  gd32f1x0_timer.o(.text)
    timer_enable                             0x08004659   Thumb Code    10  gd32f1x0_timer.o(.text)
    timer_disable                            0x08004665   Thumb Code    10  gd32f1x0_timer.o(.text)
    timer_auto_reload_shadow_enable          0x08004671   Thumb Code    10  gd32f1x0_timer.o(.text)
    timer_auto_reload_shadow_disable         0x0800467d   Thumb Code    10  gd32f1x0_timer.o(.text)
    timer_update_event_enable                0x08004689   Thumb Code    10  gd32f1x0_timer.o(.text)
    timer_update_event_disable               0x08004695   Thumb Code    10  gd32f1x0_timer.o(.text)
    timer_counter_alignment                  0x080046a1   Thumb Code    16  gd32f1x0_timer.o(.text)
    timer_counter_up_direction               0x080046b1   Thumb Code    10  gd32f1x0_timer.o(.text)
    timer_counter_down_direction             0x080046bd   Thumb Code    10  gd32f1x0_timer.o(.text)
    timer_prescaler_config                   0x080046c9   Thumb Code    18  gd32f1x0_timer.o(.text)
    timer_repetition_value_config            0x080046dd   Thumb Code     4  gd32f1x0_timer.o(.text)
    timer_autoreload_value_config            0x080046e1   Thumb Code     4  gd32f1x0_timer.o(.text)
    timer_counter_value_config               0x080046e5   Thumb Code     4  gd32f1x0_timer.o(.text)
    timer_counter_read                       0x080046e9   Thumb Code     4  gd32f1x0_timer.o(.text)
    timer_prescaler_read                     0x080046ed   Thumb Code     6  gd32f1x0_timer.o(.text)
    timer_single_pulse_mode_config           0x080046f5   Thumb Code    30  gd32f1x0_timer.o(.text)
    timer_update_source_config               0x08004715   Thumb Code    30  gd32f1x0_timer.o(.text)
    timer_ocpre_clear_source_config          0x08004735   Thumb Code    28  gd32f1x0_timer.o(.text)
    timer_interrupt_enable                   0x08004751   Thumb Code     8  gd32f1x0_timer.o(.text)
    timer_interrupt_disable                  0x08004759   Thumb Code    10  gd32f1x0_timer.o(.text)
    timer_interrupt_flag_get                 0x08004765   Thumb Code    22  gd32f1x0_timer.o(.text)
    timer_interrupt_flag_clear               0x0800477d   Thumb Code     6  gd32f1x0_timer.o(.text)
    timer_flag_get                           0x08004785   Thumb Code    10  gd32f1x0_timer.o(.text)
    timer_flag_clear                         0x08004791   Thumb Code     6  gd32f1x0_timer.o(.text)
    timer_dma_enable                         0x08004799   Thumb Code     8  gd32f1x0_timer.o(.text)
    timer_dma_disable                        0x080047a1   Thumb Code    10  gd32f1x0_timer.o(.text)
    timer_channel_dma_request_source_select  0x080047ad   Thumb Code    30  gd32f1x0_timer.o(.text)
    timer_dma_transfer_config                0x080047cd   Thumb Code    24  gd32f1x0_timer.o(.text)
    timer_event_software_generate            0x080047e5   Thumb Code     8  gd32f1x0_timer.o(.text)
    timer_break_struct_para_init             0x080047ed   Thumb Code    16  gd32f1x0_timer.o(.text)
    timer_break_config                       0x080047fd   Thumb Code    36  gd32f1x0_timer.o(.text)
    timer_break_enable                       0x08004821   Thumb Code    10  gd32f1x0_timer.o(.text)
    timer_break_disable                      0x0800482d   Thumb Code    10  gd32f1x0_timer.o(.text)
    timer_automatic_output_enable            0x08004839   Thumb Code    10  gd32f1x0_timer.o(.text)
    timer_automatic_output_disable           0x08004845   Thumb Code    10  gd32f1x0_timer.o(.text)
    timer_primary_output_config              0x08004851   Thumb Code    18  gd32f1x0_timer.o(.text)
    timer_channel_control_shadow_config      0x08004865   Thumb Code    16  gd32f1x0_timer.o(.text)
    timer_channel_control_shadow_update_config 0x08004875   Thumb Code    30  gd32f1x0_timer.o(.text)
    timer_channel_output_struct_para_init    0x08004895   Thumb Code    12  gd32f1x0_timer.o(.text)
    timer_channel_output_config              0x080048a1   Thumb Code   562  gd32f1x0_timer.o(.text)
    timer_channel_output_mode_config         0x08004ad5   Thumb Code    56  gd32f1x0_timer.o(.text)
    timer_channel_output_pulse_value_config  0x08004b0d   Thumb Code    16  gd32f1x0_timer.o(.text)
    timer_channel_output_shadow_config       0x08004b1d   Thumb Code    56  gd32f1x0_timer.o(.text)
    timer_channel_output_fast_config         0x08004b55   Thumb Code    56  gd32f1x0_timer.o(.text)
    timer_channel_output_clear_config        0x08004b8d   Thumb Code    56  gd32f1x0_timer.o(.text)
    timer_channel_output_polarity_config     0x08004bc5   Thumb Code    68  gd32f1x0_timer.o(.text)
    timer_channel_complementary_output_polarity_config 0x08004c09   Thumb Code    68  gd32f1x0_timer.o(.text)
    timer_channel_output_state_config        0x08004c4d   Thumb Code    68  gd32f1x0_timer.o(.text)
    timer_channel_complementary_output_state_config 0x08004c91   Thumb Code    56  gd32f1x0_timer.o(.text)
    timer_channel_input_struct_para_init     0x08004cc9   Thumb Code    12  gd32f1x0_timer.o(.text)
    timer_input_capture_config               0x08004cd5   Thumb Code   350  gd32f1x0_timer.o(.text)
    timer_channel_input_capture_prescaler_config 0x08004e35   Thumb Code    56  gd32f1x0_timer.o(.text)
    timer_channel_capture_value_register_read 0x08004e6d   Thumb Code    18  gd32f1x0_timer.o(.text)
    timer_input_pwm_capture_config           0x08004e81   Thumb Code   354  gd32f1x0_timer.o(.text)
    timer_hall_mode_config                   0x08004fe5   Thumb Code    30  gd32f1x0_timer.o(.text)
    timer_input_trigger_source_select        0x08005005   Thumb Code    16  gd32f1x0_timer.o(.text)
    timer_master_output_trigger_source_select 0x08005015   Thumb Code    16  gd32f1x0_timer.o(.text)
    timer_slave_mode_select                  0x08005025   Thumb Code    16  gd32f1x0_timer.o(.text)
    timer_master_slave_mode_config           0x08005035   Thumb Code    30  gd32f1x0_timer.o(.text)
    timer_external_trigger_config            0x08005055   Thumb Code    34  gd32f1x0_timer.o(.text)
    timer_quadrature_decoder_mode_config     0x08005079   Thumb Code    78  gd32f1x0_timer.o(.text)
    timer_internal_clock_config              0x080050c9   Thumb Code    10  gd32f1x0_timer.o(.text)
    timer_internal_trigger_as_external_clock_config 0x080050d5   Thumb Code    32  gd32f1x0_timer.o(.text)
    timer_external_trigger_as_external_clock_config 0x080050f5   Thumb Code   152  gd32f1x0_timer.o(.text)
    timer_external_clock_mode0_config        0x0800518d   Thumb Code    50  gd32f1x0_timer.o(.text)
    timer_external_clock_mode1_config        0x080051c1   Thumb Code    42  gd32f1x0_timer.o(.text)
    timer_external_clock_mode1_disable       0x080051ed   Thumb Code    10  gd32f1x0_timer.o(.text)
    timer_channel_remap_config               0x080051f9   Thumb Code     4  gd32f1x0_timer.o(.text)
    usart_deinit                             0x080051fd   Thumb Code    54  gd32f1x0_usart.o(.text)
    usart_baudrate_set                       0x08005235   Thumb Code    90  gd32f1x0_usart.o(.text)
    usart_parity_config                      0x08005291   Thumb Code    24  gd32f1x0_usart.o(.text)
    usart_word_length_set                    0x080052a9   Thumb Code    24  gd32f1x0_usart.o(.text)
    usart_stop_bit_set                       0x080052c1   Thumb Code    24  gd32f1x0_usart.o(.text)
    usart_enable                             0x080052d9   Thumb Code    10  gd32f1x0_usart.o(.text)
    usart_disable                            0x080052e5   Thumb Code    10  gd32f1x0_usart.o(.text)
    usart_transmit_config                    0x080052f1   Thumb Code    16  gd32f1x0_usart.o(.text)
    usart_receive_config                     0x08005301   Thumb Code    16  gd32f1x0_usart.o(.text)
    usart_data_transmit                      0x08005311   Thumb Code     8  gd32f1x0_usart.o(.text)
    usart_data_receive                       0x08005319   Thumb Code     8  gd32f1x0_usart.o(.text)
    usart_data_first_config                  0x08005321   Thumb Code    28  gd32f1x0_usart.o(.text)
    usart_invert_config                      0x0800533d   Thumb Code   106  gd32f1x0_usart.o(.text)
    usart_overrun_enable                     0x080053a9   Thumb Code    18  gd32f1x0_usart.o(.text)
    usart_overrun_disable                    0x080053bd   Thumb Code    18  gd32f1x0_usart.o(.text)
    usart_oversample_config                  0x080053d1   Thumb Code    24  gd32f1x0_usart.o(.text)
    usart_sample_bit_config                  0x080053e9   Thumb Code    24  gd32f1x0_usart.o(.text)
    usart_autobaud_detection_enable          0x08005401   Thumb Code    10  gd32f1x0_usart.o(.text)
    usart_autobaud_detection_disable         0x0800540d   Thumb Code    10  gd32f1x0_usart.o(.text)
    usart_autobaud_detection_mode_config     0x08005419   Thumb Code    16  gd32f1x0_usart.o(.text)
    usart_mute_mode_enable                   0x08005429   Thumb Code    10  gd32f1x0_usart.o(.text)
    usart_mute_mode_disable                  0x08005435   Thumb Code    10  gd32f1x0_usart.o(.text)
    usart_mute_mode_wakeup_config            0x08005441   Thumb Code    24  gd32f1x0_usart.o(.text)
    usart_address_detection_mode_config      0x08005459   Thumb Code    28  gd32f1x0_usart.o(.text)
    usart_address_config                     0x08005475   Thumb Code    26  gd32f1x0_usart.o(.text)
    usart_receiver_timeout_enable            0x08005491   Thumb Code    10  gd32f1x0_usart.o(.text)
    usart_receiver_timeout_disable           0x0800549d   Thumb Code    10  gd32f1x0_usart.o(.text)
    usart_receiver_timeout_config            0x080054a9   Thumb Code    16  gd32f1x0_usart.o(.text)
    usart_lin_mode_enable                    0x080054b9   Thumb Code    18  gd32f1x0_usart.o(.text)
    usart_lin_mode_disable                   0x080054cd   Thumb Code    18  gd32f1x0_usart.o(.text)
    usart_lin_break_detection_length_config  0x080054e1   Thumb Code    20  gd32f1x0_usart.o(.text)
    usart_halfduplex_enable                  0x080054f5   Thumb Code    18  gd32f1x0_usart.o(.text)
    usart_halfduplex_disable                 0x08005509   Thumb Code    18  gd32f1x0_usart.o(.text)
    usart_clock_enable                       0x0800551d   Thumb Code    18  gd32f1x0_usart.o(.text)
    usart_clock_disable                      0x08005531   Thumb Code    18  gd32f1x0_usart.o(.text)
    usart_synchronous_clock_config           0x08005545   Thumb Code    60  gd32f1x0_usart.o(.text)
    usart_smartcard_mode_enable              0x08005581   Thumb Code    18  gd32f1x0_usart.o(.text)
    usart_smartcard_mode_disable             0x08005595   Thumb Code    18  gd32f1x0_usart.o(.text)
    usart_smartcard_mode_nack_enable         0x080055a9   Thumb Code    18  gd32f1x0_usart.o(.text)
    usart_smartcard_mode_nack_disable        0x080055bd   Thumb Code    18  gd32f1x0_usart.o(.text)
    usart_guard_time_config                  0x080055d1   Thumb Code    28  gd32f1x0_usart.o(.text)
    usart_block_length_config                0x080055ed   Thumb Code    18  gd32f1x0_usart.o(.text)
    usart_smartcard_autoretry_config         0x08005601   Thumb Code    30  gd32f1x0_usart.o(.text)
    usart_irda_mode_enable                   0x08005621   Thumb Code    18  gd32f1x0_usart.o(.text)
    usart_irda_mode_disable                  0x08005635   Thumb Code    18  gd32f1x0_usart.o(.text)
    usart_irda_lowpower_config               0x08005649   Thumb Code    20  gd32f1x0_usart.o(.text)
    usart_prescaler_config                   0x0800565d   Thumb Code    24  gd32f1x0_usart.o(.text)
    usart_hardware_flow_rts_config           0x08005675   Thumb Code    24  gd32f1x0_usart.o(.text)
    usart_hardware_flow_cts_config           0x0800568d   Thumb Code    24  gd32f1x0_usart.o(.text)
    usart_rs485_driver_enable                0x080056a5   Thumb Code    18  gd32f1x0_usart.o(.text)
    usart_rs485_driver_disable               0x080056b9   Thumb Code    18  gd32f1x0_usart.o(.text)
    usart_driver_assertime_config            0x080056cd   Thumb Code    30  gd32f1x0_usart.o(.text)
    usart_driver_deassertime_config          0x080056ed   Thumb Code    30  gd32f1x0_usart.o(.text)
    usart_depolarity_config                  0x0800570d   Thumb Code    28  gd32f1x0_usart.o(.text)
    usart_dma_receive_config                 0x08005729   Thumb Code    16  gd32f1x0_usart.o(.text)
    usart_dma_transmit_config                0x08005739   Thumb Code    16  gd32f1x0_usart.o(.text)
    usart_reception_error_dma_disable        0x08005749   Thumb Code    18  gd32f1x0_usart.o(.text)
    usart_reception_error_dma_enable         0x0800575d   Thumb Code    18  gd32f1x0_usart.o(.text)
    usart_wakeup_enable                      0x08005771   Thumb Code    10  gd32f1x0_usart.o(.text)
    usart_wakeup_disable                     0x0800577d   Thumb Code    10  gd32f1x0_usart.o(.text)
    usart_wakeup_mode_config                 0x08005789   Thumb Code    28  gd32f1x0_usart.o(.text)
    usart_flag_get                           0x080057a5   Thumb Code    16  gd32f1x0_usart.o(.text)
    usart_flag_clear                         0x080057b5   Thumb Code    18  gd32f1x0_usart.o(.text)
    usart_interrupt_enable                   0x080057c9   Thumb Code    24  gd32f1x0_usart.o(.text)
    usart_interrupt_disable                  0x080057e1   Thumb Code    26  gd32f1x0_usart.o(.text)
    usart_command_enable                     0x080057fd   Thumb Code     8  gd32f1x0_usart.o(.text)
    usart_interrupt_flag_get                 0x08005805   Thumb Code    40  gd32f1x0_usart.o(.text)
    usart_interrupt_flag_clear               0x0800582d   Thumb Code    18  gd32f1x0_usart.o(.text)
    Reset_Handler                            0x08005841   Thumb Code     8  startup_gd32f1x0.o(.text)
    ADC_CMP_IRQHandler                       0x0800585b   Thumb Code     0  startup_gd32f1x0.o(.text)
    CAN0_RX0_IRQHandler                      0x0800585b   Thumb Code     0  startup_gd32f1x0.o(.text)
    CAN0_RX1_IRQHandler                      0x0800585b   Thumb Code     0  startup_gd32f1x0.o(.text)
    CAN0_SCE_IRQHandler                      0x0800585b   Thumb Code     0  startup_gd32f1x0.o(.text)
    CAN0_TX_IRQHandler                       0x0800585b   Thumb Code     0  startup_gd32f1x0.o(.text)
    CAN1_RX0_IRQHandler                      0x0800585b   Thumb Code     0  startup_gd32f1x0.o(.text)
    CAN1_RX1_IRQHandler                      0x0800585b   Thumb Code     0  startup_gd32f1x0.o(.text)
    CAN1_SCE_IRQHandler                      0x0800585b   Thumb Code     0  startup_gd32f1x0.o(.text)
    CAN1_TX_IRQHandler                       0x0800585b   Thumb Code     0  startup_gd32f1x0.o(.text)
    CEC_IRQHandler                           0x0800585b   Thumb Code     0  startup_gd32f1x0.o(.text)
    DMA_Channel5_6_IRQHandler                0x0800585b   Thumb Code     0  startup_gd32f1x0.o(.text)
    FMC_IRQHandler                           0x0800585b   Thumb Code     0  startup_gd32f1x0.o(.text)
    I2C0_ER_IRQHandler                       0x0800585b   Thumb Code     0  startup_gd32f1x0.o(.text)
    I2C0_EV_IRQHandler                       0x0800585b   Thumb Code     0  startup_gd32f1x0.o(.text)
    I2C1_ER_IRQHandler                       0x0800585b   Thumb Code     0  startup_gd32f1x0.o(.text)
    I2C1_EV_IRQHandler                       0x0800585b   Thumb Code     0  startup_gd32f1x0.o(.text)
    I2C2_ER_IRQHandler                       0x0800585b   Thumb Code     0  startup_gd32f1x0.o(.text)
    I2C2_EV_IRQHandler                       0x0800585b   Thumb Code     0  startup_gd32f1x0.o(.text)
    LVD_IRQHandler                           0x0800585b   Thumb Code     0  startup_gd32f1x0.o(.text)
    RCU_IRQHandler                           0x0800585b   Thumb Code     0  startup_gd32f1x0.o(.text)
    RTC_IRQHandler                           0x0800585b   Thumb Code     0  startup_gd32f1x0.o(.text)
    SLCD_IRQHandler                          0x0800585b   Thumb Code     0  startup_gd32f1x0.o(.text)
    SPI0_IRQHandler                          0x0800585b   Thumb Code     0  startup_gd32f1x0.o(.text)
    SPI1_IRQHandler                          0x0800585b   Thumb Code     0  startup_gd32f1x0.o(.text)
    SPI2_IRQHandler                          0x0800585b   Thumb Code     0  startup_gd32f1x0.o(.text)
    TIMER0_Channel_IRQHandler                0x0800585b   Thumb Code     0  startup_gd32f1x0.o(.text)
    TIMER14_IRQHandler                       0x0800585b   Thumb Code     0  startup_gd32f1x0.o(.text)
    TIMER15_IRQHandler                       0x0800585b   Thumb Code     0  startup_gd32f1x0.o(.text)
    TIMER16_IRQHandler                       0x0800585b   Thumb Code     0  startup_gd32f1x0.o(.text)
    TIMER1_IRQHandler                        0x0800585b   Thumb Code     0  startup_gd32f1x0.o(.text)
    TIMER2_IRQHandler                        0x0800585b   Thumb Code     0  startup_gd32f1x0.o(.text)
    TIMER5_DAC_IRQHandler                    0x0800585b   Thumb Code     0  startup_gd32f1x0.o(.text)
    TSI_IRQHandler                           0x0800585b   Thumb Code     0  startup_gd32f1x0.o(.text)
    USART0_IRQHandler                        0x0800585b   Thumb Code     0  startup_gd32f1x0.o(.text)
    USART1_IRQHandler                        0x0800585b   Thumb Code     0  startup_gd32f1x0.o(.text)
    USBDWakeUp_IRQHandler                    0x0800585b   Thumb Code     0  startup_gd32f1x0.o(.text)
    USBD_HP_IRQHandler                       0x0800585b   Thumb Code     0  startup_gd32f1x0.o(.text)
    USBD_LP_IRQHandler                       0x0800585b   Thumb Code     0  startup_gd32f1x0.o(.text)
    WWDGT_IRQHandler                         0x0800585b   Thumb Code     0  startup_gd32f1x0.o(.text)
    SystemInit                               0x08005865   Thumb Code   188  system_gd32f1x0.o(.text)
    SystemCoreClockUpdate                    0x08005921   Thumb Code   112  system_gd32f1x0.o(.text)
    __aeabi_fadd                             0x080059a1   Thumb Code   164  fadd.o(.text)
    __aeabi_fsub                             0x08005a45   Thumb Code     6  fadd.o(.text)
    __aeabi_frsub                            0x08005a4b   Thumb Code     6  fadd.o(.text)
    __aeabi_fmul                             0x08005a51   Thumb Code   100  fmul.o(.text)
    __aeabi_fdiv                             0x08005ab5   Thumb Code   124  fdiv.o(.text)
    __aeabi_dadd                             0x08005b31   Thumb Code   322  dadd.o(.text)
    __aeabi_dsub                             0x08005c73   Thumb Code     6  dadd.o(.text)
    __aeabi_drsub                            0x08005c79   Thumb Code     6  dadd.o(.text)
    __aeabi_dmul                             0x08005c7f   Thumb Code   228  dmul.o(.text)
    __aeabi_ddiv                             0x08005d63   Thumb Code   222  ddiv.o(.text)
    __aeabi_fcmple                           0x08005e41   Thumb Code    28  fcmple.o(.text)
    __aeabi_fcmplt                           0x08005e5d   Thumb Code    28  fcmplt.o(.text)
    __aeabi_fcmpgt                           0x08005e79   Thumb Code    28  fcmpgt.o(.text)
    __aeabi_dcmple                           0x08005e95   Thumb Code    54  dcmple.o(.text)
    __aeabi_i2f                              0x08005ecb   Thumb Code    18  fflti.o(.text)
    __aeabi_ui2f                             0x08005edd   Thumb Code    10  ffltui.o(.text)
    __aeabi_i2d                              0x08005ee7   Thumb Code    34  dflti.o(.text)
    __aeabi_ui2d                             0x08005f09   Thumb Code    26  dfltui.o(.text)
    __aeabi_f2iz                             0x08005f23   Thumb Code    50  ffixi.o(.text)
    __aeabi_d2iz                             0x08005f55   Thumb Code    62  dfixi.o(.text)
    __aeabi_f2d                              0x08005f93   Thumb Code    38  f2d.o(.text)
    __aeabi_d2f                              0x08005fb9   Thumb Code    56  d2f.o(.text)
    __aeabi_llsl                             0x08005ff1   Thumb Code    30  llshl.o(.text)
    _ll_shift_l                              0x08005ff1   Thumb Code     0  llshl.o(.text)
    __aeabi_llsr                             0x0800600f   Thumb Code    32  llushr.o(.text)
    _ll_ushift_r                             0x0800600f   Thumb Code     0  llushr.o(.text)
    __aeabi_lasr                             0x0800602f   Thumb Code    36  llsshr.o(.text)
    _ll_sshift_r                             0x0800602f   Thumb Code     0  llsshr.o(.text)
    __I$use$fp                               0x08006053   Thumb Code     0  iusefp.o(.text)
    _float_round                             0x08006053   Thumb Code    18  fepilogue.o(.text)
    _float_epilogue                          0x08006065   Thumb Code    92  fepilogue.o(.text)
    _double_round                            0x080060c1   Thumb Code    30  depilogue.o(.text)
    _double_epilogue                         0x080060df   Thumb Code   156  depilogue.o(.text)
    __scatterload                            0x0800617d   Thumb Code    38  init.o(.text)
    __scatterload_rt2                        0x0800617d   Thumb Code     0  init.o(.text)
    __scatterload_copy                       0x080061ad   Thumb Code    14  handlers.o(i.__scatterload_copy)
    __scatterload_null                       0x080061bb   Thumb Code     2  handlers.o(i.__scatterload_null)
    __scatterload_zeroinit                   0x080061bd   Thumb Code    14  handlers.o(i.__scatterload_zeroinit)
    hall_to_pos                              0x080061f2   Data           8  bldc.o(.rodata.hall_to_pos)
    lookUpTableAngle                         0x080061fc   Data         724  main.o(.rodata.lookUpTableAngle)
    Region$$Table$$Base                      0x080067a0   Number         0  anon$$obj.o(Region$$Table)
    Region$$Table$$Limit                     0x080067c0   Number         0  anon$$obj.o(Region$$Table)
    SystemCoreClock                          0x20000000   Data           4  system_gd32f1x0.o(.data.SystemCoreClock)
    batteryVoltage                           0x20000004   Data           4  bldc.o(.data.batteryVoltage)
    beepsBackwards                           0x20000008   Data           1  main.o(.data.beepsBackwards)
    currentDC                                0x2000000c   Data           4  bldc.o(.data.currentDC)
    iDrivingMode                             0x20000010   Data           1  main.o(.data.iDrivingMode)
    iFILTER_SHIFT                            0x20000011   Data           1  bldc.o(.data.iFILTER_SHIFT)
    offsetdc                                 0x20000014   Data           2  bldc.o(.data.offsetdc)
    revs32Scale                              0x20000018   Data           4  bldc.o(.data.revs32Scale)
    revs32ScaleSlow                          0x2000001c   Data           4  bldc.o(.data.revs32ScaleSlow)
    speedLimit                               0x20000020   Data           2  main.o(.data.speedLimit)
    wState                                   0x20000022   Data           1  main.o(.data.wState)
    wStateSlave                              0x20000023   Data           1  main.o(.data.wStateSlave)
    aHallEXTI                                0x20000028   Data          12  bldcsine.o(.bss.aHallEXTI)
    adc_buffer                               0x20000144   Data           4  bldc.o(.bss.adc_buffer)
    angle_deg                                0x20000148   Data           2  bldcsine.o(.bss.angle_deg)
    angle_deg_add                            0x2000014a   Data           2  bldcsine.o(.bss.angle_deg_add)
    angle_deg_final                          0x2000014c   Data           2  bldcsine.o(.bss.angle_deg_final)
    angle_idx                                0x2000014e   Data           2  bldcsine.o(.bss.angle_idx)
    bInterrupt                               0x20000150   Data           1  bldcsine.o(.bss.bInterrupt)
    bldc_enable                              0x20000151   Data           1  bldc.o(.bss.bldc_enable)
    bldc_inputFilterPwm                      0x20000154   Data           4  bldc.o(.bss.bldc_inputFilterPwm)
    bldc_outputFilterPwm                     0x20000158   Data           4  bldc.o(.bss.bldc_outputFilterPwm)
    buzzerFreq                               0x2000015c   Data           1  bldc.o(.bss.buzzerFreq)
    buzzerPattern                            0x2000015d   Data           1  bldc.o(.bss.buzzerPattern)
    buzzerTimer                              0x2000015e   Data           2  bldc.o(.bss.buzzerTimer)
    buzzerToggle                             0x20000160   Data           1  bldc.o(.bss.buzzerToggle)
    dma_init_struct_adc                      0x20000164   Data          36  setup.o(.bss.dma_init_struct_adc)
    dma_init_struct_usart                    0x20000188   Data          36  setup.o(.bss.dma_init_struct_usart)
    enable                                   0x200001ac   Data           1  main.o(.bss.enable)
    filter_reg                               0x200001b0   Data           4  bldc.o(.bss.filter_reg)
    hall                                     0x200001b4   Data           1  bldc.o(.bss.hall)
    hall_a                                   0x200001b5   Data           1  bldc.o(.bss.hall_a)
    hall_b                                   0x200001b6   Data           1  bldc.o(.bss.hall_b)
    hall_c                                   0x200001b7   Data           1  bldc.o(.bss.hall_c)
    hall_last                                0x200001b8   Data           1  bldcsine.o(.bss.hall_last)
    hall_time_last                           0x200001ba   Data           2  bldcsine.o(.bss.hall_time_last)
    hall_time_step                           0x200001bc   Data           2  bldcsine.o(.bss.hall_time_step)
    hall_time_step_LP                        0x200001c0   Data           4  bldcsine.o(.bss.hall_time_step_LP)
    hall_time_step_LPR                       0x200001c4   Data           4  bldcsine.o(.bss.hall_time_step_LPR)
    iAdcCounter                              0x200001c8   Data           4  it.o(.bss.iAdcCounter)
    iAdcTicks                                0x200001cc   Data           4  it.o(.bss.iAdcTicks)
    iAdcTicks0                               0x200001d0   Data           4  it.o(.bss.iAdcTicks0)
    iAdd                                     0x200001d4   Data           2  bldcsine.o(.bss.iAdd)
    iAnswerMaster                            0x200001d8   Data           4  remoteuartbus.o(.bss.iAnswerMaster)
    iBldcInput                               0x200001dc   Data           4  bldc.o(.bss.iBldcInput)
    iBug                                     0x200001e0   Data           4  main.o(.bss.iBug)
    iCounter2Usart0                          0x200001e4   Data           4  it.o(.bss.iCounter2Usart0)
    iCounter2Usart1                          0x200001e8   Data           4  it.o(.bss.iCounter2Usart1)
    iCounterUsart0                           0x200001ec   Data           4  it.o(.bss.iCounterUsart0)
    iCounterUsart1                           0x200001f0   Data           4  it.o(.bss.iCounterUsart1)
    iDT                                      0x200001f4   Data           2  bldcsine.o(.bss.iDT)
    iDrivingModeOverride                     0x200001f6   Data           1  bldc.o(.bss.iDrivingModeOverride)
    iOdom                                    0x200001f8   Data           4  bldc.o(.bss.iOdom)
    iOdomLast                                0x200001fc   Data           4  bldc.o(.bss.iOdomLast)
    iPwmCounter                              0x20000200   Data           4  it.o(.bss.iPwmCounter)
    iPwmTicks                                0x20000204   Data           4  it.o(.bss.iPwmTicks)
    iPwmTicks0                               0x20000208   Data           4  it.o(.bss.iPwmTicks0)
    iRxDataSize                              0x2000020e   Data           1  remoteuartbus.o(.bss.iRxDataSize)
    iRxDataType                              0x2000020f   Data           1  remoteuartbus.o(.bss.iRxDataType)
    iTimeLastRx                              0x20000210   Data           4  remoteuartbus.o(.bss.iTimeLastRx)
    iTimeNextLoop                            0x20000214   Data           4  main.o(.bss.iTimeNextLoop)
    inactivity_timeout_counter               0x20000218   Data           4  main.o(.bss.inactivity_timeout_counter)
    lastPos                                  0x2000021c   Data           1  bldc.o(.bss.lastPos)
    msTicks                                  0x20000220   Data           4  it.o(.bss.msTicks)
    oConfig                                  0x20000224   Data          20  setup.o(.bss.oConfig)
    oDataSlave                               0x20000238   Data          16  main.o(.bss.oDataSlave)
    offsetcount                              0x20000248   Data           2  bldc.o(.bss.offsetcount)
    pid                                      0x2000024c   Data          28  driver.o(.bss.pid)
    pos                                      0x20000268   Data           1  bldc.o(.bss.pos)
    pwmGo                                    0x2000026c   Data           4  bldcsine.o(.bss.pwmGo)
    pwmSlave                                 0x20000270   Data           2  main.o(.bss.pwmSlave)
    realSpeed                                0x20000274   Data           4  bldc.o(.bss.realSpeed)
    revs32                                   0x20000278   Data           4  bldc.o(.bss.revs32)
    revs32_reg                               0x2000027c   Data           4  bldc.o(.bss.revs32_reg)
    revs32x                                  0x20000280   Data           4  bldc.o(.bss.revs32x)
    sector                                   0x20000284   Data           1  bldcsine.o(.bss.sector)
    sector10x                                0x20000285   Data           1  bldcsine.o(.bss.sector10x)
    sectorChange                             0x20000286   Data           1  bldcsine.o(.bss.sectorChange)
    speed                                    0x20000288   Data           4  main.o(.bss.speed)
    speedCounter                             0x2000028c   Data           4  bldc.o(.bss.speedCounter)
    speedCounterLog                          0x20000290   Data           4  bldc.o(.bss.speedCounterLog)
    speedCounterSlow                         0x20000294   Data           4  bldc.o(.bss.speedCounterSlow)
    speedCounterSlowLog                      0x20000298   Data           4  bldc.o(.bss.speedCounterSlowLog)
    speedShutoff                             0x2000029c   Data           4  main.o(.bss.speedShutoff)
    steer                                    0x200002a0   Data           4  main.o(.bss.steer)
    steerCounter                             0x200002a4   Data           4  main.o(.bss.steerCounter)
    timedOut                                 0x200002a8   Data           1  it.o(.bss.timedOut)
    timeoutCounter_ms                        0x200002ac   Data           4  it.o(.bss.timeoutCounter_ms)
    timeoutTimer_paramter_struct             0x200002b0   Data          16  setup.o(.bss.timeoutTimer_paramter_struct)
    timerBldc_break_parameter_struct         0x200002c0   Data          24  setup.o(.bss.timerBldc_break_parameter_struct)
    timerBldc_oc_parameter_struct            0x200002d8   Data          16  setup.o(.bss.timerBldc_oc_parameter_struct)
    timerBldc_paramter_struct                0x200002e8   Data          16  setup.o(.bss.timerBldc_paramter_struct)
    usart0_rx_buf                            0x200002f8   Data           1  setup.o(.bss.usart0_rx_buf)
    usart1_rx_buf                            0x200002f9   Data           1  setup.o(.bss.usart1_rx_buf)
    __initial_sp                             0x20000700   Data           0  startup_gd32f1x0.o(STACK)



==============================================================================

Memory Map of the image

  Image Entry point : 0x08000169

  Load Region LR_IROM1 (Base: 0x08000000, Size: 0x000067e8, Max: 0x00010000, ABSOLUTE)

    Execution Region ER_IROM1 (Exec base: 0x08000000, Load base: 0x08000000, Size: 0x000067c0, Max: 0x00010000, ABSOLUTE)

    Exec Addr    Load Addr    Size         Type   Attr      Idx    E Section Name        Object

    0x08000000   0x08000000   0x00000168   Data   RO          334    RESET               startup_gd32f1x0.o
    0x08000168   0x08000168   0x00000000   Code   RO          351  * .ARM.Collect$$$$00000000  mc_w.l(entry.o)
    0x08000168   0x08000168   0x00000004   Code   RO          390    .ARM.Collect$$$$00000001  mc_w.l(entry2.o)
    0x0800016c   0x0800016c   0x00000004   Code   RO          393    .ARM.Collect$$$$00000004  mc_w.l(entry5.o)
    0x08000170   0x08000170   0x00000000   Code   RO          395    .ARM.Collect$$$$00000008  mc_w.l(entry7b.o)
    0x08000170   0x08000170   0x00000000   Code   RO          397    .ARM.Collect$$$$0000000A  mc_w.l(entry8b.o)
    0x08000170   0x08000170   0x00000008   Code   RO          398    .ARM.Collect$$$$0000000B  mc_w.l(entry9a.o)
    0x08000178   0x08000178   0x00000000   Code   RO          400    .ARM.Collect$$$$0000000D  mc_w.l(entry10a.o)
    0x08000178   0x08000178   0x00000000   Code   RO          402    .ARM.Collect$$$$0000000F  mc_w.l(entry11a.o)
    0x08000178   0x08000178   0x00000004   Code   RO          391    .ARM.Collect$$$$00002712  mc_w.l(entry2.o)
    0x0800017c   0x0800017c   0x000007d8   Code   RO            1    .text               main.o
    0x08000954   0x08000954   0x000005ea   Code   RO           29    .text               bldc.o
    0x08000f3e   0x08000f3e   0x00000002   PAD
    0x08000f40   0x08000f40   0x000003bc   Code   RO           75    .text               bldcsine.o
    0x080012fc   0x080012fc   0x000009b8   Code   RO          105    .text               setup.o
    0x08001cb4   0x08001cb4   0x000001f6   Code   RO          124    .text               it.o
    0x08001eaa   0x08001eaa   0x00000002   PAD
    0x08001eac   0x08001eac   0x0000007c   Code   RO          148    .text               comms.o
    0x08001f28   0x08001f28   0x000002a6   Code   RO          159    .text               remoteuartbus.o
    0x080021ce   0x080021ce   0x00000002   PAD
    0x080021d0   0x080021d0   0x000000ea   Code   RO          173    .text               commsmasterslave.o
    0x080022ba   0x080022ba   0x00000002   PAD
    0x080022bc   0x080022bc   0x000001c8   Code   RO          193    .text               driver.o
    0x08002484   0x08002484   0x000005a6   Code   RO          203    .text               gd32f1x0_adc.o
    0x08002a2a   0x08002a2a   0x00000002   PAD
    0x08002a2c   0x08002a2c   0x00000370   Code   RO          219    .text               gd32f1x0_dma.o
    0x08002d9c   0x08002d9c   0x0000016e   Code   RO          227    .text               gd32f1x0_exti.o
    0x08002f0a   0x08002f0a   0x00000002   PAD
    0x08002f0c   0x08002f0c   0x000009d0   Code   RO          235    .text               gd32f1x0_fmc.o
    0x080038dc   0x080038dc   0x000000e2   Code   RO          244    .text               gd32f1x0_fwdgt.o
    0x080039be   0x080039be   0x00000002   PAD
    0x080039c0   0x080039c0   0x00000198   Code   RO          252    .text               gd32f1x0_gpio.o
    0x08003b58   0x08003b58   0x0000012c   Code   RO          269    .text               gd32f1x0_misc.o
    0x08003c84   0x08003c84   0x00000724   Code   RO          290    .text               gd32f1x0_rcu.o
    0x080043a8   0x080043a8   0x00000102   Code   RO          299    .text               gd32f1x0_syscfg.o
    0x080044aa   0x080044aa   0x00000002   PAD
    0x080044ac   0x080044ac   0x00000d50   Code   RO          307    .text               gd32f1x0_timer.o
    0x080051fc   0x080051fc   0x00000642   Code   RO          316    .text               gd32f1x0_usart.o
    0x0800583e   0x0800583e   0x00000002   PAD
    0x08005840   0x08005840   0x00000024   Code   RO          335    .text               startup_gd32f1x0.o
    0x08005864   0x08005864   0x0000013c   Code   RO          341    .text               system_gd32f1x0.o
    0x080059a0   0x080059a0   0x000000b0   Code   RO          354    .text               mf_w.l(fadd.o)
    0x08005a50   0x08005a50   0x00000064   Code   RO          356    .text               mf_w.l(fmul.o)
    0x08005ab4   0x08005ab4   0x0000007c   Code   RO          358    .text               mf_w.l(fdiv.o)
    0x08005b30   0x08005b30   0x0000014e   Code   RO          360    .text               mf_w.l(dadd.o)
    0x08005c7e   0x08005c7e   0x000000e4   Code   RO          362    .text               mf_w.l(dmul.o)
    0x08005d62   0x08005d62   0x000000de   Code   RO          364    .text               mf_w.l(ddiv.o)
    0x08005e40   0x08005e40   0x0000001c   Code   RO          366    .text               mf_w.l(fcmple.o)
    0x08005e5c   0x08005e5c   0x0000001c   Code   RO          368    .text               mf_w.l(fcmplt.o)
    0x08005e78   0x08005e78   0x0000001c   Code   RO          370    .text               mf_w.l(fcmpgt.o)
    0x08005e94   0x08005e94   0x00000036   Code   RO          372    .text               mf_w.l(dcmple.o)
    0x08005eca   0x08005eca   0x00000012   Code   RO          374    .text               mf_w.l(fflti.o)
    0x08005edc   0x08005edc   0x0000000a   Code   RO          376    .text               mf_w.l(ffltui.o)
    0x08005ee6   0x08005ee6   0x00000022   Code   RO          378    .text               mf_w.l(dflti.o)
    0x08005f08   0x08005f08   0x0000001a   Code   RO          380    .text               mf_w.l(dfltui.o)
    0x08005f22   0x08005f22   0x00000032   Code   RO          382    .text               mf_w.l(ffixi.o)
    0x08005f54   0x08005f54   0x0000003e   Code   RO          384    .text               mf_w.l(dfixi.o)
    0x08005f92   0x08005f92   0x00000026   Code   RO          386    .text               mf_w.l(f2d.o)
    0x08005fb8   0x08005fb8   0x00000038   Code   RO          388    .text               mf_w.l(d2f.o)
    0x08005ff0   0x08005ff0   0x0000001e   Code   RO          404    .text               mc_w.l(llshl.o)
    0x0800600e   0x0800600e   0x00000020   Code   RO          406    .text               mc_w.l(llushr.o)
    0x0800602e   0x0800602e   0x00000024   Code   RO          408    .text               mc_w.l(llsshr.o)
    0x08006052   0x08006052   0x00000000   Code   RO          410    .text               mc_w.l(iusefp.o)
    0x08006052   0x08006052   0x0000006e   Code   RO          411    .text               mf_w.l(fepilogue.o)
    0x080060c0   0x080060c0   0x000000ba   Code   RO          413    .text               mf_w.l(depilogue.o)
    0x0800617a   0x0800617a   0x00000002   PAD
    0x0800617c   0x0800617c   0x00000030   Code   RO          415    .text               mc_w.l(init.o)
    0x080061ac   0x080061ac   0x0000000e   Code   RO          419    i.__scatterload_copy  mc_w.l(handlers.o)
    0x080061ba   0x080061ba   0x00000002   Code   RO          420    i.__scatterload_null  mc_w.l(handlers.o)
    0x080061bc   0x080061bc   0x0000000e   Code   RO          421    i.__scatterload_zeroinit  mc_w.l(handlers.o)
    0x080061ca   0x080061ca   0x0000000c   Data   RO           58    .rodata..L__const.up_or_down.up_down  bldc.o
    0x080061d6   0x080061d6   0x0000000c   Data   RO          254    .rodata..Lswitch.table.gpio_deinit.1  gd32f1x0_gpio.o
    0x080061e2   0x080061e2   0x00000008   Data   RO           94    .rodata.cst8        bldcsine.o
    0x080061ea   0x080061ea   0x00000008   Data   RO          292    .rodata.cst8        gd32f1x0_rcu.o
    0x080061f2   0x080061f2   0x00000008   Data   RO           59    .rodata.hall_to_pos  bldc.o
    0x080061fa   0x080061fa   0x00000002   PAD
    0x080061fc   0x080061fc   0x000002d4   Data   RO           16    .rodata.lookUpTableAngle  main.o
    0x080064d0   0x080064d0   0x000002d0   Data   RO           97    .rodata.sine_table  bldcsine.o
    0x080067a0   0x080067a0   0x00000020   Data   RO          418    Region$$Table       anon$$obj.o


    Execution Region RW_IRAM1 (Exec base: 0x20000000, Load base: 0x080067c0, Size: 0x00000700, Max: 0x00002000, ABSOLUTE)

    Exec Addr    Load Addr    Size         Type   Attr      Idx    E Section Name        Object

    0x20000000   0x080067c0   0x00000004   Data   RW          343    .data.SystemCoreClock  system_gd32f1x0.o
    0x20000004   0x080067c4   0x00000004   Data   RW           31    .data.batteryVoltage  bldc.o
    0x20000008   0x080067c8   0x00000001   Data   RW           13    .data.beepsBackwards  main.o
    0x20000009   0x080067c9   0x00000003   PAD
    0x2000000c   0x080067cc   0x00000004   Data   RW           32    .data.currentDC     bldc.o
    0x20000010   0x080067d0   0x00000001   Data   RW            3    .data.iDrivingMode  main.o
    0x20000011   0x080067d1   0x00000001   Data   RW           45    .data.iFILTER_SHIFT  bldc.o
    0x20000012   0x080067d2   0x00000002   Data   RW          177    .data.iReceivePos   commsmasterslave.o
    0x20000014   0x080067d4   0x00000002   Data   RW           48    .data.offsetdc      bldc.o
    0x20000016   0x080067d6   0x00000002   PAD
    0x20000018   0x080067d8   0x00000004   Data   RW           37    .data.revs32Scale   bldc.o
    0x2000001c   0x080067dc   0x00000004   Data   RW           38    .data.revs32ScaleSlow  bldc.o
    0x20000020   0x080067e0   0x00000002   Data   RW            8    .data.speedLimit    main.o
    0x20000022   0x080067e2   0x00000001   Data   RW            9    .data.wState        main.o
    0x20000023   0x080067e3   0x00000001   Data   RW           10    .data.wStateSlave   main.o
    0x20000024   0x080067e4   0x00000004   PAD
    0x20000028        -       0x0000000c   Zero   RW           85    .bss.aHallEXTI      bldcsine.o
    0x20000034        -       0x000000ff   Zero   RW          164    .bss.aReceiveBuffer  remoteuartbus.o
    0x20000133        -       0x00000010   Zero   RW          178    .bss.aReceiveBuffer  commsmasterslave.o
    0x20000143   0x080067e4   0x00000001   PAD
    0x20000144        -       0x00000004   Zero   RW           61    .bss.adc_buffer     bldc.o
    0x20000148        -       0x00000002   Zero   RW           80    .bss.angle_deg      bldcsine.o
    0x2000014a        -       0x00000002   Zero   RW           81    .bss.angle_deg_add  bldcsine.o
    0x2000014c        -       0x00000002   Zero   RW           82    .bss.angle_deg_final  bldcsine.o
    0x2000014e        -       0x00000002   Zero   RW           83    .bss.angle_idx      bldcsine.o
    0x20000150        -       0x00000001   Zero   RW           86    .bss.bInterrupt     bldcsine.o
    0x20000151        -       0x00000001   Zero   RW           40    .bss.bldc_enable    bldc.o
    0x20000152   0x080067e4   0x00000002   PAD
    0x20000154        -       0x00000004   Zero   RW           42    .bss.bldc_inputFilterPwm  bldc.o
    0x20000158        -       0x00000004   Zero   RW           43    .bss.bldc_outputFilterPwm  bldc.o
    0x2000015c        -       0x00000001   Zero   RW           54    .bss.buzzerFreq     bldc.o
    0x2000015d        -       0x00000001   Zero   RW           55    .bss.buzzerPattern  bldc.o
    0x2000015e        -       0x00000002   Zero   RW           46    .bss.buzzerTimer    bldc.o
    0x20000160        -       0x00000001   Zero   RW           53    .bss.buzzerToggle   bldc.o
    0x20000161   0x080067e4   0x00000003   PAD
    0x20000164        -       0x00000024   Zero   RW          111    .bss.dma_init_struct_adc  setup.o
    0x20000188        -       0x00000024   Zero   RW          112    .bss.dma_init_struct_usart  setup.o
    0x200001ac        -       0x00000001   Zero   RW           17    .bss.enable         main.o
    0x200001ad   0x080067e4   0x00000003   PAD
    0x200001b0        -       0x00000004   Zero   RW           60    .bss.filter_reg     bldc.o
    0x200001b4        -       0x00000001   Zero   RW           41    .bss.hall           bldc.o
    0x200001b5        -       0x00000001   Zero   RW           62    .bss.hall_a         bldc.o
    0x200001b6        -       0x00000001   Zero   RW           63    .bss.hall_b         bldc.o
    0x200001b7        -       0x00000001   Zero   RW           64    .bss.hall_c         bldc.o
    0x200001b8        -       0x00000001   Zero   RW           89    .bss.hall_last      bldcsine.o
    0x200001b9   0x080067e4   0x00000001   PAD
    0x200001ba        -       0x00000002   Zero   RW           87    .bss.hall_time_last  bldcsine.o
    0x200001bc        -       0x00000002   Zero   RW           88    .bss.hall_time_step  bldcsine.o
    0x200001be   0x080067e4   0x00000002   PAD
    0x200001c0        -       0x00000004   Zero   RW           96    .bss.hall_time_step_LP  bldcsine.o
    0x200001c4        -       0x00000004   Zero   RW           95    .bss.hall_time_step_LPR  bldcsine.o
    0x200001c8        -       0x00000004   Zero   RW          134    .bss.iAdcCounter    it.o
    0x200001cc        -       0x00000004   Zero   RW          132    .bss.iAdcTicks      it.o
    0x200001d0        -       0x00000004   Zero   RW          133    .bss.iAdcTicks0     it.o
    0x200001d4        -       0x00000002   Zero   RW           93    .bss.iAdd           bldcsine.o
    0x200001d6   0x080067e4   0x00000002   PAD
    0x200001d8        -       0x00000004   Zero   RW          162    .bss.iAnswerMaster  remoteuartbus.o
    0x200001dc        -       0x00000004   Zero   RW           39    .bss.iBldcInput     bldc.o
    0x200001e0        -       0x00000004   Zero   RW            4    .bss.iBug           main.o
    0x200001e4        -       0x00000004   Zero   RW          136    .bss.iCounter2Usart0  it.o
    0x200001e8        -       0x00000004   Zero   RW          138    .bss.iCounter2Usart1  it.o
    0x200001ec        -       0x00000004   Zero   RW          135    .bss.iCounterUsart0  it.o
    0x200001f0        -       0x00000004   Zero   RW          137    .bss.iCounterUsart1  it.o
    0x200001f4        -       0x00000002   Zero   RW           92    .bss.iDT            bldcsine.o
    0x200001f6        -       0x00000001   Zero   RW           44    .bss.iDrivingModeOverride  bldc.o
    0x200001f7   0x080067e4   0x00000001   PAD
    0x200001f8        -       0x00000004   Zero   RW           56    .bss.iOdom          bldc.o
    0x200001fc        -       0x00000004   Zero   RW           57    .bss.iOdomLast      bldc.o
    0x20000200        -       0x00000004   Zero   RW          131    .bss.iPwmCounter    it.o
    0x20000204        -       0x00000004   Zero   RW          129    .bss.iPwmTicks      it.o
    0x20000208        -       0x00000004   Zero   RW          130    .bss.iPwmTicks0     it.o
    0x2000020c        -       0x00000002   Zero   RW          163    .bss.iReceivePos    remoteuartbus.o
    0x2000020e        -       0x00000001   Zero   RW          166    .bss.iRxDataSize    remoteuartbus.o
    0x2000020f        -       0x00000001   Zero   RW          165    .bss.iRxDataType    remoteuartbus.o
    0x20000210        -       0x00000004   Zero   RW          161    .bss.iTimeLastRx    remoteuartbus.o
    0x20000214        -       0x00000004   Zero   RW           19    .bss.iTimeNextLoop  main.o
    0x20000218        -       0x00000004   Zero   RW           15    .bss.inactivity_timeout_counter  main.o
    0x2000021c        -       0x00000001   Zero   RW           66    .bss.lastPos        bldc.o
    0x2000021d   0x080067e4   0x00000003   PAD
    0x20000220        -       0x00000004   Zero   RW          128    .bss.msTicks        it.o
    0x20000224        -       0x00000014   Zero   RW          115    .bss.oConfig        setup.o
    0x20000238        -       0x00000010   Zero   RW           20    .bss.oDataSlave     main.o
    0x20000248        -       0x00000002   Zero   RW           47    .bss.offsetcount    bldc.o
    0x2000024a   0x080067e4   0x00000002   PAD
    0x2000024c        -       0x0000001c   Zero   RW          195    .bss.pid            driver.o
    0x20000268        -       0x00000001   Zero   RW           65    .bss.pos            bldc.o
    0x20000269   0x080067e4   0x00000003   PAD
    0x2000026c        -       0x00000004   Zero   RW           84    .bss.pwmGo          bldcsine.o
    0x20000270        -       0x00000002   Zero   RW           18    .bss.pwmSlave       main.o
    0x20000272   0x080067e4   0x00000002   PAD
    0x20000274        -       0x00000004   Zero   RW           33    .bss.realSpeed      bldc.o
    0x20000278        -       0x00000004   Zero   RW           34    .bss.revs32         bldc.o
    0x2000027c        -       0x00000004   Zero   RW           35    .bss.revs32_reg     bldc.o
    0x20000280        -       0x00000004   Zero   RW           36    .bss.revs32x        bldc.o
    0x20000284        -       0x00000001   Zero   RW           78    .bss.sector         bldcsine.o
    0x20000285        -       0x00000001   Zero   RW           79    .bss.sector10x      bldcsine.o
    0x20000286        -       0x00000001   Zero   RW           77    .bss.sectorChange   bldcsine.o
    0x20000287   0x080067e4   0x00000001   PAD
    0x20000288        -       0x00000004   Zero   RW            6    .bss.speed          main.o
    0x2000028c        -       0x00000004   Zero   RW           49    .bss.speedCounter   bldc.o
    0x20000290        -       0x00000004   Zero   RW           51    .bss.speedCounterLog  bldc.o
    0x20000294        -       0x00000004   Zero   RW           50    .bss.speedCounterSlow  bldc.o
    0x20000298        -       0x00000004   Zero   RW           52    .bss.speedCounterSlowLog  bldc.o
    0x2000029c        -       0x00000004   Zero   RW            7    .bss.speedShutoff   main.o
    0x200002a0        -       0x00000004   Zero   RW           11    .bss.steer          main.o
    0x200002a4        -       0x00000004   Zero   RW            5    .bss.steerCounter   main.o
    0x200002a8        -       0x00000001   Zero   RW          127    .bss.timedOut       it.o
    0x200002a9   0x080067e4   0x00000003   PAD
    0x200002ac        -       0x00000004   Zero   RW          126    .bss.timeoutCounter_ms  it.o
    0x200002b0        -       0x00000010   Zero   RW          107    .bss.timeoutTimer_paramter_struct  setup.o
    0x200002c0        -       0x00000018   Zero   RW          110    .bss.timerBldc_break_parameter_struct  setup.o
    0x200002d8        -       0x00000010   Zero   RW          109    .bss.timerBldc_oc_parameter_struct  setup.o
    0x200002e8        -       0x00000010   Zero   RW          108    .bss.timerBldc_paramter_struct  setup.o
    0x200002f8        -       0x00000001   Zero   RW          113    .bss.usart0_rx_buf  setup.o
    0x200002f9        -       0x00000001   Zero   RW          114    .bss.usart1_rx_buf  setup.o
    0x200002fa   0x080067e4   0x00000006   PAD
    0x20000300        -       0x00000400   Zero   RW          332    STACK               startup_gd32f1x0.o


==============================================================================

Image component sizes


      Code (inc. data)   RO Data    RW Data    ZI Data      Debug   Object Name

      1514          0         20         19         75       4448   bldc.o
       956          0        728          0         45       6555   bldcsine.o
       124          0          0          0          0       2115   comms.o
       234          0          0          2         16       2062   commsmasterslave.o
       456          0          0          0         28       3078   driver.o
      1446         16          0          0          0       7635   gd32f1x0_adc.o
       880         64          0          0          0       5997   gd32f1x0_dma.o
       366          0          0          0          0       3198   gd32f1x0_exti.o
      2512          0          0          0          0      13341   gd32f1x0_fmc.o
       226          0          0          0          0       2007   gd32f1x0_fwdgt.o
       408          0         12          0          0       4183   gd32f1x0_gpio.o
       300          0          0          0          0       3163   gd32f1x0_misc.o
      1828         34          8          0          0      13497   gd32f1x0_rcu.o
       258          4          0          0          0       2988   gd32f1x0_syscfg.o
      3408         44          0          0          0      18497   gd32f1x0_timer.o
      1602          8          0          0          0      11885   gd32f1x0_usart.o
       502          0          0          0         49       3062   it.o
      2008          0        724          6         47       7545   main.o
       678          0          0          0        267       2676   remoteuartbus.o
      2488          0          0          0        166      10368   setup.o
        36          8        360          0       1024        844   startup_gd32f1x0.o
       316         16          0          4          0       1621   system_gd32f1x0.o

    ----------------------------------------------------------------------
     22564        194       1886         36       1756     130765   Object Totals
         0          0         32          0          0          0   (incl. Generated)
        18          0          2          5         39          0   (incl. Padding)

    ----------------------------------------------------------------------

      Code (inc. data)   RO Data    RW Data    ZI Data      Debug   Library Member Name

         0          0          0          0          0          0   entry.o
         0          0          0          0          0          0   entry10a.o
         0          0          0          0          0          0   entry11a.o
         8          4          0          0          0          0   entry2.o
         4          0          0          0          0          0   entry5.o
         0          0          0          0          0          0   entry7b.o
         0          0          0          0          0          0   entry8b.o
         8          4          0          0          0          0   entry9a.o
        30          0          0          0          0          0   handlers.o
        48         10          0          0          0         68   init.o
         0          0          0          0          0          0   iusefp.o
        30          0          0          0          0         68   llshl.o
        36          0          0          0          0         68   llsshr.o
        32          0          0          0          0         68   llushr.o
        56          0          0          0          0         88   d2f.o
       334          0          0          0          0        148   dadd.o
        54          0          0          0          0         80   dcmple.o
       222          0          0          0          0        100   ddiv.o
       186          0          0          0          0        176   depilogue.o
        62          0          0          0          0         80   dfixi.o
        34          0          0          0          0         76   dflti.o
        26          0          0          0          0         76   dfltui.o
       228          0          0          0          0         96   dmul.o
        38          0          0          0          0         68   f2d.o
       176          0          0          0          0        140   fadd.o
        28          0          0          0          0         68   fcmpgt.o
        28          0          0          0          0         68   fcmple.o
        28          0          0          0          0         68   fcmplt.o
       124          0          0          0          0         88   fdiv.o
       110          0          0          0          0        168   fepilogue.o
        50          0          0          0          0         68   ffixi.o
        18          0          0          0          0         68   fflti.o
        10          0          0          0          0         68   ffltui.o
       100          0          0          0          0         76   fmul.o

    ----------------------------------------------------------------------
      2110         18          0          0          0       2140   Library Totals
         2          0          0          0          0          0   (incl. Padding)

    ----------------------------------------------------------------------

      Code (inc. data)   RO Data    RW Data    ZI Data      Debug   Library Name

       196         18          0          0          0        272   mc_w.l
      1912          0          0          0          0       1868   mf_w.l

    ----------------------------------------------------------------------
      2110         18          0          0          0       2140   Library Totals

    ----------------------------------------------------------------------

==============================================================================


      Code (inc. data)   RO Data    RW Data    ZI Data      Debug   

     24674        212       1886         36       1756     131565   Grand Totals
     24674        212       1886         36       1756     131565   ELF Image Totals
     24674        212       1886         36          0          0   ROM Totals

==============================================================================

    Total RO  Size (Code + RO Data)                26560 (  25.94kB)
    Total RW  Size (RW Data + ZI Data)              1792 (   1.75kB)
    Total ROM Size (Code + RO Data + RW Data)      26596 (  25.97kB)

==============================================================================

