Component: Arm Compiler for Embedded 6.19 Tool: armlink [5e73cb00]

==============================================================================

Section Cross References

    main.o(.text) refers to main.o(.bss.iBug) for iBug
    main.o(.text) refers to setup.o(.text) for ConfigRead
    main.o(.text) refers to system_gd32f10x.o(.text) for SystemCoreClockUpdate
    main.o(.text) refers to system_gd32f10x.o(.data.SystemCoreClock) for SystemCoreClock
    main.o(.text) refers to gd32f10x_gpio.o(.text) for gpio_bit_write
    main.o(.text) refers to bldcbc.o(.text) for InitBldc
    main.o(.text) refers to gd32f10x_fwdgt.o(.text) for fwdgt_counter_reload
    main.o(.text) refers to bldc.o(.bss.buzzerFreq) for buzzerFreq
    main.o(.text) refers to it.o(.text) for Delay
    main.o(.text) refers to main.o(.bss.iTimeNextLoop) for iTimeNextLoop
    main.o(.text) refers to main.o(.bss.speed) for speed
    main.o(.text) refers to main.o(.bss.pwmSlave) for pwmSlave
    main.o(.text) refers to main.o(.bss.steerCounter) for steerCounter
    main.o(.text) refers to remoteuartbus.o(.text) for RemoteUpdate
    main.o(.text) refers to main.o(.bss.speedShutoff) for speedShutoff
    main.o(.text) refers to fflti.o(.text) for __aeabi_i2f
    main.o(.text) refers to f2d.o(.text) for __aeabi_f2d
    main.o(.text) refers to dmul.o(.text) for __aeabi_dmul
    main.o(.text) refers to ddiv.o(.text) for __aeabi_ddiv
    main.o(.text) refers to dadd.o(.text) for __aeabi_dadd
    main.o(.text) refers to d2f.o(.text) for __aeabi_d2f
    main.o(.text) refers to main.o(.data.speedLimit) for speedLimit
    main.o(.text) refers to main.o(.bss.steer) for steer
    main.o(.text) refers to fmul.o(.text) for __aeabi_fmul
    main.o(.text) refers to ffixi.o(.text) for __aeabi_f2iz
    main.o(.text) refers to fadd.o(.text) for __aeabi_fsub
    main.o(.text) refers to fdiv.o(.text) for __aeabi_fdiv
    main.o(.text) refers to main.o(.rodata.lookUpTableAngle) for lookUpTableAngle
    main.o(.text) refers to fcmplt.o(.text) for __aeabi_fcmplt
    main.o(.text) refers to bldc.o(.text) for SetPWM
    main.o(.text) refers to main.o(.bss.enable) for enable
    main.o(.text) refers to it.o(.bss.timedOut) for timedOut
    main.o(.text) refers to main.o(.data.wStateSlave) for wStateSlave
    main.o(.text) refers to commsmasterslave.o(.text) for SendSlave
    main.o(.text) refers to bldc.o(.data.batteryVoltage) for batteryVoltage
    main.o(.text) refers to fcmple.o(.text) for __aeabi_fcmple
    main.o(.text) refers to main.o(.data.wState) for wState
    main.o(.text) refers to main.o(.data.beepsBackwards) for beepsBackwards
    main.o(.text) refers to dcmple.o(.text) for __aeabi_dcmple
    main.o(.text) refers to bldc.o(.bss.buzzerPattern) for buzzerPattern
    main.o(.text) refers to main.o(.bss.inactivity_timeout_counter) for inactivity_timeout_counter
    main.o(.text) refers to gd32f10x_usart.o(.text) for usart_deinit
    main.o(.ARM.exidx) refers to main.o(.text) for [Anonymous Symbol]
    bldc.o(.text) refers to bldc.o(.rodata..L__const.up_or_down.up_down) for .L__const.up_or_down.up_down
    bldc.o(.text) refers to bldc.o(.bss.bldc_enable) for bldc_enable
    bldc.o(.text) refers to dflti.o(.text) for __aeabi_i2d
    bldc.o(.text) refers to ddiv.o(.text) for __aeabi_ddiv
    bldc.o(.text) refers to dmul.o(.text) for __aeabi_dmul
    bldc.o(.text) refers to dfixi.o(.text) for __aeabi_d2iz
    bldc.o(.text) refers to bldc.o(.bss.bldc_inputFilterPwm) for bldc_inputFilterPwm
    bldc.o(.text) refers to bldc.o(.data.iFILTER_SHIFT) for iFILTER_SHIFT
    bldc.o(.text) refers to bldc.o(.bss.bldc_outputFilterPwm) for bldc_outputFilterPwm
    bldc.o(.text) refers to bldc.o(.bss.filter_reg) for filter_reg
    bldc.o(.text) refers to bldc.o(.bss.offsetcount) for offsetcount
    bldc.o(.text) refers to bldc.o(.bss.adc_buffer) for adc_buffer
    bldc.o(.text) refers to bldc.o(.data.offsetdc) for offsetdc
    bldc.o(.text) refers to bldc.o(.bss.buzzerTimer) for buzzerTimer
    bldc.o(.text) refers to bldc.o(.data.batteryVoltage) for batteryVoltage
    bldc.o(.text) refers to f2d.o(.text) for __aeabi_f2d
    bldc.o(.text) refers to dfltui.o(.text) for __aeabi_ui2d
    bldc.o(.text) refers to dadd.o(.text) for __aeabi_dadd
    bldc.o(.text) refers to d2f.o(.text) for __aeabi_d2f
    bldc.o(.text) refers to main.o(.bss.iBug) for iBug
    bldc.o(.text) refers to bldc.o(.bss.buzzerFreq) for buzzerFreq
    bldc.o(.text) refers to bldc.o(.bss.buzzerPattern) for buzzerPattern
    bldc.o(.text) refers to gd32f10x_gpio.o(.text) for gpio_bit_write
    bldc.o(.text) refers to bldc.o(.data.currentDC) for currentDC
    bldc.o(.text) refers to fcmpgt.o(.text) for __aeabi_fcmpgt
    bldc.o(.text) refers to it.o(.bss.timedOut) for timedOut
    bldc.o(.text) refers to gd32f10x_timer.o(.text) for timer_automatic_output_enable
    bldc.o(.text) refers to bldc.o(.bss.hall_a) for hall_a
    bldc.o(.text) refers to bldc.o(.bss.hall_b) for hall_b
    bldc.o(.text) refers to bldc.o(.bss.hall_c) for hall_c
    bldc.o(.text) refers to bldc.o(.bss.hall) for hall
    bldc.o(.text) refers to bldc.o(.rodata.hall_to_pos) for hall_to_pos
    bldc.o(.text) refers to bldc.o(.bss.pos) for pos
    bldc.o(.text) refers to bldcbc.o(.text) for bldc_get_pwm
    bldc.o(.text) refers to bldc.o(.bss.lastPos) for lastPos
    bldc.o(.text) refers to bldc.o(.bss.iOdom) for iOdom
    bldc.o(.text) refers to bldc.o(.bss.speedCounter) for speedCounter
    bldc.o(.text) refers to ffltui.o(.text) for __aeabi_ui2f
    bldc.o(.text) refers to fdiv.o(.text) for __aeabi_fdiv
    bldc.o(.text) refers to bldc.o(.bss.realSpeed) for realSpeed
    bldc.o(.text) refers to bldc.o(.bss.buzzerToggle) for buzzerToggle
    bldc.o(.ARM.exidx) refers to bldc.o(.text) for [Anonymous Symbol]
    bldcbc.o(.ARM.exidx) refers to bldcbc.o(.text) for [Anonymous Symbol]
    setup.o(.text) refers to gd32f10x_misc.o(.text) for nvic_priority_group_set
    setup.o(.text) refers to gd32f10x_rcu.o(.text) for rcu_flag_get
    setup.o(.text) refers to gd32f10x_fwdgt.o(.text) for fwdgt_config
    setup.o(.text) refers to gd32f10x_timer.o(.text) for timer_deinit
    setup.o(.text) refers to setup.o(.bss.timeoutTimer_paramter_struct) for timeoutTimer_paramter_struct
    setup.o(.text) refers to gd32f10x_gpio.o(.text) for gpio_init
    setup.o(.text) refers to setup.o(.bss.timerBldc_paramter_struct) for timerBldc_paramter_struct
    setup.o(.text) refers to setup.o(.bss.timerBldc_oc_parameter_struct) for timerBldc_oc_parameter_struct
    setup.o(.text) refers to setup.o(.bss.timerBldc_break_parameter_struct) for timerBldc_break_parameter_struct
    setup.o(.text) refers to gd32f10x_dma.o(.text) for dma_deinit
    setup.o(.text) refers to setup.o(.bss.dma_init_struct_adc) for dma_init_struct_adc
    setup.o(.text) refers to bldc.o(.bss.adc_buffer) for adc_buffer
    setup.o(.text) refers to gd32f10x_adc.o(.text) for adc_channel_length_config
    setup.o(.text) refers to gd32f10x_usart.o(.text) for usart_deinit
    setup.o(.text) refers to setup.o(.bss.dma_init_struct_usart) for dma_init_struct_usart
    setup.o(.text) refers to setup.o(.bss.usart0_rx_buf) for usart0_rx_buf
    setup.o(.text) refers to setup.o(.bss.usart2_rx_buf) for usart2_rx_buf
    setup.o(.text) refers to gd32f10x_fmc.o(.text) for fmc_unlock
    setup.o(.text) refers to setup.o(.bss.oConfig) for oConfig
    setup.o(.ARM.exidx) refers to setup.o(.text) for [Anonymous Symbol]
    it.o(.text) refers to it.o(.bss.msTicks) for msTicks
    it.o(.text) refers to it.o(.bss.timeoutCounter_ms) for timeoutCounter_ms
    it.o(.text) refers to it.o(.bss.timedOut) for timedOut
    it.o(.text) refers to main.o(.bss.steer) for steer
    it.o(.text) refers to main.o(.bss.speed) for speed
    it.o(.text) refers to main.o(.data.beepsBackwards) for beepsBackwards
    it.o(.text) refers to gd32f10x_timer.o(.text) for timer_interrupt_flag_clear
    it.o(.text) refers to it.o(.bss.iPwmCounter) for iPwmCounter
    it.o(.text) refers to it.o(.bss.iPwmTicks0) for iPwmTicks0
    it.o(.text) refers to it.o(.bss.iPwmTicks) for iPwmTicks
    it.o(.text) refers to gd32f10x_adc.o(.text) for adc_software_trigger_enable
    it.o(.text) refers to it.o(.bss.iAdcCounter) for iAdcCounter
    it.o(.text) refers to it.o(.bss.iAdcTicks0) for iAdcTicks0
    it.o(.text) refers to it.o(.bss.iAdcTicks) for iAdcTicks
    it.o(.text) refers to bldc.o(.text) for CalculateBLDC
    it.o(.text) refers to gd32f10x_dma.o(.text) for dma_interrupt_flag_get
    it.o(.text) refers to it.o(.bss.iCounterUsart0) for iCounterUsart0
    it.o(.text) refers to it.o(.bss.iCounter2Usart0) for iCounter2Usart0
    it.o(.text) refers to remoteuartbus.o(.text) for RemoteCallback
    it.o(.text) refers to it.o(.bss.iCounterUsart2) for iCounterUsart2
    it.o(.text) refers to it.o(.bss.iCounter2Usart2) for iCounter2Usart2
    it.o(.text) refers to commsmasterslave.o(.text) for UpdateUSARTMasterSlaveInput
    it.o(.ARM.exidx) refers to it.o(.text) for [Anonymous Symbol]
    comms.o(.text) refers to gd32f10x_usart.o(.text) for usart_data_transmit
    comms.o(.ARM.exidx) refers to comms.o(.text) for [Anonymous Symbol]
    remoteuartbus.o(.text) refers to it.o(.text) for millis
    remoteuartbus.o(.text) refers to remoteuartbus.o(.bss.iTimeLastRx) for iTimeLastRx
    remoteuartbus.o(.text) refers to main.o(.bss.steer) for steer
    remoteuartbus.o(.text) refers to main.o(.bss.speed) for speed
    remoteuartbus.o(.text) refers to bldc.o(.data.batteryVoltage) for batteryVoltage
    remoteuartbus.o(.text) refers to fmul.o(.text) for __aeabi_fmul
    remoteuartbus.o(.text) refers to ffixi.o(.text) for __aeabi_f2iz
    remoteuartbus.o(.text) refers to bldc.o(.data.currentDC) for currentDC
    remoteuartbus.o(.text) refers to bldc.o(.bss.realSpeed) for realSpeed
    remoteuartbus.o(.text) refers to remoteuartbus.o(.bss.iAnswerMaster) for iAnswerMaster
    remoteuartbus.o(.text) refers to comms.o(.text) for CalcCRC
    remoteuartbus.o(.text) refers to remoteuartbus.o(.bss.iReceivePos) for iReceivePos
    remoteuartbus.o(.text) refers to setup.o(.bss.usart0_rx_buf) for usart0_rx_buf
    remoteuartbus.o(.text) refers to remoteuartbus.o(.bss.aReceiveBuffer) for aReceiveBuffer
    remoteuartbus.o(.text) refers to remoteuartbus.o(.bss.iRxDataType) for iRxDataType
    remoteuartbus.o(.text) refers to remoteuartbus.o(.bss.iRxDataSize) for iRxDataSize
    remoteuartbus.o(.text) refers to main.o(.data.wState) for wState
    remoteuartbus.o(.text) refers to main.o(.bss.iBug) for iBug
    remoteuartbus.o(.text) refers to main.o(.data.wStateSlave) for wStateSlave
    remoteuartbus.o(.ARM.exidx) refers to remoteuartbus.o(.text) for [Anonymous Symbol]
    commsmasterslave.o(.text) refers to setup.o(.bss.usart2_rx_buf) for usart2_rx_buf
    commsmasterslave.o(.text) refers to commsmasterslave.o(.data.iReceivePos) for iReceivePos
    commsmasterslave.o(.text) refers to commsmasterslave.o(.bss.aReceiveBuffer) for aReceiveBuffer
    commsmasterslave.o(.text) refers to comms.o(.text) for CalcCRC
    commsmasterslave.o(.text) refers to main.o(.bss.oDataSlave) for oDataSlave
    commsmasterslave.o(.text) refers to main.o(.data.wStateSlave) for wStateSlave
    commsmasterslave.o(.ARM.exidx) refers to commsmasterslave.o(.text) for [Anonymous Symbol]
    gd32f10x_adc.o(.text) refers to gd32f10x_rcu.o(.text) for rcu_periph_reset_enable
    gd32f10x_adc.o(.ARM.exidx) refers to gd32f10x_adc.o(.text) for [Anonymous Symbol]
    gd32f10x_dma.o(.ARM.exidx) refers to gd32f10x_dma.o(.text) for [Anonymous Symbol]
    gd32f10x_exti.o(.ARM.exidx) refers to gd32f10x_exti.o(.text) for [Anonymous Symbol]
    gd32f10x_fmc.o(.ARM.exidx) refers to gd32f10x_fmc.o(.text) for [Anonymous Symbol]
    gd32f10x_fwdgt.o(.ARM.exidx) refers to gd32f10x_fwdgt.o(.text) for [Anonymous Symbol]
    gd32f10x_gpio.o(.text) refers to gd32f10x_rcu.o(.text) for rcu_periph_reset_enable
    gd32f10x_gpio.o(.ARM.exidx) refers to gd32f10x_gpio.o(.text) for [Anonymous Symbol]
    gd32f10x_i2c.o(.text) refers to gd32f10x_rcu.o(.text) for rcu_periph_reset_enable
    gd32f10x_i2c.o(.ARM.exidx) refers to gd32f10x_i2c.o(.text) for [Anonymous Symbol]
    gd32f10x_misc.o(.ARM.exidx) refers to gd32f10x_misc.o(.text) for [Anonymous Symbol]
    gd32f10x_pmu.o(.text) refers to gd32f10x_rcu.o(.text) for rcu_periph_reset_enable
    gd32f10x_pmu.o(.ARM.exidx) refers to gd32f10x_pmu.o(.text) for [Anonymous Symbol]
    gd32f10x_rcu.o(.text) refers to gd32f10x_rcu.o(.rodata.cst8) for .L__const.rcu_clock_freq_get.apb2_exp
    gd32f10x_rcu.o(.ARM.exidx) refers to gd32f10x_rcu.o(.text) for [Anonymous Symbol]
    gd32f10x_timer.o(.text) refers to gd32f10x_rcu.o(.text) for rcu_periph_reset_enable
    gd32f10x_timer.o(.ARM.exidx) refers to gd32f10x_timer.o(.text) for [Anonymous Symbol]
    gd32f10x_usart.o(.text) refers to gd32f10x_rcu.o(.text) for rcu_periph_reset_enable
    gd32f10x_usart.o(.ARM.exidx) refers to gd32f10x_usart.o(.text) for [Anonymous Symbol]
    gd32f10x_wwdgt.o(.text) refers to gd32f10x_rcu.o(.text) for rcu_periph_reset_enable
    gd32f10x_wwdgt.o(.ARM.exidx) refers to gd32f10x_wwdgt.o(.text) for [Anonymous Symbol]
    startup_gd32f10x_hd.o(RESET) refers to startup_gd32f10x_hd.o(STACK) for __initial_sp
    startup_gd32f10x_hd.o(RESET) refers to startup_gd32f10x_hd.o(.text) for Reset_Handler
    startup_gd32f10x_hd.o(RESET) refers to it.o(.text) for NMI_Handler
    startup_gd32f10x_hd.o(.text) refers to system_gd32f10x.o(.text) for SystemInit
    startup_gd32f10x_hd.o(.text) refers to entry.o(.ARM.Collect$$$$00000000) for __main
    system_gd32f10x.o(.text) refers to system_gd32f10x.o(.data.SystemCoreClock) for SystemCoreClock
    system_gd32f10x.o(.ARM.exidx) refers to system_gd32f10x.o(.text) for [Anonymous Symbol]
    entry.o(.ARM.Collect$$$$00000000) refers (Special) to entry10a.o(.ARM.Collect$$$$0000000D) for __rt_final_cpp
    entry.o(.ARM.Collect$$$$00000000) refers (Special) to entry11a.o(.ARM.Collect$$$$0000000F) for __rt_final_exit
    entry.o(.ARM.Collect$$$$00000000) refers (Special) to entry7b.o(.ARM.Collect$$$$00000008) for _main_clock
    entry.o(.ARM.Collect$$$$00000000) refers (Special) to entry8b.o(.ARM.Collect$$$$0000000A) for _main_cpp_init
    entry.o(.ARM.Collect$$$$00000000) refers (Special) to entry9a.o(.ARM.Collect$$$$0000000B) for _main_init
    entry.o(.ARM.Collect$$$$00000000) refers (Special) to entry5.o(.ARM.Collect$$$$00000004) for _main_scatterload
    entry.o(.ARM.Collect$$$$00000000) refers (Special) to entry2.o(.ARM.Collect$$$$00000001) for _main_stk
    fadd.o(.text) refers (Special) to iusefp.o(.text) for __I$use$fp
    fadd.o(.text) refers to fepilogue.o(.text) for _float_epilogue
    fmul.o(.text) refers (Special) to iusefp.o(.text) for __I$use$fp
    fdiv.o(.text) refers (Special) to iusefp.o(.text) for __I$use$fp
    fdiv.o(.text) refers to fepilogue.o(.text) for _float_round
    dadd.o(.text) refers (Special) to iusefp.o(.text) for __I$use$fp
    dadd.o(.text) refers to llshl.o(.text) for __aeabi_llsl
    dadd.o(.text) refers to llsshr.o(.text) for __aeabi_lasr
    dadd.o(.text) refers to depilogue.o(.text) for _double_epilogue
    dmul.o(.text) refers (Special) to iusefp.o(.text) for __I$use$fp
    dmul.o(.text) refers to depilogue.o(.text) for _double_epilogue
    ddiv.o(.text) refers (Special) to iusefp.o(.text) for __I$use$fp
    ddiv.o(.text) refers to depilogue.o(.text) for _double_round
    fcmple.o(.text) refers (Special) to iusefp.o(.text) for __I$use$fp
    fcmplt.o(.text) refers (Special) to iusefp.o(.text) for __I$use$fp
    fcmpgt.o(.text) refers (Special) to iusefp.o(.text) for __I$use$fp
    dcmple.o(.text) refers (Special) to iusefp.o(.text) for __I$use$fp
    fflti.o(.text) refers (Special) to iusefp.o(.text) for __I$use$fp
    fflti.o(.text) refers to fepilogue.o(.text) for _float_epilogue
    ffltui.o(.text) refers (Special) to iusefp.o(.text) for __I$use$fp
    ffltui.o(.text) refers to fepilogue.o(.text) for _float_epilogue
    dflti.o(.text) refers (Special) to iusefp.o(.text) for __I$use$fp
    dflti.o(.text) refers to depilogue.o(.text) for _double_epilogue
    dfltui.o(.text) refers (Special) to iusefp.o(.text) for __I$use$fp
    dfltui.o(.text) refers to depilogue.o(.text) for _double_epilogue
    ffixi.o(.text) refers (Special) to iusefp.o(.text) for __I$use$fp
    dfixi.o(.text) refers (Special) to iusefp.o(.text) for __I$use$fp
    dfixi.o(.text) refers to llushr.o(.text) for __aeabi_llsr
    f2d.o(.text) refers (Special) to iusefp.o(.text) for __I$use$fp
    d2f.o(.text) refers (Special) to iusefp.o(.text) for __I$use$fp
    d2f.o(.text) refers to fepilogue.o(.text) for _float_round
    entry2.o(.ARM.Collect$$$$00000001) refers to entry2.o(.ARM.Collect$$$$00002712) for __lit__00000000
    entry2.o(.ARM.Collect$$$$00002712) refers to startup_gd32f10x_hd.o(STACK) for __initial_sp
    entry2.o(__vectab_stack_and_reset_area) refers to startup_gd32f10x_hd.o(STACK) for __initial_sp
    entry2.o(__vectab_stack_and_reset_area) refers to entry.o(.ARM.Collect$$$$00000000) for __main
    entry5.o(.ARM.Collect$$$$00000004) refers to init.o(.text) for __scatterload
    entry9a.o(.ARM.Collect$$$$0000000B) refers to main.o(.text) for main
    entry9b.o(.ARM.Collect$$$$0000000C) refers to main.o(.text) for main
    fepilogue.o(.text) refers (Special) to iusefp.o(.text) for __I$use$fp
    depilogue.o(.text) refers (Special) to iusefp.o(.text) for __I$use$fp
    depilogue.o(.text) refers to llshl.o(.text) for __aeabi_llsl
    depilogue.o(.text) refers to llushr.o(.text) for __aeabi_llsr
    init.o(.text) refers to entry5.o(.ARM.Collect$$$$00000004) for __main_after_scatterload


==============================================================================

Removing Unused input sections from the image.

    Removing main.o(.ARM.exidx), (24 bytes).
    Removing main.o(.bss.activateWeakening), (1 bytes).
    Removing main.o(.bss.slaveError), (1 bytes).
    Removing main.o(.ARM.use_no_argv), (4 bytes).
    Removing bldc.o(.ARM.exidx), (48 bytes).
    Removing bldcbc.o(.ARM.exidx), (16 bytes).
    Removing bldcsine.o(.text), (0 bytes).
    Removing setup.o(.ARM.exidx), (152 bytes).
    Removing setup.o(.bss.usart1_rx_buf), (1 bytes).
    Removing it.o(.ARM.exidx), (136 bytes).
    Removing led.o(.text), (0 bytes).
    Removing comms.o(.ARM.exidx), (16 bytes).
    Removing remoteuart.o(.text), (0 bytes).
    Removing remotecrsf.o(.text), (0 bytes).
    Removing remotedummy.o(.text), (0 bytes).
    Removing remoteuartbus.o(.ARM.exidx), (24 bytes).
    Removing commsmasterslave.o(.ARM.exidx), (24 bytes).
    Removing commsmasterslave.o(.bss.mosfetOutMaster), (1 bytes).
    Removing commsmasterslave.o(.bss.beepsBackwardsMaster), (1 bytes).
    Removing remoteadc.o(.text), (0 bytes).
    Removing remoteautodetect.o(.text), (0 bytes).
    Removing gd32f10x_adc.o(.ARM.exidx), (272 bytes).
    Removing gd32f10x_dma.o(.ARM.exidx), (216 bytes).
    Removing gd32f10x_exti.o(.text), (362 bytes).
    Removing gd32f10x_exti.o(.ARM.exidx), (96 bytes).
    Removing gd32f10x_fmc.o(.ARM.exidx), (272 bytes).
    Removing gd32f10x_fwdgt.o(.ARM.exidx), (48 bytes).
    Removing gd32f10x_gpio.o(.ARM.exidx), (136 bytes).
    Removing gd32f10x_i2c.o(.text), (802 bytes).
    Removing gd32f10x_i2c.o(.ARM.exidx), (240 bytes).
    Removing gd32f10x_misc.o(.ARM.exidx), (56 bytes).
    Removing gd32f10x_pmu.o(.text), (362 bytes).
    Removing gd32f10x_pmu.o(.ARM.exidx), (96 bytes).
    Removing gd32f10x_rcu.o(.ARM.exidx), (288 bytes).
    Removing gd32f10x_timer.o(.ARM.exidx), (552 bytes).
    Removing gd32f10x_usart.o(.ARM.exidx), (344 bytes).
    Removing gd32f10x_wwdgt.o(.text), (170 bytes).
    Removing gd32f10x_wwdgt.o(.ARM.exidx), (56 bytes).
    Removing startup_gd32f10x_hd.o(HEAP), (8192 bytes).
    Removing system_gd32f10x.o(.ARM.exidx), (16 bytes).

40 unused section(s) (total 13025 bytes) removed from the image.

==============================================================================

Image Symbol Table

    Local Symbols

    Symbol Name                              Value     Ov Type        Size  Object(Section)

    ../clib/microlib/init/entry.s            0x00000000   Number         0  entry.o ABSOLUTE
    ../clib/microlib/init/entry.s            0x00000000   Number         0  entry2.o ABSOLUTE
    ../clib/microlib/init/entry.s            0x00000000   Number         0  entry5.o ABSOLUTE
    ../clib/microlib/init/entry.s            0x00000000   Number         0  entry7a.o ABSOLUTE
    ../clib/microlib/init/entry.s            0x00000000   Number         0  entry7b.o ABSOLUTE
    ../clib/microlib/init/entry.s            0x00000000   Number         0  entry8a.o ABSOLUTE
    ../clib/microlib/init/entry.s            0x00000000   Number         0  entry8b.o ABSOLUTE
    ../clib/microlib/init/entry.s            0x00000000   Number         0  entry9a.o ABSOLUTE
    ../clib/microlib/init/entry.s            0x00000000   Number         0  entry9b.o ABSOLUTE
    ../clib/microlib/init/entry.s            0x00000000   Number         0  entry10a.o ABSOLUTE
    ../clib/microlib/init/entry.s            0x00000000   Number         0  entry10b.o ABSOLUTE
    ../clib/microlib/init/entry.s            0x00000000   Number         0  entry11a.o ABSOLUTE
    ../clib/microlib/init/entry.s            0x00000000   Number         0  entry11b.o ABSOLUTE
    ../clib/microlib/longlong.c              0x00000000   Number         0  llshl.o ABSOLUTE
    ../clib/microlib/longlong.c              0x00000000   Number         0  llushr.o ABSOLUTE
    ../clib/microlib/longlong.c              0x00000000   Number         0  llsshr.o ABSOLUTE
    ../clib/microlib/stubs.s                 0x00000000   Number         0  iusefp.o ABSOLUTE
    ../fplib/microlib/d2f.c                  0x00000000   Number         0  d2f.o ABSOLUTE
    ../fplib/microlib/f2d.c                  0x00000000   Number         0  f2d.o ABSOLUTE
    ../fplib/microlib/fpadd.c                0x00000000   Number         0  fadd.o ABSOLUTE
    ../fplib/microlib/fpadd.c                0x00000000   Number         0  dadd.o ABSOLUTE
    ../fplib/microlib/fpcmp.c                0x00000000   Number         0  fcmple.o ABSOLUTE
    ../fplib/microlib/fpcmp.c                0x00000000   Number         0  fcmplt.o ABSOLUTE
    ../fplib/microlib/fpcmp.c                0x00000000   Number         0  fcmpgt.o ABSOLUTE
    ../fplib/microlib/fpcmp.c                0x00000000   Number         0  dcmple.o ABSOLUTE
    ../fplib/microlib/fpdiv.c                0x00000000   Number         0  fdiv.o ABSOLUTE
    ../fplib/microlib/fpdiv.c                0x00000000   Number         0  ddiv.o ABSOLUTE
    ../fplib/microlib/fpepilogue.c           0x00000000   Number         0  fepilogue.o ABSOLUTE
    ../fplib/microlib/fpepilogue.c           0x00000000   Number         0  depilogue.o ABSOLUTE
    ../fplib/microlib/fpfix.c                0x00000000   Number         0  ffixi.o ABSOLUTE
    ../fplib/microlib/fpfix.c                0x00000000   Number         0  dfixi.o ABSOLUTE
    ../fplib/microlib/fpflt.c                0x00000000   Number         0  fflti.o ABSOLUTE
    ../fplib/microlib/fpflt.c                0x00000000   Number         0  ffltui.o ABSOLUTE
    ../fplib/microlib/fpflt.c                0x00000000   Number         0  dflti.o ABSOLUTE
    ../fplib/microlib/fpflt.c                0x00000000   Number         0  dfltui.o ABSOLUTE
    ../fplib/microlib/fpmul.c                0x00000000   Number         0  fmul.o ABSOLUTE
    ../fplib/microlib/fpmul.c                0x00000000   Number         0  dmul.o ABSOLUTE
    RTE/Device/GD32F103C8/startup_gd32f10x_hd.s 0x00000000   Number         0  startup_gd32f10x_hd.o ABSOLUTE
    RemoteAdc.c                              0x00000000   Number         0  remoteadc.o ABSOLUTE
    RemoteAutodetect.c                       0x00000000   Number         0  remoteautodetect.o ABSOLUTE
    bldc.c                                   0x00000000   Number         0  bldc.o ABSOLUTE
    bldcBC.c                                 0x00000000   Number         0  bldcbc.o ABSOLUTE
    bldcSINE.c                               0x00000000   Number         0  bldcsine.o ABSOLUTE
    comms.c                                  0x00000000   Number         0  comms.o ABSOLUTE
    commsMasterSlave.c                       0x00000000   Number         0  commsmasterslave.o ABSOLUTE
    dc.s                                     0x00000000   Number         0  dc.o ABSOLUTE
    gd32f10x_adc.c                           0x00000000   Number         0  gd32f10x_adc.o ABSOLUTE
    gd32f10x_dma.c                           0x00000000   Number         0  gd32f10x_dma.o ABSOLUTE
    gd32f10x_exti.c                          0x00000000   Number         0  gd32f10x_exti.o ABSOLUTE
    gd32f10x_fmc.c                           0x00000000   Number         0  gd32f10x_fmc.o ABSOLUTE
    gd32f10x_fwdgt.c                         0x00000000   Number         0  gd32f10x_fwdgt.o ABSOLUTE
    gd32f10x_gpio.c                          0x00000000   Number         0  gd32f10x_gpio.o ABSOLUTE
    gd32f10x_i2c.c                           0x00000000   Number         0  gd32f10x_i2c.o ABSOLUTE
    gd32f10x_misc.c                          0x00000000   Number         0  gd32f10x_misc.o ABSOLUTE
    gd32f10x_pmu.c                           0x00000000   Number         0  gd32f10x_pmu.o ABSOLUTE
    gd32f10x_rcu.c                           0x00000000   Number         0  gd32f10x_rcu.o ABSOLUTE
    gd32f10x_timer.c                         0x00000000   Number         0  gd32f10x_timer.o ABSOLUTE
    gd32f10x_usart.c                         0x00000000   Number         0  gd32f10x_usart.o ABSOLUTE
    gd32f10x_wwdgt.c                         0x00000000   Number         0  gd32f10x_wwdgt.o ABSOLUTE
    handlers.s                               0x00000000   Number         0  handlers.o ABSOLUTE
    init.s                                   0x00000000   Number         0  init.o ABSOLUTE
    it.c                                     0x00000000   Number         0  it.o ABSOLUTE
    led.c                                    0x00000000   Number         0  led.o ABSOLUTE
    main.c                                   0x00000000   Number         0  main.o ABSOLUTE
    remoteCrsf.c                             0x00000000   Number         0  remotecrsf.o ABSOLUTE
    remoteDummy.c                            0x00000000   Number         0  remotedummy.o ABSOLUTE
    remoteUart.c                             0x00000000   Number         0  remoteuart.o ABSOLUTE
    remoteUartBus.c                          0x00000000   Number         0  remoteuartbus.o ABSOLUTE
    setup.c                                  0x00000000   Number         0  setup.o ABSOLUTE
    system_gd32f10x.c                        0x00000000   Number         0  system_gd32f10x.o ABSOLUTE
    RESET                                    0x08000000   Section      304  startup_gd32f10x_hd.o(RESET)
    .ARM.Collect$$$$00000000                 0x08000130   Section        0  entry.o(.ARM.Collect$$$$00000000)
    .ARM.Collect$$$$00000001                 0x08000130   Section        4  entry2.o(.ARM.Collect$$$$00000001)
    .ARM.Collect$$$$00000004                 0x08000134   Section        4  entry5.o(.ARM.Collect$$$$00000004)
    .ARM.Collect$$$$00000008                 0x08000138   Section        0  entry7b.o(.ARM.Collect$$$$00000008)
    .ARM.Collect$$$$0000000A                 0x08000138   Section        0  entry8b.o(.ARM.Collect$$$$0000000A)
    .ARM.Collect$$$$0000000B                 0x08000138   Section        8  entry9a.o(.ARM.Collect$$$$0000000B)
    __lit__00000000                          0x08000140   Data           4  entry2.o(.ARM.Collect$$$$00002712)
    .ARM.Collect$$$$0000000D                 0x08000140   Section        0  entry10a.o(.ARM.Collect$$$$0000000D)
    .ARM.Collect$$$$0000000F                 0x08000140   Section        0  entry11a.o(.ARM.Collect$$$$0000000F)
    .ARM.Collect$$$$00002712                 0x08000140   Section        4  entry2.o(.ARM.Collect$$$$00002712)
    [Anonymous Symbol]                       0x08000144   Section        0  main.o(.text)
    [Anonymous Symbol]                       0x080008bc   Section        0  bldc.o(.text)
    [Anonymous Symbol]                       0x08000dc4   Section        0  bldcbc.o(.text)
    [Anonymous Symbol]                       0x08000e34   Section        0  setup.o(.text)
    [Anonymous Symbol]                       0x080017d8   Section        0  it.o(.text)
    [Anonymous Symbol]                       0x080019f0   Section        0  comms.o(.text)
    [Anonymous Symbol]                       0x08001a5c   Section        0  remoteuartbus.o(.text)
    [Anonymous Symbol]                       0x08001d00   Section        0  commsmasterslave.o(.text)
    [Anonymous Symbol]                       0x08001de4   Section        0  gd32f10x_adc.o(.text)
    [Anonymous Symbol]                       0x08002270   Section        0  gd32f10x_dma.o(.text)
    [Anonymous Symbol]                       0x08002674   Section        0  gd32f10x_fmc.o(.text)
    [Anonymous Symbol]                       0x080036f8   Section        0  gd32f10x_fwdgt.o(.text)
    [Anonymous Symbol]                       0x080037b0   Section        0  gd32f10x_gpio.o(.text)
    [Anonymous Symbol]                       0x08003a28   Section        0  gd32f10x_misc.o(.text)
    [Anonymous Symbol]                       0x08003b14   Section        0  gd32f10x_rcu.o(.text)
    [Anonymous Symbol]                       0x080040f8   Section        0  gd32f10x_timer.o(.text)
    [Anonymous Symbol]                       0x08004e64   Section        0  gd32f10x_usart.o(.text)
    .text                                    0x080051c8   Section       36  startup_gd32f10x_hd.o(.text)
    [Anonymous Symbol]                       0x080051ec   Section        0  system_gd32f10x.o(.text)
    .text                                    0x08005352   Section        0  fadd.o(.text)
    .text                                    0x08005402   Section        0  fmul.o(.text)
    .text                                    0x08005466   Section        0  fdiv.o(.text)
    .text                                    0x080054e2   Section        0  dadd.o(.text)
    .text                                    0x08005630   Section        0  dmul.o(.text)
    .text                                    0x08005714   Section        0  ddiv.o(.text)
    .text                                    0x080057f2   Section        0  fcmple.o(.text)
    .text                                    0x0800580e   Section        0  fcmplt.o(.text)
    .text                                    0x0800582a   Section        0  fcmpgt.o(.text)
    .text                                    0x08005846   Section        0  dcmple.o(.text)
    .text                                    0x0800587c   Section        0  fflti.o(.text)
    .text                                    0x0800588e   Section        0  ffltui.o(.text)
    .text                                    0x08005898   Section        0  dflti.o(.text)
    .text                                    0x080058ba   Section        0  dfltui.o(.text)
    .text                                    0x080058d4   Section        0  ffixi.o(.text)
    .text                                    0x08005906   Section        0  dfixi.o(.text)
    .text                                    0x08005944   Section        0  f2d.o(.text)
    .text                                    0x0800596a   Section        0  d2f.o(.text)
    .text                                    0x080059a2   Section        0  llshl.o(.text)
    .text                                    0x080059c0   Section        0  llushr.o(.text)
    .text                                    0x080059e0   Section        0  llsshr.o(.text)
    .text                                    0x08005a04   Section        0  iusefp.o(.text)
    .text                                    0x08005a04   Section        0  fepilogue.o(.text)
    .text                                    0x08005a72   Section        0  depilogue.o(.text)
    .text                                    0x08005b2c   Section       36  init.o(.text)
    i.__scatterload_copy                     0x08005b50   Section       14  handlers.o(i.__scatterload_copy)
    i.__scatterload_null                     0x08005b5e   Section        2  handlers.o(i.__scatterload_null)
    i.__scatterload_zeroinit                 0x08005b60   Section       14  handlers.o(i.__scatterload_zeroinit)
    .L__const.up_or_down.up_down             0x08005b6e   Data          12  bldc.o(.rodata..L__const.up_or_down.up_down)
    .L__const.rcu_clock_freq_get.apb2_exp    0x08005b7a   Data           8  gd32f10x_rcu.o(.rodata.cst8)
    iReceivePos                              0x20000012   Data           2  commsmasterslave.o(.data.iReceivePos)
    [Anonymous Symbol]                       0x20000012   Section        0  commsmasterslave.o(.data.iReceivePos)
    aReceiveBuffer                           0x20000020   Data         255  remoteuartbus.o(.bss.aReceiveBuffer)
    [Anonymous Symbol]                       0x20000020   Section        0  remoteuartbus.o(.bss.aReceiveBuffer)
    aReceiveBuffer                           0x2000011f   Data          16  commsmasterslave.o(.bss.aReceiveBuffer)
    [Anonymous Symbol]                       0x2000011f   Section        0  commsmasterslave.o(.bss.aReceiveBuffer)
    iReceivePos                              0x200001b8   Data           2  remoteuartbus.o(.bss.iReceivePos)
    [Anonymous Symbol]                       0x200001b8   Section        0  remoteuartbus.o(.bss.iReceivePos)
    STACK                                    0x20000260   Section     8192  startup_gd32f10x_hd.o(STACK)

    Global Symbols

    Symbol Name                              Value     Ov Type        Size  Object(Section)

    BuildAttributes$$THM_ISAv4$P$D$K$B$S$PE$A:L22UL41UL21$X:L11$S22US41US21$IEEE1$IW$~IW$USESV6$~STKCKD$USESV7$~SHL$OTIME$ROPI$EBA8$MICROLIB$REQ8$PRES8$EABIv2 0x00000000   Number         0  anon$$obj.o ABSOLUTE
    __cpp_initialize__aeabi_                  - Undefined Weak Reference
    __cxa_finalize                            - Undefined Weak Reference
    __decompress                              - Undefined Weak Reference
    _clock_init                               - Undefined Weak Reference
    _microlib_exit                            - Undefined Weak Reference
    __Vectors_Size                           0x00000130   Number         0  startup_gd32f10x_hd.o ABSOLUTE
    __Vectors                                0x08000000   Data           4  startup_gd32f10x_hd.o(RESET)
    __Vectors_End                            0x08000130   Data           0  startup_gd32f10x_hd.o(RESET)
    __main                                   0x08000131   Thumb Code     0  entry.o(.ARM.Collect$$$$00000000)
    _main_stk                                0x08000131   Thumb Code     0  entry2.o(.ARM.Collect$$$$00000001)
    _main_scatterload                        0x08000135   Thumb Code     0  entry5.o(.ARM.Collect$$$$00000004)
    __main_after_scatterload                 0x08000139   Thumb Code     0  entry5.o(.ARM.Collect$$$$00000004)
    _main_clock                              0x08000139   Thumb Code     0  entry7b.o(.ARM.Collect$$$$00000008)
    _main_cpp_init                           0x08000139   Thumb Code     0  entry8b.o(.ARM.Collect$$$$0000000A)
    _main_init                               0x08000139   Thumb Code     0  entry9a.o(.ARM.Collect$$$$0000000B)
    __rt_final_cpp                           0x08000141   Thumb Code     0  entry10a.o(.ARM.Collect$$$$0000000D)
    __rt_final_exit                          0x08000141   Thumb Code     0  entry11a.o(.ARM.Collect$$$$0000000F)
    main                                     0x08000145   Thumb Code  1598  main.o(.text)
    ShutOff                                  0x08000785   Thumb Code   160  main.o(.text)
    ShowBatteryState                         0x08000825   Thumb Code   152  main.o(.text)
    modulo                                   0x080008bd   Thumb Code    22  bldc.o(.text)
    up_or_down                               0x080008d5   Thumb Code    60  bldc.o(.text)
    SetEnable                                0x08000911   Thumb Code    12  bldc.o(.text)
    SetPWM                                   0x0800091d   Thumb Code    74  bldc.o(.text)
    SetFilter                                0x08000969   Thumb Code    46  bldc.o(.text)
    CalculateBLDC                            0x08000999   Thumb Code  1066  bldc.o(.text)
    bldc_get_pwm                             0x08000dc5   Thumb Code   106  bldcbc.o(.text)
    InitBldc                                 0x08000e31   Thumb Code     2  bldcbc.o(.text)
    Interrupt_init                           0x08000e35   Thumb Code     8  setup.o(.text)
    Watchdog_init                            0x08000e3d   Thumb Code    44  setup.o(.text)
    TimeoutTimer_init                        0x08000e69   Thumb Code    94  setup.o(.text)
    GPIO_init                                0x08000ec9   Thumb Code   296  setup.o(.text)
    PWM_initOld                              0x08000ff1   Thumb Code   362  setup.o(.text)
    PWM_init                                 0x0800115d   Thumb Code   362  setup.o(.text)
    ADC_init                                 0x080012c9   Thumb Code   276  setup.o(.text)
    USART0_Init                              0x080013dd   Thumb Code   276  setup.o(.text)
    USART1_Init                              0x080014f1   Thumb Code     2  setup.o(.text)
    USART2_Init                              0x080014f5   Thumb Code   280  setup.o(.text)
    flashErase                               0x0800160d   Thumb Code    30  setup.o(.text)
    flashRead                                0x0800162d   Thumb Code     4  setup.o(.text)
    flashWrite                               0x08001631   Thumb Code    40  setup.o(.text)
    flashWriteBuffer                         0x08001659   Thumb Code    66  setup.o(.text)
    flashReadBuffer                          0x0800169d   Thumb Code    26  setup.o(.text)
    ConfigReset                              0x080016b9   Thumb Code    36  setup.o(.text)
    ConfigWrite                              0x080016dd   Thumb Code    98  setup.o(.text)
    ConfigRead                               0x08001741   Thumb Code   116  setup.o(.text)
    confErase                                0x080017b5   Thumb Code    34  setup.o(.text)
    SysTick_Handler                          0x080017d9   Thumb Code    16  it.o(.text)
    ResetTimeout                             0x080017e9   Thumb Code    14  it.o(.text)
    TIMER3_IRQHandler                        0x080017f9   Thumb Code    96  it.o(.text)
    TIMER0_UP_IRQHandler                     0x08001859   Thumb Code    90  it.o(.text)
    DMA0_Channel0_IRQHandler                 0x080018b5   Thumb Code   100  it.o(.text)
    DMA0_Channel4_IRQHandler                 0x08001919   Thumb Code    70  it.o(.text)
    DMA0_Channel2_IRQHandler                 0x08001961   Thumb Code    70  it.o(.text)
    millis                                   0x080019a9   Thumb Code    12  it.o(.text)
    Delay                                    0x080019b5   Thumb Code    28  it.o(.text)
    NMI_Handler                              0x080019d1   Thumb Code     2  it.o(.text)
    HardFault_Handler                        0x080019d5   Thumb Code     2  it.o(.text)
    MemManage_Handler                        0x080019d9   Thumb Code     2  it.o(.text)
    BusFault_Handler                         0x080019dd   Thumb Code     2  it.o(.text)
    UsageFault_Handler                       0x080019e1   Thumb Code     2  it.o(.text)
    SVC_Handler                              0x080019e5   Thumb Code     2  it.o(.text)
    DebugMon_Handler                         0x080019e9   Thumb Code     2  it.o(.text)
    PendSV_Handler                           0x080019ed   Thumb Code     2  it.o(.text)
    SendBuffer                               0x080019f1   Thumb Code    46  comms.o(.text)
    CalcCRC                                  0x08001a21   Thumb Code    60  comms.o(.text)
    RemoteUpdate                             0x08001a5d   Thumb Code    50  remoteuartbus.o(.text)
    AnswerMaster                             0x08001a91   Thumb Code   152  remoteuartbus.o(.text)
    RemoteCallback                           0x08001b29   Thumb Code   470  remoteuartbus.o(.text)
    UpdateUSARTMasterSlaveInput              0x08001d01   Thumb Code   108  commsmasterslave.o(.text)
    ProessReceived                           0x08001d6d   Thumb Code    32  commsmasterslave.o(.text)
    SendSlave                                0x08001d8d   Thumb Code    88  commsmasterslave.o(.text)
    adc_deinit                               0x08001de5   Thumb Code    72  gd32f10x_adc.o(.text)
    adc_mode_config                          0x08001e2d   Thumb Code    24  gd32f10x_adc.o(.text)
    adc_special_function_config              0x08001e45   Thumb Code    92  gd32f10x_adc.o(.text)
    adc_data_alignment_config                0x08001ea1   Thumb Code    18  gd32f10x_adc.o(.text)
    adc_enable                               0x08001eb5   Thumb Code    18  gd32f10x_adc.o(.text)
    adc_disable                              0x08001ec9   Thumb Code    10  gd32f10x_adc.o(.text)
    adc_calibration_enable                   0x08001ed5   Thumb Code    32  gd32f10x_adc.o(.text)
    adc_tempsensor_vrefint_enable            0x08001ef5   Thumb Code    18  gd32f10x_adc.o(.text)
    adc_tempsensor_vrefint_disable           0x08001f09   Thumb Code    18  gd32f10x_adc.o(.text)
    adc_dma_mode_enable                      0x08001f1d   Thumb Code    10  gd32f10x_adc.o(.text)
    adc_dma_mode_disable                     0x08001f29   Thumb Code    10  gd32f10x_adc.o(.text)
    adc_discontinuous_mode_config            0x08001f35   Thumb Code    60  gd32f10x_adc.o(.text)
    adc_channel_length_config                0x08001f71   Thumb Code    58  gd32f10x_adc.o(.text)
    adc_regular_channel_config               0x08001fad   Thumb Code   116  gd32f10x_adc.o(.text)
    adc_inserted_channel_config              0x08002021   Thumb Code   100  gd32f10x_adc.o(.text)
    adc_inserted_channel_offset_config       0x08002085   Thumb Code    26  gd32f10x_adc.o(.text)
    adc_external_trigger_source_config       0x080020a1   Thumb Code    34  gd32f10x_adc.o(.text)
    adc_external_trigger_config              0x080020c5   Thumb Code    64  gd32f10x_adc.o(.text)
    adc_software_trigger_enable              0x08002105   Thumb Code    28  gd32f10x_adc.o(.text)
    adc_regular_data_read                    0x08002121   Thumb Code     6  gd32f10x_adc.o(.text)
    adc_inserted_data_read                   0x08002129   Thumb Code    16  gd32f10x_adc.o(.text)
    adc_sync_mode_convert_value_read         0x08002139   Thumb Code    12  gd32f10x_adc.o(.text)
    adc_watchdog_single_channel_enable       0x08002145   Thumb Code    34  gd32f10x_adc.o(.text)
    adc_watchdog_group_channel_enable        0x08002169   Thumb Code    40  gd32f10x_adc.o(.text)
    adc_watchdog_disable                     0x0800219d   Thumb Code    16  gd32f10x_adc.o(.text)
    adc_watchdog_threshold_config            0x080021ad   Thumb Code    14  gd32f10x_adc.o(.text)
    adc_flag_get                             0x080021bd   Thumb Code    10  gd32f10x_adc.o(.text)
    adc_flag_clear                           0x080021c9   Thumb Code    10  gd32f10x_adc.o(.text)
    adc_regular_software_startconv_flag_get  0x080021d5   Thumb Code     8  gd32f10x_adc.o(.text)
    adc_inserted_software_startconv_flag_get 0x080021dd   Thumb Code     8  gd32f10x_adc.o(.text)
    adc_interrupt_flag_get                   0x080021e5   Thumb Code    48  gd32f10x_adc.o(.text)
    adc_interrupt_flag_clear                 0x08002215   Thumb Code    10  gd32f10x_adc.o(.text)
    adc_interrupt_enable                     0x08002221   Thumb Code    40  gd32f10x_adc.o(.text)
    adc_interrupt_disable                    0x08002249   Thumb Code    40  gd32f10x_adc.o(.text)
    dma_deinit                               0x08002271   Thumb Code    60  gd32f10x_dma.o(.text)
    dma_struct_para_init                     0x080022ad   Thumb Code    20  gd32f10x_dma.o(.text)
    dma_init                                 0x080022c1   Thumb Code   116  gd32f10x_dma.o(.text)
    dma_circulation_enable                   0x08002335   Thumb Code    36  gd32f10x_dma.o(.text)
    dma_circulation_disable                  0x08002359   Thumb Code    36  gd32f10x_dma.o(.text)
    dma_memory_to_memory_enable              0x0800237d   Thumb Code    36  gd32f10x_dma.o(.text)
    dma_memory_to_memory_disable             0x080023a1   Thumb Code    36  gd32f10x_dma.o(.text)
    dma_channel_enable                       0x080023c5   Thumb Code    36  gd32f10x_dma.o(.text)
    dma_channel_disable                      0x080023e9   Thumb Code    36  gd32f10x_dma.o(.text)
    dma_periph_address_config                0x0800240d   Thumb Code    30  gd32f10x_dma.o(.text)
    dma_memory_address_config                0x0800242d   Thumb Code    30  gd32f10x_dma.o(.text)
    dma_transfer_number_config               0x0800244d   Thumb Code    32  gd32f10x_dma.o(.text)
    dma_transfer_number_get                  0x0800246d   Thumb Code    30  gd32f10x_dma.o(.text)
    dma_priority_config                      0x0800248d   Thumb Code    38  gd32f10x_dma.o(.text)
    dma_memory_width_config                  0x080024b5   Thumb Code    38  gd32f10x_dma.o(.text)
    dma_periph_width_config                  0x080024dd   Thumb Code    38  gd32f10x_dma.o(.text)
    dma_memory_increase_enable               0x08002505   Thumb Code    36  gd32f10x_dma.o(.text)
    dma_memory_increase_disable              0x08002529   Thumb Code    36  gd32f10x_dma.o(.text)
    dma_periph_increase_enable               0x0800254d   Thumb Code    36  gd32f10x_dma.o(.text)
    dma_periph_increase_disable              0x08002571   Thumb Code    36  gd32f10x_dma.o(.text)
    dma_transfer_direction_config            0x08002595   Thumb Code    42  gd32f10x_dma.o(.text)
    dma_flag_get                             0x080025c1   Thumb Code    16  gd32f10x_dma.o(.text)
    dma_flag_clear                           0x080025d1   Thumb Code    14  gd32f10x_dma.o(.text)
    dma_interrupt_flag_get                   0x080025e1   Thumb Code    58  gd32f10x_dma.o(.text)
    dma_interrupt_flag_clear                 0x0800261d   Thumb Code    14  gd32f10x_dma.o(.text)
    dma_interrupt_enable                     0x0800262d   Thumb Code    34  gd32f10x_dma.o(.text)
    dma_interrupt_disable                    0x08002651   Thumb Code    34  gd32f10x_dma.o(.text)
    fmc_wscnt_set                            0x08002675   Thumb Code    20  gd32f10x_fmc.o(.text)
    fmc_unlock                               0x08002689   Thumb Code    80  gd32f10x_fmc.o(.text)
    fmc_bank0_unlock                         0x080026d9   Thumb Code    38  gd32f10x_fmc.o(.text)
    fmc_bank1_unlock                         0x08002701   Thumb Code    38  gd32f10x_fmc.o(.text)
    fmc_lock                                 0x08002729   Thumb Code    44  gd32f10x_fmc.o(.text)
    fmc_bank0_lock                           0x08002755   Thumb Code    18  gd32f10x_fmc.o(.text)
    fmc_bank1_lock                           0x08002769   Thumb Code    18  gd32f10x_fmc.o(.text)
    fmc_page_erase                           0x0800277d   Thumb Code   472  gd32f10x_fmc.o(.text)
    fmc_bank0_ready_wait                     0x08002955   Thumb Code    68  gd32f10x_fmc.o(.text)
    fmc_bank1_ready_wait                     0x08002999   Thumb Code    68  gd32f10x_fmc.o(.text)
    fmc_mass_erase                           0x080029dd   Thumb Code   474  gd32f10x_fmc.o(.text)
    fmc_bank0_erase                          0x08002bb9   Thumb Code   150  gd32f10x_fmc.o(.text)
    fmc_bank1_erase                          0x08002c51   Thumb Code   150  gd32f10x_fmc.o(.text)
    fmc_word_program                         0x08002ce9   Thumb Code   448  gd32f10x_fmc.o(.text)
    fmc_halfword_program                     0x08002ea9   Thumb Code   448  gd32f10x_fmc.o(.text)
    ob_unlock                                0x08003069   Thumb Code    44  gd32f10x_fmc.o(.text)
    ob_lock                                  0x08003095   Thumb Code    18  gd32f10x_fmc.o(.text)
    ob_erase                                 0x080030a9   Thumb Code   270  gd32f10x_fmc.o(.text)
    ob_spc_get                               0x080031b9   Thumb Code    16  gd32f10x_fmc.o(.text)
    ob_write_protection_enable               0x080031c9   Thumb Code   376  gd32f10x_fmc.o(.text)
    ob_security_protection_config            0x08003341   Thumb Code   260  gd32f10x_fmc.o(.text)
    ob_user_write                            0x08003445   Thumb Code   184  gd32f10x_fmc.o(.text)
    ob_data_program                          0x080034fd   Thumb Code   152  gd32f10x_fmc.o(.text)
    ob_user_get                              0x08003595   Thumb Code    16  gd32f10x_fmc.o(.text)
    ob_data_get                              0x080035a5   Thumb Code    16  gd32f10x_fmc.o(.text)
    ob_write_protection_get                  0x080035b5   Thumb Code    12  gd32f10x_fmc.o(.text)
    fmc_interrupt_enable                     0x080035c1   Thumb Code    30  gd32f10x_fmc.o(.text)
    fmc_interrupt_disable                    0x080035e1   Thumb Code    32  gd32f10x_fmc.o(.text)
    fmc_flag_get                             0x08003601   Thumb Code    26  gd32f10x_fmc.o(.text)
    fmc_flag_clear                           0x0800361d   Thumb Code    30  gd32f10x_fmc.o(.text)
    fmc_interrupt_flag_get                   0x0800363d   Thumb Code    82  gd32f10x_fmc.o(.text)
    fmc_interrupt_flag_clear                 0x08003691   Thumb Code    30  gd32f10x_fmc.o(.text)
    fmc_bank0_state_get                      0x080036b1   Thumb Code    36  gd32f10x_fmc.o(.text)
    fmc_bank1_state_get                      0x080036d5   Thumb Code    36  gd32f10x_fmc.o(.text)
    fwdgt_write_enable                       0x080036f9   Thumb Code    16  gd32f10x_fwdgt.o(.text)
    fwdgt_write_disable                      0x08003709   Thumb Code    14  gd32f10x_fwdgt.o(.text)
    fwdgt_enable                             0x08003719   Thumb Code    16  gd32f10x_fwdgt.o(.text)
    fwdgt_counter_reload                     0x08003729   Thumb Code    16  gd32f10x_fwdgt.o(.text)
    fwdgt_config                             0x08003739   Thumb Code   100  gd32f10x_fwdgt.o(.text)
    fwdgt_flag_get                           0x0800379d   Thumb Code    18  gd32f10x_fwdgt.o(.text)
    gpio_deinit                              0x080037b1   Thumb Code    42  gd32f10x_gpio.o(.text)
    gpio_afio_deinit                         0x080037dd   Thumb Code    22  gd32f10x_gpio.o(.text)
    gpio_init                                0x080037f5   Thumb Code   170  gd32f10x_gpio.o(.text)
    gpio_bit_set                             0x080038a1   Thumb Code     4  gd32f10x_gpio.o(.text)
    gpio_bit_reset                           0x080038a5   Thumb Code     4  gd32f10x_gpio.o(.text)
    gpio_bit_write                           0x080038a9   Thumb Code    12  gd32f10x_gpio.o(.text)
    gpio_port_write                          0x080038b5   Thumb Code     4  gd32f10x_gpio.o(.text)
    gpio_input_bit_get                       0x080038b9   Thumb Code    10  gd32f10x_gpio.o(.text)
    gpio_input_port_get                      0x080038c5   Thumb Code     6  gd32f10x_gpio.o(.text)
    gpio_output_bit_get                      0x080038cd   Thumb Code    10  gd32f10x_gpio.o(.text)
    gpio_output_port_get                     0x080038d9   Thumb Code     6  gd32f10x_gpio.o(.text)
    gpio_pin_remap_config                    0x080038e1   Thumb Code   122  gd32f10x_gpio.o(.text)
    gpio_exti_source_select                  0x0800395d   Thumb Code   130  gd32f10x_gpio.o(.text)
    gpio_event_output_config                 0x080039e1   Thumb Code    22  gd32f10x_gpio.o(.text)
    gpio_event_output_enable                 0x080039f9   Thumb Code    16  gd32f10x_gpio.o(.text)
    gpio_event_output_disable                0x08003a09   Thumb Code    16  gd32f10x_gpio.o(.text)
    gpio_pin_lock                            0x08003a19   Thumb Code    16  gd32f10x_gpio.o(.text)
    nvic_priority_group_set                  0x08003a29   Thumb Code    20  gd32f10x_misc.o(.text)
    nvic_irq_enable                          0x08003a3d   Thumb Code   100  gd32f10x_misc.o(.text)
    nvic_irq_disable                         0x08003aa1   Thumb Code    30  gd32f10x_misc.o(.text)
    nvic_vector_table_set                    0x08003ac1   Thumb Code    24  gd32f10x_misc.o(.text)
    system_lowpower_set                      0x08003ad9   Thumb Code    16  gd32f10x_misc.o(.text)
    system_lowpower_reset                    0x08003ae9   Thumb Code    18  gd32f10x_misc.o(.text)
    systick_clksource_set                    0x08003afd   Thumb Code    24  gd32f10x_misc.o(.text)
    rcu_deinit                               0x08003b15   Thumb Code   106  gd32f10x_rcu.o(.text)
    rcu_osci_stab_wait                       0x08003b81   Thumb Code   272  gd32f10x_rcu.o(.text)
    rcu_periph_clock_enable                  0x08003c91   Thumb Code    30  gd32f10x_rcu.o(.text)
    rcu_periph_clock_disable                 0x08003cb1   Thumb Code    32  gd32f10x_rcu.o(.text)
    rcu_periph_clock_sleep_enable            0x08003cd1   Thumb Code    30  gd32f10x_rcu.o(.text)
    rcu_periph_clock_sleep_disable           0x08003cf1   Thumb Code    32  gd32f10x_rcu.o(.text)
    rcu_periph_reset_enable                  0x08003d11   Thumb Code    30  gd32f10x_rcu.o(.text)
    rcu_periph_reset_disable                 0x08003d31   Thumb Code    32  gd32f10x_rcu.o(.text)
    rcu_bkp_reset_enable                     0x08003d51   Thumb Code    18  gd32f10x_rcu.o(.text)
    rcu_bkp_reset_disable                    0x08003d65   Thumb Code    18  gd32f10x_rcu.o(.text)
    rcu_system_clock_source_config           0x08003d79   Thumb Code    20  gd32f10x_rcu.o(.text)
    rcu_system_clock_source_get              0x08003d8d   Thumb Code    16  gd32f10x_rcu.o(.text)
    rcu_ahb_clock_config                     0x08003d9d   Thumb Code    20  gd32f10x_rcu.o(.text)
    rcu_apb1_clock_config                    0x08003db1   Thumb Code    20  gd32f10x_rcu.o(.text)
    rcu_apb2_clock_config                    0x08003dc5   Thumb Code    20  gd32f10x_rcu.o(.text)
    rcu_ckout0_config                        0x08003dd9   Thumb Code    20  gd32f10x_rcu.o(.text)
    rcu_pll_config                           0x08003ded   Thumb Code    32  gd32f10x_rcu.o(.text)
    rcu_predv0_config                        0x08003e0d   Thumb Code    26  gd32f10x_rcu.o(.text)
    rcu_adc_clock_config                     0x08003e29   Thumb Code    64  gd32f10x_rcu.o(.text)
    rcu_usb_clock_config                     0x08003e69   Thumb Code    20  gd32f10x_rcu.o(.text)
    rcu_rtc_clock_config                     0x08003e7d   Thumb Code    20  gd32f10x_rcu.o(.text)
    rcu_flag_get                             0x08003e91   Thumb Code    26  gd32f10x_rcu.o(.text)
    rcu_all_reset_flag_clear                 0x08003ead   Thumb Code    18  gd32f10x_rcu.o(.text)
    rcu_interrupt_flag_get                   0x08003ec1   Thumb Code    26  gd32f10x_rcu.o(.text)
    rcu_interrupt_flag_clear                 0x08003edd   Thumb Code    30  gd32f10x_rcu.o(.text)
    rcu_interrupt_enable                     0x08003efd   Thumb Code    30  gd32f10x_rcu.o(.text)
    rcu_interrupt_disable                    0x08003f1d   Thumb Code    32  gd32f10x_rcu.o(.text)
    rcu_osci_on                              0x08003f3d   Thumb Code    30  gd32f10x_rcu.o(.text)
    rcu_osci_off                             0x08003f5d   Thumb Code    32  gd32f10x_rcu.o(.text)
    rcu_osci_bypass_mode_enable              0x08003f7d   Thumb Code    64  gd32f10x_rcu.o(.text)
    rcu_osci_bypass_mode_disable             0x08003fbd   Thumb Code    64  gd32f10x_rcu.o(.text)
    rcu_hxtal_clock_monitor_enable           0x08003ffd   Thumb Code    18  gd32f10x_rcu.o(.text)
    rcu_hxtal_clock_monitor_disable          0x08004011   Thumb Code    18  gd32f10x_rcu.o(.text)
    rcu_irc8m_adjust_value_set               0x08004025   Thumb Code    18  gd32f10x_rcu.o(.text)
    rcu_deepsleep_voltage_set                0x08004039   Thumb Code    16  gd32f10x_rcu.o(.text)
    rcu_clock_freq_get                       0x08004049   Thumb Code   160  gd32f10x_rcu.o(.text)
    timer_deinit                             0x080040f9   Thumb Code   194  gd32f10x_timer.o(.text)
    timer_struct_para_init                   0x080041bd   Thumb Code    18  gd32f10x_timer.o(.text)
    timer_init                               0x080041d1   Thumb Code   284  gd32f10x_timer.o(.text)
    timer_enable                             0x080042ed   Thumb Code    10  gd32f10x_timer.o(.text)
    timer_disable                            0x080042f9   Thumb Code    10  gd32f10x_timer.o(.text)
    timer_auto_reload_shadow_enable          0x08004305   Thumb Code    10  gd32f10x_timer.o(.text)
    timer_auto_reload_shadow_disable         0x08004311   Thumb Code    10  gd32f10x_timer.o(.text)
    timer_update_event_enable                0x0800431d   Thumb Code    10  gd32f10x_timer.o(.text)
    timer_update_event_disable               0x08004329   Thumb Code    10  gd32f10x_timer.o(.text)
    timer_counter_alignment                  0x08004335   Thumb Code    16  gd32f10x_timer.o(.text)
    timer_counter_up_direction               0x08004345   Thumb Code    10  gd32f10x_timer.o(.text)
    timer_counter_down_direction             0x08004351   Thumb Code    10  gd32f10x_timer.o(.text)
    timer_prescaler_config                   0x0800435d   Thumb Code    18  gd32f10x_timer.o(.text)
    timer_repetition_value_config            0x08004371   Thumb Code     4  gd32f10x_timer.o(.text)
    timer_autoreload_value_config            0x08004375   Thumb Code     4  gd32f10x_timer.o(.text)
    timer_counter_value_config               0x08004379   Thumb Code     4  gd32f10x_timer.o(.text)
    timer_counter_read                       0x0800437d   Thumb Code     4  gd32f10x_timer.o(.text)
    timer_prescaler_read                     0x08004381   Thumb Code     6  gd32f10x_timer.o(.text)
    timer_single_pulse_mode_config           0x08004389   Thumb Code    28  gd32f10x_timer.o(.text)
    timer_update_source_config               0x080043a5   Thumb Code    28  gd32f10x_timer.o(.text)
    timer_dma_enable                         0x080043c1   Thumb Code     8  gd32f10x_timer.o(.text)
    timer_dma_disable                        0x080043c9   Thumb Code    10  gd32f10x_timer.o(.text)
    timer_channel_dma_request_source_select  0x080043d5   Thumb Code    28  gd32f10x_timer.o(.text)
    timer_dma_transfer_config                0x080043f1   Thumb Code    24  gd32f10x_timer.o(.text)
    timer_event_software_generate            0x08004409   Thumb Code     8  gd32f10x_timer.o(.text)
    timer_break_struct_para_init             0x08004411   Thumb Code    12  gd32f10x_timer.o(.text)
    timer_break_config                       0x0800441d   Thumb Code    38  gd32f10x_timer.o(.text)
    timer_break_enable                       0x08004445   Thumb Code    10  gd32f10x_timer.o(.text)
    timer_break_disable                      0x08004451   Thumb Code    10  gd32f10x_timer.o(.text)
    timer_automatic_output_enable            0x0800445d   Thumb Code    10  gd32f10x_timer.o(.text)
    timer_automatic_output_disable           0x08004469   Thumb Code    10  gd32f10x_timer.o(.text)
    timer_primary_output_config              0x08004475   Thumb Code    18  gd32f10x_timer.o(.text)
    timer_channel_control_shadow_config      0x08004489   Thumb Code    16  gd32f10x_timer.o(.text)
    timer_channel_control_shadow_update_config 0x08004499   Thumb Code    30  gd32f10x_timer.o(.text)
    timer_channel_output_struct_para_init    0x080044b9   Thumb Code    10  gd32f10x_timer.o(.text)
    timer_channel_output_config              0x080044c5   Thumb Code   518  gd32f10x_timer.o(.text)
    timer_channel_output_mode_config         0x080046cd   Thumb Code    58  gd32f10x_timer.o(.text)
    timer_channel_output_pulse_value_config  0x08004709   Thumb Code    12  gd32f10x_timer.o(.text)
    timer_channel_output_shadow_config       0x08004715   Thumb Code    58  gd32f10x_timer.o(.text)
    timer_channel_output_fast_config         0x08004751   Thumb Code    58  gd32f10x_timer.o(.text)
    timer_channel_output_clear_config        0x0800478d   Thumb Code    58  gd32f10x_timer.o(.text)
    timer_channel_output_polarity_config     0x080047c9   Thumb Code    74  gd32f10x_timer.o(.text)
    timer_channel_complementary_output_polarity_config 0x08004815   Thumb Code    60  gd32f10x_timer.o(.text)
    timer_channel_output_state_config        0x08004851   Thumb Code    74  gd32f10x_timer.o(.text)
    timer_channel_complementary_output_state_config 0x0800489d   Thumb Code    60  gd32f10x_timer.o(.text)
    timer_channel_input_struct_para_init     0x080048d9   Thumb Code    12  gd32f10x_timer.o(.text)
    timer_input_capture_config               0x080048e5   Thumb Code   346  gd32f10x_timer.o(.text)
    timer_channel_input_capture_prescaler_config 0x08004a41   Thumb Code    58  gd32f10x_timer.o(.text)
    timer_channel_capture_value_register_read 0x08004a7d   Thumb Code    14  gd32f10x_timer.o(.text)
    timer_input_pwm_capture_config           0x08004a8d   Thumb Code   356  gd32f10x_timer.o(.text)
    timer_hall_mode_config                   0x08004bf1   Thumb Code    28  gd32f10x_timer.o(.text)
    timer_input_trigger_source_select        0x08004c0d   Thumb Code    16  gd32f10x_timer.o(.text)
    timer_master_output_trigger_source_select 0x08004c1d   Thumb Code    16  gd32f10x_timer.o(.text)
    timer_slave_mode_select                  0x08004c2d   Thumb Code    16  gd32f10x_timer.o(.text)
    timer_master_slave_mode_config           0x08004c3d   Thumb Code    28  gd32f10x_timer.o(.text)
    timer_external_trigger_config            0x08004c59   Thumb Code    34  gd32f10x_timer.o(.text)
    timer_quadrature_decoder_mode_config     0x08004c7d   Thumb Code    78  gd32f10x_timer.o(.text)
    timer_internal_clock_config              0x08004ccd   Thumb Code    10  gd32f10x_timer.o(.text)
    timer_internal_trigger_as_external_clock_config 0x08004cd9   Thumb Code    32  gd32f10x_timer.o(.text)
    timer_external_trigger_as_external_clock_config 0x08004cf9   Thumb Code   174  gd32f10x_timer.o(.text)
    timer_external_clock_mode0_config        0x08004da9   Thumb Code    50  gd32f10x_timer.o(.text)
    timer_external_clock_mode1_config        0x08004ddd   Thumb Code    42  gd32f10x_timer.o(.text)
    timer_external_clock_mode1_disable       0x08004e09   Thumb Code    10  gd32f10x_timer.o(.text)
    timer_interrupt_enable                   0x08004e15   Thumb Code     8  gd32f10x_timer.o(.text)
    timer_interrupt_disable                  0x08004e1d   Thumb Code    10  gd32f10x_timer.o(.text)
    timer_interrupt_flag_get                 0x08004e29   Thumb Code    22  gd32f10x_timer.o(.text)
    timer_interrupt_flag_clear               0x08004e41   Thumb Code    10  gd32f10x_timer.o(.text)
    timer_flag_get                           0x08004e4d   Thumb Code    10  gd32f10x_timer.o(.text)
    timer_flag_clear                         0x08004e59   Thumb Code    10  gd32f10x_timer.o(.text)
    usart_deinit                             0x08004e65   Thumb Code   122  gd32f10x_usart.o(.text)
    usart_baudrate_set                       0x08004ee1   Thumb Code   106  gd32f10x_usart.o(.text)
    usart_parity_config                      0x08004f4d   Thumb Code    16  gd32f10x_usart.o(.text)
    usart_word_length_set                    0x08004f5d   Thumb Code    16  gd32f10x_usart.o(.text)
    usart_stop_bit_set                       0x08004f6d   Thumb Code    16  gd32f10x_usart.o(.text)
    usart_enable                             0x08004f7d   Thumb Code    10  gd32f10x_usart.o(.text)
    usart_disable                            0x08004f89   Thumb Code    10  gd32f10x_usart.o(.text)
    usart_transmit_config                    0x08004f95   Thumb Code    12  gd32f10x_usart.o(.text)
    usart_receive_config                     0x08004fa1   Thumb Code    12  gd32f10x_usart.o(.text)
    usart_data_transmit                      0x08004fad   Thumb Code     8  gd32f10x_usart.o(.text)
    usart_data_receive                       0x08004fb5   Thumb Code     8  gd32f10x_usart.o(.text)
    usart_address_config                     0x08004fbd   Thumb Code    20  gd32f10x_usart.o(.text)
    usart_mute_mode_enable                   0x08004fd1   Thumb Code    10  gd32f10x_usart.o(.text)
    usart_mute_mode_disable                  0x08004fdd   Thumb Code    10  gd32f10x_usart.o(.text)
    usart_mute_mode_wakeup_config            0x08004fe9   Thumb Code    16  gd32f10x_usart.o(.text)
    usart_lin_mode_enable                    0x08004ff9   Thumb Code    10  gd32f10x_usart.o(.text)
    usart_lin_mode_disable                   0x08005005   Thumb Code    10  gd32f10x_usart.o(.text)
    usart_lin_break_detection_length_config  0x08005011   Thumb Code    20  gd32f10x_usart.o(.text)
    usart_send_break                         0x08005025   Thumb Code    10  gd32f10x_usart.o(.text)
    usart_halfduplex_enable                  0x08005031   Thumb Code    10  gd32f10x_usart.o(.text)
    usart_halfduplex_disable                 0x0800503d   Thumb Code    10  gd32f10x_usart.o(.text)
    usart_synchronous_clock_enable           0x08005049   Thumb Code    10  gd32f10x_usart.o(.text)
    usart_synchronous_clock_disable          0x08005055   Thumb Code    10  gd32f10x_usart.o(.text)
    usart_synchronous_clock_config           0x08005061   Thumb Code    30  gd32f10x_usart.o(.text)
    usart_guard_time_config                  0x08005081   Thumb Code    20  gd32f10x_usart.o(.text)
    usart_smartcard_mode_enable              0x08005095   Thumb Code    10  gd32f10x_usart.o(.text)
    usart_smartcard_mode_disable             0x080050a1   Thumb Code    10  gd32f10x_usart.o(.text)
    usart_smartcard_mode_nack_enable         0x080050ad   Thumb Code    10  gd32f10x_usart.o(.text)
    usart_smartcard_mode_nack_disable        0x080050b9   Thumb Code    10  gd32f10x_usart.o(.text)
    usart_irda_mode_enable                   0x080050c5   Thumb Code    10  gd32f10x_usart.o(.text)
    usart_irda_mode_disable                  0x080050d1   Thumb Code    10  gd32f10x_usart.o(.text)
    usart_prescaler_config                   0x080050dd   Thumb Code    16  gd32f10x_usart.o(.text)
    usart_irda_lowpower_config               0x080050ed   Thumb Code    20  gd32f10x_usart.o(.text)
    usart_hardware_flow_rts_config           0x08005101   Thumb Code    12  gd32f10x_usart.o(.text)
    usart_hardware_flow_cts_config           0x0800510d   Thumb Code    12  gd32f10x_usart.o(.text)
    usart_dma_receive_config                 0x08005119   Thumb Code    12  gd32f10x_usart.o(.text)
    usart_dma_transmit_config                0x08005125   Thumb Code    12  gd32f10x_usart.o(.text)
    usart_flag_get                           0x08005131   Thumb Code    16  gd32f10x_usart.o(.text)
    usart_flag_clear                         0x08005141   Thumb Code    24  gd32f10x_usart.o(.text)
    usart_interrupt_enable                   0x08005159   Thumb Code    24  gd32f10x_usart.o(.text)
    usart_interrupt_disable                  0x08005171   Thumb Code    26  gd32f10x_usart.o(.text)
    usart_interrupt_flag_get                 0x0800518d   Thumb Code    34  gd32f10x_usart.o(.text)
    usart_interrupt_flag_clear               0x080051b1   Thumb Code    24  gd32f10x_usart.o(.text)
    Reset_Handler                            0x080051c9   Thumb Code     8  startup_gd32f10x_hd.o(.text)
    ADC0_1_IRQHandler                        0x080051e3   Thumb Code     0  startup_gd32f10x_hd.o(.text)
    ADC2_IRQHandler                          0x080051e3   Thumb Code     0  startup_gd32f10x_hd.o(.text)
    CAN0_EWMC_IRQHandler                     0x080051e3   Thumb Code     0  startup_gd32f10x_hd.o(.text)
    CAN0_RX1_IRQHandler                      0x080051e3   Thumb Code     0  startup_gd32f10x_hd.o(.text)
    DMA0_Channel1_IRQHandler                 0x080051e3   Thumb Code     0  startup_gd32f10x_hd.o(.text)
    DMA0_Channel3_IRQHandler                 0x080051e3   Thumb Code     0  startup_gd32f10x_hd.o(.text)
    DMA0_Channel5_IRQHandler                 0x080051e3   Thumb Code     0  startup_gd32f10x_hd.o(.text)
    DMA0_Channel6_IRQHandler                 0x080051e3   Thumb Code     0  startup_gd32f10x_hd.o(.text)
    DMA1_Channel0_IRQHandler                 0x080051e3   Thumb Code     0  startup_gd32f10x_hd.o(.text)
    DMA1_Channel1_IRQHandler                 0x080051e3   Thumb Code     0  startup_gd32f10x_hd.o(.text)
    DMA1_Channel2_IRQHandler                 0x080051e3   Thumb Code     0  startup_gd32f10x_hd.o(.text)
    DMA1_Channel3_4_IRQHandler               0x080051e3   Thumb Code     0  startup_gd32f10x_hd.o(.text)
    EXMC_IRQHandler                          0x080051e3   Thumb Code     0  startup_gd32f10x_hd.o(.text)
    EXTI0_IRQHandler                         0x080051e3   Thumb Code     0  startup_gd32f10x_hd.o(.text)
    EXTI10_15_IRQHandler                     0x080051e3   Thumb Code     0  startup_gd32f10x_hd.o(.text)
    EXTI1_IRQHandler                         0x080051e3   Thumb Code     0  startup_gd32f10x_hd.o(.text)
    EXTI2_IRQHandler                         0x080051e3   Thumb Code     0  startup_gd32f10x_hd.o(.text)
    EXTI3_IRQHandler                         0x080051e3   Thumb Code     0  startup_gd32f10x_hd.o(.text)
    EXTI4_IRQHandler                         0x080051e3   Thumb Code     0  startup_gd32f10x_hd.o(.text)
    EXTI5_9_IRQHandler                       0x080051e3   Thumb Code     0  startup_gd32f10x_hd.o(.text)
    FMC_IRQHandler                           0x080051e3   Thumb Code     0  startup_gd32f10x_hd.o(.text)
    I2C0_ER_IRQHandler                       0x080051e3   Thumb Code     0  startup_gd32f10x_hd.o(.text)
    I2C0_EV_IRQHandler                       0x080051e3   Thumb Code     0  startup_gd32f10x_hd.o(.text)
    I2C1_ER_IRQHandler                       0x080051e3   Thumb Code     0  startup_gd32f10x_hd.o(.text)
    I2C1_EV_IRQHandler                       0x080051e3   Thumb Code     0  startup_gd32f10x_hd.o(.text)
    LVD_IRQHandler                           0x080051e3   Thumb Code     0  startup_gd32f10x_hd.o(.text)
    RCU_IRQHandler                           0x080051e3   Thumb Code     0  startup_gd32f10x_hd.o(.text)
    RTC_Alarm_IRQHandler                     0x080051e3   Thumb Code     0  startup_gd32f10x_hd.o(.text)
    RTC_IRQHandler                           0x080051e3   Thumb Code     0  startup_gd32f10x_hd.o(.text)
    SDIO_IRQHandler                          0x080051e3   Thumb Code     0  startup_gd32f10x_hd.o(.text)
    SPI0_IRQHandler                          0x080051e3   Thumb Code     0  startup_gd32f10x_hd.o(.text)
    SPI1_IRQHandler                          0x080051e3   Thumb Code     0  startup_gd32f10x_hd.o(.text)
    SPI2_IRQHandler                          0x080051e3   Thumb Code     0  startup_gd32f10x_hd.o(.text)
    TAMPER_IRQHandler                        0x080051e3   Thumb Code     0  startup_gd32f10x_hd.o(.text)
    TIMER0_BRK_IRQHandler                    0x080051e3   Thumb Code     0  startup_gd32f10x_hd.o(.text)
    TIMER0_Channel_IRQHandler                0x080051e3   Thumb Code     0  startup_gd32f10x_hd.o(.text)
    TIMER0_TRG_CMT_IRQHandler                0x080051e3   Thumb Code     0  startup_gd32f10x_hd.o(.text)
    TIMER1_IRQHandler                        0x080051e3   Thumb Code     0  startup_gd32f10x_hd.o(.text)
    TIMER2_IRQHandler                        0x080051e3   Thumb Code     0  startup_gd32f10x_hd.o(.text)
    TIMER4_IRQHandler                        0x080051e3   Thumb Code     0  startup_gd32f10x_hd.o(.text)
    TIMER5_IRQHandler                        0x080051e3   Thumb Code     0  startup_gd32f10x_hd.o(.text)
    TIMER6_IRQHandler                        0x080051e3   Thumb Code     0  startup_gd32f10x_hd.o(.text)
    TIMER7_BRK_IRQHandler                    0x080051e3   Thumb Code     0  startup_gd32f10x_hd.o(.text)
    TIMER7_Channel_IRQHandler                0x080051e3   Thumb Code     0  startup_gd32f10x_hd.o(.text)
    TIMER7_TRG_CMT_IRQHandler                0x080051e3   Thumb Code     0  startup_gd32f10x_hd.o(.text)
    TIMER7_UP_IRQHandler                     0x080051e3   Thumb Code     0  startup_gd32f10x_hd.o(.text)
    UART3_IRQHandler                         0x080051e3   Thumb Code     0  startup_gd32f10x_hd.o(.text)
    UART4_IRQHandler                         0x080051e3   Thumb Code     0  startup_gd32f10x_hd.o(.text)
    USART0_IRQHandler                        0x080051e3   Thumb Code     0  startup_gd32f10x_hd.o(.text)
    USART1_IRQHandler                        0x080051e3   Thumb Code     0  startup_gd32f10x_hd.o(.text)
    USART2_IRQHandler                        0x080051e3   Thumb Code     0  startup_gd32f10x_hd.o(.text)
    USBD_HP_CAN0_TX_IRQHandler               0x080051e3   Thumb Code     0  startup_gd32f10x_hd.o(.text)
    USBD_LP_CAN0_RX0_IRQHandler              0x080051e3   Thumb Code     0  startup_gd32f10x_hd.o(.text)
    USBD_WKUP_IRQHandler                     0x080051e3   Thumb Code     0  startup_gd32f10x_hd.o(.text)
    WWDGT_IRQHandler                         0x080051e3   Thumb Code     0  startup_gd32f10x_hd.o(.text)
    SystemInit                               0x080051ed   Thumb Code   266  system_gd32f10x.o(.text)
    SystemCoreClockUpdate                    0x080052f9   Thumb Code    90  system_gd32f10x.o(.text)
    __aeabi_fadd                             0x08005353   Thumb Code   164  fadd.o(.text)
    __aeabi_fsub                             0x080053f7   Thumb Code     6  fadd.o(.text)
    __aeabi_frsub                            0x080053fd   Thumb Code     6  fadd.o(.text)
    __aeabi_fmul                             0x08005403   Thumb Code   100  fmul.o(.text)
    __aeabi_fdiv                             0x08005467   Thumb Code   124  fdiv.o(.text)
    __aeabi_dadd                             0x080054e3   Thumb Code   322  dadd.o(.text)
    __aeabi_dsub                             0x08005625   Thumb Code     6  dadd.o(.text)
    __aeabi_drsub                            0x0800562b   Thumb Code     6  dadd.o(.text)
    __aeabi_dmul                             0x08005631   Thumb Code   228  dmul.o(.text)
    __aeabi_ddiv                             0x08005715   Thumb Code   222  ddiv.o(.text)
    __aeabi_fcmple                           0x080057f3   Thumb Code    28  fcmple.o(.text)
    __aeabi_fcmplt                           0x0800580f   Thumb Code    28  fcmplt.o(.text)
    __aeabi_fcmpgt                           0x0800582b   Thumb Code    28  fcmpgt.o(.text)
    __aeabi_dcmple                           0x08005847   Thumb Code    54  dcmple.o(.text)
    __aeabi_i2f                              0x0800587d   Thumb Code    18  fflti.o(.text)
    __aeabi_ui2f                             0x0800588f   Thumb Code    10  ffltui.o(.text)
    __aeabi_i2d                              0x08005899   Thumb Code    34  dflti.o(.text)
    __aeabi_ui2d                             0x080058bb   Thumb Code    26  dfltui.o(.text)
    __aeabi_f2iz                             0x080058d5   Thumb Code    50  ffixi.o(.text)
    __aeabi_d2iz                             0x08005907   Thumb Code    62  dfixi.o(.text)
    __aeabi_f2d                              0x08005945   Thumb Code    38  f2d.o(.text)
    __aeabi_d2f                              0x0800596b   Thumb Code    56  d2f.o(.text)
    __aeabi_llsl                             0x080059a3   Thumb Code    30  llshl.o(.text)
    _ll_shift_l                              0x080059a3   Thumb Code     0  llshl.o(.text)
    __aeabi_llsr                             0x080059c1   Thumb Code    32  llushr.o(.text)
    _ll_ushift_r                             0x080059c1   Thumb Code     0  llushr.o(.text)
    __aeabi_lasr                             0x080059e1   Thumb Code    36  llsshr.o(.text)
    _ll_sshift_r                             0x080059e1   Thumb Code     0  llsshr.o(.text)
    __I$use$fp                               0x08005a05   Thumb Code     0  iusefp.o(.text)
    _float_round                             0x08005a05   Thumb Code    18  fepilogue.o(.text)
    _float_epilogue                          0x08005a17   Thumb Code    92  fepilogue.o(.text)
    _double_round                            0x08005a73   Thumb Code    30  depilogue.o(.text)
    _double_epilogue                         0x08005a91   Thumb Code   156  depilogue.o(.text)
    __scatterload                            0x08005b2d   Thumb Code    28  init.o(.text)
    __scatterload_rt2                        0x08005b2d   Thumb Code     0  init.o(.text)
    __scatterload_copy                       0x08005b51   Thumb Code    14  handlers.o(i.__scatterload_copy)
    __scatterload_null                       0x08005b5f   Thumb Code     2  handlers.o(i.__scatterload_null)
    __scatterload_zeroinit                   0x08005b61   Thumb Code    14  handlers.o(i.__scatterload_zeroinit)
    hall_to_pos                              0x08005b82   Data           8  bldc.o(.rodata.hall_to_pos)
    lookUpTableAngle                         0x08005b8c   Data         724  main.o(.rodata.lookUpTableAngle)
    Region$$Table$$Base                      0x08005e60   Number         0  anon$$obj.o(Region$$Table)
    Region$$Table$$Limit                     0x08005e80   Number         0  anon$$obj.o(Region$$Table)
    SystemCoreClock                          0x20000000   Data           4  system_gd32f10x.o(.data.SystemCoreClock)
    batteryVoltage                           0x20000004   Data           4  bldc.o(.data.batteryVoltage)
    beepsBackwards                           0x20000008   Data           1  main.o(.data.beepsBackwards)
    currentDC                                0x2000000c   Data           4  bldc.o(.data.currentDC)
    iFILTER_SHIFT                            0x20000010   Data           1  bldc.o(.data.iFILTER_SHIFT)
    offsetdc                                 0x20000014   Data           2  bldc.o(.data.offsetdc)
    speedLimit                               0x20000016   Data           2  main.o(.data.speedLimit)
    wState                                   0x20000018   Data           1  main.o(.data.wState)
    wStateSlave                              0x20000019   Data           1  main.o(.data.wStateSlave)
    adc_buffer                               0x20000130   Data           4  bldc.o(.bss.adc_buffer)
    bldc_enable                              0x20000134   Data           1  bldc.o(.bss.bldc_enable)
    bldc_inputFilterPwm                      0x20000136   Data           2  bldc.o(.bss.bldc_inputFilterPwm)
    bldc_outputFilterPwm                     0x20000138   Data           2  bldc.o(.bss.bldc_outputFilterPwm)
    buzzerFreq                               0x2000013a   Data           1  bldc.o(.bss.buzzerFreq)
    buzzerPattern                            0x2000013b   Data           1  bldc.o(.bss.buzzerPattern)
    buzzerTimer                              0x2000013c   Data           2  bldc.o(.bss.buzzerTimer)
    buzzerToggle                             0x2000013e   Data           1  bldc.o(.bss.buzzerToggle)
    dma_init_struct_adc                      0x20000140   Data          28  setup.o(.bss.dma_init_struct_adc)
    dma_init_struct_usart                    0x2000015c   Data          28  setup.o(.bss.dma_init_struct_usart)
    enable                                   0x20000178   Data           1  main.o(.bss.enable)
    filter_reg                               0x2000017c   Data           4  bldc.o(.bss.filter_reg)
    hall                                     0x20000180   Data           1  bldc.o(.bss.hall)
    hall_a                                   0x20000181   Data           1  bldc.o(.bss.hall_a)
    hall_b                                   0x20000182   Data           1  bldc.o(.bss.hall_b)
    hall_c                                   0x20000183   Data           1  bldc.o(.bss.hall_c)
    iAdcCounter                              0x20000184   Data           4  it.o(.bss.iAdcCounter)
    iAdcTicks                                0x20000188   Data           4  it.o(.bss.iAdcTicks)
    iAdcTicks0                               0x2000018c   Data           4  it.o(.bss.iAdcTicks0)
    iAnswerMaster                            0x20000190   Data           4  remoteuartbus.o(.bss.iAnswerMaster)
    iBug                                     0x20000194   Data           4  main.o(.bss.iBug)
    iCounter2Usart0                          0x20000198   Data           4  it.o(.bss.iCounter2Usart0)
    iCounter2Usart2                          0x2000019c   Data           4  it.o(.bss.iCounter2Usart2)
    iCounterUsart0                           0x200001a0   Data           4  it.o(.bss.iCounterUsart0)
    iCounterUsart2                           0x200001a4   Data           4  it.o(.bss.iCounterUsart2)
    iOdom                                    0x200001a8   Data           4  bldc.o(.bss.iOdom)
    iPwmCounter                              0x200001ac   Data           4  it.o(.bss.iPwmCounter)
    iPwmTicks                                0x200001b0   Data           4  it.o(.bss.iPwmTicks)
    iPwmTicks0                               0x200001b4   Data           4  it.o(.bss.iPwmTicks0)
    iRxDataSize                              0x200001ba   Data           1  remoteuartbus.o(.bss.iRxDataSize)
    iRxDataType                              0x200001bb   Data           1  remoteuartbus.o(.bss.iRxDataType)
    iTimeLastRx                              0x200001bc   Data           4  remoteuartbus.o(.bss.iTimeLastRx)
    iTimeNextLoop                            0x200001c0   Data           4  main.o(.bss.iTimeNextLoop)
    inactivity_timeout_counter               0x200001c4   Data           4  main.o(.bss.inactivity_timeout_counter)
    lastPos                                  0x200001c8   Data           1  bldc.o(.bss.lastPos)
    msTicks                                  0x200001cc   Data           4  it.o(.bss.msTicks)
    oConfig                                  0x200001d0   Data          18  setup.o(.bss.oConfig)
    oDataSlave                               0x200001e4   Data          16  main.o(.bss.oDataSlave)
    offsetcount                              0x200001f4   Data           2  bldc.o(.bss.offsetcount)
    pos                                      0x200001f6   Data           1  bldc.o(.bss.pos)
    pwmSlave                                 0x200001f8   Data           2  main.o(.bss.pwmSlave)
    realSpeed                                0x200001fc   Data           4  bldc.o(.bss.realSpeed)
    speed                                    0x20000200   Data           4  main.o(.bss.speed)
    speedCounter                             0x20000204   Data           4  bldc.o(.bss.speedCounter)
    speedShutoff                             0x20000208   Data           4  main.o(.bss.speedShutoff)
    steer                                    0x2000020c   Data           4  main.o(.bss.steer)
    steerCounter                             0x20000210   Data           4  main.o(.bss.steerCounter)
    timedOut                                 0x20000214   Data           1  it.o(.bss.timedOut)
    timeoutCounter_ms                        0x20000218   Data           4  it.o(.bss.timeoutCounter_ms)
    timeoutTimer_paramter_struct             0x2000021c   Data          16  setup.o(.bss.timeoutTimer_paramter_struct)
    timerBldc_break_parameter_struct         0x2000022c   Data          14  setup.o(.bss.timerBldc_break_parameter_struct)
    timerBldc_oc_parameter_struct            0x2000023a   Data          12  setup.o(.bss.timerBldc_oc_parameter_struct)
    timerBldc_paramter_struct                0x20000248   Data          16  setup.o(.bss.timerBldc_paramter_struct)
    usart0_rx_buf                            0x20000258   Data           1  setup.o(.bss.usart0_rx_buf)
    usart2_rx_buf                            0x20000259   Data           1  setup.o(.bss.usart2_rx_buf)
    __initial_sp                             0x20002260   Data           0  startup_gd32f10x_hd.o(STACK)



==============================================================================

Memory Map of the image

  Image Entry point : 0x08000131

  Load Region LR_IROM1 (Base: 0x08000000, Size: 0x00005ea0, Max: 0x00010000, ABSOLUTE)

    Execution Region ER_IROM1 (Exec base: 0x08000000, Load base: 0x08000000, Size: 0x00005e80, Max: 0x00010000, ABSOLUTE)

    Exec Addr    Load Addr    Size         Type   Attr      Idx    E Section Name        Object

    0x08000000   0x08000000   0x00000130   Data   RO          261    RESET               startup_gd32f10x_hd.o
    0x08000130   0x08000130   0x00000000   Code   RO          277  * .ARM.Collect$$$$00000000  mc_w.l(entry.o)
    0x08000130   0x08000130   0x00000004   Code   RO          316    .ARM.Collect$$$$00000001  mc_w.l(entry2.o)
    0x08000134   0x08000134   0x00000004   Code   RO          319    .ARM.Collect$$$$00000004  mc_w.l(entry5.o)
    0x08000138   0x08000138   0x00000000   Code   RO          321    .ARM.Collect$$$$00000008  mc_w.l(entry7b.o)
    0x08000138   0x08000138   0x00000000   Code   RO          323    .ARM.Collect$$$$0000000A  mc_w.l(entry8b.o)
    0x08000138   0x08000138   0x00000008   Code   RO          324    .ARM.Collect$$$$0000000B  mc_w.l(entry9a.o)
    0x08000140   0x08000140   0x00000000   Code   RO          326    .ARM.Collect$$$$0000000D  mc_w.l(entry10a.o)
    0x08000140   0x08000140   0x00000000   Code   RO          328    .ARM.Collect$$$$0000000F  mc_w.l(entry11a.o)
    0x08000140   0x08000140   0x00000004   Code   RO          317    .ARM.Collect$$$$00002712  mc_w.l(entry2.o)
    0x08000144   0x08000144   0x00000778   Code   RO            1    .text               main.o
    0x080008bc   0x080008bc   0x00000506   Code   RO           28    .text               bldc.o
    0x08000dc2   0x08000dc2   0x00000002   PAD
    0x08000dc4   0x08000dc4   0x0000006e   Code   RO           62    .text               bldcbc.o
    0x08000e32   0x08000e32   0x00000002   PAD
    0x08000e34   0x08000e34   0x000009a2   Code   RO           71    .text               setup.o
    0x080017d6   0x080017d6   0x00000002   PAD
    0x080017d8   0x080017d8   0x00000216   Code   RO           90    .text               it.o
    0x080019ee   0x080019ee   0x00000002   PAD
    0x080019f0   0x080019f0   0x0000006c   Code   RO          112    .text               comms.o
    0x08001a5c   0x08001a5c   0x000002a2   Code   RO          123    .text               remoteuartbus.o
    0x08001cfe   0x08001cfe   0x00000002   PAD
    0x08001d00   0x08001d00   0x000000e4   Code   RO          137    .text               commsmasterslave.o
    0x08001de4   0x08001de4   0x0000048c   Code   RO          152    .text               gd32f10x_adc.o
    0x08002270   0x08002270   0x00000402   Code   RO          160    .text               gd32f10x_dma.o
    0x08002672   0x08002672   0x00000002   PAD
    0x08002674   0x08002674   0x00001084   Code   RO          176    .text               gd32f10x_fmc.o
    0x080036f8   0x080036f8   0x000000b6   Code   RO          185    .text               gd32f10x_fwdgt.o
    0x080037ae   0x080037ae   0x00000002   PAD
    0x080037b0   0x080037b0   0x00000278   Code   RO          193    .text               gd32f10x_gpio.o
    0x08003a28   0x08003a28   0x000000ec   Code   RO          209    .text               gd32f10x_misc.o
    0x08003b14   0x08003b14   0x000005e4   Code   RO          225    .text               gd32f10x_rcu.o
    0x080040f8   0x080040f8   0x00000d6a   Code   RO          234    .text               gd32f10x_timer.o
    0x08004e62   0x08004e62   0x00000002   PAD
    0x08004e64   0x08004e64   0x00000364   Code   RO          243    .text               gd32f10x_usart.o
    0x080051c8   0x080051c8   0x00000024   Code   RO          262    .text               startup_gd32f10x_hd.o
    0x080051ec   0x080051ec   0x00000166   Code   RO          268    .text               system_gd32f10x.o
    0x08005352   0x08005352   0x000000b0   Code   RO          280    .text               mf_w.l(fadd.o)
    0x08005402   0x08005402   0x00000064   Code   RO          282    .text               mf_w.l(fmul.o)
    0x08005466   0x08005466   0x0000007c   Code   RO          284    .text               mf_w.l(fdiv.o)
    0x080054e2   0x080054e2   0x0000014e   Code   RO          286    .text               mf_w.l(dadd.o)
    0x08005630   0x08005630   0x000000e4   Code   RO          288    .text               mf_w.l(dmul.o)
    0x08005714   0x08005714   0x000000de   Code   RO          290    .text               mf_w.l(ddiv.o)
    0x080057f2   0x080057f2   0x0000001c   Code   RO          292    .text               mf_w.l(fcmple.o)
    0x0800580e   0x0800580e   0x0000001c   Code   RO          294    .text               mf_w.l(fcmplt.o)
    0x0800582a   0x0800582a   0x0000001c   Code   RO          296    .text               mf_w.l(fcmpgt.o)
    0x08005846   0x08005846   0x00000036   Code   RO          298    .text               mf_w.l(dcmple.o)
    0x0800587c   0x0800587c   0x00000012   Code   RO          300    .text               mf_w.l(fflti.o)
    0x0800588e   0x0800588e   0x0000000a   Code   RO          302    .text               mf_w.l(ffltui.o)
    0x08005898   0x08005898   0x00000022   Code   RO          304    .text               mf_w.l(dflti.o)
    0x080058ba   0x080058ba   0x0000001a   Code   RO          306    .text               mf_w.l(dfltui.o)
    0x080058d4   0x080058d4   0x00000032   Code   RO          308    .text               mf_w.l(ffixi.o)
    0x08005906   0x08005906   0x0000003e   Code   RO          310    .text               mf_w.l(dfixi.o)
    0x08005944   0x08005944   0x00000026   Code   RO          312    .text               mf_w.l(f2d.o)
    0x0800596a   0x0800596a   0x00000038   Code   RO          314    .text               mf_w.l(d2f.o)
    0x080059a2   0x080059a2   0x0000001e   Code   RO          330    .text               mc_w.l(llshl.o)
    0x080059c0   0x080059c0   0x00000020   Code   RO          332    .text               mc_w.l(llushr.o)
    0x080059e0   0x080059e0   0x00000024   Code   RO          334    .text               mc_w.l(llsshr.o)
    0x08005a04   0x08005a04   0x00000000   Code   RO          336    .text               mc_w.l(iusefp.o)
    0x08005a04   0x08005a04   0x0000006e   Code   RO          337    .text               mf_w.l(fepilogue.o)
    0x08005a72   0x08005a72   0x000000ba   Code   RO          339    .text               mf_w.l(depilogue.o)
    0x08005b2c   0x08005b2c   0x00000024   Code   RO          341    .text               mc_w.l(init.o)
    0x08005b50   0x08005b50   0x0000000e   Code   RO          345    i.__scatterload_copy  mc_w.l(handlers.o)
    0x08005b5e   0x08005b5e   0x00000002   Code   RO          346    i.__scatterload_null  mc_w.l(handlers.o)
    0x08005b60   0x08005b60   0x0000000e   Code   RO          347    i.__scatterload_zeroinit  mc_w.l(handlers.o)
    0x08005b6e   0x08005b6e   0x0000000c   Data   RO           46    .rodata..L__const.up_or_down.up_down  bldc.o
    0x08005b7a   0x08005b7a   0x00000008   Data   RO          227    .rodata.cst8        gd32f10x_rcu.o
    0x08005b82   0x08005b82   0x00000008   Data   RO           47    .rodata.hall_to_pos  bldc.o
    0x08005b8a   0x08005b8a   0x00000002   PAD
    0x08005b8c   0x08005b8c   0x000002d4   Data   RO           15    .rodata.lookUpTableAngle  main.o
    0x08005e60   0x08005e60   0x00000020   Data   RO          344    Region$$Table       anon$$obj.o


    Execution Region RW_IRAM1 (Exec base: 0x20000000, Load base: 0x08005e80, Size: 0x00002260, Max: 0x00005000, ABSOLUTE)

    Exec Addr    Load Addr    Size         Type   Attr      Idx    E Section Name        Object

    0x20000000   0x08005e80   0x00000004   Data   RW          270    .data.SystemCoreClock  system_gd32f10x.o
    0x20000004   0x08005e84   0x00000004   Data   RW           30    .data.batteryVoltage  bldc.o
    0x20000008   0x08005e88   0x00000001   Data   RW           12    .data.beepsBackwards  main.o
    0x20000009   0x08005e89   0x00000003   PAD
    0x2000000c   0x08005e8c   0x00000004   Data   RW           31    .data.currentDC     bldc.o
    0x20000010   0x08005e90   0x00000001   Data   RW           37    .data.iFILTER_SHIFT  bldc.o
    0x20000011   0x08005e91   0x00000001   PAD
    0x20000012   0x08005e92   0x00000002   Data   RW          141    .data.iReceivePos   commsmasterslave.o
    0x20000014   0x08005e94   0x00000002   Data   RW           40    .data.offsetdc      bldc.o
    0x20000016   0x08005e96   0x00000002   Data   RW            7    .data.speedLimit    main.o
    0x20000018   0x08005e98   0x00000001   Data   RW            8    .data.wState        main.o
    0x20000019   0x08005e99   0x00000001   Data   RW            9    .data.wStateSlave   main.o
    0x2000001a   0x08005e9a   0x00000006   PAD
    0x20000020        -       0x000000ff   Zero   RW          128    .bss.aReceiveBuffer  remoteuartbus.o
    0x2000011f        -       0x00000010   Zero   RW          142    .bss.aReceiveBuffer  commsmasterslave.o
    0x2000012f   0x08005e9a   0x00000001   PAD
    0x20000130        -       0x00000004   Zero   RW           49    .bss.adc_buffer     bldc.o
    0x20000134        -       0x00000001   Zero   RW           34    .bss.bldc_enable    bldc.o
    0x20000135   0x08005e9a   0x00000001   PAD
    0x20000136        -       0x00000002   Zero   RW           33    .bss.bldc_inputFilterPwm  bldc.o
    0x20000138        -       0x00000002   Zero   RW           36    .bss.bldc_outputFilterPwm  bldc.o
    0x2000013a        -       0x00000001   Zero   RW           43    .bss.buzzerFreq     bldc.o
    0x2000013b        -       0x00000001   Zero   RW           44    .bss.buzzerPattern  bldc.o
    0x2000013c        -       0x00000002   Zero   RW           38    .bss.buzzerTimer    bldc.o
    0x2000013e        -       0x00000001   Zero   RW           42    .bss.buzzerToggle   bldc.o
    0x2000013f   0x08005e9a   0x00000001   PAD
    0x20000140        -       0x0000001c   Zero   RW           77    .bss.dma_init_struct_adc  setup.o
    0x2000015c        -       0x0000001c   Zero   RW           78    .bss.dma_init_struct_usart  setup.o
    0x20000178        -       0x00000001   Zero   RW           16    .bss.enable         main.o
    0x20000179   0x08005e9a   0x00000003   PAD
    0x2000017c        -       0x00000004   Zero   RW           48    .bss.filter_reg     bldc.o
    0x20000180        -       0x00000001   Zero   RW           35    .bss.hall           bldc.o
    0x20000181        -       0x00000001   Zero   RW           50    .bss.hall_a         bldc.o
    0x20000182        -       0x00000001   Zero   RW           51    .bss.hall_b         bldc.o
    0x20000183        -       0x00000001   Zero   RW           52    .bss.hall_c         bldc.o
    0x20000184        -       0x00000004   Zero   RW          100    .bss.iAdcCounter    it.o
    0x20000188        -       0x00000004   Zero   RW           98    .bss.iAdcTicks      it.o
    0x2000018c        -       0x00000004   Zero   RW           99    .bss.iAdcTicks0     it.o
    0x20000190        -       0x00000004   Zero   RW          126    .bss.iAnswerMaster  remoteuartbus.o
    0x20000194        -       0x00000004   Zero   RW            3    .bss.iBug           main.o
    0x20000198        -       0x00000004   Zero   RW          102    .bss.iCounter2Usart0  it.o
    0x2000019c        -       0x00000004   Zero   RW          104    .bss.iCounter2Usart2  it.o
    0x200001a0        -       0x00000004   Zero   RW          101    .bss.iCounterUsart0  it.o
    0x200001a4        -       0x00000004   Zero   RW          103    .bss.iCounterUsart2  it.o
    0x200001a8        -       0x00000004   Zero   RW           45    .bss.iOdom          bldc.o
    0x200001ac        -       0x00000004   Zero   RW           97    .bss.iPwmCounter    it.o
    0x200001b0        -       0x00000004   Zero   RW           95    .bss.iPwmTicks      it.o
    0x200001b4        -       0x00000004   Zero   RW           96    .bss.iPwmTicks0     it.o
    0x200001b8        -       0x00000002   Zero   RW          127    .bss.iReceivePos    remoteuartbus.o
    0x200001ba        -       0x00000001   Zero   RW          130    .bss.iRxDataSize    remoteuartbus.o
    0x200001bb        -       0x00000001   Zero   RW          129    .bss.iRxDataType    remoteuartbus.o
    0x200001bc        -       0x00000004   Zero   RW          125    .bss.iTimeLastRx    remoteuartbus.o
    0x200001c0        -       0x00000004   Zero   RW           18    .bss.iTimeNextLoop  main.o
    0x200001c4        -       0x00000004   Zero   RW           14    .bss.inactivity_timeout_counter  main.o
    0x200001c8        -       0x00000001   Zero   RW           54    .bss.lastPos        bldc.o
    0x200001c9   0x08005e9a   0x00000003   PAD
    0x200001cc        -       0x00000004   Zero   RW           94    .bss.msTicks        it.o
    0x200001d0        -       0x00000012   Zero   RW           81    .bss.oConfig        setup.o
    0x200001e2   0x08005e9a   0x00000002   PAD
    0x200001e4        -       0x00000010   Zero   RW           19    .bss.oDataSlave     main.o
    0x200001f4        -       0x00000002   Zero   RW           39    .bss.offsetcount    bldc.o
    0x200001f6        -       0x00000001   Zero   RW           53    .bss.pos            bldc.o
    0x200001f7   0x08005e9a   0x00000001   PAD
    0x200001f8        -       0x00000002   Zero   RW           17    .bss.pwmSlave       main.o
    0x200001fa   0x08005e9a   0x00000002   PAD
    0x200001fc        -       0x00000004   Zero   RW           32    .bss.realSpeed      bldc.o
    0x20000200        -       0x00000004   Zero   RW            5    .bss.speed          main.o
    0x20000204        -       0x00000004   Zero   RW           41    .bss.speedCounter   bldc.o
    0x20000208        -       0x00000004   Zero   RW            6    .bss.speedShutoff   main.o
    0x2000020c        -       0x00000004   Zero   RW           10    .bss.steer          main.o
    0x20000210        -       0x00000004   Zero   RW            4    .bss.steerCounter   main.o
    0x20000214        -       0x00000001   Zero   RW           93    .bss.timedOut       it.o
    0x20000215   0x08005e9a   0x00000003   PAD
    0x20000218        -       0x00000004   Zero   RW           92    .bss.timeoutCounter_ms  it.o
    0x2000021c        -       0x00000010   Zero   RW           73    .bss.timeoutTimer_paramter_struct  setup.o
    0x2000022c        -       0x0000000e   Zero   RW           76    .bss.timerBldc_break_parameter_struct  setup.o
    0x2000023a        -       0x0000000c   Zero   RW           75    .bss.timerBldc_oc_parameter_struct  setup.o
    0x20000246   0x08005e9a   0x00000002   PAD
    0x20000248        -       0x00000010   Zero   RW           74    .bss.timerBldc_paramter_struct  setup.o
    0x20000258        -       0x00000001   Zero   RW           79    .bss.usart0_rx_buf  setup.o
    0x20000259        -       0x00000001   Zero   RW           80    .bss.usart2_rx_buf  setup.o
    0x2000025a   0x08005e9a   0x00000006   PAD
    0x20000260        -       0x00002000   Zero   RW          259    STACK               startup_gd32f10x_hd.o


==============================================================================

Image component sizes


      Code (inc. data)   RO Data    RW Data    ZI Data      Debug   Object Name

      1286          0         20         11         38       4131   bldc.o
       110          6          0          0          0        937   bldcbc.o
       108          0          0          0          0       1751   comms.o
       228          0          0          2         16       2080   commsmasterslave.o
      1164         12          0          0          0       8150   gd32f10x_adc.o
      1026          0          0          0          0       6969   gd32f10x_dma.o
      4228          0          0          0          0      20220   gd32f10x_fmc.o
       182          0          0          0          0       1769   gd32f10x_fwdgt.o
       632          0          0          0          0       5118   gd32f10x_gpio.o
       236          0          0          0          0       3265   gd32f10x_misc.o
      1508         20          8          0          0      11590   gd32f10x_rcu.o
      3434         40          0          0          0      18089   gd32f10x_timer.o
       868          0          0          0          0       8531   gd32f10x_usart.o
       534          0          0          0         49       3020   it.o
      1912          0        724          5         47       6926   main.o
       674          0          0          0        267       2451   remoteuartbus.o
      2466          0          0          0        134       9188   setup.o
        36          8        304          0       8192        852   startup_gd32f10x_hd.o
       358          0          0          4          0       1432   system_gd32f10x.o

    ----------------------------------------------------------------------
     21006         86       1090         28       8772     116469   Object Totals
         0          0         32          0          0          0   (incl. Generated)
        16          0          2          6         29          0   (incl. Padding)

    ----------------------------------------------------------------------

      Code (inc. data)   RO Data    RW Data    ZI Data      Debug   Library Member Name

         0          0          0          0          0          0   entry.o
         0          0          0          0          0          0   entry10a.o
         0          0          0          0          0          0   entry11a.o
         8          4          0          0          0          0   entry2.o
         4          0          0          0          0          0   entry5.o
         0          0          0          0          0          0   entry7b.o
         0          0          0          0          0          0   entry8b.o
         8          4          0          0          0          0   entry9a.o
        30          0          0          0          0          0   handlers.o
        36          8          0          0          0         68   init.o
         0          0          0          0          0          0   iusefp.o
        30          0          0          0          0         68   llshl.o
        36          0          0          0          0         68   llsshr.o
        32          0          0          0          0         68   llushr.o
        56          0          0          0          0         88   d2f.o
       334          0          0          0          0        148   dadd.o
        54          0          0          0          0         80   dcmple.o
       222          0          0          0          0        100   ddiv.o
       186          0          0          0          0        176   depilogue.o
        62          0          0          0          0         80   dfixi.o
        34          0          0          0          0         76   dflti.o
        26          0          0          0          0         76   dfltui.o
       228          0          0          0          0         96   dmul.o
        38          0          0          0          0         68   f2d.o
       176          0          0          0          0        140   fadd.o
        28          0          0          0          0         68   fcmpgt.o
        28          0          0          0          0         68   fcmple.o
        28          0          0          0          0         68   fcmplt.o
       124          0          0          0          0         88   fdiv.o
       110          0          0          0          0        168   fepilogue.o
        50          0          0          0          0         68   ffixi.o
        18          0          0          0          0         68   fflti.o
        10          0          0          0          0         68   ffltui.o
       100          0          0          0          0         76   fmul.o

    ----------------------------------------------------------------------
      2096         16          0          0          0       2140   Library Totals
         0          0          0          0          0          0   (incl. Padding)

    ----------------------------------------------------------------------

      Code (inc. data)   RO Data    RW Data    ZI Data      Debug   Library Name

       184         16          0          0          0        272   mc_w.l
      1912          0          0          0          0       1868   mf_w.l

    ----------------------------------------------------------------------
      2096         16          0          0          0       2140   Library Totals

    ----------------------------------------------------------------------

==============================================================================


      Code (inc. data)   RO Data    RW Data    ZI Data      Debug   

     23102        102       1090         28       8772     117329   Grand Totals
     23102        102       1090         28       8772     117329   ELF Image Totals
     23102        102       1090         28          0          0   ROM Totals

==============================================================================

    Total RO  Size (Code + RO Data)                24192 (  23.62kB)
    Total RW  Size (RW Data + ZI Data)              8800 (   8.59kB)
    Total ROM Size (Code + RO Data + RW Data)      24220 (  23.65kB)

==============================================================================

