Component: Arm Compiler for Embedded 6.23 Tool: armlink [5f102400]

==============================================================================

Section Cross References

    main.o(.text) refers to main.o(.bss.iBug) for iBug
    main.o(.text) refers to setup.o(.text) for ConfigRead
    main.o(.text) refers to system_gd32f1x0.o(.text) for SystemCoreClockUpdate
    main.o(.text) refers to system_gd32f1x0.o(.data.SystemCoreClock) for SystemCoreClock
    main.o(.text) refers to gd32f1x0_gpio.o(.text) for gpio_bit_write
    main.o(.text) refers to bldcsine.o(.text) for InitBldc
    main.o(.text) refers to gd32f1x0_fwdgt.o(.text) for fwdgt_counter_reload
    main.o(.text) refers to bldc.o(.bss.buzzerFreq) for buzzerFreq
    main.o(.text) refers to it.o(.text) for Delay
    main.o(.text) refers to main.o(.bss.iTimeNextLoop) for iTimeNextLoop
    main.o(.text) refers to main.o(.bss.speedShutoff) for speedShutoff
    main.o(.text) refers to main.o(.bss.steerCounter) for steerCounter
    main.o(.text) refers to remotecrsf.o(.text) for RemoteUpdate
    main.o(.text) refers to main.o(.bss.speed) for speed
    main.o(.text) refers to ffltui.o(.text) for __aeabi_ui2f
    main.o(.text) refers to f2d.o(.text) for __aeabi_f2d
    main.o(.text) refers to dmul.o(.text) for __aeabi_dmul
    main.o(.text) refers to ddiv.o(.text) for __aeabi_ddiv
    main.o(.text) refers to dadd.o(.text) for __aeabi_dadd
    main.o(.text) refers to d2f.o(.text) for __aeabi_d2f
    main.o(.text) refers to main.o(.data.speedLimit) for speedLimit
    main.o(.text) refers to main.o(.bss.steer) for steer
    main.o(.text) refers to fflti.o(.text) for __aeabi_i2f
    main.o(.text) refers to fmul.o(.text) for __aeabi_fmul
    main.o(.text) refers to ffixi.o(.text) for __aeabi_f2iz
    main.o(.text) refers to fadd.o(.text) for __aeabi_fsub
    main.o(.text) refers to fdiv.o(.text) for __aeabi_fdiv
    main.o(.text) refers to main.o(.rodata.lookUpTableAngle) for lookUpTableAngle
    main.o(.text) refers to fcmplt.o(.text) for __aeabi_fcmplt
    main.o(.text) refers to main.o(.bss.pwmSlave) for pwmSlave
    main.o(.text) refers to bldc.o(.text) for SetPWM
    main.o(.text) refers to bldc.o(.data.batteryVoltage) for batteryVoltage
    main.o(.text) refers to fcmple.o(.text) for __aeabi_fcmple
    main.o(.text) refers to main.o(.data.wState) for wState
    main.o(.text) refers to main.o(.data.beepsBackwards) for beepsBackwards
    main.o(.text) refers to dcmple.o(.text) for __aeabi_dcmple
    main.o(.text) refers to bldc.o(.bss.buzzerPattern) for buzzerPattern
    main.o(.text) refers to main.o(.bss.inactivity_timeout_counter) for inactivity_timeout_counter
    main.o(.text) refers to main.o(.bss.enable) for enable
    main.o(.ARM.exidx) refers to main.o(.text) for [Anonymous Symbol]
    bldc.o(.text) refers to bldc.o(.rodata..L__const.up_or_down.up_down) for .L__const.up_or_down.up_down
    bldc.o(.text) refers to bldc.o(.bss.bldc_enable) for bldc_enable
    bldc.o(.text) refers to dflti.o(.text) for __aeabi_i2d
    bldc.o(.text) refers to ddiv.o(.text) for __aeabi_ddiv
    bldc.o(.text) refers to dmul.o(.text) for __aeabi_dmul
    bldc.o(.text) refers to dfixi.o(.text) for __aeabi_d2iz
    bldc.o(.text) refers to bldc.o(.bss.bldc_inputFilterPwm) for bldc_inputFilterPwm
    bldc.o(.text) refers to bldc.o(.data.iFILTER_SHIFT) for iFILTER_SHIFT
    bldc.o(.text) refers to bldc.o(.bss.bldc_outputFilterPwm) for bldc_outputFilterPwm
    bldc.o(.text) refers to bldc.o(.bss.filter_reg) for filter_reg
    bldc.o(.text) refers to bldc.o(.bss.offsetcount) for offsetcount
    bldc.o(.text) refers to bldc.o(.bss.adc_buffer) for adc_buffer
    bldc.o(.text) refers to bldc.o(.data.offsetdc) for offsetdc
    bldc.o(.text) refers to bldc.o(.bss.buzzerTimer) for buzzerTimer
    bldc.o(.text) refers to bldc.o(.data.batteryVoltage) for batteryVoltage
    bldc.o(.text) refers to f2d.o(.text) for __aeabi_f2d
    bldc.o(.text) refers to dfltui.o(.text) for __aeabi_ui2d
    bldc.o(.text) refers to dadd.o(.text) for __aeabi_dadd
    bldc.o(.text) refers to d2f.o(.text) for __aeabi_d2f
    bldc.o(.text) refers to main.o(.bss.iBug) for iBug
    bldc.o(.text) refers to bldc.o(.bss.buzzerFreq) for buzzerFreq
    bldc.o(.text) refers to bldc.o(.bss.buzzerPattern) for buzzerPattern
    bldc.o(.text) refers to gd32f1x0_gpio.o(.text) for gpio_bit_write
    bldc.o(.text) refers to bldc.o(.data.currentDC) for currentDC
    bldc.o(.text) refers to fcmpgt.o(.text) for __aeabi_fcmpgt
    bldc.o(.text) refers to it.o(.bss.timedOut) for timedOut
    bldc.o(.text) refers to gd32f1x0_timer.o(.text) for timer_automatic_output_enable
    bldc.o(.text) refers to bldc.o(.bss.hall_a) for hall_a
    bldc.o(.text) refers to bldc.o(.bss.hall_b) for hall_b
    bldc.o(.text) refers to bldc.o(.bss.hall_c) for hall_c
    bldc.o(.text) refers to bldc.o(.bss.hall) for hall
    bldc.o(.text) refers to bldc.o(.rodata.hall_to_pos) for hall_to_pos
    bldc.o(.text) refers to bldc.o(.bss.pos) for pos
    bldc.o(.text) refers to bldcsine.o(.text) for bldc_get_pwm
    bldc.o(.text) refers to bldc.o(.bss.lastPos) for lastPos
    bldc.o(.text) refers to bldc.o(.bss.iOdom) for iOdom
    bldc.o(.text) refers to bldc.o(.bss.speedCounter) for speedCounter
    bldc.o(.text) refers to ffltui.o(.text) for __aeabi_ui2f
    bldc.o(.text) refers to fdiv.o(.text) for __aeabi_fdiv
    bldc.o(.text) refers to bldc.o(.bss.realSpeed) for realSpeed
    bldc.o(.text) refers to bldc.o(.bss.buzzerToggle) for buzzerToggle
    bldc.o(.ARM.exidx) refers to bldc.o(.text) for [Anonymous Symbol]
    bldcsine.o(.text) refers to gd32f1x0_syscfg.o(.text) for syscfg_exti_line_config
    bldcsine.o(.text) refers to gd32f1x0_exti.o(.text) for exti_init
    bldcsine.o(.text) refers to gd32f1x0_misc.o(.text) for nvic_irq_enable
    bldcsine.o(.text) refers to gd32f1x0_rcu.o(.text) for rcu_periph_clock_enable
    bldcsine.o(.text) refers to bldcsine.o(.bss.aHallEXTI) for aHallEXTI
    bldcsine.o(.text) refers to bldc.o(.bss.buzzerTimer) for buzzerTimer
    bldcsine.o(.text) refers to bldcsine.o(.bss.hall_time_last) for hall_time_last
    bldcsine.o(.text) refers to bldcsine.o(.bss.hall_time_step) for hall_time_step
    bldcsine.o(.text) refers to bldc.o(.bss.hall) for hall
    bldcsine.o(.text) refers to bldcsine.o(.bss.hall_last) for hall_last
    bldcsine.o(.text) refers to bldcsine.o(.bss.bInterrupt) for bInterrupt
    bldcsine.o(.text) refers to gd32f1x0_gpio.o(.text) for gpio_input_bit_get
    bldcsine.o(.text) refers to bldcsine.o(.bss.pwmGo) for pwmGo
    bldcsine.o(.text) refers to bldcsine.o(.rodata.cst8) for hall_to_sector
    bldcsine.o(.text) refers to bldcsine.o(.bss.sector) for sector
    bldcsine.o(.text) refers to bldcsine.o(.bss.sector10x) for sector10x
    bldcsine.o(.text) refers to fflti.o(.text) for __aeabi_i2f
    bldcsine.o(.text) refers to fmul.o(.text) for __aeabi_fmul
    bldcsine.o(.text) refers to bldcsine.o(.bss.angle_deg) for angle_deg
    bldcsine.o(.text) refers to bldcsine.o(.bss.hall_time_step_LPR) for hall_time_step_LPR
    bldcsine.o(.text) refers to bldcsine.o(.bss.angle_deg_add) for angle_deg_add
    bldcsine.o(.text) refers to bldcsine.o(.bss.sectorChange) for sectorChange
    bldcsine.o(.text) refers to bldcsine.o(.bss.hall_time_step_LP) for hall_time_step_LP
    bldcsine.o(.text) refers to bldcsine.o(.bss.iDT) for iDT
    bldcsine.o(.text) refers to dfltui.o(.text) for __aeabi_ui2d
    bldcsine.o(.text) refers to ddiv.o(.text) for __aeabi_ddiv
    bldcsine.o(.text) refers to d2f.o(.text) for __aeabi_d2f
    bldcsine.o(.text) refers to bldcsine.o(.bss.fGradient) for fGradient
    bldcsine.o(.text) refers to bldcsine.o(.bss.fGradientX) for fGradientX
    bldcsine.o(.text) refers to ffltui.o(.text) for __aeabi_ui2f
    bldcsine.o(.text) refers to bldcsine.o(.bss.fDT) for fDT
    bldcsine.o(.text) refers to fcmpge.o(.text) for __aeabi_fcmpge
    bldcsine.o(.text) refers to fadd.o(.text) for __aeabi_fadd
    bldcsine.o(.text) refers to bldcsine.o(.bss.angle_deg_final) for angle_deg_final
    bldcsine.o(.text) refers to ffixi.o(.text) for __aeabi_f2iz
    bldcsine.o(.text) refers to bldcsine.o(.rodata.sine_table) for sine_table
    bldcsine.o(.text) refers to bldcsine.o(.bss.angle_idx) for angle_idx
    bldcsine.o(.ARM.exidx) refers to bldcsine.o(.text) for [Anonymous Symbol]
    setup.o(.text) refers to gd32f1x0_gpio.o(.text) for gpio_mode_set
    setup.o(.text) refers to gd32f1x0_misc.o(.text) for nvic_priority_group_set
    setup.o(.text) refers to gd32f1x0_rcu.o(.text) for rcu_flag_get
    setup.o(.text) refers to gd32f1x0_fwdgt.o(.text) for fwdgt_config
    setup.o(.text) refers to gd32f1x0_timer.o(.text) for timer_deinit
    setup.o(.text) refers to setup.o(.bss.timeoutTimer_paramter_struct) for timeoutTimer_paramter_struct
    setup.o(.text) refers to setup.o(.bss.timerBldc_paramter_struct) for timerBldc_paramter_struct
    setup.o(.text) refers to setup.o(.bss.timerBldc_oc_parameter_struct) for timerBldc_oc_parameter_struct
    setup.o(.text) refers to setup.o(.bss.timerBldc_break_parameter_struct) for timerBldc_break_parameter_struct
    setup.o(.text) refers to gd32f1x0_dma.o(.text) for dma_deinit
    setup.o(.text) refers to setup.o(.bss.dma_init_struct_adc) for dma_init_struct_adc
    setup.o(.text) refers to bldc.o(.bss.adc_buffer) for adc_buffer
    setup.o(.text) refers to gd32f1x0_adc.o(.text) for adc_channel_length_config
    setup.o(.text) refers to gd32f1x0_usart.o(.text) for usart_deinit
    setup.o(.text) refers to setup.o(.bss.dma_init_struct_usart) for dma_init_struct_usart
    setup.o(.text) refers to setup.o(.bss.usart0_rx_buf) for usart0_rx_buf
    setup.o(.text) refers to gd32f1x0_fmc.o(.text) for fmc_unlock
    setup.o(.text) refers to setup.o(.bss.oConfig) for oConfig
    setup.o(.ARM.exidx) refers to setup.o(.text) for [Anonymous Symbol]
    it.o(.text) refers to it.o(.bss.msTicks) for msTicks
    it.o(.text) refers to it.o(.bss.timeoutCounter_ms) for timeoutCounter_ms
    it.o(.text) refers to it.o(.bss.timedOut) for timedOut
    it.o(.text) refers to main.o(.bss.speed) for speed
    it.o(.text) refers to gd32f1x0_timer.o(.text) for timer_interrupt_flag_clear
    it.o(.text) refers to it.o(.bss.iPwmCounter) for iPwmCounter
    it.o(.text) refers to it.o(.bss.iPwmTicks0) for iPwmTicks0
    it.o(.text) refers to it.o(.bss.iPwmTicks) for iPwmTicks
    it.o(.text) refers to gd32f1x0_adc.o(.text) for adc_software_trigger_enable
    it.o(.text) refers to it.o(.bss.iAdcCounter) for iAdcCounter
    it.o(.text) refers to it.o(.bss.iAdcTicks0) for iAdcTicks0
    it.o(.text) refers to it.o(.bss.iAdcTicks) for iAdcTicks
    it.o(.text) refers to bldc.o(.text) for CalculateBLDC
    it.o(.text) refers to gd32f1x0_dma.o(.text) for dma_interrupt_flag_get
    it.o(.text) refers to it.o(.bss.iCounterUsart0) for iCounterUsart0
    it.o(.text) refers to it.o(.bss.iCounter2Usart0) for iCounter2Usart0
    it.o(.text) refers to remotecrsf.o(.text) for RemoteCallback
    it.o(.ARM.exidx) refers to it.o(.text) for [Anonymous Symbol]
    comms.o(.text) refers to gd32f1x0_usart.o(.text) for usart_data_transmit
    comms.o(.ARM.exidx) refers to comms.o(.text) for [Anonymous Symbol]
    remotecrsf.o(.text) refers to remotecrsf.o(.bss.crsfData) for crsfData
    remotecrsf.o(.text) refers to remotecrsf.o(.bss.channels) for channels
    remotecrsf.o(.text) refers to remotecrsf.o(.bss.bufferIndex) for bufferIndex
    remotecrsf.o(.text) refers to main.o(.bss.speed) for speed
    remotecrsf.o(.text) refers to main.o(.bss.steer) for steer
    remotecrsf.o(.text) refers to main.o(.data.speedLimit) for speedLimit
    remotecrsf.o(.text) refers to it.o(.text) for millis
    remotecrsf.o(.text) refers to remotecrsf.o(.bss.iTimeLast) for iTimeLast
    remotecrsf.o(.text) refers to remotecrsf.o(.rodata.crsf_crc8tab) for crsf_crc8tab
    remotecrsf.o(.text) refers to setup.o(.bss.usart0_rx_buf) for usart0_rx_buf
    remotecrsf.o(.text) refers to remotecrsf.o(.bss.inBuffer) for inBuffer
    remotecrsf.o(.text) refers to remotecrsf.o(.bss.frameLength) for frameLength
    remotecrsf.o(.text) refers to remotecrsf.o(.bss.failsafe_status) for failsafe_status
    remotecrsf.o(.ARM.exidx) refers to remotecrsf.o(.text) for [Anonymous Symbol]
    gd32f1x0_adc.o(.text) refers to gd32f1x0_rcu.o(.text) for rcu_periph_reset_enable
    gd32f1x0_adc.o(.ARM.exidx) refers to gd32f1x0_adc.o(.text) for [Anonymous Symbol]
    gd32f1x0_dbg.o(.ARM.exidx) refers to gd32f1x0_dbg.o(.text) for [Anonymous Symbol]
    gd32f1x0_dma.o(.ARM.exidx) refers to gd32f1x0_dma.o(.text) for [Anonymous Symbol]
    gd32f1x0_exti.o(.ARM.exidx) refers to gd32f1x0_exti.o(.text) for [Anonymous Symbol]
    gd32f1x0_fmc.o(.ARM.exidx) refers to gd32f1x0_fmc.o(.text) for [Anonymous Symbol]
    gd32f1x0_fwdgt.o(.ARM.exidx) refers to gd32f1x0_fwdgt.o(.text) for [Anonymous Symbol]
    gd32f1x0_gpio.o(.text) refers to gd32f1x0_gpio.o(.rodata..Lswitch.table.gpio_deinit.1) for .Lswitch.table.gpio_deinit.1
    gd32f1x0_gpio.o(.text) refers to gd32f1x0_rcu.o(.text) for rcu_periph_reset_enable
    gd32f1x0_gpio.o(.ARM.exidx) refers to gd32f1x0_gpio.o(.text) for [Anonymous Symbol]
    gd32f1x0_i2c.o(.text) refers to gd32f1x0_rcu.o(.text) for rcu_periph_reset_enable
    gd32f1x0_i2c.o(.ARM.exidx) refers to gd32f1x0_i2c.o(.text) for [Anonymous Symbol]
    gd32f1x0_misc.o(.ARM.exidx) refers to gd32f1x0_misc.o(.text) for [Anonymous Symbol]
    gd32f1x0_pmu.o(.text) refers to gd32f1x0_rcu.o(.text) for rcu_periph_reset_enable
    gd32f1x0_pmu.o(.text) refers to gd32f1x0_pmu.o(.bss.pmu_to_deepsleepmode.reg_snap.1) for pmu_to_deepsleepmode.reg_snap.1
    gd32f1x0_pmu.o(.text) refers to gd32f1x0_pmu.o(.bss.pmu_to_deepsleepmode.reg_snap.0) for pmu_to_deepsleepmode.reg_snap.0
    gd32f1x0_pmu.o(.text) refers to gd32f1x0_pmu.o(.bss.pmu_to_deepsleepmode.reg_snap.2) for pmu_to_deepsleepmode.reg_snap.2
    gd32f1x0_pmu.o(.text) refers to gd32f1x0_pmu.o(.bss.pmu_to_deepsleepmode.reg_snap.3) for pmu_to_deepsleepmode.reg_snap.3
    gd32f1x0_pmu.o(.ARM.exidx) refers to gd32f1x0_pmu.o(.text) for [Anonymous Symbol]
    gd32f1x0_rcu.o(.text) refers to gd32f1x0_rcu.o(.rodata.cst8) for .L__const.rcu_clock_freq_get.apb2_exp
    gd32f1x0_rcu.o(.ARM.exidx) refers to gd32f1x0_rcu.o(.text) for [Anonymous Symbol]
    gd32f1x0_syscfg.o(.text) refers to gd32f1x0_rcu.o(.text) for rcu_periph_reset_enable
    gd32f1x0_syscfg.o(.ARM.exidx) refers to gd32f1x0_syscfg.o(.text) for [Anonymous Symbol]
    gd32f1x0_timer.o(.text) refers to gd32f1x0_rcu.o(.text) for rcu_periph_reset_enable
    gd32f1x0_timer.o(.ARM.exidx) refers to gd32f1x0_timer.o(.text) for [Anonymous Symbol]
    gd32f1x0_usart.o(.text) refers to gd32f1x0_rcu.o(.text) for rcu_periph_reset_enable
    gd32f1x0_usart.o(.ARM.exidx) refers to gd32f1x0_usart.o(.text) for [Anonymous Symbol]
    gd32f1x0_wwdgt.o(.text) refers to gd32f1x0_rcu.o(.text) for rcu_periph_reset_enable
    gd32f1x0_wwdgt.o(.ARM.exidx) refers to gd32f1x0_wwdgt.o(.text) for [Anonymous Symbol]
    startup_gd32f1x0.o(RESET) refers to startup_gd32f1x0.o(STACK) for __initial_sp
    startup_gd32f1x0.o(RESET) refers to startup_gd32f1x0.o(.text) for Reset_Handler
    startup_gd32f1x0.o(RESET) refers to it.o(.text) for NMI_Handler
    startup_gd32f1x0.o(RESET) refers to bldcsine.o(.text) for EXTI0_1_IRQHandler
    startup_gd32f1x0.o(.text) refers to system_gd32f1x0.o(.text) for SystemInit
    startup_gd32f1x0.o(.text) refers to entry.o(.ARM.Collect$$$$00000000) for __main
    system_gd32f1x0.o(.text) refers to system_gd32f1x0.o(.data.SystemCoreClock) for SystemCoreClock
    system_gd32f1x0.o(.ARM.exidx) refers to system_gd32f1x0.o(.text) for [Anonymous Symbol]
    entry.o(.ARM.Collect$$$$00000000) refers (Special) to entry10a.o(.ARM.Collect$$$$0000000D) for __rt_final_cpp
    entry.o(.ARM.Collect$$$$00000000) refers (Special) to entry11a.o(.ARM.Collect$$$$0000000F) for __rt_final_exit
    entry.o(.ARM.Collect$$$$00000000) refers (Special) to entry7b.o(.ARM.Collect$$$$00000008) for _main_clock
    entry.o(.ARM.Collect$$$$00000000) refers (Special) to entry8b.o(.ARM.Collect$$$$0000000A) for _main_cpp_init
    entry.o(.ARM.Collect$$$$00000000) refers (Special) to entry9a.o(.ARM.Collect$$$$0000000B) for _main_init
    entry.o(.ARM.Collect$$$$00000000) refers (Special) to entry5.o(.ARM.Collect$$$$00000004) for _main_scatterload
    entry.o(.ARM.Collect$$$$00000000) refers (Special) to entry2.o(.ARM.Collect$$$$00000001) for _main_stk
    fadd.o(.text) refers (Special) to iusefp.o(.text) for __I$use$fp
    fadd.o(.text) refers to fepilogue.o(.text) for _float_epilogue
    fmul.o(.text) refers (Special) to iusefp.o(.text) for __I$use$fp
    fdiv.o(.text) refers (Special) to iusefp.o(.text) for __I$use$fp
    fdiv.o(.text) refers to fepilogue.o(.text) for _float_round
    dadd.o(.text) refers (Special) to iusefp.o(.text) for __I$use$fp
    dadd.o(.text) refers to llshl.o(.text) for __aeabi_llsl
    dadd.o(.text) refers to llsshr.o(.text) for __aeabi_lasr
    dadd.o(.text) refers to depilogue.o(.text) for _double_epilogue
    dmul.o(.text) refers (Special) to iusefp.o(.text) for __I$use$fp
    dmul.o(.text) refers to depilogue.o(.text) for _double_epilogue
    ddiv.o(.text) refers (Special) to iusefp.o(.text) for __I$use$fp
    ddiv.o(.text) refers to depilogue.o(.text) for _double_round
    fcmple.o(.text) refers (Special) to iusefp.o(.text) for __I$use$fp
    fcmplt.o(.text) refers (Special) to iusefp.o(.text) for __I$use$fp
    fcmpge.o(.text) refers (Special) to iusefp.o(.text) for __I$use$fp
    fcmpgt.o(.text) refers (Special) to iusefp.o(.text) for __I$use$fp
    dcmple.o(.text) refers (Special) to iusefp.o(.text) for __I$use$fp
    fflti.o(.text) refers (Special) to iusefp.o(.text) for __I$use$fp
    fflti.o(.text) refers to fepilogue.o(.text) for _float_epilogue
    ffltui.o(.text) refers (Special) to iusefp.o(.text) for __I$use$fp
    ffltui.o(.text) refers to fepilogue.o(.text) for _float_epilogue
    dflti.o(.text) refers (Special) to iusefp.o(.text) for __I$use$fp
    dflti.o(.text) refers to depilogue.o(.text) for _double_epilogue
    dfltui.o(.text) refers (Special) to iusefp.o(.text) for __I$use$fp
    dfltui.o(.text) refers to depilogue.o(.text) for _double_epilogue
    ffixi.o(.text) refers (Special) to iusefp.o(.text) for __I$use$fp
    dfixi.o(.text) refers (Special) to iusefp.o(.text) for __I$use$fp
    dfixi.o(.text) refers to llushr.o(.text) for __aeabi_llsr
    f2d.o(.text) refers (Special) to iusefp.o(.text) for __I$use$fp
    d2f.o(.text) refers (Special) to iusefp.o(.text) for __I$use$fp
    d2f.o(.text) refers to fepilogue.o(.text) for _float_round
    entry2.o(.ARM.Collect$$$$00000001) refers to entry2.o(.ARM.Collect$$$$00002712) for __lit__00000000
    entry2.o(.ARM.Collect$$$$00002712) refers to startup_gd32f1x0.o(STACK) for __initial_sp
    entry2.o(__vectab_stack_and_reset_area) refers to startup_gd32f1x0.o(STACK) for __initial_sp
    entry2.o(__vectab_stack_and_reset_area) refers to entry.o(.ARM.Collect$$$$00000000) for __main
    entry5.o(.ARM.Collect$$$$00000004) refers to init.o(.text) for __scatterload
    entry9a.o(.ARM.Collect$$$$0000000B) refers to main.o(.text) for main
    entry9b.o(.ARM.Collect$$$$0000000C) refers to main.o(.text) for main
    fepilogue.o(.text) refers (Special) to iusefp.o(.text) for __I$use$fp
    depilogue.o(.text) refers (Special) to iusefp.o(.text) for __I$use$fp
    depilogue.o(.text) refers to llshl.o(.text) for __aeabi_llsl
    depilogue.o(.text) refers to llushr.o(.text) for __aeabi_llsr
    init.o(.text) refers to entry5.o(.ARM.Collect$$$$00000004) for __main_after_scatterload


==============================================================================

Removing Unused input sections from the image.

    Removing main.o(.ARM.exidx), (24 bytes).
    Removing main.o(.data.wStateSlave), (1 bytes).
    Removing main.o(.bss.activateWeakening), (1 bytes).
    Removing main.o(.bss.slaveError), (1 bytes).
    Removing main.o(.ARM.use_no_argv), (4 bytes).
    Removing bldc.o(.ARM.exidx), (48 bytes).
    Removing bldcbc.o(.text), (0 bytes).
    Removing bldcsine.o(.ARM.exidx), (56 bytes).
    Removing setup.o(.ARM.exidx), (168 bytes).
    Removing setup.o(.bss.usart1_rx_buf), (1 bytes).
    Removing setup.o(.bss.usart2_rx_buf), (1 bytes).
    Removing it.o(.ARM.exidx), (128 bytes).
    Removing it.o(.bss.iCounterUsart2), (4 bytes).
    Removing it.o(.bss.iCounter2Usart2), (4 bytes).
    Removing led.o(.text), (0 bytes).
    Removing comms.o(.text), (124 bytes).
    Removing comms.o(.ARM.exidx), (16 bytes).
    Removing remoteuart.o(.text), (0 bytes).
    Removing remotecrsf.o(.ARM.exidx), (40 bytes).
    Removing remotecrsf.o(.rodata.cst32), (32 bytes).
    Removing remotedummy.o(.text), (0 bytes).
    Removing remoteuartbus.o(.text), (0 bytes).
    Removing commsmasterslave.o(.text), (0 bytes).
    Removing commsmasterslave.o(.bss.mosfetOutMaster), (1 bytes).
    Removing commsmasterslave.o(.bss.beepsBackwardsMaster), (1 bytes).
    Removing remoteadc.o(.text), (0 bytes).
    Removing remoteautodetect.o(.text), (0 bytes).
    Removing remoteautodetect.o(.bss.i), (2 bytes).
    Removing gd32f1x0_adc.o(.ARM.exidx), (256 bytes).
    Removing gd32f1x0_dbg.o(.text), (128 bytes).
    Removing gd32f1x0_dbg.o(.ARM.exidx), (48 bytes).
    Removing gd32f1x0_dma.o(.ARM.exidx), (216 bytes).
    Removing gd32f1x0_exti.o(.ARM.exidx), (96 bytes).
    Removing gd32f1x0_fmc.o(.ARM.exidx), (216 bytes).
    Removing gd32f1x0_fwdgt.o(.ARM.exidx), (48 bytes).
    Removing gd32f1x0_gpio.o(.ARM.exidx), (104 bytes).
    Removing gd32f1x0_i2c.o(.text), (802 bytes).
    Removing gd32f1x0_i2c.o(.ARM.exidx), (248 bytes).
    Removing gd32f1x0_misc.o(.ARM.exidx), (56 bytes).
    Removing gd32f1x0_opa.o(.text), (0 bytes).
    Removing gd32f1x0_pmu.o(.text), (490 bytes).
    Removing gd32f1x0_pmu.o(.ARM.exidx), (96 bytes).
    Removing gd32f1x0_pmu.o(.bss.pmu_to_deepsleepmode.reg_snap.0), (4 bytes).
    Removing gd32f1x0_pmu.o(.bss.pmu_to_deepsleepmode.reg_snap.1), (4 bytes).
    Removing gd32f1x0_pmu.o(.bss.pmu_to_deepsleepmode.reg_snap.2), (4 bytes).
    Removing gd32f1x0_pmu.o(.bss.pmu_to_deepsleepmode.reg_snap.3), (4 bytes).
    Removing gd32f1x0_rcu.o(.ARM.exidx), (336 bytes).
    Removing gd32f1x0_syscfg.o(.ARM.exidx), (72 bytes).
    Removing gd32f1x0_timer.o(.ARM.exidx), (568 bytes).
    Removing gd32f1x0_usart.o(.ARM.exidx), (544 bytes).
    Removing gd32f1x0_wwdgt.o(.text), (170 bytes).
    Removing gd32f1x0_wwdgt.o(.ARM.exidx), (56 bytes).
    Removing startup_gd32f1x0.o(HEAP), (1024 bytes).
    Removing system_gd32f1x0.o(.ARM.exidx), (16 bytes).

54 unused section(s) (total 6263 bytes) removed from the image.

==============================================================================

Image Symbol Table

    Local Symbols

    Symbol Name                              Value     Ov Type        Size  Object(Section)

    ../clib/microlib/init/entry.s            0x00000000   Number         0  entry.o ABSOLUTE
    ../clib/microlib/init/entry.s            0x00000000   Number         0  entry2.o ABSOLUTE
    ../clib/microlib/init/entry.s            0x00000000   Number         0  entry5.o ABSOLUTE
    ../clib/microlib/init/entry.s            0x00000000   Number         0  entry7a.o ABSOLUTE
    ../clib/microlib/init/entry.s            0x00000000   Number         0  entry7b.o ABSOLUTE
    ../clib/microlib/init/entry.s            0x00000000   Number         0  entry8a.o ABSOLUTE
    ../clib/microlib/init/entry.s            0x00000000   Number         0  entry8b.o ABSOLUTE
    ../clib/microlib/init/entry.s            0x00000000   Number         0  entry9a.o ABSOLUTE
    ../clib/microlib/init/entry.s            0x00000000   Number         0  entry9b.o ABSOLUTE
    ../clib/microlib/init/entry.s            0x00000000   Number         0  entry10a.o ABSOLUTE
    ../clib/microlib/init/entry.s            0x00000000   Number         0  entry10b.o ABSOLUTE
    ../clib/microlib/init/entry.s            0x00000000   Number         0  entry11a.o ABSOLUTE
    ../clib/microlib/init/entry.s            0x00000000   Number         0  entry11b.o ABSOLUTE
    ../clib/microlib/longlong.c              0x00000000   Number         0  llshl.o ABSOLUTE
    ../clib/microlib/longlong.c              0x00000000   Number         0  llushr.o ABSOLUTE
    ../clib/microlib/longlong.c              0x00000000   Number         0  llsshr.o ABSOLUTE
    ../clib/microlib/stubs.s                 0x00000000   Number         0  iusefp.o ABSOLUTE
    ../fplib/microlib/d2f.c                  0x00000000   Number         0  d2f.o ABSOLUTE
    ../fplib/microlib/f2d.c                  0x00000000   Number         0  f2d.o ABSOLUTE
    ../fplib/microlib/fpadd.c                0x00000000   Number         0  fadd.o ABSOLUTE
    ../fplib/microlib/fpadd.c                0x00000000   Number         0  dadd.o ABSOLUTE
    ../fplib/microlib/fpcmp.c                0x00000000   Number         0  fcmple.o ABSOLUTE
    ../fplib/microlib/fpcmp.c                0x00000000   Number         0  fcmplt.o ABSOLUTE
    ../fplib/microlib/fpcmp.c                0x00000000   Number         0  fcmpge.o ABSOLUTE
    ../fplib/microlib/fpcmp.c                0x00000000   Number         0  fcmpgt.o ABSOLUTE
    ../fplib/microlib/fpcmp.c                0x00000000   Number         0  dcmple.o ABSOLUTE
    ../fplib/microlib/fpdiv.c                0x00000000   Number         0  fdiv.o ABSOLUTE
    ../fplib/microlib/fpdiv.c                0x00000000   Number         0  ddiv.o ABSOLUTE
    ../fplib/microlib/fpepilogue.c           0x00000000   Number         0  fepilogue.o ABSOLUTE
    ../fplib/microlib/fpepilogue.c           0x00000000   Number         0  depilogue.o ABSOLUTE
    ../fplib/microlib/fpfix.c                0x00000000   Number         0  ffixi.o ABSOLUTE
    ../fplib/microlib/fpfix.c                0x00000000   Number         0  dfixi.o ABSOLUTE
    ../fplib/microlib/fpflt.c                0x00000000   Number         0  fflti.o ABSOLUTE
    ../fplib/microlib/fpflt.c                0x00000000   Number         0  ffltui.o ABSOLUTE
    ../fplib/microlib/fpflt.c                0x00000000   Number         0  dflti.o ABSOLUTE
    ../fplib/microlib/fpflt.c                0x00000000   Number         0  dfltui.o ABSOLUTE
    ../fplib/microlib/fpmul.c                0x00000000   Number         0  fmul.o ABSOLUTE
    ../fplib/microlib/fpmul.c                0x00000000   Number         0  dmul.o ABSOLUTE
    RTE/Device/GD32F130C8/startup_gd32f1x0.s 0x00000000   Number         0  startup_gd32f1x0.o ABSOLUTE
    RemoteAdc.c                              0x00000000   Number         0  remoteadc.o ABSOLUTE
    RemoteAutodetect.c                       0x00000000   Number         0  remoteautodetect.o ABSOLUTE
    bldc.c                                   0x00000000   Number         0  bldc.o ABSOLUTE
    bldcBC.c                                 0x00000000   Number         0  bldcbc.o ABSOLUTE
    bldcSINE.c                               0x00000000   Number         0  bldcsine.o ABSOLUTE
    comms.c                                  0x00000000   Number         0  comms.o ABSOLUTE
    commsMasterSlave.c                       0x00000000   Number         0  commsmasterslave.o ABSOLUTE
    dc.s                                     0x00000000   Number         0  dc.o ABSOLUTE
    gd32f1x0_adc.c                           0x00000000   Number         0  gd32f1x0_adc.o ABSOLUTE
    gd32f1x0_dbg.c                           0x00000000   Number         0  gd32f1x0_dbg.o ABSOLUTE
    gd32f1x0_dma.c                           0x00000000   Number         0  gd32f1x0_dma.o ABSOLUTE
    gd32f1x0_exti.c                          0x00000000   Number         0  gd32f1x0_exti.o ABSOLUTE
    gd32f1x0_fmc.c                           0x00000000   Number         0  gd32f1x0_fmc.o ABSOLUTE
    gd32f1x0_fwdgt.c                         0x00000000   Number         0  gd32f1x0_fwdgt.o ABSOLUTE
    gd32f1x0_gpio.c                          0x00000000   Number         0  gd32f1x0_gpio.o ABSOLUTE
    gd32f1x0_i2c.c                           0x00000000   Number         0  gd32f1x0_i2c.o ABSOLUTE
    gd32f1x0_misc.c                          0x00000000   Number         0  gd32f1x0_misc.o ABSOLUTE
    gd32f1x0_opa.c                           0x00000000   Number         0  gd32f1x0_opa.o ABSOLUTE
    gd32f1x0_pmu.c                           0x00000000   Number         0  gd32f1x0_pmu.o ABSOLUTE
    gd32f1x0_rcu.c                           0x00000000   Number         0  gd32f1x0_rcu.o ABSOLUTE
    gd32f1x0_syscfg.c                        0x00000000   Number         0  gd32f1x0_syscfg.o ABSOLUTE
    gd32f1x0_timer.c                         0x00000000   Number         0  gd32f1x0_timer.o ABSOLUTE
    gd32f1x0_usart.c                         0x00000000   Number         0  gd32f1x0_usart.o ABSOLUTE
    gd32f1x0_wwdgt.c                         0x00000000   Number         0  gd32f1x0_wwdgt.o ABSOLUTE
    handlers.s                               0x00000000   Number         0  handlers.o ABSOLUTE
    init.s                                   0x00000000   Number         0  init.o ABSOLUTE
    it.c                                     0x00000000   Number         0  it.o ABSOLUTE
    led.c                                    0x00000000   Number         0  led.o ABSOLUTE
    main.c                                   0x00000000   Number         0  main.o ABSOLUTE
    remoteCrsf.c                             0x00000000   Number         0  remotecrsf.o ABSOLUTE
    remoteDummy.c                            0x00000000   Number         0  remotedummy.o ABSOLUTE
    remoteUart.c                             0x00000000   Number         0  remoteuart.o ABSOLUTE
    remoteUartBus.c                          0x00000000   Number         0  remoteuartbus.o ABSOLUTE
    setup.c                                  0x00000000   Number         0  setup.o ABSOLUTE
    system_gd32f1x0.c                        0x00000000   Number         0  system_gd32f1x0.o ABSOLUTE
    RESET                                    0x08000000   Section      360  startup_gd32f1x0.o(RESET)
    .ARM.Collect$$$$00000000                 0x08000168   Section        0  entry.o(.ARM.Collect$$$$00000000)
    .ARM.Collect$$$$00000001                 0x08000168   Section        4  entry2.o(.ARM.Collect$$$$00000001)
    .ARM.Collect$$$$00000004                 0x0800016c   Section        4  entry5.o(.ARM.Collect$$$$00000004)
    .ARM.Collect$$$$00000008                 0x08000170   Section        0  entry7b.o(.ARM.Collect$$$$00000008)
    .ARM.Collect$$$$0000000A                 0x08000170   Section        0  entry8b.o(.ARM.Collect$$$$0000000A)
    .ARM.Collect$$$$0000000B                 0x08000170   Section        8  entry9a.o(.ARM.Collect$$$$0000000B)
    __lit__00000000                          0x08000178   Data           4  entry2.o(.ARM.Collect$$$$00002712)
    .ARM.Collect$$$$0000000D                 0x08000178   Section        0  entry10a.o(.ARM.Collect$$$$0000000D)
    .ARM.Collect$$$$0000000F                 0x08000178   Section        0  entry11a.o(.ARM.Collect$$$$0000000F)
    .ARM.Collect$$$$00002712                 0x08000178   Section        4  entry2.o(.ARM.Collect$$$$00002712)
    [Anonymous Symbol]                       0x0800017c   Section        0  main.o(.text)
    [Anonymous Symbol]                       0x08000994   Section        0  bldc.o(.text)
    [Anonymous Symbol]                       0x08000ea8   Section        0  bldcsine.o(.text)
    [Anonymous Symbol]                       0x080012c0   Section        0  setup.o(.text)
    [Anonymous Symbol]                       0x08001cdc   Section        0  it.o(.text)
    [Anonymous Symbol]                       0x08001e84   Section        0  remotecrsf.o(.text)
    [Anonymous Symbol]                       0x08002138   Section        0  gd32f1x0_adc.o(.text)
    [Anonymous Symbol]                       0x080026e0   Section        0  gd32f1x0_dma.o(.text)
    [Anonymous Symbol]                       0x08002a50   Section        0  gd32f1x0_exti.o(.text)
    [Anonymous Symbol]                       0x08002bc0   Section        0  gd32f1x0_fmc.o(.text)
    [Anonymous Symbol]                       0x08003590   Section        0  gd32f1x0_fwdgt.o(.text)
    [Anonymous Symbol]                       0x08003674   Section        0  gd32f1x0_gpio.o(.text)
    [Anonymous Symbol]                       0x0800380c   Section        0  gd32f1x0_misc.o(.text)
    [Anonymous Symbol]                       0x08003938   Section        0  gd32f1x0_rcu.o(.text)
    [Anonymous Symbol]                       0x0800405c   Section        0  gd32f1x0_syscfg.o(.text)
    [Anonymous Symbol]                       0x08004160   Section        0  gd32f1x0_timer.o(.text)
    [Anonymous Symbol]                       0x08004eb0   Section        0  gd32f1x0_usart.o(.text)
    .text                                    0x080054f4   Section       36  startup_gd32f1x0.o(.text)
    [Anonymous Symbol]                       0x08005518   Section        0  system_gd32f1x0.o(.text)
    .text                                    0x08005654   Section        0  fadd.o(.text)
    .text                                    0x08005704   Section        0  fmul.o(.text)
    .text                                    0x08005768   Section        0  fdiv.o(.text)
    .text                                    0x080057e4   Section        0  dadd.o(.text)
    .text                                    0x08005932   Section        0  dmul.o(.text)
    .text                                    0x08005a16   Section        0  ddiv.o(.text)
    .text                                    0x08005af4   Section        0  fcmple.o(.text)
    .text                                    0x08005b10   Section        0  fcmplt.o(.text)
    .text                                    0x08005b2c   Section        0  fcmpge.o(.text)
    .text                                    0x08005b48   Section        0  fcmpgt.o(.text)
    .text                                    0x08005b64   Section        0  dcmple.o(.text)
    .text                                    0x08005b9a   Section        0  fflti.o(.text)
    .text                                    0x08005bac   Section        0  ffltui.o(.text)
    .text                                    0x08005bb6   Section        0  dflti.o(.text)
    .text                                    0x08005bd8   Section        0  dfltui.o(.text)
    .text                                    0x08005bf2   Section        0  ffixi.o(.text)
    .text                                    0x08005c24   Section        0  dfixi.o(.text)
    .text                                    0x08005c62   Section        0  f2d.o(.text)
    .text                                    0x08005c88   Section        0  d2f.o(.text)
    .text                                    0x08005cc0   Section        0  llshl.o(.text)
    .text                                    0x08005cde   Section        0  llushr.o(.text)
    .text                                    0x08005cfe   Section        0  llsshr.o(.text)
    .text                                    0x08005d22   Section        0  iusefp.o(.text)
    .text                                    0x08005d22   Section        0  fepilogue.o(.text)
    .text                                    0x08005d90   Section        0  depilogue.o(.text)
    .text                                    0x08005e4c   Section       48  init.o(.text)
    i.__scatterload_copy                     0x08005e7c   Section       14  handlers.o(i.__scatterload_copy)
    i.__scatterload_null                     0x08005e8a   Section        2  handlers.o(i.__scatterload_null)
    i.__scatterload_zeroinit                 0x08005e8c   Section       14  handlers.o(i.__scatterload_zeroinit)
    .L__const.up_or_down.up_down             0x08005e9a   Data          12  bldc.o(.rodata..L__const.up_or_down.up_down)
    .Lswitch.table.gpio_deinit.1             0x08005ea6   Data          12  gd32f1x0_gpio.o(.rodata..Lswitch.table.gpio_deinit.1)
    crsf_crc8tab                             0x08005eb2   Data         256  remotecrsf.o(.rodata.crsf_crc8tab)
    [Anonymous Symbol]                       0x08005eb2   Section        0  remotecrsf.o(.rodata.crsf_crc8tab)
    hall_to_sector                           0x08005fb2   Data           8  bldcsine.o(.rodata.cst8)
    [Anonymous Symbol]                       0x08005fb2   Section        0  bldcsine.o(.rodata.cst8)
    .L__const.rcu_clock_freq_get.apb2_exp    0x08005fba   Data           8  gd32f1x0_rcu.o(.rodata.cst8)
    sine_table                               0x080062a0   Data         720  bldcsine.o(.rodata.sine_table)
    [Anonymous Symbol]                       0x080062a0   Section        0  bldcsine.o(.rodata.sine_table)
    STACK                                    0x200001e0   Section     1024  startup_gd32f1x0.o(STACK)

    Global Symbols

    Symbol Name                              Value     Ov Type        Size  Object(Section)

    BuildAttributes$$THM_ISAv4$P$D$K$B$S$PE$A:L22UL41UL21$X:L11$S22US41US21$IEEE1$IW$~IW$USESV6$~STKCKD$USESV7$~SHL$OTIME$ROPI$EBA8$MICROLIB$REQ8$PRES8$EABIv2 0x00000000   Number         0  anon$$obj.o ABSOLUTE
    __cpp_initialize__aeabi_                  - Undefined Weak Reference
    __cxa_finalize                            - Undefined Weak Reference
    __decompress                              - Undefined Weak Reference
    _clock_init                               - Undefined Weak Reference
    _microlib_exit                            - Undefined Weak Reference
    __Vectors_Size                           0x00000168   Number         0  startup_gd32f1x0.o ABSOLUTE
    __Vectors                                0x08000000   Data           4  startup_gd32f1x0.o(RESET)
    __Vectors_End                            0x08000168   Data           0  startup_gd32f1x0.o(RESET)
    __main                                   0x08000169   Thumb Code     0  entry.o(.ARM.Collect$$$$00000000)
    _main_stk                                0x08000169   Thumb Code     0  entry2.o(.ARM.Collect$$$$00000001)
    _main_scatterload                        0x0800016d   Thumb Code     0  entry5.o(.ARM.Collect$$$$00000004)
    __main_after_scatterload                 0x08000171   Thumb Code     0  entry5.o(.ARM.Collect$$$$00000004)
    _main_clock                              0x08000171   Thumb Code     0  entry7b.o(.ARM.Collect$$$$00000008)
    _main_cpp_init                           0x08000171   Thumb Code     0  entry8b.o(.ARM.Collect$$$$0000000A)
    _main_init                               0x08000171   Thumb Code     0  entry9a.o(.ARM.Collect$$$$0000000B)
    __rt_final_cpp                           0x08000179   Thumb Code     0  entry10a.o(.ARM.Collect$$$$0000000D)
    __rt_final_exit                          0x08000179   Thumb Code     0  entry11a.o(.ARM.Collect$$$$0000000F)
    main                                     0x0800017d   Thumb Code  1798  main.o(.text)
    ShutOff                                  0x08000885   Thumb Code   116  main.o(.text)
    ShowBatteryState                         0x080008f9   Thumb Code   156  main.o(.text)
    modulo                                   0x08000995   Thumb Code    22  bldc.o(.text)
    up_or_down                               0x080009ad   Thumb Code    66  bldc.o(.text)
    SetEnable                                0x080009f1   Thumb Code    12  bldc.o(.text)
    SetPWM                                   0x080009fd   Thumb Code    74  bldc.o(.text)
    SetFilter                                0x08000a49   Thumb Code    46  bldc.o(.text)
    CalculateBLDC                            0x08000a79   Thumb Code  1072  bldc.o(.text)
    InitEXTI                                 0x08000ea9   Thumb Code    62  bldcsine.o(.text)
    InitBldc                                 0x08000ee9   Thumb Code   134  bldcsine.o(.text)
    _HandleEXTI                              0x08000f71   Thumb Code   174  bldcsine.o(.text)
    EXTI0_1_IRQHandler                       0x08001021   Thumb Code     4  bldcsine.o(.text)
    EXTI2_3_IRQHandler                       0x08001025   Thumb Code     4  bldcsine.o(.text)
    EXTI4_15_IRQHandler                      0x08001029   Thumb Code     4  bldcsine.o(.text)
    bldc_get_pwm                             0x0800102d   Thumb Code   658  bldcsine.o(.text)
    pinMode                                  0x080012c1   Thumb Code    42  setup.o(.text)
    pinModePull                              0x080012ed   Thumb Code    40  setup.o(.text)
    Interrupt_init                           0x08001315   Thumb Code     8  setup.o(.text)
    Watchdog_init                            0x0800131d   Thumb Code    56  setup.o(.text)
    TimeoutTimer_init                        0x08001355   Thumb Code    92  setup.o(.text)
    GPIO_init                                0x080013b1   Thumb Code   640  setup.o(.text)
    PWM_initOld                              0x08001631   Thumb Code   368  setup.o(.text)
    PWM_init                                 0x080017a1   Thumb Code   368  setup.o(.text)
    ADC_init                                 0x08001911   Thumb Code   234  setup.o(.text)
    USART0_Init                              0x080019fd   Thumb Code   290  setup.o(.text)
    USART1_Init                              0x08001b21   Thumb Code     2  setup.o(.text)
    USART2_Init                              0x08001b25   Thumb Code     2  setup.o(.text)
    flashErase                               0x08001b29   Thumb Code    28  setup.o(.text)
    flashRead                                0x08001b45   Thumb Code     4  setup.o(.text)
    flashWrite                               0x08001b49   Thumb Code    38  setup.o(.text)
    flashWriteBuffer                         0x08001b71   Thumb Code    64  setup.o(.text)
    flashReadBuffer                          0x08001bb1   Thumb Code    26  setup.o(.text)
    ConfigReset                              0x08001bcd   Thumb Code    36  setup.o(.text)
    ConfigWrite                              0x08001bf1   Thumb Code    92  setup.o(.text)
    ConfigRead                               0x08001c4d   Thumb Code   112  setup.o(.text)
    confErase                                0x08001cbd   Thumb Code    32  setup.o(.text)
    SysTick_Handler                          0x08001cdd   Thumb Code    16  it.o(.text)
    ResetTimeout                             0x08001ced   Thumb Code    14  it.o(.text)
    TIMER13_IRQHandler                       0x08001cfd   Thumb Code    76  it.o(.text)
    TIMER0_BRK_UP_TRG_COM_IRQHandler         0x08001d49   Thumb Code    88  it.o(.text)
    DMA_Channel0_IRQHandler                  0x08001da1   Thumb Code    94  it.o(.text)
    DMA_Channel1_2_IRQHandler                0x08001e01   Thumb Code    60  it.o(.text)
    millis                                   0x08001e3d   Thumb Code    12  it.o(.text)
    Delay                                    0x08001e49   Thumb Code    28  it.o(.text)
    NMI_Handler                              0x08001e65   Thumb Code     2  it.o(.text)
    HardFault_Handler                        0x08001e69   Thumb Code     2  it.o(.text)
    MemManage_Handler                        0x08001e6d   Thumb Code     2  it.o(.text)
    BusFault_Handler                         0x08001e71   Thumb Code     2  it.o(.text)
    UsageFault_Handler                       0x08001e75   Thumb Code     2  it.o(.text)
    SVC_Handler                              0x08001e79   Thumb Code     2  it.o(.text)
    DebugMon_Handler                         0x08001e7d   Thumb Code     2  it.o(.text)
    PendSV_Handler                           0x08001e81   Thumb Code     2  it.o(.text)
    crsfInit                                 0x08001e85   Thumb Code    56  remotecrsf.o(.text)
    getChannel                               0x08001ebd   Thumb Code    24  remotecrsf.o(.text)
    RemoteUpdate                             0x08001ed5   Thumb Code   300  remotecrsf.o(.text)
    crsf_crc8                                0x08002001   Thumb Code    46  remotecrsf.o(.text)
    RemoteCallback                           0x08002031   Thumb Code   262  remotecrsf.o(.text)
    adc_deinit                               0x08002139   Thumb Code    22  gd32f1x0_adc.o(.text)
    adc_enable                               0x08002151   Thumb Code    26  gd32f1x0_adc.o(.text)
    adc_disable                              0x0800216d   Thumb Code    18  gd32f1x0_adc.o(.text)
    adc_calibration_enable                   0x08002181   Thumb Code    40  gd32f1x0_adc.o(.text)
    adc_dma_mode_enable                      0x080021a9   Thumb Code    18  gd32f1x0_adc.o(.text)
    adc_dma_mode_disable                     0x080021bd   Thumb Code    18  gd32f1x0_adc.o(.text)
    adc_tempsensor_vrefint_enable            0x080021d1   Thumb Code    18  gd32f1x0_adc.o(.text)
    adc_tempsensor_vrefint_disable           0x080021e5   Thumb Code    18  gd32f1x0_adc.o(.text)
    adc_vbat_enable                          0x080021f9   Thumb Code    18  gd32f1x0_adc.o(.text)
    adc_vbat_disable                         0x0800220d   Thumb Code    18  gd32f1x0_adc.o(.text)
    adc_discontinuous_mode_config            0x08002221   Thumb Code    68  gd32f1x0_adc.o(.text)
    adc_special_function_config              0x08002265   Thumb Code   100  gd32f1x0_adc.o(.text)
    adc_data_alignment_config                0x080022c9   Thumb Code    26  gd32f1x0_adc.o(.text)
    adc_channel_length_config                0x080022e5   Thumb Code    82  gd32f1x0_adc.o(.text)
    adc_regular_channel_config               0x08002339   Thumb Code   180  gd32f1x0_adc.o(.text)
    adc_inserted_channel_config              0x080023ed   Thumb Code   114  gd32f1x0_adc.o(.text)
    adc_inserted_channel_offset_config       0x08002461   Thumb Code    32  gd32f1x0_adc.o(.text)
    adc_external_trigger_config              0x08002481   Thumb Code    72  gd32f1x0_adc.o(.text)
    adc_external_trigger_source_config       0x080024c9   Thumb Code    42  gd32f1x0_adc.o(.text)
    adc_software_trigger_enable              0x080024f5   Thumb Code    36  gd32f1x0_adc.o(.text)
    adc_regular_data_read                    0x08002519   Thumb Code    14  gd32f1x0_adc.o(.text)
    adc_inserted_data_read                   0x08002529   Thumb Code    74  gd32f1x0_adc.o(.text)
    adc_flag_get                             0x08002575   Thumb Code    18  gd32f1x0_adc.o(.text)
    adc_flag_clear                           0x08002589   Thumb Code    18  gd32f1x0_adc.o(.text)
    adc_interrupt_flag_get                   0x0800259d   Thumb Code    56  gd32f1x0_adc.o(.text)
    adc_interrupt_flag_clear                 0x080025d5   Thumb Code    18  gd32f1x0_adc.o(.text)
    adc_interrupt_enable                     0x080025e9   Thumb Code    48  gd32f1x0_adc.o(.text)
    adc_interrupt_disable                    0x08002619   Thumb Code    48  gd32f1x0_adc.o(.text)
    adc_watchdog_single_channel_enable       0x08002649   Thumb Code    42  gd32f1x0_adc.o(.text)
    adc_watchdog_group_channel_enable        0x08002675   Thumb Code    48  gd32f1x0_adc.o(.text)
    adc_watchdog_disable                     0x080026b1   Thumb Code    24  gd32f1x0_adc.o(.text)
    adc_watchdog_threshold_config            0x080026c9   Thumb Code    22  gd32f1x0_adc.o(.text)
    dma_deinit                               0x080026e1   Thumb Code    48  gd32f1x0_dma.o(.text)
    dma_struct_para_init                     0x08002711   Thumb Code    24  gd32f1x0_dma.o(.text)
    dma_init                                 0x08002729   Thumb Code   122  gd32f1x0_dma.o(.text)
    dma_circulation_enable                   0x080027a5   Thumb Code    24  gd32f1x0_dma.o(.text)
    dma_circulation_disable                  0x080027bd   Thumb Code    24  gd32f1x0_dma.o(.text)
    dma_memory_to_memory_enable              0x080027d5   Thumb Code    24  gd32f1x0_dma.o(.text)
    dma_memory_to_memory_disable             0x080027ed   Thumb Code    24  gd32f1x0_dma.o(.text)
    dma_channel_enable                       0x08002805   Thumb Code    24  gd32f1x0_dma.o(.text)
    dma_channel_disable                      0x0800281d   Thumb Code    24  gd32f1x0_dma.o(.text)
    dma_periph_address_config                0x08002835   Thumb Code    16  gd32f1x0_dma.o(.text)
    dma_memory_address_config                0x08002845   Thumb Code    16  gd32f1x0_dma.o(.text)
    dma_transfer_number_config               0x08002855   Thumb Code    16  gd32f1x0_dma.o(.text)
    dma_transfer_number_get                  0x08002865   Thumb Code    16  gd32f1x0_dma.o(.text)
    dma_priority_config                      0x08002875   Thumb Code    26  gd32f1x0_dma.o(.text)
    dma_memory_width_config                  0x08002891   Thumb Code    26  gd32f1x0_dma.o(.text)
    dma_periph_width_config                  0x080028ad   Thumb Code    26  gd32f1x0_dma.o(.text)
    dma_memory_increase_enable               0x080028c9   Thumb Code    24  gd32f1x0_dma.o(.text)
    dma_memory_increase_disable              0x080028e1   Thumb Code    24  gd32f1x0_dma.o(.text)
    dma_periph_increase_enable               0x080028f9   Thumb Code    24  gd32f1x0_dma.o(.text)
    dma_periph_increase_disable              0x08002911   Thumb Code    24  gd32f1x0_dma.o(.text)
    dma_transfer_direction_config            0x08002929   Thumb Code    30  gd32f1x0_dma.o(.text)
    dma_interrupt_flag_get                   0x08002949   Thumb Code    88  gd32f1x0_dma.o(.text)
    dma_interrupt_flag_clear                 0x080029e1   Thumb Code    20  gd32f1x0_dma.o(.text)
    dma_interrupt_enable                     0x080029f5   Thumb Code    22  gd32f1x0_dma.o(.text)
    dma_interrupt_disable                    0x08002a0d   Thumb Code    24  gd32f1x0_dma.o(.text)
    dma_flag_get                             0x08002a25   Thumb Code    22  gd32f1x0_dma.o(.text)
    dma_flag_clear                           0x08002a3d   Thumb Code    20  gd32f1x0_dma.o(.text)
    exti_deinit                              0x08002a51   Thumb Code    26  gd32f1x0_exti.o(.text)
    exti_init                                0x08002a6d   Thumb Code   156  gd32f1x0_exti.o(.text)
    exti_interrupt_enable                    0x08002b09   Thumb Code    16  gd32f1x0_exti.o(.text)
    exti_event_enable                        0x08002b19   Thumb Code    16  gd32f1x0_exti.o(.text)
    exti_interrupt_disable                   0x08002b29   Thumb Code    18  gd32f1x0_exti.o(.text)
    exti_event_disable                       0x08002b3d   Thumb Code    18  gd32f1x0_exti.o(.text)
    exti_flag_get                            0x08002b51   Thumb Code    18  gd32f1x0_exti.o(.text)
    exti_flag_clear                          0x08002b65   Thumb Code    12  gd32f1x0_exti.o(.text)
    exti_interrupt_flag_get                  0x08002b71   Thumb Code    32  gd32f1x0_exti.o(.text)
    exti_interrupt_flag_clear                0x08002b91   Thumb Code    12  gd32f1x0_exti.o(.text)
    exti_software_interrupt_enable           0x08002b9d   Thumb Code    16  gd32f1x0_exti.o(.text)
    exti_software_interrupt_disable          0x08002bad   Thumb Code    18  gd32f1x0_exti.o(.text)
    fmc_unlock                               0x08002bc1   Thumb Code    38  gd32f1x0_fmc.o(.text)
    fmc_lock                                 0x08002be9   Thumb Code    18  gd32f1x0_fmc.o(.text)
    fmc_wscnt_set                            0x08002bfd   Thumb Code    20  gd32f1x0_fmc.o(.text)
    fmc_wait_state_enable                    0x08002c11   Thumb Code    18  gd32f1x0_fmc.o(.text)
    fmc_wait_state_disable                   0x08002c25   Thumb Code    18  gd32f1x0_fmc.o(.text)
    fmc_page_erase                           0x08002c39   Thumb Code   158  gd32f1x0_fmc.o(.text)
    fmc_mass_erase                           0x08002cd9   Thumb Code   150  gd32f1x0_fmc.o(.text)
    fmc_word_program                         0x08002d71   Thumb Code   150  gd32f1x0_fmc.o(.text)
    fmc_halfword_program                     0x08002e09   Thumb Code   150  gd32f1x0_fmc.o(.text)
    ob_unlock                                0x08002ea1   Thumb Code    38  gd32f1x0_fmc.o(.text)
    ob_lock                                  0x08002ec9   Thumb Code    18  gd32f1x0_fmc.o(.text)
    ob_reset                                 0x08002edd   Thumb Code    18  gd32f1x0_fmc.o(.text)
    ob_erase                                 0x08002ef1   Thumb Code   294  gd32f1x0_fmc.o(.text)
    ob_obstat_plevel_get                     0x08003019   Thumb Code    16  gd32f1x0_fmc.o(.text)
    ob_write_protection_enable               0x08003029   Thumb Code   312  gd32f1x0_fmc.o(.text)
    ob_security_protection_config            0x08003161   Thumb Code   304  gd32f1x0_fmc.o(.text)
    ob_user_write                            0x08003291   Thumb Code   308  gd32f1x0_fmc.o(.text)
    ob_data_program                          0x080033c5   Thumb Code   304  gd32f1x0_fmc.o(.text)
    ob_user_get                              0x080034f5   Thumb Code    16  gd32f1x0_fmc.o(.text)
    ob_data_get                              0x08003505   Thumb Code    14  gd32f1x0_fmc.o(.text)
    ob_write_protection_get                  0x08003515   Thumb Code    14  gd32f1x0_fmc.o(.text)
    fmc_interrupt_enable                     0x08003525   Thumb Code    16  gd32f1x0_fmc.o(.text)
    fmc_interrupt_disable                    0x08003535   Thumb Code    18  gd32f1x0_fmc.o(.text)
    fmc_flag_get                             0x08003549   Thumb Code    18  gd32f1x0_fmc.o(.text)
    fmc_flag_clear                           0x0800355d   Thumb Code    16  gd32f1x0_fmc.o(.text)
    fmc_interrupt_flag_get                   0x0800356d   Thumb Code    18  gd32f1x0_fmc.o(.text)
    fmc_interrupt_flag_clear                 0x08003581   Thumb Code    16  gd32f1x0_fmc.o(.text)
    fwdgt_write_disable                      0x08003591   Thumb Code    14  gd32f1x0_fwdgt.o(.text)
    fwdgt_counter_reload                     0x080035a1   Thumb Code    16  gd32f1x0_fwdgt.o(.text)
    fwdgt_enable                             0x080035b1   Thumb Code    16  gd32f1x0_fwdgt.o(.text)
    fwdgt_window_value_config                0x080035c1   Thumb Code    58  gd32f1x0_fwdgt.o(.text)
    fwdgt_config                             0x080035fd   Thumb Code   100  gd32f1x0_fwdgt.o(.text)
    fwdgt_flag_get                           0x08003661   Thumb Code    18  gd32f1x0_fwdgt.o(.text)
    gpio_deinit                              0x08003675   Thumb Code    58  gd32f1x0_gpio.o(.text)
    gpio_mode_set                            0x080036b1   Thumb Code    84  gd32f1x0_gpio.o(.text)
    gpio_output_options_set                  0x08003705   Thumb Code    70  gd32f1x0_gpio.o(.text)
    gpio_bit_set                             0x0800374d   Thumb Code     4  gd32f1x0_gpio.o(.text)
    gpio_bit_reset                           0x08003751   Thumb Code     4  gd32f1x0_gpio.o(.text)
    gpio_bit_write                           0x08003755   Thumb Code    12  gd32f1x0_gpio.o(.text)
    gpio_port_write                          0x08003761   Thumb Code     4  gd32f1x0_gpio.o(.text)
    gpio_input_bit_get                       0x08003765   Thumb Code    10  gd32f1x0_gpio.o(.text)
    gpio_input_port_get                      0x08003771   Thumb Code     6  gd32f1x0_gpio.o(.text)
    gpio_output_bit_get                      0x08003779   Thumb Code    10  gd32f1x0_gpio.o(.text)
    gpio_output_port_get                     0x08003785   Thumb Code     6  gd32f1x0_gpio.o(.text)
    gpio_af_set                              0x0800378d   Thumb Code   110  gd32f1x0_gpio.o(.text)
    gpio_pin_lock                            0x080037fd   Thumb Code    16  gd32f1x0_gpio.o(.text)
    nvic_priority_group_set                  0x0800380d   Thumb Code    20  gd32f1x0_misc.o(.text)
    nvic_irq_enable                          0x08003821   Thumb Code   168  gd32f1x0_misc.o(.text)
    nvic_irq_disable                         0x080038c9   Thumb Code    28  gd32f1x0_misc.o(.text)
    nvic_vector_table_set                    0x080038e5   Thumb Code    24  gd32f1x0_misc.o(.text)
    system_lowpower_set                      0x080038fd   Thumb Code    16  gd32f1x0_misc.o(.text)
    system_lowpower_reset                    0x0800390d   Thumb Code    18  gd32f1x0_misc.o(.text)
    systick_clksource_set                    0x08003921   Thumb Code    24  gd32f1x0_misc.o(.text)
    rcu_deinit                               0x08003939   Thumb Code   112  gd32f1x0_rcu.o(.text)
    rcu_periph_clock_enable                  0x080039a9   Thumb Code    30  gd32f1x0_rcu.o(.text)
    rcu_periph_clock_disable                 0x080039c9   Thumb Code    32  gd32f1x0_rcu.o(.text)
    rcu_periph_clock_sleep_enable            0x080039e9   Thumb Code    30  gd32f1x0_rcu.o(.text)
    rcu_periph_clock_sleep_disable           0x08003a09   Thumb Code    32  gd32f1x0_rcu.o(.text)
    rcu_periph_reset_enable                  0x08003a29   Thumb Code    30  gd32f1x0_rcu.o(.text)
    rcu_periph_reset_disable                 0x08003a49   Thumb Code    32  gd32f1x0_rcu.o(.text)
    rcu_bkp_reset_enable                     0x08003a69   Thumb Code    18  gd32f1x0_rcu.o(.text)
    rcu_bkp_reset_disable                    0x08003a7d   Thumb Code    18  gd32f1x0_rcu.o(.text)
    rcu_system_clock_source_config           0x08003a91   Thumb Code    20  gd32f1x0_rcu.o(.text)
    rcu_system_clock_source_get              0x08003aa5   Thumb Code    16  gd32f1x0_rcu.o(.text)
    rcu_ahb_clock_config                     0x08003ab5   Thumb Code    20  gd32f1x0_rcu.o(.text)
    rcu_apb1_clock_config                    0x08003ac9   Thumb Code    20  gd32f1x0_rcu.o(.text)
    rcu_apb2_clock_config                    0x08003add   Thumb Code    20  gd32f1x0_rcu.o(.text)
    rcu_adc_clock_config                     0x08003af1   Thumb Code    88  gd32f1x0_rcu.o(.text)
    rcu_usbd_clock_config                    0x08003b49   Thumb Code    24  gd32f1x0_rcu.o(.text)
    rcu_ckout_config                         0x08003b61   Thumb Code    22  gd32f1x0_rcu.o(.text)
    rcu_pll_config                           0x08003b79   Thumb Code    40  gd32f1x0_rcu.o(.text)
    rcu_usart_clock_config                   0x08003ba1   Thumb Code    24  gd32f1x0_rcu.o(.text)
    rcu_cec_clock_config                     0x08003bb9   Thumb Code    24  gd32f1x0_rcu.o(.text)
    rcu_rtc_clock_config                     0x08003bd1   Thumb Code    24  gd32f1x0_rcu.o(.text)
    rcu_hxtal_prediv_config                  0x08003be9   Thumb Code    20  gd32f1x0_rcu.o(.text)
    rcu_lxtal_drive_capability_config        0x08003bfd   Thumb Code    24  gd32f1x0_rcu.o(.text)
    rcu_flag_get                             0x08003c15   Thumb Code    26  gd32f1x0_rcu.o(.text)
    rcu_all_reset_flag_clear                 0x08003c31   Thumb Code    18  gd32f1x0_rcu.o(.text)
    rcu_interrupt_flag_get                   0x08003c45   Thumb Code    18  gd32f1x0_rcu.o(.text)
    rcu_interrupt_flag_clear                 0x08003c59   Thumb Code    16  gd32f1x0_rcu.o(.text)
    rcu_interrupt_enable                     0x08003c69   Thumb Code    16  gd32f1x0_rcu.o(.text)
    rcu_interrupt_disable                    0x08003c79   Thumb Code    18  gd32f1x0_rcu.o(.text)
    rcu_osci_stab_wait                       0x08003c8d   Thumb Code   312  gd32f1x0_rcu.o(.text)
    rcu_osci_on                              0x08003dc5   Thumb Code    30  gd32f1x0_rcu.o(.text)
    rcu_osci_off                             0x08003de5   Thumb Code    32  gd32f1x0_rcu.o(.text)
    rcu_osci_bypass_mode_enable              0x08003e05   Thumb Code    64  gd32f1x0_rcu.o(.text)
    rcu_osci_bypass_mode_disable             0x08003e45   Thumb Code    64  gd32f1x0_rcu.o(.text)
    rcu_hxtal_clock_monitor_enable           0x08003e85   Thumb Code    18  gd32f1x0_rcu.o(.text)
    rcu_hxtal_clock_monitor_disable          0x08003e99   Thumb Code    18  gd32f1x0_rcu.o(.text)
    rcu_irc8m_adjust_value_set               0x08003ead   Thumb Code    22  gd32f1x0_rcu.o(.text)
    rcu_irc14m_adjust_value_set              0x08003ec5   Thumb Code    22  gd32f1x0_rcu.o(.text)
    rcu_voltage_key_unlock                   0x08003edd   Thumb Code    30  gd32f1x0_rcu.o(.text)
    rcu_deepsleep_voltage_set                0x08003efd   Thumb Code    24  gd32f1x0_rcu.o(.text)
    rcu_power_down_voltage_set               0x08003f15   Thumb Code    24  gd32f1x0_rcu.o(.text)
    rcu_clock_freq_get                       0x08003f2d   Thumb Code   288  gd32f1x0_rcu.o(.text)
    syscfg_deinit                            0x0800405d   Thumb Code    22  gd32f1x0_syscfg.o(.text)
    syscfg_dma_remap_enable                  0x08004075   Thumb Code    14  gd32f1x0_syscfg.o(.text)
    syscfg_dma_remap_disable                 0x08004085   Thumb Code    16  gd32f1x0_syscfg.o(.text)
    syscfg_high_current_enable               0x08004095   Thumb Code    16  gd32f1x0_syscfg.o(.text)
    syscfg_high_current_disable              0x080040a5   Thumb Code    16  gd32f1x0_syscfg.o(.text)
    syscfg_exti_line_config                  0x080040b5   Thumb Code   124  gd32f1x0_syscfg.o(.text)
    syscfg_lock_config                       0x08004131   Thumb Code    14  gd32f1x0_syscfg.o(.text)
    syscfg_flag_get                          0x08004141   Thumb Code    16  gd32f1x0_syscfg.o(.text)
    syscfg_flag_clear                        0x08004151   Thumb Code    14  gd32f1x0_syscfg.o(.text)
    timer_deinit                             0x08004161   Thumb Code   194  gd32f1x0_timer.o(.text)
    timer_struct_para_init                   0x08004225   Thumb Code    16  gd32f1x0_timer.o(.text)
    timer_init                               0x08004235   Thumb Code   216  gd32f1x0_timer.o(.text)
    timer_enable                             0x0800430d   Thumb Code    10  gd32f1x0_timer.o(.text)
    timer_disable                            0x08004319   Thumb Code    10  gd32f1x0_timer.o(.text)
    timer_auto_reload_shadow_enable          0x08004325   Thumb Code    10  gd32f1x0_timer.o(.text)
    timer_auto_reload_shadow_disable         0x08004331   Thumb Code    10  gd32f1x0_timer.o(.text)
    timer_update_event_enable                0x0800433d   Thumb Code    10  gd32f1x0_timer.o(.text)
    timer_update_event_disable               0x08004349   Thumb Code    10  gd32f1x0_timer.o(.text)
    timer_counter_alignment                  0x08004355   Thumb Code    16  gd32f1x0_timer.o(.text)
    timer_counter_up_direction               0x08004365   Thumb Code    10  gd32f1x0_timer.o(.text)
    timer_counter_down_direction             0x08004371   Thumb Code    10  gd32f1x0_timer.o(.text)
    timer_prescaler_config                   0x0800437d   Thumb Code    18  gd32f1x0_timer.o(.text)
    timer_repetition_value_config            0x08004391   Thumb Code     4  gd32f1x0_timer.o(.text)
    timer_autoreload_value_config            0x08004395   Thumb Code     4  gd32f1x0_timer.o(.text)
    timer_counter_value_config               0x08004399   Thumb Code     4  gd32f1x0_timer.o(.text)
    timer_counter_read                       0x0800439d   Thumb Code     4  gd32f1x0_timer.o(.text)
    timer_prescaler_read                     0x080043a1   Thumb Code     6  gd32f1x0_timer.o(.text)
    timer_single_pulse_mode_config           0x080043a9   Thumb Code    30  gd32f1x0_timer.o(.text)
    timer_update_source_config               0x080043c9   Thumb Code    30  gd32f1x0_timer.o(.text)
    timer_ocpre_clear_source_config          0x080043e9   Thumb Code    28  gd32f1x0_timer.o(.text)
    timer_interrupt_enable                   0x08004405   Thumb Code     8  gd32f1x0_timer.o(.text)
    timer_interrupt_disable                  0x0800440d   Thumb Code    10  gd32f1x0_timer.o(.text)
    timer_interrupt_flag_get                 0x08004419   Thumb Code    22  gd32f1x0_timer.o(.text)
    timer_interrupt_flag_clear               0x08004431   Thumb Code     6  gd32f1x0_timer.o(.text)
    timer_flag_get                           0x08004439   Thumb Code    10  gd32f1x0_timer.o(.text)
    timer_flag_clear                         0x08004445   Thumb Code     6  gd32f1x0_timer.o(.text)
    timer_dma_enable                         0x0800444d   Thumb Code     8  gd32f1x0_timer.o(.text)
    timer_dma_disable                        0x08004455   Thumb Code    10  gd32f1x0_timer.o(.text)
    timer_channel_dma_request_source_select  0x08004461   Thumb Code    30  gd32f1x0_timer.o(.text)
    timer_dma_transfer_config                0x08004481   Thumb Code    24  gd32f1x0_timer.o(.text)
    timer_event_software_generate            0x08004499   Thumb Code     8  gd32f1x0_timer.o(.text)
    timer_break_struct_para_init             0x080044a1   Thumb Code    16  gd32f1x0_timer.o(.text)
    timer_break_config                       0x080044b1   Thumb Code    36  gd32f1x0_timer.o(.text)
    timer_break_enable                       0x080044d5   Thumb Code    10  gd32f1x0_timer.o(.text)
    timer_break_disable                      0x080044e1   Thumb Code    10  gd32f1x0_timer.o(.text)
    timer_automatic_output_enable            0x080044ed   Thumb Code    10  gd32f1x0_timer.o(.text)
    timer_automatic_output_disable           0x080044f9   Thumb Code    10  gd32f1x0_timer.o(.text)
    timer_primary_output_config              0x08004505   Thumb Code    18  gd32f1x0_timer.o(.text)
    timer_channel_control_shadow_config      0x08004519   Thumb Code    16  gd32f1x0_timer.o(.text)
    timer_channel_control_shadow_update_config 0x08004529   Thumb Code    30  gd32f1x0_timer.o(.text)
    timer_channel_output_struct_para_init    0x08004549   Thumb Code    12  gd32f1x0_timer.o(.text)
    timer_channel_output_config              0x08004555   Thumb Code   562  gd32f1x0_timer.o(.text)
    timer_channel_output_mode_config         0x08004789   Thumb Code    56  gd32f1x0_timer.o(.text)
    timer_channel_output_pulse_value_config  0x080047c1   Thumb Code    16  gd32f1x0_timer.o(.text)
    timer_channel_output_shadow_config       0x080047d1   Thumb Code    56  gd32f1x0_timer.o(.text)
    timer_channel_output_fast_config         0x08004809   Thumb Code    56  gd32f1x0_timer.o(.text)
    timer_channel_output_clear_config        0x08004841   Thumb Code    56  gd32f1x0_timer.o(.text)
    timer_channel_output_polarity_config     0x08004879   Thumb Code    68  gd32f1x0_timer.o(.text)
    timer_channel_complementary_output_polarity_config 0x080048bd   Thumb Code    68  gd32f1x0_timer.o(.text)
    timer_channel_output_state_config        0x08004901   Thumb Code    68  gd32f1x0_timer.o(.text)
    timer_channel_complementary_output_state_config 0x08004945   Thumb Code    56  gd32f1x0_timer.o(.text)
    timer_channel_input_struct_para_init     0x0800497d   Thumb Code    12  gd32f1x0_timer.o(.text)
    timer_input_capture_config               0x08004989   Thumb Code   350  gd32f1x0_timer.o(.text)
    timer_channel_input_capture_prescaler_config 0x08004ae9   Thumb Code    56  gd32f1x0_timer.o(.text)
    timer_channel_capture_value_register_read 0x08004b21   Thumb Code    18  gd32f1x0_timer.o(.text)
    timer_input_pwm_capture_config           0x08004b35   Thumb Code   354  gd32f1x0_timer.o(.text)
    timer_hall_mode_config                   0x08004c99   Thumb Code    30  gd32f1x0_timer.o(.text)
    timer_input_trigger_source_select        0x08004cb9   Thumb Code    16  gd32f1x0_timer.o(.text)
    timer_master_output_trigger_source_select 0x08004cc9   Thumb Code    16  gd32f1x0_timer.o(.text)
    timer_slave_mode_select                  0x08004cd9   Thumb Code    16  gd32f1x0_timer.o(.text)
    timer_master_slave_mode_config           0x08004ce9   Thumb Code    30  gd32f1x0_timer.o(.text)
    timer_external_trigger_config            0x08004d09   Thumb Code    34  gd32f1x0_timer.o(.text)
    timer_quadrature_decoder_mode_config     0x08004d2d   Thumb Code    78  gd32f1x0_timer.o(.text)
    timer_internal_clock_config              0x08004d7d   Thumb Code    10  gd32f1x0_timer.o(.text)
    timer_internal_trigger_as_external_clock_config 0x08004d89   Thumb Code    32  gd32f1x0_timer.o(.text)
    timer_external_trigger_as_external_clock_config 0x08004da9   Thumb Code   152  gd32f1x0_timer.o(.text)
    timer_external_clock_mode0_config        0x08004e41   Thumb Code    50  gd32f1x0_timer.o(.text)
    timer_external_clock_mode1_config        0x08004e75   Thumb Code    42  gd32f1x0_timer.o(.text)
    timer_external_clock_mode1_disable       0x08004ea1   Thumb Code    10  gd32f1x0_timer.o(.text)
    timer_channel_remap_config               0x08004ead   Thumb Code     4  gd32f1x0_timer.o(.text)
    usart_deinit                             0x08004eb1   Thumb Code    54  gd32f1x0_usart.o(.text)
    usart_baudrate_set                       0x08004ee9   Thumb Code    90  gd32f1x0_usart.o(.text)
    usart_parity_config                      0x08004f45   Thumb Code    24  gd32f1x0_usart.o(.text)
    usart_word_length_set                    0x08004f5d   Thumb Code    24  gd32f1x0_usart.o(.text)
    usart_stop_bit_set                       0x08004f75   Thumb Code    24  gd32f1x0_usart.o(.text)
    usart_enable                             0x08004f8d   Thumb Code    10  gd32f1x0_usart.o(.text)
    usart_disable                            0x08004f99   Thumb Code    10  gd32f1x0_usart.o(.text)
    usart_transmit_config                    0x08004fa5   Thumb Code    16  gd32f1x0_usart.o(.text)
    usart_receive_config                     0x08004fb5   Thumb Code    16  gd32f1x0_usart.o(.text)
    usart_data_transmit                      0x08004fc5   Thumb Code     8  gd32f1x0_usart.o(.text)
    usart_data_receive                       0x08004fcd   Thumb Code     8  gd32f1x0_usart.o(.text)
    usart_data_first_config                  0x08004fd5   Thumb Code    28  gd32f1x0_usart.o(.text)
    usart_invert_config                      0x08004ff1   Thumb Code   106  gd32f1x0_usart.o(.text)
    usart_overrun_enable                     0x0800505d   Thumb Code    18  gd32f1x0_usart.o(.text)
    usart_overrun_disable                    0x08005071   Thumb Code    18  gd32f1x0_usart.o(.text)
    usart_oversample_config                  0x08005085   Thumb Code    24  gd32f1x0_usart.o(.text)
    usart_sample_bit_config                  0x0800509d   Thumb Code    24  gd32f1x0_usart.o(.text)
    usart_autobaud_detection_enable          0x080050b5   Thumb Code    10  gd32f1x0_usart.o(.text)
    usart_autobaud_detection_disable         0x080050c1   Thumb Code    10  gd32f1x0_usart.o(.text)
    usart_autobaud_detection_mode_config     0x080050cd   Thumb Code    16  gd32f1x0_usart.o(.text)
    usart_mute_mode_enable                   0x080050dd   Thumb Code    10  gd32f1x0_usart.o(.text)
    usart_mute_mode_disable                  0x080050e9   Thumb Code    10  gd32f1x0_usart.o(.text)
    usart_mute_mode_wakeup_config            0x080050f5   Thumb Code    24  gd32f1x0_usart.o(.text)
    usart_address_detection_mode_config      0x0800510d   Thumb Code    28  gd32f1x0_usart.o(.text)
    usart_address_config                     0x08005129   Thumb Code    26  gd32f1x0_usart.o(.text)
    usart_receiver_timeout_enable            0x08005145   Thumb Code    10  gd32f1x0_usart.o(.text)
    usart_receiver_timeout_disable           0x08005151   Thumb Code    10  gd32f1x0_usart.o(.text)
    usart_receiver_timeout_config            0x0800515d   Thumb Code    16  gd32f1x0_usart.o(.text)
    usart_lin_mode_enable                    0x0800516d   Thumb Code    18  gd32f1x0_usart.o(.text)
    usart_lin_mode_disable                   0x08005181   Thumb Code    18  gd32f1x0_usart.o(.text)
    usart_lin_break_detection_length_config  0x08005195   Thumb Code    20  gd32f1x0_usart.o(.text)
    usart_halfduplex_enable                  0x080051a9   Thumb Code    18  gd32f1x0_usart.o(.text)
    usart_halfduplex_disable                 0x080051bd   Thumb Code    18  gd32f1x0_usart.o(.text)
    usart_clock_enable                       0x080051d1   Thumb Code    18  gd32f1x0_usart.o(.text)
    usart_clock_disable                      0x080051e5   Thumb Code    18  gd32f1x0_usart.o(.text)
    usart_synchronous_clock_config           0x080051f9   Thumb Code    60  gd32f1x0_usart.o(.text)
    usart_smartcard_mode_enable              0x08005235   Thumb Code    18  gd32f1x0_usart.o(.text)
    usart_smartcard_mode_disable             0x08005249   Thumb Code    18  gd32f1x0_usart.o(.text)
    usart_smartcard_mode_nack_enable         0x0800525d   Thumb Code    18  gd32f1x0_usart.o(.text)
    usart_smartcard_mode_nack_disable        0x08005271   Thumb Code    18  gd32f1x0_usart.o(.text)
    usart_guard_time_config                  0x08005285   Thumb Code    28  gd32f1x0_usart.o(.text)
    usart_block_length_config                0x080052a1   Thumb Code    18  gd32f1x0_usart.o(.text)
    usart_smartcard_autoretry_config         0x080052b5   Thumb Code    30  gd32f1x0_usart.o(.text)
    usart_irda_mode_enable                   0x080052d5   Thumb Code    18  gd32f1x0_usart.o(.text)
    usart_irda_mode_disable                  0x080052e9   Thumb Code    18  gd32f1x0_usart.o(.text)
    usart_irda_lowpower_config               0x080052fd   Thumb Code    20  gd32f1x0_usart.o(.text)
    usart_prescaler_config                   0x08005311   Thumb Code    24  gd32f1x0_usart.o(.text)
    usart_hardware_flow_rts_config           0x08005329   Thumb Code    24  gd32f1x0_usart.o(.text)
    usart_hardware_flow_cts_config           0x08005341   Thumb Code    24  gd32f1x0_usart.o(.text)
    usart_rs485_driver_enable                0x08005359   Thumb Code    18  gd32f1x0_usart.o(.text)
    usart_rs485_driver_disable               0x0800536d   Thumb Code    18  gd32f1x0_usart.o(.text)
    usart_driver_assertime_config            0x08005381   Thumb Code    30  gd32f1x0_usart.o(.text)
    usart_driver_deassertime_config          0x080053a1   Thumb Code    30  gd32f1x0_usart.o(.text)
    usart_depolarity_config                  0x080053c1   Thumb Code    28  gd32f1x0_usart.o(.text)
    usart_dma_receive_config                 0x080053dd   Thumb Code    16  gd32f1x0_usart.o(.text)
    usart_dma_transmit_config                0x080053ed   Thumb Code    16  gd32f1x0_usart.o(.text)
    usart_reception_error_dma_disable        0x080053fd   Thumb Code    18  gd32f1x0_usart.o(.text)
    usart_reception_error_dma_enable         0x08005411   Thumb Code    18  gd32f1x0_usart.o(.text)
    usart_wakeup_enable                      0x08005425   Thumb Code    10  gd32f1x0_usart.o(.text)
    usart_wakeup_disable                     0x08005431   Thumb Code    10  gd32f1x0_usart.o(.text)
    usart_wakeup_mode_config                 0x0800543d   Thumb Code    28  gd32f1x0_usart.o(.text)
    usart_flag_get                           0x08005459   Thumb Code    16  gd32f1x0_usart.o(.text)
    usart_flag_clear                         0x08005469   Thumb Code    18  gd32f1x0_usart.o(.text)
    usart_interrupt_enable                   0x0800547d   Thumb Code    24  gd32f1x0_usart.o(.text)
    usart_interrupt_disable                  0x08005495   Thumb Code    26  gd32f1x0_usart.o(.text)
    usart_command_enable                     0x080054b1   Thumb Code     8  gd32f1x0_usart.o(.text)
    usart_interrupt_flag_get                 0x080054b9   Thumb Code    40  gd32f1x0_usart.o(.text)
    usart_interrupt_flag_clear               0x080054e1   Thumb Code    18  gd32f1x0_usart.o(.text)
    Reset_Handler                            0x080054f5   Thumb Code     8  startup_gd32f1x0.o(.text)
    ADC_CMP_IRQHandler                       0x0800550f   Thumb Code     0  startup_gd32f1x0.o(.text)
    CAN0_RX0_IRQHandler                      0x0800550f   Thumb Code     0  startup_gd32f1x0.o(.text)
    CAN0_RX1_IRQHandler                      0x0800550f   Thumb Code     0  startup_gd32f1x0.o(.text)
    CAN0_SCE_IRQHandler                      0x0800550f   Thumb Code     0  startup_gd32f1x0.o(.text)
    CAN0_TX_IRQHandler                       0x0800550f   Thumb Code     0  startup_gd32f1x0.o(.text)
    CAN1_RX0_IRQHandler                      0x0800550f   Thumb Code     0  startup_gd32f1x0.o(.text)
    CAN1_RX1_IRQHandler                      0x0800550f   Thumb Code     0  startup_gd32f1x0.o(.text)
    CAN1_SCE_IRQHandler                      0x0800550f   Thumb Code     0  startup_gd32f1x0.o(.text)
    CAN1_TX_IRQHandler                       0x0800550f   Thumb Code     0  startup_gd32f1x0.o(.text)
    CEC_IRQHandler                           0x0800550f   Thumb Code     0  startup_gd32f1x0.o(.text)
    DMA_Channel3_4_IRQHandler                0x0800550f   Thumb Code     0  startup_gd32f1x0.o(.text)
    DMA_Channel5_6_IRQHandler                0x0800550f   Thumb Code     0  startup_gd32f1x0.o(.text)
    FMC_IRQHandler                           0x0800550f   Thumb Code     0  startup_gd32f1x0.o(.text)
    I2C0_ER_IRQHandler                       0x0800550f   Thumb Code     0  startup_gd32f1x0.o(.text)
    I2C0_EV_IRQHandler                       0x0800550f   Thumb Code     0  startup_gd32f1x0.o(.text)
    I2C1_ER_IRQHandler                       0x0800550f   Thumb Code     0  startup_gd32f1x0.o(.text)
    I2C1_EV_IRQHandler                       0x0800550f   Thumb Code     0  startup_gd32f1x0.o(.text)
    I2C2_ER_IRQHandler                       0x0800550f   Thumb Code     0  startup_gd32f1x0.o(.text)
    I2C2_EV_IRQHandler                       0x0800550f   Thumb Code     0  startup_gd32f1x0.o(.text)
    LVD_IRQHandler                           0x0800550f   Thumb Code     0  startup_gd32f1x0.o(.text)
    RCU_IRQHandler                           0x0800550f   Thumb Code     0  startup_gd32f1x0.o(.text)
    RTC_IRQHandler                           0x0800550f   Thumb Code     0  startup_gd32f1x0.o(.text)
    SLCD_IRQHandler                          0x0800550f   Thumb Code     0  startup_gd32f1x0.o(.text)
    SPI0_IRQHandler                          0x0800550f   Thumb Code     0  startup_gd32f1x0.o(.text)
    SPI1_IRQHandler                          0x0800550f   Thumb Code     0  startup_gd32f1x0.o(.text)
    SPI2_IRQHandler                          0x0800550f   Thumb Code     0  startup_gd32f1x0.o(.text)
    TIMER0_Channel_IRQHandler                0x0800550f   Thumb Code     0  startup_gd32f1x0.o(.text)
    TIMER14_IRQHandler                       0x0800550f   Thumb Code     0  startup_gd32f1x0.o(.text)
    TIMER15_IRQHandler                       0x0800550f   Thumb Code     0  startup_gd32f1x0.o(.text)
    TIMER16_IRQHandler                       0x0800550f   Thumb Code     0  startup_gd32f1x0.o(.text)
    TIMER1_IRQHandler                        0x0800550f   Thumb Code     0  startup_gd32f1x0.o(.text)
    TIMER2_IRQHandler                        0x0800550f   Thumb Code     0  startup_gd32f1x0.o(.text)
    TIMER5_DAC_IRQHandler                    0x0800550f   Thumb Code     0  startup_gd32f1x0.o(.text)
    TSI_IRQHandler                           0x0800550f   Thumb Code     0  startup_gd32f1x0.o(.text)
    USART0_IRQHandler                        0x0800550f   Thumb Code     0  startup_gd32f1x0.o(.text)
    USART1_IRQHandler                        0x0800550f   Thumb Code     0  startup_gd32f1x0.o(.text)
    USBDWakeUp_IRQHandler                    0x0800550f   Thumb Code     0  startup_gd32f1x0.o(.text)
    USBD_HP_IRQHandler                       0x0800550f   Thumb Code     0  startup_gd32f1x0.o(.text)
    USBD_LP_IRQHandler                       0x0800550f   Thumb Code     0  startup_gd32f1x0.o(.text)
    WWDGT_IRQHandler                         0x0800550f   Thumb Code     0  startup_gd32f1x0.o(.text)
    SystemInit                               0x08005519   Thumb Code   188  system_gd32f1x0.o(.text)
    SystemCoreClockUpdate                    0x080055d5   Thumb Code   112  system_gd32f1x0.o(.text)
    __aeabi_fadd                             0x08005655   Thumb Code   164  fadd.o(.text)
    __aeabi_fsub                             0x080056f9   Thumb Code     6  fadd.o(.text)
    __aeabi_frsub                            0x080056ff   Thumb Code     6  fadd.o(.text)
    __aeabi_fmul                             0x08005705   Thumb Code   100  fmul.o(.text)
    __aeabi_fdiv                             0x08005769   Thumb Code   124  fdiv.o(.text)
    __aeabi_dadd                             0x080057e5   Thumb Code   322  dadd.o(.text)
    __aeabi_dsub                             0x08005927   Thumb Code     6  dadd.o(.text)
    __aeabi_drsub                            0x0800592d   Thumb Code     6  dadd.o(.text)
    __aeabi_dmul                             0x08005933   Thumb Code   228  dmul.o(.text)
    __aeabi_ddiv                             0x08005a17   Thumb Code   222  ddiv.o(.text)
    __aeabi_fcmple                           0x08005af5   Thumb Code    28  fcmple.o(.text)
    __aeabi_fcmplt                           0x08005b11   Thumb Code    28  fcmplt.o(.text)
    __aeabi_fcmpge                           0x08005b2d   Thumb Code    28  fcmpge.o(.text)
    __aeabi_fcmpgt                           0x08005b49   Thumb Code    28  fcmpgt.o(.text)
    __aeabi_dcmple                           0x08005b65   Thumb Code    54  dcmple.o(.text)
    __aeabi_i2f                              0x08005b9b   Thumb Code    18  fflti.o(.text)
    __aeabi_ui2f                             0x08005bad   Thumb Code    10  ffltui.o(.text)
    __aeabi_i2d                              0x08005bb7   Thumb Code    34  dflti.o(.text)
    __aeabi_ui2d                             0x08005bd9   Thumb Code    26  dfltui.o(.text)
    __aeabi_f2iz                             0x08005bf3   Thumb Code    50  ffixi.o(.text)
    __aeabi_d2iz                             0x08005c25   Thumb Code    62  dfixi.o(.text)
    __aeabi_f2d                              0x08005c63   Thumb Code    38  f2d.o(.text)
    __aeabi_d2f                              0x08005c89   Thumb Code    56  d2f.o(.text)
    __aeabi_llsl                             0x08005cc1   Thumb Code    30  llshl.o(.text)
    _ll_shift_l                              0x08005cc1   Thumb Code     0  llshl.o(.text)
    __aeabi_llsr                             0x08005cdf   Thumb Code    32  llushr.o(.text)
    _ll_ushift_r                             0x08005cdf   Thumb Code     0  llushr.o(.text)
    __aeabi_lasr                             0x08005cff   Thumb Code    36  llsshr.o(.text)
    _ll_sshift_r                             0x08005cff   Thumb Code     0  llsshr.o(.text)
    __I$use$fp                               0x08005d23   Thumb Code     0  iusefp.o(.text)
    _float_round                             0x08005d23   Thumb Code    18  fepilogue.o(.text)
    _float_epilogue                          0x08005d35   Thumb Code    92  fepilogue.o(.text)
    _double_round                            0x08005d91   Thumb Code    30  depilogue.o(.text)
    _double_epilogue                         0x08005daf   Thumb Code   156  depilogue.o(.text)
    __scatterload                            0x08005e4d   Thumb Code    38  init.o(.text)
    __scatterload_rt2                        0x08005e4d   Thumb Code     0  init.o(.text)
    __scatterload_copy                       0x08005e7d   Thumb Code    14  handlers.o(i.__scatterload_copy)
    __scatterload_null                       0x08005e8b   Thumb Code     2  handlers.o(i.__scatterload_null)
    __scatterload_zeroinit                   0x08005e8d   Thumb Code    14  handlers.o(i.__scatterload_zeroinit)
    hall_to_pos                              0x08005fc2   Data           8  bldc.o(.rodata.hall_to_pos)
    lookUpTableAngle                         0x08005fcc   Data         724  main.o(.rodata.lookUpTableAngle)
    Region$$Table$$Base                      0x08006570   Number         0  anon$$obj.o(Region$$Table)
    Region$$Table$$Limit                     0x08006590   Number         0  anon$$obj.o(Region$$Table)
    SystemCoreClock                          0x20000000   Data           4  system_gd32f1x0.o(.data.SystemCoreClock)
    batteryVoltage                           0x20000004   Data           4  bldc.o(.data.batteryVoltage)
    beepsBackwards                           0x20000008   Data           1  main.o(.data.beepsBackwards)
    currentDC                                0x2000000c   Data           4  bldc.o(.data.currentDC)
    iFILTER_SHIFT                            0x20000010   Data           1  bldc.o(.data.iFILTER_SHIFT)
    offsetdc                                 0x20000012   Data           2  bldc.o(.data.offsetdc)
    speedLimit                               0x20000014   Data           2  main.o(.data.speedLimit)
    wState                                   0x20000016   Data           1  main.o(.data.wState)
    aHallEXTI                                0x20000018   Data          12  bldcsine.o(.bss.aHallEXTI)
    adc_buffer                               0x20000024   Data           4  bldc.o(.bss.adc_buffer)
    angle_deg                                0x20000028   Data           4  bldcsine.o(.bss.angle_deg)
    angle_deg_add                            0x2000002c   Data           4  bldcsine.o(.bss.angle_deg_add)
    angle_deg_final                          0x20000030   Data           4  bldcsine.o(.bss.angle_deg_final)
    angle_idx                                0x20000034   Data           2  bldcsine.o(.bss.angle_idx)
    bInterrupt                               0x20000036   Data           1  bldcsine.o(.bss.bInterrupt)
    bldc_enable                              0x20000037   Data           1  bldc.o(.bss.bldc_enable)
    bldc_inputFilterPwm                      0x20000038   Data           2  bldc.o(.bss.bldc_inputFilterPwm)
    bldc_outputFilterPwm                     0x2000003a   Data           2  bldc.o(.bss.bldc_outputFilterPwm)
    bufferIndex                              0x2000003c   Data           1  remotecrsf.o(.bss.bufferIndex)
    buzzerFreq                               0x2000003d   Data           1  bldc.o(.bss.buzzerFreq)
    buzzerPattern                            0x2000003e   Data           1  bldc.o(.bss.buzzerPattern)
    buzzerTimer                              0x20000040   Data           2  bldc.o(.bss.buzzerTimer)
    buzzerToggle                             0x20000042   Data           1  bldc.o(.bss.buzzerToggle)
    channels                                 0x20000044   Data          32  remotecrsf.o(.bss.channels)
    crsfData                                 0x20000064   Data          26  remotecrsf.o(.bss.crsfData)
    dma_init_struct_adc                      0x20000080   Data          36  setup.o(.bss.dma_init_struct_adc)
    dma_init_struct_usart                    0x200000a4   Data          36  setup.o(.bss.dma_init_struct_usart)
    enable                                   0x200000c8   Data           1  main.o(.bss.enable)
    fDT                                      0x200000cc   Data           4  bldcsine.o(.bss.fDT)
    fGradient                                0x200000d0   Data           4  bldcsine.o(.bss.fGradient)
    fGradientX                               0x200000d4   Data           4  bldcsine.o(.bss.fGradientX)
    failsafe_status                          0x200000d8   Data           1  remotecrsf.o(.bss.failsafe_status)
    filter_reg                               0x200000dc   Data           4  bldc.o(.bss.filter_reg)
    frameLength                              0x200000e0   Data           1  remotecrsf.o(.bss.frameLength)
    hall                                     0x200000e1   Data           1  bldc.o(.bss.hall)
    hall_a                                   0x200000e2   Data           1  bldc.o(.bss.hall_a)
    hall_b                                   0x200000e3   Data           1  bldc.o(.bss.hall_b)
    hall_c                                   0x200000e4   Data           1  bldc.o(.bss.hall_c)
    hall_last                                0x200000e5   Data           1  bldcsine.o(.bss.hall_last)
    hall_time_last                           0x200000e6   Data           2  bldcsine.o(.bss.hall_time_last)
    hall_time_step                           0x200000e8   Data           2  bldcsine.o(.bss.hall_time_step)
    hall_time_step_LP                        0x200000ec   Data           4  bldcsine.o(.bss.hall_time_step_LP)
    hall_time_step_LPR                       0x200000f0   Data           4  bldcsine.o(.bss.hall_time_step_LPR)
    iAdcCounter                              0x200000f4   Data           4  it.o(.bss.iAdcCounter)
    iAdcTicks                                0x200000f8   Data           4  it.o(.bss.iAdcTicks)
    iAdcTicks0                               0x200000fc   Data           4  it.o(.bss.iAdcTicks0)
    iBug                                     0x20000100   Data           4  main.o(.bss.iBug)
    iCounter2Usart0                          0x20000104   Data           4  it.o(.bss.iCounter2Usart0)
    iCounterUsart0                           0x20000108   Data           4  it.o(.bss.iCounterUsart0)
    iDT                                      0x2000010c   Data           2  bldcsine.o(.bss.iDT)
    iOdom                                    0x20000110   Data           4  bldc.o(.bss.iOdom)
    iPwmCounter                              0x20000114   Data           4  it.o(.bss.iPwmCounter)
    iPwmTicks                                0x20000118   Data           4  it.o(.bss.iPwmTicks)
    iPwmTicks0                               0x2000011c   Data           4  it.o(.bss.iPwmTicks0)
    iTimeLast                                0x20000120   Data           4  remotecrsf.o(.bss.iTimeLast)
    iTimeNextLoop                            0x20000124   Data           4  main.o(.bss.iTimeNextLoop)
    inBuffer                                 0x20000128   Data          26  remotecrsf.o(.bss.inBuffer)
    inactivity_timeout_counter               0x20000144   Data           4  main.o(.bss.inactivity_timeout_counter)
    lastPos                                  0x20000148   Data           1  bldc.o(.bss.lastPos)
    msTicks                                  0x2000014c   Data           4  it.o(.bss.msTicks)
    oConfig                                  0x20000150   Data          18  setup.o(.bss.oConfig)
    offsetcount                              0x20000162   Data           2  bldc.o(.bss.offsetcount)
    pos                                      0x20000164   Data           1  bldc.o(.bss.pos)
    pwmGo                                    0x20000168   Data           4  bldcsine.o(.bss.pwmGo)
    pwmSlave                                 0x2000016c   Data           2  main.o(.bss.pwmSlave)
    realSpeed                                0x20000170   Data           4  bldc.o(.bss.realSpeed)
    sector                                   0x20000174   Data           1  bldcsine.o(.bss.sector)
    sector10x                                0x20000175   Data           1  bldcsine.o(.bss.sector10x)
    sectorChange                             0x20000176   Data           1  bldcsine.o(.bss.sectorChange)
    speed                                    0x20000178   Data           4  main.o(.bss.speed)
    speedCounter                             0x2000017c   Data           4  bldc.o(.bss.speedCounter)
    speedShutoff                             0x20000180   Data           4  main.o(.bss.speedShutoff)
    steer                                    0x20000184   Data           4  main.o(.bss.steer)
    steerCounter                             0x20000188   Data           4  main.o(.bss.steerCounter)
    timedOut                                 0x2000018c   Data           1  it.o(.bss.timedOut)
    timeoutCounter_ms                        0x20000190   Data           4  it.o(.bss.timeoutCounter_ms)
    timeoutTimer_paramter_struct             0x20000194   Data          16  setup.o(.bss.timeoutTimer_paramter_struct)
    timerBldc_break_parameter_struct         0x200001a4   Data          24  setup.o(.bss.timerBldc_break_parameter_struct)
    timerBldc_oc_parameter_struct            0x200001bc   Data          16  setup.o(.bss.timerBldc_oc_parameter_struct)
    timerBldc_paramter_struct                0x200001cc   Data          16  setup.o(.bss.timerBldc_paramter_struct)
    usart0_rx_buf                            0x200001dc   Data           1  setup.o(.bss.usart0_rx_buf)
    __initial_sp                             0x200005e0   Data           0  startup_gd32f1x0.o(STACK)



==============================================================================

Memory Map of the image

  Image Entry point : 0x08000169

  Load Region LR_IROM1 (Base: 0x08000000, Size: 0x000065a8, Max: 0x00010000, ABSOLUTE)

    Execution Region ER_IROM1 (Exec base: 0x08000000, Load base: 0x08000000, Size: 0x00006590, Max: 0x00010000, ABSOLUTE)

    Exec Addr    Load Addr    Size         Type   Attr      Idx    E Section Name        Object

    0x08000000   0x08000000   0x00000168   Data   RO          307    RESET               startup_gd32f1x0.o
    0x08000168   0x08000168   0x00000000   Code   RO          324  * .ARM.Collect$$$$00000000  mc_w.l(entry.o)
    0x08000168   0x08000168   0x00000004   Code   RO          365    .ARM.Collect$$$$00000001  mc_w.l(entry2.o)
    0x0800016c   0x0800016c   0x00000004   Code   RO          368    .ARM.Collect$$$$00000004  mc_w.l(entry5.o)
    0x08000170   0x08000170   0x00000000   Code   RO          370    .ARM.Collect$$$$00000008  mc_w.l(entry7b.o)
    0x08000170   0x08000170   0x00000000   Code   RO          372    .ARM.Collect$$$$0000000A  mc_w.l(entry8b.o)
    0x08000170   0x08000170   0x00000008   Code   RO          373    .ARM.Collect$$$$0000000B  mc_w.l(entry9a.o)
    0x08000178   0x08000178   0x00000000   Code   RO          375    .ARM.Collect$$$$0000000D  mc_w.l(entry10a.o)
    0x08000178   0x08000178   0x00000000   Code   RO          377    .ARM.Collect$$$$0000000F  mc_w.l(entry11a.o)
    0x08000178   0x08000178   0x00000004   Code   RO          366    .ARM.Collect$$$$00002712  mc_w.l(entry2.o)
    0x0800017c   0x0800017c   0x00000818   Code   RO            1    .text               main.o
    0x08000994   0x08000994   0x00000514   Code   RO           27    .text               bldc.o
    0x08000ea8   0x08000ea8   0x00000416   Code   RO           62    .text               bldcsine.o
    0x080012be   0x080012be   0x00000002   PAD
    0x080012c0   0x080012c0   0x00000a1c   Code   RO           92    .text               setup.o
    0x08001cdc   0x08001cdc   0x000001a6   Code   RO          111    .text               it.o
    0x08001e82   0x08001e82   0x00000002   PAD
    0x08001e84   0x08001e84   0x000002b2   Code   RO          142    .text               remotecrsf.o
    0x08002136   0x08002136   0x00000002   PAD
    0x08002138   0x08002138   0x000005a6   Code   RO          176    .text               gd32f1x0_adc.o
    0x080026de   0x080026de   0x00000002   PAD
    0x080026e0   0x080026e0   0x00000370   Code   RO          192    .text               gd32f1x0_dma.o
    0x08002a50   0x08002a50   0x0000016e   Code   RO          200    .text               gd32f1x0_exti.o
    0x08002bbe   0x08002bbe   0x00000002   PAD
    0x08002bc0   0x08002bc0   0x000009d0   Code   RO          208    .text               gd32f1x0_fmc.o
    0x08003590   0x08003590   0x000000e2   Code   RO          217    .text               gd32f1x0_fwdgt.o
    0x08003672   0x08003672   0x00000002   PAD
    0x08003674   0x08003674   0x00000198   Code   RO          225    .text               gd32f1x0_gpio.o
    0x0800380c   0x0800380c   0x0000012c   Code   RO          242    .text               gd32f1x0_misc.o
    0x08003938   0x08003938   0x00000724   Code   RO          263    .text               gd32f1x0_rcu.o
    0x0800405c   0x0800405c   0x00000102   Code   RO          272    .text               gd32f1x0_syscfg.o
    0x0800415e   0x0800415e   0x00000002   PAD
    0x08004160   0x08004160   0x00000d50   Code   RO          280    .text               gd32f1x0_timer.o
    0x08004eb0   0x08004eb0   0x00000642   Code   RO          289    .text               gd32f1x0_usart.o
    0x080054f2   0x080054f2   0x00000002   PAD
    0x080054f4   0x080054f4   0x00000024   Code   RO          308    .text               startup_gd32f1x0.o
    0x08005518   0x08005518   0x0000013c   Code   RO          314    .text               system_gd32f1x0.o
    0x08005654   0x08005654   0x000000b0   Code   RO          327    .text               mf_w.l(fadd.o)
    0x08005704   0x08005704   0x00000064   Code   RO          329    .text               mf_w.l(fmul.o)
    0x08005768   0x08005768   0x0000007c   Code   RO          331    .text               mf_w.l(fdiv.o)
    0x080057e4   0x080057e4   0x0000014e   Code   RO          333    .text               mf_w.l(dadd.o)
    0x08005932   0x08005932   0x000000e4   Code   RO          335    .text               mf_w.l(dmul.o)
    0x08005a16   0x08005a16   0x000000de   Code   RO          337    .text               mf_w.l(ddiv.o)
    0x08005af4   0x08005af4   0x0000001c   Code   RO          339    .text               mf_w.l(fcmple.o)
    0x08005b10   0x08005b10   0x0000001c   Code   RO          341    .text               mf_w.l(fcmplt.o)
    0x08005b2c   0x08005b2c   0x0000001c   Code   RO          343    .text               mf_w.l(fcmpge.o)
    0x08005b48   0x08005b48   0x0000001c   Code   RO          345    .text               mf_w.l(fcmpgt.o)
    0x08005b64   0x08005b64   0x00000036   Code   RO          347    .text               mf_w.l(dcmple.o)
    0x08005b9a   0x08005b9a   0x00000012   Code   RO          349    .text               mf_w.l(fflti.o)
    0x08005bac   0x08005bac   0x0000000a   Code   RO          351    .text               mf_w.l(ffltui.o)
    0x08005bb6   0x08005bb6   0x00000022   Code   RO          353    .text               mf_w.l(dflti.o)
    0x08005bd8   0x08005bd8   0x0000001a   Code   RO          355    .text               mf_w.l(dfltui.o)
    0x08005bf2   0x08005bf2   0x00000032   Code   RO          357    .text               mf_w.l(ffixi.o)
    0x08005c24   0x08005c24   0x0000003e   Code   RO          359    .text               mf_w.l(dfixi.o)
    0x08005c62   0x08005c62   0x00000026   Code   RO          361    .text               mf_w.l(f2d.o)
    0x08005c88   0x08005c88   0x00000038   Code   RO          363    .text               mf_w.l(d2f.o)
    0x08005cc0   0x08005cc0   0x0000001e   Code   RO          379    .text               mc_w.l(llshl.o)
    0x08005cde   0x08005cde   0x00000020   Code   RO          381    .text               mc_w.l(llushr.o)
    0x08005cfe   0x08005cfe   0x00000024   Code   RO          383    .text               mc_w.l(llsshr.o)
    0x08005d22   0x08005d22   0x00000000   Code   RO          385    .text               mc_w.l(iusefp.o)
    0x08005d22   0x08005d22   0x0000006e   Code   RO          386    .text               mf_w.l(fepilogue.o)
    0x08005d90   0x08005d90   0x000000ba   Code   RO          388    .text               mf_w.l(depilogue.o)
    0x08005e4a   0x08005e4a   0x00000002   PAD
    0x08005e4c   0x08005e4c   0x00000030   Code   RO          390    .text               mc_w.l(init.o)
    0x08005e7c   0x08005e7c   0x0000000e   Code   RO          394    i.__scatterload_copy  mc_w.l(handlers.o)
    0x08005e8a   0x08005e8a   0x00000002   Code   RO          395    i.__scatterload_null  mc_w.l(handlers.o)
    0x08005e8c   0x08005e8c   0x0000000e   Code   RO          396    i.__scatterload_zeroinit  mc_w.l(handlers.o)
    0x08005e9a   0x08005e9a   0x0000000c   Data   RO           45    .rodata..L__const.up_or_down.up_down  bldc.o
    0x08005ea6   0x08005ea6   0x0000000c   Data   RO          227    .rodata..Lswitch.table.gpio_deinit.1  gd32f1x0_gpio.o
    0x08005eb2   0x08005eb2   0x00000100   Data   RO          149    .rodata.crsf_crc8tab  remotecrsf.o
    0x08005fb2   0x08005fb2   0x00000008   Data   RO           81    .rodata.cst8        bldcsine.o
    0x08005fba   0x08005fba   0x00000008   Data   RO          265    .rodata.cst8        gd32f1x0_rcu.o
    0x08005fc2   0x08005fc2   0x00000008   Data   RO           46    .rodata.hall_to_pos  bldc.o
    0x08005fca   0x08005fca   0x00000002   PAD
    0x08005fcc   0x08005fcc   0x000002d4   Data   RO           15    .rodata.lookUpTableAngle  main.o
    0x080062a0   0x080062a0   0x000002d0   Data   RO           84    .rodata.sine_table  bldcsine.o
    0x08006570   0x08006570   0x00000020   Data   RO          393    Region$$Table       anon$$obj.o


    Execution Region RW_IRAM1 (Exec base: 0x20000000, Load base: 0x08006590, Size: 0x000005e0, Max: 0x00002000, ABSOLUTE)

    Exec Addr    Load Addr    Size         Type   Attr      Idx    E Section Name        Object

    0x20000000   0x08006590   0x00000004   Data   RW          316    .data.SystemCoreClock  system_gd32f1x0.o
    0x20000004   0x08006594   0x00000004   Data   RW           29    .data.batteryVoltage  bldc.o
    0x20000008   0x08006598   0x00000001   Data   RW           12    .data.beepsBackwards  main.o
    0x20000009   0x08006599   0x00000003   PAD
    0x2000000c   0x0800659c   0x00000004   Data   RW           30    .data.currentDC     bldc.o
    0x20000010   0x080065a0   0x00000001   Data   RW           36    .data.iFILTER_SHIFT  bldc.o
    0x20000011   0x080065a1   0x00000001   PAD
    0x20000012   0x080065a2   0x00000002   Data   RW           39    .data.offsetdc      bldc.o
    0x20000014   0x080065a4   0x00000002   Data   RW            7    .data.speedLimit    main.o
    0x20000016   0x080065a6   0x00000001   Data   RW            8    .data.wState        main.o
    0x20000017   0x080065a7   0x00000001   PAD
    0x20000018        -       0x0000000c   Zero   RW           73    .bss.aHallEXTI      bldcsine.o
    0x20000024        -       0x00000004   Zero   RW           48    .bss.adc_buffer     bldc.o
    0x20000028        -       0x00000004   Zero   RW           68    .bss.angle_deg      bldcsine.o
    0x2000002c        -       0x00000004   Zero   RW           69    .bss.angle_deg_add  bldcsine.o
    0x20000030        -       0x00000004   Zero   RW           70    .bss.angle_deg_final  bldcsine.o
    0x20000034        -       0x00000002   Zero   RW           71    .bss.angle_idx      bldcsine.o
    0x20000036        -       0x00000001   Zero   RW           74    .bss.bInterrupt     bldcsine.o
    0x20000037        -       0x00000001   Zero   RW           33    .bss.bldc_enable    bldc.o
    0x20000038        -       0x00000002   Zero   RW           32    .bss.bldc_inputFilterPwm  bldc.o
    0x2000003a        -       0x00000002   Zero   RW           35    .bss.bldc_outputFilterPwm  bldc.o
    0x2000003c        -       0x00000001   Zero   RW          147    .bss.bufferIndex    remotecrsf.o
    0x2000003d        -       0x00000001   Zero   RW           42    .bss.buzzerFreq     bldc.o
    0x2000003e        -       0x00000001   Zero   RW           43    .bss.buzzerPattern  bldc.o
    0x2000003f   0x080065a7   0x00000001   PAD
    0x20000040        -       0x00000002   Zero   RW           37    .bss.buzzerTimer    bldc.o
    0x20000042        -       0x00000001   Zero   RW           41    .bss.buzzerToggle   bldc.o
    0x20000043   0x080065a7   0x00000001   PAD
    0x20000044        -       0x00000020   Zero   RW          146    .bss.channels       remotecrsf.o
    0x20000064        -       0x0000001a   Zero   RW          145    .bss.crsfData       remotecrsf.o
    0x2000007e   0x080065a7   0x00000002   PAD
    0x20000080        -       0x00000024   Zero   RW           98    .bss.dma_init_struct_adc  setup.o
    0x200000a4        -       0x00000024   Zero   RW           99    .bss.dma_init_struct_usart  setup.o
    0x200000c8        -       0x00000001   Zero   RW           16    .bss.enable         main.o
    0x200000c9   0x080065a7   0x00000003   PAD
    0x200000cc        -       0x00000004   Zero   RW           67    .bss.fDT            bldcsine.o
    0x200000d0        -       0x00000004   Zero   RW           78    .bss.fGradient      bldcsine.o
    0x200000d4        -       0x00000004   Zero   RW           79    .bss.fGradientX     bldcsine.o
    0x200000d8        -       0x00000001   Zero   RW          152    .bss.failsafe_status  remotecrsf.o
    0x200000d9   0x080065a7   0x00000003   PAD
    0x200000dc        -       0x00000004   Zero   RW           47    .bss.filter_reg     bldc.o
    0x200000e0        -       0x00000001   Zero   RW          151    .bss.frameLength    remotecrsf.o
    0x200000e1        -       0x00000001   Zero   RW           34    .bss.hall           bldc.o
    0x200000e2        -       0x00000001   Zero   RW           49    .bss.hall_a         bldc.o
    0x200000e3        -       0x00000001   Zero   RW           50    .bss.hall_b         bldc.o
    0x200000e4        -       0x00000001   Zero   RW           51    .bss.hall_c         bldc.o
    0x200000e5        -       0x00000001   Zero   RW           77    .bss.hall_last      bldcsine.o
    0x200000e6        -       0x00000002   Zero   RW           75    .bss.hall_time_last  bldcsine.o
    0x200000e8        -       0x00000002   Zero   RW           76    .bss.hall_time_step  bldcsine.o
    0x200000ea   0x080065a7   0x00000002   PAD
    0x200000ec        -       0x00000004   Zero   RW           83    .bss.hall_time_step_LP  bldcsine.o
    0x200000f0        -       0x00000004   Zero   RW           82    .bss.hall_time_step_LPR  bldcsine.o
    0x200000f4        -       0x00000004   Zero   RW          121    .bss.iAdcCounter    it.o
    0x200000f8        -       0x00000004   Zero   RW          119    .bss.iAdcTicks      it.o
    0x200000fc        -       0x00000004   Zero   RW          120    .bss.iAdcTicks0     it.o
    0x20000100        -       0x00000004   Zero   RW            3    .bss.iBug           main.o
    0x20000104        -       0x00000004   Zero   RW          123    .bss.iCounter2Usart0  it.o
    0x20000108        -       0x00000004   Zero   RW          122    .bss.iCounterUsart0  it.o
    0x2000010c        -       0x00000002   Zero   RW           80    .bss.iDT            bldcsine.o
    0x2000010e   0x080065a7   0x00000002   PAD
    0x20000110        -       0x00000004   Zero   RW           44    .bss.iOdom          bldc.o
    0x20000114        -       0x00000004   Zero   RW          118    .bss.iPwmCounter    it.o
    0x20000118        -       0x00000004   Zero   RW          116    .bss.iPwmTicks      it.o
    0x2000011c        -       0x00000004   Zero   RW          117    .bss.iPwmTicks0     it.o
    0x20000120        -       0x00000004   Zero   RW          148    .bss.iTimeLast      remotecrsf.o
    0x20000124        -       0x00000004   Zero   RW           18    .bss.iTimeNextLoop  main.o
    0x20000128        -       0x0000001a   Zero   RW          150    .bss.inBuffer       remotecrsf.o
    0x20000142   0x080065a7   0x00000002   PAD
    0x20000144        -       0x00000004   Zero   RW           14    .bss.inactivity_timeout_counter  main.o
    0x20000148        -       0x00000001   Zero   RW           53    .bss.lastPos        bldc.o
    0x20000149   0x080065a7   0x00000003   PAD
    0x2000014c        -       0x00000004   Zero   RW          115    .bss.msTicks        it.o
    0x20000150        -       0x00000012   Zero   RW          101    .bss.oConfig        setup.o
    0x20000162        -       0x00000002   Zero   RW           38    .bss.offsetcount    bldc.o
    0x20000164        -       0x00000001   Zero   RW           52    .bss.pos            bldc.o
    0x20000165   0x080065a7   0x00000003   PAD
    0x20000168        -       0x00000004   Zero   RW           72    .bss.pwmGo          bldcsine.o
    0x2000016c        -       0x00000002   Zero   RW           17    .bss.pwmSlave       main.o
    0x2000016e   0x080065a7   0x00000002   PAD
    0x20000170        -       0x00000004   Zero   RW           31    .bss.realSpeed      bldc.o
    0x20000174        -       0x00000001   Zero   RW           65    .bss.sector         bldcsine.o
    0x20000175        -       0x00000001   Zero   RW           66    .bss.sector10x      bldcsine.o
    0x20000176        -       0x00000001   Zero   RW           64    .bss.sectorChange   bldcsine.o
    0x20000177   0x080065a7   0x00000001   PAD
    0x20000178        -       0x00000004   Zero   RW            5    .bss.speed          main.o
    0x2000017c        -       0x00000004   Zero   RW           40    .bss.speedCounter   bldc.o
    0x20000180        -       0x00000004   Zero   RW            6    .bss.speedShutoff   main.o
    0x20000184        -       0x00000004   Zero   RW           10    .bss.steer          main.o
    0x20000188        -       0x00000004   Zero   RW            4    .bss.steerCounter   main.o
    0x2000018c        -       0x00000001   Zero   RW          114    .bss.timedOut       it.o
    0x2000018d   0x080065a7   0x00000003   PAD
    0x20000190        -       0x00000004   Zero   RW          113    .bss.timeoutCounter_ms  it.o
    0x20000194        -       0x00000010   Zero   RW           94    .bss.timeoutTimer_paramter_struct  setup.o
    0x200001a4        -       0x00000018   Zero   RW           97    .bss.timerBldc_break_parameter_struct  setup.o
    0x200001bc        -       0x00000010   Zero   RW           96    .bss.timerBldc_oc_parameter_struct  setup.o
    0x200001cc        -       0x00000010   Zero   RW           95    .bss.timerBldc_paramter_struct  setup.o
    0x200001dc        -       0x00000001   Zero   RW          100    .bss.usart0_rx_buf  setup.o
    0x200001dd   0x080065a7   0x00000003   PAD
    0x200001e0        -       0x00000400   Zero   RW          305    STACK               startup_gd32f1x0.o


==============================================================================

Image component sizes


      Code (inc. data)   RO Data    RW Data    ZI Data      Debug   Object Name

      1300          0         20         11         38       3917   bldc.o
      1046          0        728          0         61       6601   bldcsine.o
      1446         16          0          0          0       7635   gd32f1x0_adc.o
       880         64          0          0          0       5997   gd32f1x0_dma.o
       366          0          0          0          0       3198   gd32f1x0_exti.o
      2512          0          0          0          0      13341   gd32f1x0_fmc.o
       226          0          0          0          0       2007   gd32f1x0_fwdgt.o
       408          0         12          0          0       4183   gd32f1x0_gpio.o
       300          0          0          0          0       3163   gd32f1x0_misc.o
      1828         34          8          0          0      13497   gd32f1x0_rcu.o
       258          4          0          0          0       2988   gd32f1x0_syscfg.o
      3408         44          0          0          0      18497   gd32f1x0_timer.o
      1602          8          0          0          0      11885   gd32f1x0_usart.o
       422          0          0          0         41       2877   it.o
      2072          0        724          4         31       7559   main.o
       690          0        256          0         91       2555   remotecrsf.o
      2588          0          0          0        163       9932   setup.o
        36          8        360          0       1024        844   startup_gd32f1x0.o
       316         16          0          4          0       1621   system_gd32f1x0.o

    ----------------------------------------------------------------------
     21720        194       2142         24       1480     122297   Object Totals
         0          0         32          0          0          0   (incl. Generated)
        16          0          2          5         31          0   (incl. Padding)

    ----------------------------------------------------------------------

      Code (inc. data)   RO Data    RW Data    ZI Data      Debug   Library Member Name

         0          0          0          0          0          0   entry.o
         0          0          0          0          0          0   entry10a.o
         0          0          0          0          0          0   entry11a.o
         8          4          0          0          0          0   entry2.o
         4          0          0          0          0          0   entry5.o
         0          0          0          0          0          0   entry7b.o
         0          0          0          0          0          0   entry8b.o
         8          4          0          0          0          0   entry9a.o
        30          0          0          0          0          0   handlers.o
        48         10          0          0          0         68   init.o
         0          0          0          0          0          0   iusefp.o
        30          0          0          0          0         68   llshl.o
        36          0          0          0          0         68   llsshr.o
        32          0          0          0          0         68   llushr.o
        56          0          0          0          0         88   d2f.o
       334          0          0          0          0        148   dadd.o
        54          0          0          0          0         80   dcmple.o
       222          0          0          0          0        100   ddiv.o
       186          0          0          0          0        176   depilogue.o
        62          0          0          0          0         80   dfixi.o
        34          0          0          0          0         76   dflti.o
        26          0          0          0          0         76   dfltui.o
       228          0          0          0          0         96   dmul.o
        38          0          0          0          0         68   f2d.o
       176          0          0          0          0        140   fadd.o
        28          0          0          0          0         68   fcmpge.o
        28          0          0          0          0         68   fcmpgt.o
        28          0          0          0          0         68   fcmple.o
        28          0          0          0          0         68   fcmplt.o
       124          0          0          0          0         88   fdiv.o
       110          0          0          0          0        168   fepilogue.o
        50          0          0          0          0         68   ffixi.o
        18          0          0          0          0         68   fflti.o
        10          0          0          0          0         68   ffltui.o
       100          0          0          0          0         76   fmul.o

    ----------------------------------------------------------------------
      2138         18          0          0          0       2208   Library Totals
         2          0          0          0          0          0   (incl. Padding)

    ----------------------------------------------------------------------

      Code (inc. data)   RO Data    RW Data    ZI Data      Debug   Library Name

       196         18          0          0          0        272   mc_w.l
      1940          0          0          0          0       1936   mf_w.l

    ----------------------------------------------------------------------
      2138         18          0          0          0       2208   Library Totals

    ----------------------------------------------------------------------

==============================================================================


      Code (inc. data)   RO Data    RW Data    ZI Data      Debug   

     23858        212       2142         24       1480     123173   Grand Totals
     23858        212       2142         24       1480     123173   ELF Image Totals
     23858        212       2142         24          0          0   ROM Totals

==============================================================================

    Total RO  Size (Code + RO Data)                26000 (  25.39kB)
    Total RW  Size (RW Data + ZI Data)              1504 (   1.47kB)
    Total ROM Size (Code + RO Data + RW Data)      26024 (  25.41kB)

==============================================================================

