Component: Arm Compiler for Embedded 6.19 Tool: armlink [5e73cb00]

==============================================================================

Section Cross References

    main.o(.text) refers to system_gd32f1x0.o(.text) for SystemCoreClockUpdate
    main.o(.text) refers to system_gd32f1x0.o(.data.SystemCoreClock) for SystemCoreClock
    main.o(.text) refers to setup.o(.text) for Watchdog_init
    main.o(.text) refers to gd32f1x0_gpio.o(.text) for gpio_bit_write
    main.o(.text) refers to gd32f1x0_fwdgt.o(.text) for fwdgt_counter_reload
    main.o(.text) refers to bldc.o(.bss.buzzerFreq) for buzzerFreq
    main.o(.text) refers to it.o(.text) for Delay
    main.o(.text) refers to main.o(.bss.iTimeNextLoop) for iTimeNextLoop
    main.o(.text) refers to main.o(.bss.pwmSlave) for pwmSlave
    main.o(.text) refers to main.o(.data.wState) for wState
    main.o(.text) refers to main.o(.bss.steerCounter) for steerCounter
    main.o(.text) refers to remoteuart.o(.text) for RemoteUpdate
    main.o(.text) refers to main.o(.bss.speed) for speed
    main.o(.text) refers to fflti.o(.text) for __aeabi_i2f
    main.o(.text) refers to f2d.o(.text) for __aeabi_f2d
    main.o(.text) refers to dmul.o(.text) for __aeabi_dmul
    main.o(.text) refers to ddiv.o(.text) for __aeabi_ddiv
    main.o(.text) refers to dadd.o(.text) for __aeabi_dadd
    main.o(.text) refers to d2f.o(.text) for __aeabi_d2f
    main.o(.text) refers to main.o(.data.speedLimit) for speedLimit
    main.o(.text) refers to main.o(.bss.steer) for steer
    main.o(.text) refers to fmul.o(.text) for __aeabi_fmul
    main.o(.text) refers to ffixi.o(.text) for __aeabi_f2iz
    main.o(.text) refers to fadd.o(.text) for __aeabi_fsub
    main.o(.text) refers to fdiv.o(.text) for __aeabi_fdiv
    main.o(.text) refers to main.o(.rodata.lookUpTableAngle) for lookUpTableAngle
    main.o(.text) refers to fcmplt.o(.text) for __aeabi_fcmplt
    main.o(.text) refers to main.o(.bss.enable) for enable
    main.o(.text) refers to bldc.o(.text) for SetPWM
    main.o(.text) refers to it.o(.bss.timedOut) for timedOut
    main.o(.text) refers to main.o(.data.wStateSlave) for wStateSlave
    main.o(.text) refers to commsmasterslave.o(.text) for SendSlave
    main.o(.text) refers to bldc.o(.data.batteryVoltage) for batteryVoltage
    main.o(.text) refers to fcmple.o(.text) for __aeabi_fcmple
    main.o(.text) refers to main.o(.data.beepsBackwards) for beepsBackwards
    main.o(.text) refers to fcmpge.o(.text) for __aeabi_fcmpge
    main.o(.text) refers to bldc.o(.bss.buzzerPattern) for buzzerPattern
    main.o(.text) refers to main.o(.bss.inactivity_timeout_counter) for inactivity_timeout_counter
    main.o(.text) refers to gd32f1x0_usart.o(.text) for usart_deinit
    main.o(.ARM.exidx) refers to main.o(.text) for [Anonymous Symbol]
    bldc.o(.text) refers to bldc.o(.rodata..L__const.up_or_down.up_down) for .L__const.up_or_down.up_down
    bldc.o(.text) refers to bldc.o(.bss.bldc_enable) for bldc_enable
    bldc.o(.text) refers to dflti.o(.text) for __aeabi_i2d
    bldc.o(.text) refers to ddiv.o(.text) for __aeabi_ddiv
    bldc.o(.text) refers to dmul.o(.text) for __aeabi_dmul
    bldc.o(.text) refers to dfixi.o(.text) for __aeabi_d2iz
    bldc.o(.text) refers to bldc.o(.bss.bldc_inputFilterPwm) for bldc_inputFilterPwm
    bldc.o(.text) refers to bldc.o(.bss.offsetcount) for offsetcount
    bldc.o(.text) refers to bldc.o(.bss.adc_buffer) for adc_buffer
    bldc.o(.text) refers to bldc.o(.data.offsetdc) for offsetdc
    bldc.o(.text) refers to bldc.o(.bss.buzzerTimer) for buzzerTimer
    bldc.o(.text) refers to bldc.o(.data.batteryVoltage) for batteryVoltage
    bldc.o(.text) refers to f2d.o(.text) for __aeabi_f2d
    bldc.o(.text) refers to dfltui.o(.text) for __aeabi_ui2d
    bldc.o(.text) refers to dadd.o(.text) for __aeabi_dadd
    bldc.o(.text) refers to d2f.o(.text) for __aeabi_d2f
    bldc.o(.text) refers to bldc.o(.bss.buzzerFreq) for buzzerFreq
    bldc.o(.text) refers to bldc.o(.bss.buzzerPattern) for buzzerPattern
    bldc.o(.text) refers to gd32f1x0_gpio.o(.text) for gpio_bit_write
    bldc.o(.text) refers to bldc.o(.data.currentDC) for currentDC
    bldc.o(.text) refers to fcmpgt.o(.text) for __aeabi_fcmpgt
    bldc.o(.text) refers to it.o(.bss.timedOut) for timedOut
    bldc.o(.text) refers to gd32f1x0_timer.o(.text) for timer_automatic_output_enable
    bldc.o(.text) refers to bldc.o(.bss.hall_a) for hall_a
    bldc.o(.text) refers to bldc.o(.bss.hall_b) for hall_b
    bldc.o(.text) refers to bldc.o(.bss.hall_c) for hall_c
    bldc.o(.text) refers to bldc.o(.bss.hall) for hall
    bldc.o(.text) refers to bldc.o(.rodata.hall_to_pos) for hall_to_pos
    bldc.o(.text) refers to bldc.o(.bss.filter_reg) for filter_reg
    bldc.o(.text) refers to bldc.o(.bss.pos) for pos
    bldc.o(.text) refers to bldc.o(.bss.bldc_outputFilterPwm) for bldc_outputFilterPwm
    bldc.o(.text) refers to bldc.o(.bss.buzzerToggle) for buzzerToggle
    bldc.o(.text) refers to bldc.o(.bss.lastPos) for lastPos
    bldc.o(.text) refers to bldc.o(.bss.iOdom) for iOdom
    bldc.o(.text) refers to bldc.o(.bss.speedCounter) for speedCounter
    bldc.o(.text) refers to ffltui.o(.text) for __aeabi_ui2f
    bldc.o(.text) refers to fdiv.o(.text) for __aeabi_fdiv
    bldc.o(.text) refers to bldc.o(.bss.realSpeed) for realSpeed
    bldc.o(.ARM.exidx) refers to bldc.o(.text) for [Anonymous Symbol]
    setup.o(.text) refers to gd32f1x0_gpio.o(.text) for gpio_mode_set
    setup.o(.text) refers to gd32f1x0_misc.o(.text) for nvic_priority_group_set
    setup.o(.text) refers to gd32f1x0_rcu.o(.text) for rcu_flag_get
    setup.o(.text) refers to gd32f1x0_fwdgt.o(.text) for fwdgt_config
    setup.o(.text) refers to gd32f1x0_timer.o(.text) for timer_deinit
    setup.o(.text) refers to setup.o(.bss.timeoutTimer_paramter_struct) for timeoutTimer_paramter_struct
    setup.o(.text) refers to setup.o(.bss.timerBldc_paramter_struct) for timerBldc_paramter_struct
    setup.o(.text) refers to setup.o(.bss.timerBldc_oc_parameter_struct) for timerBldc_oc_parameter_struct
    setup.o(.text) refers to setup.o(.bss.timerBldc_break_parameter_struct) for timerBldc_break_parameter_struct
    setup.o(.text) refers to gd32f1x0_dma.o(.text) for dma_deinit
    setup.o(.text) refers to setup.o(.bss.dma_init_struct_adc) for dma_init_struct_adc
    setup.o(.text) refers to bldc.o(.bss.adc_buffer) for adc_buffer
    setup.o(.text) refers to gd32f1x0_adc.o(.text) for adc_channel_length_config
    setup.o(.text) refers to gd32f1x0_usart.o(.text) for usart_baudrate_set
    setup.o(.text) refers to setup.o(.bss.dma_init_struct_usart) for dma_init_struct_usart
    setup.o(.text) refers to setup.o(.bss.usart1_rx_buf) for usart1_rx_buf
    setup.o(.text) refers to setup.o(.bss.usart0_rx_buf) for usart0_rx_buf
    setup.o(.ARM.exidx) refers to setup.o(.text) for [Anonymous Symbol]
    it.o(.text) refers to it.o(.bss.msTicks) for msTicks
    it.o(.text) refers to it.o(.bss.timeoutCounter_ms) for timeoutCounter_ms
    it.o(.text) refers to it.o(.bss.timedOut) for timedOut
    it.o(.text) refers to main.o(.bss.steer) for steer
    it.o(.text) refers to main.o(.bss.speed) for speed
    it.o(.text) refers to main.o(.data.beepsBackwards) for beepsBackwards
    it.o(.text) refers to gd32f1x0_timer.o(.text) for timer_interrupt_flag_clear
    it.o(.text) refers to gd32f1x0_adc.o(.text) for adc_software_trigger_enable
    it.o(.text) refers to bldc.o(.text) for CalculateBLDC
    it.o(.text) refers to gd32f1x0_dma.o(.text) for dma_interrupt_flag_get
    it.o(.text) refers to remoteuart.o(.text) for RemoteCallback
    it.o(.text) refers to commsmasterslave.o(.text) for UpdateUSARTMasterSlaveInput
    it.o(.ARM.exidx) refers to it.o(.text) for [Anonymous Symbol]
    comms.o(.text) refers to gd32f1x0_usart.o(.text) for usart_data_transmit
    comms.o(.text) refers to gd32f1x0_fmc.o(.text) for fmc_unlock
    comms.o(.ARM.exidx) refers to comms.o(.text) for [Anonymous Symbol]
    remoteuart.o(.text) refers to it.o(.text) for millis
    remoteuart.o(.text) refers to remoteuart.o(.bss.iTimeLastRx) for iTimeLastRx
    remoteuart.o(.text) refers to main.o(.bss.steer) for steer
    remoteuart.o(.text) refers to main.o(.bss.speed) for speed
    remoteuart.o(.text) refers to remoteuart.o(.bss.iTimeNextTx) for iTimeNextTx
    remoteuart.o(.text) refers to bldc.o(.data.batteryVoltage) for batteryVoltage
    remoteuart.o(.text) refers to fmul.o(.text) for __aeabi_fmul
    remoteuart.o(.text) refers to ffixi.o(.text) for __aeabi_f2iz
    remoteuart.o(.text) refers to bldc.o(.data.currentDC) for currentDC
    remoteuart.o(.text) refers to bldc.o(.bss.realSpeed) for realSpeed
    remoteuart.o(.text) refers to bldc.o(.bss.iOdom) for iOdom
    remoteuart.o(.text) refers to main.o(.bss.oDataSlave) for oDataSlave
    remoteuart.o(.text) refers to comms.o(.text) for CalcCRC
    remoteuart.o(.text) refers to setup.o(.bss.usart0_rx_buf) for usart0_rx_buf
    remoteuart.o(.text) refers to remoteuart.o(.bss.iReceivePos) for iReceivePos
    remoteuart.o(.text) refers to remoteuart.o(.bss.aReceiveBuffer) for aReceiveBuffer
    remoteuart.o(.text) refers to main.o(.data.wState) for wState
    remoteuart.o(.text) refers to main.o(.data.wStateSlave) for wStateSlave
    remoteuart.o(.ARM.exidx) refers to remoteuart.o(.text) for [Anonymous Symbol]
    commsmasterslave.o(.text) refers to commsmasterslave.o(.bss.beepsBackwardsMaster) for beepsBackwardsMaster
    commsmasterslave.o(.text) refers to setup.o(.bss.usart1_rx_buf) for usart1_rx_buf
    commsmasterslave.o(.text) refers to commsmasterslave.o(.data.iReceivePos) for iReceivePos
    commsmasterslave.o(.text) refers to commsmasterslave.o(.bss.aReceiveBuffer) for aReceiveBuffer
    commsmasterslave.o(.text) refers to comms.o(.text) for CalcCRC
    commsmasterslave.o(.text) refers to main.o(.bss.oDataSlave) for oDataSlave
    commsmasterslave.o(.text) refers to main.o(.data.wStateSlave) for wStateSlave
    commsmasterslave.o(.ARM.exidx) refers to commsmasterslave.o(.text) for [Anonymous Symbol]
    gd32f1x0_adc.o(.text) refers to gd32f1x0_rcu.o(.text) for rcu_periph_reset_enable
    gd32f1x0_adc.o(.ARM.exidx) refers to gd32f1x0_adc.o(.text) for [Anonymous Symbol]
    gd32f1x0_dbg.o(.ARM.exidx) refers to gd32f1x0_dbg.o(.text) for [Anonymous Symbol]
    gd32f1x0_dma.o(.ARM.exidx) refers to gd32f1x0_dma.o(.text) for [Anonymous Symbol]
    gd32f1x0_fmc.o(.ARM.exidx) refers to gd32f1x0_fmc.o(.text) for [Anonymous Symbol]
    gd32f1x0_fwdgt.o(.ARM.exidx) refers to gd32f1x0_fwdgt.o(.text) for [Anonymous Symbol]
    gd32f1x0_gpio.o(.text) refers to gd32f1x0_gpio.o(.rodata..Lswitch.table.gpio_deinit.1) for .Lswitch.table.gpio_deinit.1
    gd32f1x0_gpio.o(.text) refers to gd32f1x0_rcu.o(.text) for rcu_periph_reset_enable
    gd32f1x0_gpio.o(.ARM.exidx) refers to gd32f1x0_gpio.o(.text) for [Anonymous Symbol]
    gd32f1x0_i2c.o(.text) refers to gd32f1x0_rcu.o(.text) for rcu_periph_reset_enable
    gd32f1x0_i2c.o(.ARM.exidx) refers to gd32f1x0_i2c.o(.text) for [Anonymous Symbol]
    gd32f1x0_misc.o(.ARM.exidx) refers to gd32f1x0_misc.o(.text) for [Anonymous Symbol]
    gd32f1x0_pmu.o(.text) refers to gd32f1x0_rcu.o(.text) for rcu_periph_reset_enable
    gd32f1x0_pmu.o(.text) refers to gd32f1x0_pmu.o(.bss.pmu_to_deepsleepmode.reg_snap.1) for pmu_to_deepsleepmode.reg_snap.1
    gd32f1x0_pmu.o(.text) refers to gd32f1x0_pmu.o(.bss.pmu_to_deepsleepmode.reg_snap.0) for pmu_to_deepsleepmode.reg_snap.0
    gd32f1x0_pmu.o(.text) refers to gd32f1x0_pmu.o(.bss.pmu_to_deepsleepmode.reg_snap.2) for pmu_to_deepsleepmode.reg_snap.2
    gd32f1x0_pmu.o(.text) refers to gd32f1x0_pmu.o(.bss.pmu_to_deepsleepmode.reg_snap.3) for pmu_to_deepsleepmode.reg_snap.3
    gd32f1x0_pmu.o(.ARM.exidx) refers to gd32f1x0_pmu.o(.text) for [Anonymous Symbol]
    gd32f1x0_rcu.o(.text) refers to gd32f1x0_rcu.o(.rodata.cst8) for .L__const.rcu_clock_freq_get.apb2_exp
    gd32f1x0_rcu.o(.ARM.exidx) refers to gd32f1x0_rcu.o(.text) for [Anonymous Symbol]
    gd32f1x0_syscfg.o(.text) refers to gd32f1x0_rcu.o(.text) for rcu_periph_reset_enable
    gd32f1x0_syscfg.o(.ARM.exidx) refers to gd32f1x0_syscfg.o(.text) for [Anonymous Symbol]
    gd32f1x0_timer.o(.text) refers to gd32f1x0_rcu.o(.text) for rcu_periph_reset_enable
    gd32f1x0_timer.o(.ARM.exidx) refers to gd32f1x0_timer.o(.text) for [Anonymous Symbol]
    gd32f1x0_usart.o(.text) refers to gd32f1x0_rcu.o(.text) for rcu_periph_reset_enable
    gd32f1x0_usart.o(.ARM.exidx) refers to gd32f1x0_usart.o(.text) for [Anonymous Symbol]
    gd32f1x0_wwdgt.o(.text) refers to gd32f1x0_rcu.o(.text) for rcu_periph_reset_enable
    gd32f1x0_wwdgt.o(.ARM.exidx) refers to gd32f1x0_wwdgt.o(.text) for [Anonymous Symbol]
    startup_gd32f1x0.o(RESET) refers to startup_gd32f1x0.o(STACK) for __initial_sp
    startup_gd32f1x0.o(RESET) refers to startup_gd32f1x0.o(.text) for Reset_Handler
    startup_gd32f1x0.o(RESET) refers to it.o(.text) for NMI_Handler
    startup_gd32f1x0.o(.text) refers to system_gd32f1x0.o(.text) for SystemInit
    startup_gd32f1x0.o(.text) refers to entry.o(.ARM.Collect$$$$00000000) for __main
    system_gd32f1x0.o(.text) refers to system_gd32f1x0.o(.data.SystemCoreClock) for SystemCoreClock
    system_gd32f1x0.o(.ARM.exidx) refers to system_gd32f1x0.o(.text) for [Anonymous Symbol]
    entry.o(.ARM.Collect$$$$00000000) refers (Special) to entry10a.o(.ARM.Collect$$$$0000000D) for __rt_final_cpp
    entry.o(.ARM.Collect$$$$00000000) refers (Special) to entry11a.o(.ARM.Collect$$$$0000000F) for __rt_final_exit
    entry.o(.ARM.Collect$$$$00000000) refers (Special) to entry7b.o(.ARM.Collect$$$$00000008) for _main_clock
    entry.o(.ARM.Collect$$$$00000000) refers (Special) to entry8b.o(.ARM.Collect$$$$0000000A) for _main_cpp_init
    entry.o(.ARM.Collect$$$$00000000) refers (Special) to entry9a.o(.ARM.Collect$$$$0000000B) for _main_init
    entry.o(.ARM.Collect$$$$00000000) refers (Special) to entry5.o(.ARM.Collect$$$$00000004) for _main_scatterload
    entry.o(.ARM.Collect$$$$00000000) refers (Special) to entry2.o(.ARM.Collect$$$$00000001) for _main_stk
    fadd.o(.text) refers (Special) to iusefp.o(.text) for __I$use$fp
    fadd.o(.text) refers to fepilogue.o(.text) for _float_epilogue
    fmul.o(.text) refers (Special) to iusefp.o(.text) for __I$use$fp
    fdiv.o(.text) refers (Special) to iusefp.o(.text) for __I$use$fp
    fdiv.o(.text) refers to fepilogue.o(.text) for _float_round
    dadd.o(.text) refers (Special) to iusefp.o(.text) for __I$use$fp
    dadd.o(.text) refers to llshl.o(.text) for __aeabi_llsl
    dadd.o(.text) refers to llsshr.o(.text) for __aeabi_lasr
    dadd.o(.text) refers to depilogue.o(.text) for _double_epilogue
    dmul.o(.text) refers (Special) to iusefp.o(.text) for __I$use$fp
    dmul.o(.text) refers to depilogue.o(.text) for _double_epilogue
    ddiv.o(.text) refers (Special) to iusefp.o(.text) for __I$use$fp
    ddiv.o(.text) refers to depilogue.o(.text) for _double_round
    fcmple.o(.text) refers (Special) to iusefp.o(.text) for __I$use$fp
    fcmplt.o(.text) refers (Special) to iusefp.o(.text) for __I$use$fp
    fcmpge.o(.text) refers (Special) to iusefp.o(.text) for __I$use$fp
    fcmpgt.o(.text) refers (Special) to iusefp.o(.text) for __I$use$fp
    fflti.o(.text) refers (Special) to iusefp.o(.text) for __I$use$fp
    fflti.o(.text) refers to fepilogue.o(.text) for _float_epilogue
    ffltui.o(.text) refers (Special) to iusefp.o(.text) for __I$use$fp
    ffltui.o(.text) refers to fepilogue.o(.text) for _float_epilogue
    dflti.o(.text) refers (Special) to iusefp.o(.text) for __I$use$fp
    dflti.o(.text) refers to depilogue.o(.text) for _double_epilogue
    dfltui.o(.text) refers (Special) to iusefp.o(.text) for __I$use$fp
    dfltui.o(.text) refers to depilogue.o(.text) for _double_epilogue
    ffixi.o(.text) refers (Special) to iusefp.o(.text) for __I$use$fp
    dfixi.o(.text) refers (Special) to iusefp.o(.text) for __I$use$fp
    dfixi.o(.text) refers to llushr.o(.text) for __aeabi_llsr
    f2d.o(.text) refers (Special) to iusefp.o(.text) for __I$use$fp
    d2f.o(.text) refers (Special) to iusefp.o(.text) for __I$use$fp
    d2f.o(.text) refers to fepilogue.o(.text) for _float_round
    entry2.o(.ARM.Collect$$$$00000001) refers to entry2.o(.ARM.Collect$$$$00002712) for __lit__00000000
    entry2.o(.ARM.Collect$$$$00002712) refers to startup_gd32f1x0.o(STACK) for __initial_sp
    entry2.o(__vectab_stack_and_reset_area) refers to startup_gd32f1x0.o(STACK) for __initial_sp
    entry2.o(__vectab_stack_and_reset_area) refers to entry.o(.ARM.Collect$$$$00000000) for __main
    entry5.o(.ARM.Collect$$$$00000004) refers to init.o(.text) for __scatterload
    entry9a.o(.ARM.Collect$$$$0000000B) refers to main.o(.text) for main
    entry9b.o(.ARM.Collect$$$$0000000C) refers to main.o(.text) for main
    fepilogue.o(.text) refers (Special) to iusefp.o(.text) for __I$use$fp
    depilogue.o(.text) refers (Special) to iusefp.o(.text) for __I$use$fp
    depilogue.o(.text) refers to llshl.o(.text) for __aeabi_llsl
    depilogue.o(.text) refers to llushr.o(.text) for __aeabi_llsr
    init.o(.text) refers to entry5.o(.ARM.Collect$$$$00000004) for __main_after_scatterload


==============================================================================

Removing Unused input sections from the image.

    Removing main.o(.ARM.exidx), (32 bytes).
    Removing main.o(.bss.activateWeakening), (1 bytes).
    Removing main.o(.bss.slaveError), (1 bytes).
    Removing main.o(.ARM.use_no_argv), (4 bytes).
    Removing bldc.o(.ARM.exidx), (40 bytes).
    Removing setup.o(.ARM.exidx), (80 bytes).
    Removing it.o(.ARM.exidx), (136 bytes).
    Removing it.o(.bss.iUartCounter), (2 bytes).
    Removing led.o(.text), (0 bytes).
    Removing comms.o(.ARM.exidx), (56 bytes).
    Removing remoteuart.o(.ARM.exidx), (16 bytes).
    Removing remoteuart.o(.bss.aiDebug), (14 bytes).
    Removing remotecrsf.o(.text), (0 bytes).
    Removing remotedummy.o(.text), (0 bytes).
    Removing remoteuartbus.o(.text), (0 bytes).
    Removing commsmasterslave.o(.ARM.exidx), (40 bytes).
    Removing commsmasterslave.o(.bss.mosfetOutMaster), (1 bytes).
    Removing remoteautodetect.o(.text), (0 bytes).
    Removing gd32f1x0_adc.o(.ARM.exidx), (256 bytes).
    Removing gd32f1x0_dbg.o(.text), (128 bytes).
    Removing gd32f1x0_dbg.o(.ARM.exidx), (48 bytes).
    Removing gd32f1x0_dma.o(.ARM.exidx), (216 bytes).
    Removing gd32f1x0_fmc.o(.ARM.exidx), (216 bytes).
    Removing gd32f1x0_fwdgt.o(.ARM.exidx), (48 bytes).
    Removing gd32f1x0_gpio.o(.ARM.exidx), (104 bytes).
    Removing gd32f1x0_i2c.o(.text), (810 bytes).
    Removing gd32f1x0_i2c.o(.ARM.exidx), (248 bytes).
    Removing gd32f1x0_misc.o(.ARM.exidx), (56 bytes).
    Removing gd32f1x0_opa.o(.text), (0 bytes).
    Removing gd32f1x0_pmu.o(.text), (490 bytes).
    Removing gd32f1x0_pmu.o(.ARM.exidx), (96 bytes).
    Removing gd32f1x0_pmu.o(.bss.pmu_to_deepsleepmode.reg_snap.0), (4 bytes).
    Removing gd32f1x0_pmu.o(.bss.pmu_to_deepsleepmode.reg_snap.1), (4 bytes).
    Removing gd32f1x0_pmu.o(.bss.pmu_to_deepsleepmode.reg_snap.2), (4 bytes).
    Removing gd32f1x0_pmu.o(.bss.pmu_to_deepsleepmode.reg_snap.3), (4 bytes).
    Removing gd32f1x0_rcu.o(.ARM.exidx), (336 bytes).
    Removing gd32f1x0_syscfg.o(.text), (254 bytes).
    Removing gd32f1x0_syscfg.o(.ARM.exidx), (72 bytes).
    Removing gd32f1x0_timer.o(.ARM.exidx), (568 bytes).
    Removing gd32f1x0_usart.o(.ARM.exidx), (544 bytes).
    Removing gd32f1x0_wwdgt.o(.text), (170 bytes).
    Removing gd32f1x0_wwdgt.o(.ARM.exidx), (56 bytes).
    Removing startup_gd32f1x0.o(HEAP), (1024 bytes).
    Removing system_gd32f1x0.o(.ARM.exidx), (16 bytes).

44 unused section(s) (total 6195 bytes) removed from the image.

==============================================================================

Image Symbol Table

    Local Symbols

    Symbol Name                              Value     Ov Type        Size  Object(Section)

    ../clib/microlib/init/entry.s            0x00000000   Number         0  entry.o ABSOLUTE
    ../clib/microlib/init/entry.s            0x00000000   Number         0  entry2.o ABSOLUTE
    ../clib/microlib/init/entry.s            0x00000000   Number         0  entry5.o ABSOLUTE
    ../clib/microlib/init/entry.s            0x00000000   Number         0  entry7a.o ABSOLUTE
    ../clib/microlib/init/entry.s            0x00000000   Number         0  entry7b.o ABSOLUTE
    ../clib/microlib/init/entry.s            0x00000000   Number         0  entry8a.o ABSOLUTE
    ../clib/microlib/init/entry.s            0x00000000   Number         0  entry8b.o ABSOLUTE
    ../clib/microlib/init/entry.s            0x00000000   Number         0  entry9a.o ABSOLUTE
    ../clib/microlib/init/entry.s            0x00000000   Number         0  entry9b.o ABSOLUTE
    ../clib/microlib/init/entry.s            0x00000000   Number         0  entry10a.o ABSOLUTE
    ../clib/microlib/init/entry.s            0x00000000   Number         0  entry10b.o ABSOLUTE
    ../clib/microlib/init/entry.s            0x00000000   Number         0  entry11a.o ABSOLUTE
    ../clib/microlib/init/entry.s            0x00000000   Number         0  entry11b.o ABSOLUTE
    ../clib/microlib/longlong.c              0x00000000   Number         0  llshl.o ABSOLUTE
    ../clib/microlib/longlong.c              0x00000000   Number         0  llushr.o ABSOLUTE
    ../clib/microlib/longlong.c              0x00000000   Number         0  llsshr.o ABSOLUTE
    ../clib/microlib/stubs.s                 0x00000000   Number         0  iusefp.o ABSOLUTE
    ../fplib/microlib/d2f.c                  0x00000000   Number         0  d2f.o ABSOLUTE
    ../fplib/microlib/f2d.c                  0x00000000   Number         0  f2d.o ABSOLUTE
    ../fplib/microlib/fpadd.c                0x00000000   Number         0  fadd.o ABSOLUTE
    ../fplib/microlib/fpadd.c                0x00000000   Number         0  dadd.o ABSOLUTE
    ../fplib/microlib/fpcmp.c                0x00000000   Number         0  fcmple.o ABSOLUTE
    ../fplib/microlib/fpcmp.c                0x00000000   Number         0  fcmplt.o ABSOLUTE
    ../fplib/microlib/fpcmp.c                0x00000000   Number         0  fcmpge.o ABSOLUTE
    ../fplib/microlib/fpcmp.c                0x00000000   Number         0  fcmpgt.o ABSOLUTE
    ../fplib/microlib/fpdiv.c                0x00000000   Number         0  fdiv.o ABSOLUTE
    ../fplib/microlib/fpdiv.c                0x00000000   Number         0  ddiv.o ABSOLUTE
    ../fplib/microlib/fpepilogue.c           0x00000000   Number         0  fepilogue.o ABSOLUTE
    ../fplib/microlib/fpepilogue.c           0x00000000   Number         0  depilogue.o ABSOLUTE
    ../fplib/microlib/fpfix.c                0x00000000   Number         0  ffixi.o ABSOLUTE
    ../fplib/microlib/fpfix.c                0x00000000   Number         0  dfixi.o ABSOLUTE
    ../fplib/microlib/fpflt.c                0x00000000   Number         0  fflti.o ABSOLUTE
    ../fplib/microlib/fpflt.c                0x00000000   Number         0  ffltui.o ABSOLUTE
    ../fplib/microlib/fpflt.c                0x00000000   Number         0  dflti.o ABSOLUTE
    ../fplib/microlib/fpflt.c                0x00000000   Number         0  dfltui.o ABSOLUTE
    ../fplib/microlib/fpmul.c                0x00000000   Number         0  fmul.o ABSOLUTE
    ../fplib/microlib/fpmul.c                0x00000000   Number         0  dmul.o ABSOLUTE
    RTE/Device/GD32F130C8/startup_gd32f1x0.s 0x00000000   Number         0  startup_gd32f1x0.o ABSOLUTE
    RemoteAutodetect.c                       0x00000000   Number         0  remoteautodetect.o ABSOLUTE
    bldc.c                                   0x00000000   Number         0  bldc.o ABSOLUTE
    comms.c                                  0x00000000   Number         0  comms.o ABSOLUTE
    commsMasterSlave.c                       0x00000000   Number         0  commsmasterslave.o ABSOLUTE
    dc.s                                     0x00000000   Number         0  dc.o ABSOLUTE
    gd32f1x0_adc.c                           0x00000000   Number         0  gd32f1x0_adc.o ABSOLUTE
    gd32f1x0_dbg.c                           0x00000000   Number         0  gd32f1x0_dbg.o ABSOLUTE
    gd32f1x0_dma.c                           0x00000000   Number         0  gd32f1x0_dma.o ABSOLUTE
    gd32f1x0_fmc.c                           0x00000000   Number         0  gd32f1x0_fmc.o ABSOLUTE
    gd32f1x0_fwdgt.c                         0x00000000   Number         0  gd32f1x0_fwdgt.o ABSOLUTE
    gd32f1x0_gpio.c                          0x00000000   Number         0  gd32f1x0_gpio.o ABSOLUTE
    gd32f1x0_i2c.c                           0x00000000   Number         0  gd32f1x0_i2c.o ABSOLUTE
    gd32f1x0_misc.c                          0x00000000   Number         0  gd32f1x0_misc.o ABSOLUTE
    gd32f1x0_opa.c                           0x00000000   Number         0  gd32f1x0_opa.o ABSOLUTE
    gd32f1x0_pmu.c                           0x00000000   Number         0  gd32f1x0_pmu.o ABSOLUTE
    gd32f1x0_rcu.c                           0x00000000   Number         0  gd32f1x0_rcu.o ABSOLUTE
    gd32f1x0_syscfg.c                        0x00000000   Number         0  gd32f1x0_syscfg.o ABSOLUTE
    gd32f1x0_timer.c                         0x00000000   Number         0  gd32f1x0_timer.o ABSOLUTE
    gd32f1x0_usart.c                         0x00000000   Number         0  gd32f1x0_usart.o ABSOLUTE
    gd32f1x0_wwdgt.c                         0x00000000   Number         0  gd32f1x0_wwdgt.o ABSOLUTE
    handlers.s                               0x00000000   Number         0  handlers.o ABSOLUTE
    init.s                                   0x00000000   Number         0  init.o ABSOLUTE
    it.c                                     0x00000000   Number         0  it.o ABSOLUTE
    led.c                                    0x00000000   Number         0  led.o ABSOLUTE
    main.c                                   0x00000000   Number         0  main.o ABSOLUTE
    remoteCrsf.c                             0x00000000   Number         0  remotecrsf.o ABSOLUTE
    remoteDummy.c                            0x00000000   Number         0  remotedummy.o ABSOLUTE
    remoteUart.c                             0x00000000   Number         0  remoteuart.o ABSOLUTE
    remoteUartBus.c                          0x00000000   Number         0  remoteuartbus.o ABSOLUTE
    setup.c                                  0x00000000   Number         0  setup.o ABSOLUTE
    system_gd32f1x0.c                        0x00000000   Number         0  system_gd32f1x0.o ABSOLUTE
    RESET                                    0x08000000   Section      360  startup_gd32f1x0.o(RESET)
    .ARM.Collect$$$$00000000                 0x08000168   Section        0  entry.o(.ARM.Collect$$$$00000000)
    .ARM.Collect$$$$00000001                 0x08000168   Section        4  entry2.o(.ARM.Collect$$$$00000001)
    .ARM.Collect$$$$00000004                 0x0800016c   Section        4  entry5.o(.ARM.Collect$$$$00000004)
    .ARM.Collect$$$$00000008                 0x08000170   Section        0  entry7b.o(.ARM.Collect$$$$00000008)
    .ARM.Collect$$$$0000000A                 0x08000170   Section        0  entry8b.o(.ARM.Collect$$$$0000000A)
    .ARM.Collect$$$$0000000B                 0x08000170   Section        8  entry9a.o(.ARM.Collect$$$$0000000B)
    __lit__00000000                          0x08000178   Data           4  entry2.o(.ARM.Collect$$$$00002712)
    .ARM.Collect$$$$0000000D                 0x08000178   Section        0  entry10a.o(.ARM.Collect$$$$0000000D)
    .ARM.Collect$$$$0000000F                 0x08000178   Section        0  entry11a.o(.ARM.Collect$$$$0000000F)
    .ARM.Collect$$$$00002712                 0x08000178   Section        4  entry2.o(.ARM.Collect$$$$00002712)
    [Anonymous Symbol]                       0x0800017c   Section        0  main.o(.text)
    [Anonymous Symbol]                       0x080007e0   Section        0  bldc.o(.text)
    [Anonymous Symbol]                       0x08000c40   Section        0  setup.o(.text)
    [Anonymous Symbol]                       0x080014ac   Section        0  it.o(.text)
    [Anonymous Symbol]                       0x080015f0   Section        0  comms.o(.text)
    [Anonymous Symbol]                       0x08001700   Section        0  remoteuart.o(.text)
    [Anonymous Symbol]                       0x0800189c   Section        0  commsmasterslave.o(.text)
    [Anonymous Symbol]                       0x08001998   Section        0  gd32f1x0_adc.o(.text)
    [Anonymous Symbol]                       0x08001f40   Section        0  gd32f1x0_dma.o(.text)
    [Anonymous Symbol]                       0x0800228c   Section        0  gd32f1x0_fmc.o(.text)
    [Anonymous Symbol]                       0x08002c60   Section        0  gd32f1x0_fwdgt.o(.text)
    [Anonymous Symbol]                       0x08002d3c   Section        0  gd32f1x0_gpio.o(.text)
    [Anonymous Symbol]                       0x08002ed4   Section        0  gd32f1x0_misc.o(.text)
    [Anonymous Symbol]                       0x08003004   Section        0  gd32f1x0_rcu.o(.text)
    [Anonymous Symbol]                       0x08003734   Section        0  gd32f1x0_timer.o(.text)
    [Anonymous Symbol]                       0x08004494   Section        0  gd32f1x0_usart.o(.text)
    .text                                    0x08004ad4   Section       36  startup_gd32f1x0.o(.text)
    [Anonymous Symbol]                       0x08004af8   Section        0  system_gd32f1x0.o(.text)
    .text                                    0x08004c34   Section        0  fadd.o(.text)
    .text                                    0x08004ce4   Section        0  fmul.o(.text)
    .text                                    0x08004d48   Section        0  fdiv.o(.text)
    .text                                    0x08004dc4   Section        0  dadd.o(.text)
    .text                                    0x08004f12   Section        0  dmul.o(.text)
    .text                                    0x08004ff6   Section        0  ddiv.o(.text)
    .text                                    0x080050d4   Section        0  fcmple.o(.text)
    .text                                    0x080050f0   Section        0  fcmplt.o(.text)
    .text                                    0x0800510c   Section        0  fcmpge.o(.text)
    .text                                    0x08005128   Section        0  fcmpgt.o(.text)
    .text                                    0x08005144   Section        0  fflti.o(.text)
    .text                                    0x08005156   Section        0  ffltui.o(.text)
    .text                                    0x08005160   Section        0  dflti.o(.text)
    .text                                    0x08005182   Section        0  dfltui.o(.text)
    .text                                    0x0800519c   Section        0  ffixi.o(.text)
    .text                                    0x080051ce   Section        0  dfixi.o(.text)
    .text                                    0x0800520c   Section        0  f2d.o(.text)
    .text                                    0x08005232   Section        0  d2f.o(.text)
    .text                                    0x0800526a   Section        0  llshl.o(.text)
    .text                                    0x08005288   Section        0  llushr.o(.text)
    .text                                    0x080052a8   Section        0  llsshr.o(.text)
    .text                                    0x080052cc   Section        0  iusefp.o(.text)
    .text                                    0x080052cc   Section        0  fepilogue.o(.text)
    .text                                    0x0800533a   Section        0  depilogue.o(.text)
    .text                                    0x080053f4   Section       36  init.o(.text)
    i.__scatterload_copy                     0x08005418   Section       14  handlers.o(i.__scatterload_copy)
    i.__scatterload_null                     0x08005426   Section        2  handlers.o(i.__scatterload_null)
    i.__scatterload_zeroinit                 0x08005428   Section       14  handlers.o(i.__scatterload_zeroinit)
    .L__const.up_or_down.up_down             0x08005436   Data          12  bldc.o(.rodata..L__const.up_or_down.up_down)
    .Lswitch.table.gpio_deinit.1             0x08005442   Data          12  gd32f1x0_gpio.o(.rodata..Lswitch.table.gpio_deinit.1)
    .L__const.rcu_clock_freq_get.apb2_exp    0x0800544e   Data           8  gd32f1x0_rcu.o(.rodata.cst8)
    iReceivePos                              0x20000010   Data           2  commsmasterslave.o(.data.iReceivePos)
    aReceiveBuffer                           0x20000018   Data           9  remoteuart.o(.bss.aReceiveBuffer)
    aReceiveBuffer                           0x20000021   Data          16  commsmasterslave.o(.bss.aReceiveBuffer)
    iReceivePos                              0x2000009c   Data           2  remoteuart.o(.bss.iReceivePos)
    STACK                                    0x20000138   Section     1024  startup_gd32f1x0.o(STACK)

    Global Symbols

    Symbol Name                              Value     Ov Type        Size  Object(Section)

    BuildAttributes$$THM_ISAv4$P$D$K$B$S$PE$A:L22UL41UL21$X:L11$S22US41US21$IEEE1$IW$~IW$USESV6$~STKCKD$USESV7$~SHL$OTIME$ROPI$EBA8$MICROLIB$REQ8$PRES8$EABIv2 0x00000000   Number         0  anon$$obj.o ABSOLUTE
    __cpp_initialize__aeabi_                  - Undefined Weak Reference
    __cxa_finalize                            - Undefined Weak Reference
    __decompress                              - Undefined Weak Reference
    _clock_init                               - Undefined Weak Reference
    _microlib_exit                            - Undefined Weak Reference
    __Vectors_Size                           0x00000168   Number         0  startup_gd32f1x0.o ABSOLUTE
    __Vectors                                0x08000000   Data           4  startup_gd32f1x0.o(RESET)
    __Vectors_End                            0x08000168   Data           0  startup_gd32f1x0.o(RESET)
    __main                                   0x08000169   Thumb Code     0  entry.o(.ARM.Collect$$$$00000000)
    _main_stk                                0x08000169   Thumb Code     0  entry2.o(.ARM.Collect$$$$00000001)
    _main_scatterload                        0x0800016d   Thumb Code     0  entry5.o(.ARM.Collect$$$$00000004)
    __main_after_scatterload                 0x08000171   Thumb Code     0  entry5.o(.ARM.Collect$$$$00000004)
    _main_clock                              0x08000171   Thumb Code     0  entry7b.o(.ARM.Collect$$$$00000008)
    _main_cpp_init                           0x08000171   Thumb Code     0  entry8b.o(.ARM.Collect$$$$0000000A)
    _main_init                               0x08000171   Thumb Code     0  entry9a.o(.ARM.Collect$$$$0000000B)
    __rt_final_cpp                           0x08000179   Thumb Code     0  entry10a.o(.ARM.Collect$$$$0000000D)
    __rt_final_exit                          0x08000179   Thumb Code     0  entry11a.o(.ARM.Collect$$$$0000000F)
    main                                     0x0800017d   Thumb Code  1388  main.o(.text)
    ShowBatteryState                         0x080006e9   Thumb Code    86  main.o(.text)
    BeepsBackwards                           0x08000741   Thumb Code    60  main.o(.text)
    ShutOff                                  0x0800077d   Thumb Code    98  main.o(.text)
    modulo                                   0x080007e1   Thumb Code    22  bldc.o(.text)
    up_or_down                               0x080007f9   Thumb Code    60  bldc.o(.text)
    SetEnable                                0x08000835   Thumb Code    12  bldc.o(.text)
    SetPWM                                   0x08000841   Thumb Code    74  bldc.o(.text)
    CalculateBLDC                            0x0800088d   Thumb Code   946  bldc.o(.text)
    pinMode                                  0x08000c41   Thumb Code    42  setup.o(.text)
    pinModePull                              0x08000c6d   Thumb Code    40  setup.o(.text)
    Interrupt_init                           0x08000c95   Thumb Code     8  setup.o(.text)
    Watchdog_init                            0x08000c9d   Thumb Code    56  setup.o(.text)
    TimeoutTimer_init                        0x08000cd5   Thumb Code    92  setup.o(.text)
    GPIO_init                                0x08000d31   Thumb Code   740  setup.o(.text)
    PWM_init                                 0x08001015   Thumb Code   368  setup.o(.text)
    ADC_init                                 0x08001185   Thumb Code   234  setup.o(.text)
    USART1_Init                              0x08001271   Thumb Code   288  setup.o(.text)
    USART0_Init                              0x08001391   Thumb Code   284  setup.o(.text)
    SysTick_Handler                          0x080014ad   Thumb Code    16  it.o(.text)
    ResetTimeout                             0x080014bd   Thumb Code    14  it.o(.text)
    TIMER13_IRQHandler                       0x080014cd   Thumb Code    96  it.o(.text)
    TIMER0_BRK_UP_TRG_COM_IRQHandler         0x0800152d   Thumb Code    26  it.o(.text)
    DMA_Channel0_IRQHandler                  0x08001549   Thumb Code    32  it.o(.text)
    DMA_Channel1_2_IRQHandler                0x08001569   Thumb Code    32  it.o(.text)
    DMA_Channel3_4_IRQHandler                0x08001589   Thumb Code    32  it.o(.text)
    millis                                   0x080015a9   Thumb Code    12  it.o(.text)
    Delay                                    0x080015b5   Thumb Code    28  it.o(.text)
    NMI_Handler                              0x080015d1   Thumb Code     2  it.o(.text)
    HardFault_Handler                        0x080015d5   Thumb Code     2  it.o(.text)
    MemManage_Handler                        0x080015d9   Thumb Code     2  it.o(.text)
    BusFault_Handler                         0x080015dd   Thumb Code     2  it.o(.text)
    UsageFault_Handler                       0x080015e1   Thumb Code     2  it.o(.text)
    SVC_Handler                              0x080015e5   Thumb Code     2  it.o(.text)
    DebugMon_Handler                         0x080015e9   Thumb Code     2  it.o(.text)
    PendSV_Handler                           0x080015ed   Thumb Code     2  it.o(.text)
    SendBuffer                               0x080015f1   Thumb Code    48  comms.o(.text)
    CalcCRC                                  0x08001621   Thumb Code    60  comms.o(.text)
    flashErase                               0x0800165d   Thumb Code    28  comms.o(.text)
    flashRead                                0x08001679   Thumb Code     4  comms.o(.text)
    flashWrite                               0x0800167d   Thumb Code    38  comms.o(.text)
    flashWriteBuffer                         0x080016a5   Thumb Code    64  comms.o(.text)
    flashReadBuffer                          0x080016e5   Thumb Code    26  comms.o(.text)
    RemoteUpdate                             0x08001701   Thumb Code   254  remoteuart.o(.text)
    RemoteCallback                           0x08001801   Thumb Code   156  remoteuart.o(.text)
    SetBeepsBackwardsMaster                  0x0800189d   Thumb Code    12  commsmasterslave.o(.text)
    GetBeepsBackwardsMaster                  0x080018a9   Thumb Code    12  commsmasterslave.o(.text)
    UpdateUSARTMasterSlaveInput              0x080018b5   Thumb Code   108  commsmasterslave.o(.text)
    ProessReceived                           0x08001921   Thumb Code    32  commsmasterslave.o(.text)
    SendSlave                                0x08001941   Thumb Code    88  commsmasterslave.o(.text)
    adc_deinit                               0x08001999   Thumb Code    22  gd32f1x0_adc.o(.text)
    adc_enable                               0x080019b1   Thumb Code    26  gd32f1x0_adc.o(.text)
    adc_disable                              0x080019cd   Thumb Code    18  gd32f1x0_adc.o(.text)
    adc_calibration_enable                   0x080019e1   Thumb Code    40  gd32f1x0_adc.o(.text)
    adc_dma_mode_enable                      0x08001a09   Thumb Code    18  gd32f1x0_adc.o(.text)
    adc_dma_mode_disable                     0x08001a1d   Thumb Code    18  gd32f1x0_adc.o(.text)
    adc_tempsensor_vrefint_enable            0x08001a31   Thumb Code    18  gd32f1x0_adc.o(.text)
    adc_tempsensor_vrefint_disable           0x08001a45   Thumb Code    18  gd32f1x0_adc.o(.text)
    adc_vbat_enable                          0x08001a59   Thumb Code    18  gd32f1x0_adc.o(.text)
    adc_vbat_disable                         0x08001a6d   Thumb Code    18  gd32f1x0_adc.o(.text)
    adc_discontinuous_mode_config            0x08001a81   Thumb Code    68  gd32f1x0_adc.o(.text)
    adc_special_function_config              0x08001ac5   Thumb Code   100  gd32f1x0_adc.o(.text)
    adc_data_alignment_config                0x08001b29   Thumb Code    26  gd32f1x0_adc.o(.text)
    adc_channel_length_config                0x08001b45   Thumb Code    82  gd32f1x0_adc.o(.text)
    adc_regular_channel_config               0x08001b99   Thumb Code   180  gd32f1x0_adc.o(.text)
    adc_inserted_channel_config              0x08001c4d   Thumb Code   114  gd32f1x0_adc.o(.text)
    adc_inserted_channel_offset_config       0x08001cc1   Thumb Code    32  gd32f1x0_adc.o(.text)
    adc_external_trigger_config              0x08001ce1   Thumb Code    72  gd32f1x0_adc.o(.text)
    adc_external_trigger_source_config       0x08001d29   Thumb Code    42  gd32f1x0_adc.o(.text)
    adc_software_trigger_enable              0x08001d55   Thumb Code    36  gd32f1x0_adc.o(.text)
    adc_regular_data_read                    0x08001d79   Thumb Code    14  gd32f1x0_adc.o(.text)
    adc_inserted_data_read                   0x08001d89   Thumb Code    74  gd32f1x0_adc.o(.text)
    adc_flag_get                             0x08001dd5   Thumb Code    18  gd32f1x0_adc.o(.text)
    adc_flag_clear                           0x08001de9   Thumb Code    18  gd32f1x0_adc.o(.text)
    adc_interrupt_flag_get                   0x08001dfd   Thumb Code    56  gd32f1x0_adc.o(.text)
    adc_interrupt_flag_clear                 0x08001e35   Thumb Code    18  gd32f1x0_adc.o(.text)
    adc_interrupt_enable                     0x08001e49   Thumb Code    48  gd32f1x0_adc.o(.text)
    adc_interrupt_disable                    0x08001e79   Thumb Code    48  gd32f1x0_adc.o(.text)
    adc_watchdog_single_channel_enable       0x08001ea9   Thumb Code    42  gd32f1x0_adc.o(.text)
    adc_watchdog_group_channel_enable        0x08001ed5   Thumb Code    48  gd32f1x0_adc.o(.text)
    adc_watchdog_disable                     0x08001f11   Thumb Code    24  gd32f1x0_adc.o(.text)
    adc_watchdog_threshold_config            0x08001f29   Thumb Code    22  gd32f1x0_adc.o(.text)
    dma_deinit                               0x08001f41   Thumb Code    48  gd32f1x0_dma.o(.text)
    dma_struct_para_init                     0x08001f71   Thumb Code    24  gd32f1x0_dma.o(.text)
    dma_init                                 0x08001f89   Thumb Code   122  gd32f1x0_dma.o(.text)
    dma_circulation_enable                   0x08002005   Thumb Code    24  gd32f1x0_dma.o(.text)
    dma_circulation_disable                  0x0800201d   Thumb Code    24  gd32f1x0_dma.o(.text)
    dma_memory_to_memory_enable              0x08002035   Thumb Code    24  gd32f1x0_dma.o(.text)
    dma_memory_to_memory_disable             0x0800204d   Thumb Code    24  gd32f1x0_dma.o(.text)
    dma_channel_enable                       0x08002065   Thumb Code    24  gd32f1x0_dma.o(.text)
    dma_channel_disable                      0x0800207d   Thumb Code    24  gd32f1x0_dma.o(.text)
    dma_periph_address_config                0x08002095   Thumb Code    16  gd32f1x0_dma.o(.text)
    dma_memory_address_config                0x080020a5   Thumb Code    16  gd32f1x0_dma.o(.text)
    dma_transfer_number_config               0x080020b5   Thumb Code    16  gd32f1x0_dma.o(.text)
    dma_transfer_number_get                  0x080020c5   Thumb Code    16  gd32f1x0_dma.o(.text)
    dma_priority_config                      0x080020d5   Thumb Code    26  gd32f1x0_dma.o(.text)
    dma_memory_width_config                  0x080020f1   Thumb Code    26  gd32f1x0_dma.o(.text)
    dma_periph_width_config                  0x0800210d   Thumb Code    26  gd32f1x0_dma.o(.text)
    dma_memory_increase_enable               0x08002129   Thumb Code    24  gd32f1x0_dma.o(.text)
    dma_memory_increase_disable              0x08002141   Thumb Code    24  gd32f1x0_dma.o(.text)
    dma_periph_increase_enable               0x08002159   Thumb Code    24  gd32f1x0_dma.o(.text)
    dma_periph_increase_disable              0x08002171   Thumb Code    24  gd32f1x0_dma.o(.text)
    dma_transfer_direction_config            0x08002189   Thumb Code    30  gd32f1x0_dma.o(.text)
    dma_interrupt_flag_get                   0x080021a9   Thumb Code   116  gd32f1x0_dma.o(.text)
    dma_interrupt_flag_clear                 0x0800221d   Thumb Code    20  gd32f1x0_dma.o(.text)
    dma_interrupt_enable                     0x08002231   Thumb Code    22  gd32f1x0_dma.o(.text)
    dma_interrupt_disable                    0x08002249   Thumb Code    24  gd32f1x0_dma.o(.text)
    dma_flag_get                             0x08002261   Thumb Code    22  gd32f1x0_dma.o(.text)
    dma_flag_clear                           0x08002279   Thumb Code    20  gd32f1x0_dma.o(.text)
    fmc_unlock                               0x0800228d   Thumb Code    38  gd32f1x0_fmc.o(.text)
    fmc_lock                                 0x080022b5   Thumb Code    18  gd32f1x0_fmc.o(.text)
    fmc_wscnt_set                            0x080022c9   Thumb Code    20  gd32f1x0_fmc.o(.text)
    fmc_wait_state_enable                    0x080022dd   Thumb Code    18  gd32f1x0_fmc.o(.text)
    fmc_wait_state_disable                   0x080022f1   Thumb Code    18  gd32f1x0_fmc.o(.text)
    fmc_page_erase                           0x08002305   Thumb Code   158  gd32f1x0_fmc.o(.text)
    fmc_mass_erase                           0x080023a5   Thumb Code   150  gd32f1x0_fmc.o(.text)
    fmc_word_program                         0x0800243d   Thumb Code   150  gd32f1x0_fmc.o(.text)
    fmc_halfword_program                     0x080024d5   Thumb Code   150  gd32f1x0_fmc.o(.text)
    ob_unlock                                0x0800256d   Thumb Code    38  gd32f1x0_fmc.o(.text)
    ob_lock                                  0x08002595   Thumb Code    18  gd32f1x0_fmc.o(.text)
    ob_reset                                 0x080025a9   Thumb Code    18  gd32f1x0_fmc.o(.text)
    ob_erase                                 0x080025bd   Thumb Code   294  gd32f1x0_fmc.o(.text)
    ob_obstat_plevel_get                     0x080026e5   Thumb Code    16  gd32f1x0_fmc.o(.text)
    ob_write_protection_enable               0x080026f5   Thumb Code   316  gd32f1x0_fmc.o(.text)
    ob_security_protection_config            0x08002831   Thumb Code   304  gd32f1x0_fmc.o(.text)
    ob_user_write                            0x08002961   Thumb Code   308  gd32f1x0_fmc.o(.text)
    ob_data_program                          0x08002a95   Thumb Code   304  gd32f1x0_fmc.o(.text)
    ob_user_get                              0x08002bc5   Thumb Code    16  gd32f1x0_fmc.o(.text)
    ob_data_get                              0x08002bd5   Thumb Code    14  gd32f1x0_fmc.o(.text)
    ob_write_protection_get                  0x08002be5   Thumb Code    14  gd32f1x0_fmc.o(.text)
    fmc_interrupt_enable                     0x08002bf5   Thumb Code    16  gd32f1x0_fmc.o(.text)
    fmc_interrupt_disable                    0x08002c05   Thumb Code    18  gd32f1x0_fmc.o(.text)
    fmc_flag_get                             0x08002c19   Thumb Code    18  gd32f1x0_fmc.o(.text)
    fmc_flag_clear                           0x08002c2d   Thumb Code    16  gd32f1x0_fmc.o(.text)
    fmc_interrupt_flag_get                   0x08002c3d   Thumb Code    18  gd32f1x0_fmc.o(.text)
    fmc_interrupt_flag_clear                 0x08002c51   Thumb Code    16  gd32f1x0_fmc.o(.text)
    fwdgt_write_disable                      0x08002c61   Thumb Code    14  gd32f1x0_fwdgt.o(.text)
    fwdgt_counter_reload                     0x08002c71   Thumb Code    16  gd32f1x0_fwdgt.o(.text)
    fwdgt_enable                             0x08002c81   Thumb Code    16  gd32f1x0_fwdgt.o(.text)
    fwdgt_window_value_config                0x08002c91   Thumb Code    52  gd32f1x0_fwdgt.o(.text)
    fwdgt_config                             0x08002cc5   Thumb Code   100  gd32f1x0_fwdgt.o(.text)
    fwdgt_flag_get                           0x08002d29   Thumb Code    18  gd32f1x0_fwdgt.o(.text)
    gpio_deinit                              0x08002d3d   Thumb Code    58  gd32f1x0_gpio.o(.text)
    gpio_mode_set                            0x08002d79   Thumb Code    84  gd32f1x0_gpio.o(.text)
    gpio_output_options_set                  0x08002dcd   Thumb Code    70  gd32f1x0_gpio.o(.text)
    gpio_bit_set                             0x08002e15   Thumb Code     4  gd32f1x0_gpio.o(.text)
    gpio_bit_reset                           0x08002e19   Thumb Code     4  gd32f1x0_gpio.o(.text)
    gpio_bit_write                           0x08002e1d   Thumb Code    12  gd32f1x0_gpio.o(.text)
    gpio_port_write                          0x08002e29   Thumb Code     4  gd32f1x0_gpio.o(.text)
    gpio_input_bit_get                       0x08002e2d   Thumb Code    10  gd32f1x0_gpio.o(.text)
    gpio_input_port_get                      0x08002e39   Thumb Code     6  gd32f1x0_gpio.o(.text)
    gpio_output_bit_get                      0x08002e41   Thumb Code    10  gd32f1x0_gpio.o(.text)
    gpio_output_port_get                     0x08002e4d   Thumb Code     6  gd32f1x0_gpio.o(.text)
    gpio_af_set                              0x08002e55   Thumb Code   110  gd32f1x0_gpio.o(.text)
    gpio_pin_lock                            0x08002ec5   Thumb Code    16  gd32f1x0_gpio.o(.text)
    nvic_priority_group_set                  0x08002ed5   Thumb Code    20  gd32f1x0_misc.o(.text)
    nvic_irq_enable                          0x08002ee9   Thumb Code   168  gd32f1x0_misc.o(.text)
    nvic_irq_disable                         0x08002f91   Thumb Code    30  gd32f1x0_misc.o(.text)
    nvic_vector_table_set                    0x08002fb1   Thumb Code    24  gd32f1x0_misc.o(.text)
    system_lowpower_set                      0x08002fc9   Thumb Code    16  gd32f1x0_misc.o(.text)
    system_lowpower_reset                    0x08002fd9   Thumb Code    18  gd32f1x0_misc.o(.text)
    systick_clksource_set                    0x08002fed   Thumb Code    24  gd32f1x0_misc.o(.text)
    rcu_deinit                               0x08003005   Thumb Code   112  gd32f1x0_rcu.o(.text)
    rcu_periph_clock_enable                  0x08003075   Thumb Code    30  gd32f1x0_rcu.o(.text)
    rcu_periph_clock_disable                 0x08003095   Thumb Code    32  gd32f1x0_rcu.o(.text)
    rcu_periph_clock_sleep_enable            0x080030b5   Thumb Code    30  gd32f1x0_rcu.o(.text)
    rcu_periph_clock_sleep_disable           0x080030d5   Thumb Code    32  gd32f1x0_rcu.o(.text)
    rcu_periph_reset_enable                  0x080030f5   Thumb Code    30  gd32f1x0_rcu.o(.text)
    rcu_periph_reset_disable                 0x08003115   Thumb Code    32  gd32f1x0_rcu.o(.text)
    rcu_bkp_reset_enable                     0x08003135   Thumb Code    18  gd32f1x0_rcu.o(.text)
    rcu_bkp_reset_disable                    0x08003149   Thumb Code    18  gd32f1x0_rcu.o(.text)
    rcu_system_clock_source_config           0x0800315d   Thumb Code    20  gd32f1x0_rcu.o(.text)
    rcu_system_clock_source_get              0x08003171   Thumb Code    16  gd32f1x0_rcu.o(.text)
    rcu_ahb_clock_config                     0x08003181   Thumb Code    20  gd32f1x0_rcu.o(.text)
    rcu_apb1_clock_config                    0x08003195   Thumb Code    20  gd32f1x0_rcu.o(.text)
    rcu_apb2_clock_config                    0x080031a9   Thumb Code    20  gd32f1x0_rcu.o(.text)
    rcu_adc_clock_config                     0x080031bd   Thumb Code    88  gd32f1x0_rcu.o(.text)
    rcu_usbd_clock_config                    0x08003215   Thumb Code    24  gd32f1x0_rcu.o(.text)
    rcu_ckout_config                         0x0800322d   Thumb Code    22  gd32f1x0_rcu.o(.text)
    rcu_pll_config                           0x08003245   Thumb Code    36  gd32f1x0_rcu.o(.text)
    rcu_usart_clock_config                   0x08003269   Thumb Code    24  gd32f1x0_rcu.o(.text)
    rcu_cec_clock_config                     0x08003281   Thumb Code    24  gd32f1x0_rcu.o(.text)
    rcu_rtc_clock_config                     0x08003299   Thumb Code    24  gd32f1x0_rcu.o(.text)
    rcu_hxtal_prediv_config                  0x080032b1   Thumb Code    20  gd32f1x0_rcu.o(.text)
    rcu_lxtal_drive_capability_config        0x080032c5   Thumb Code    24  gd32f1x0_rcu.o(.text)
    rcu_flag_get                             0x080032dd   Thumb Code    26  gd32f1x0_rcu.o(.text)
    rcu_all_reset_flag_clear                 0x080032f9   Thumb Code    18  gd32f1x0_rcu.o(.text)
    rcu_interrupt_flag_get                   0x0800330d   Thumb Code    18  gd32f1x0_rcu.o(.text)
    rcu_interrupt_flag_clear                 0x08003321   Thumb Code    16  gd32f1x0_rcu.o(.text)
    rcu_interrupt_enable                     0x08003331   Thumb Code    16  gd32f1x0_rcu.o(.text)
    rcu_interrupt_disable                    0x08003341   Thumb Code    18  gd32f1x0_rcu.o(.text)
    rcu_osci_stab_wait                       0x08003355   Thumb Code   324  gd32f1x0_rcu.o(.text)
    rcu_osci_on                              0x08003499   Thumb Code    30  gd32f1x0_rcu.o(.text)
    rcu_osci_off                             0x080034b9   Thumb Code    32  gd32f1x0_rcu.o(.text)
    rcu_osci_bypass_mode_enable              0x080034d9   Thumb Code    64  gd32f1x0_rcu.o(.text)
    rcu_osci_bypass_mode_disable             0x08003519   Thumb Code    64  gd32f1x0_rcu.o(.text)
    rcu_hxtal_clock_monitor_enable           0x08003559   Thumb Code    18  gd32f1x0_rcu.o(.text)
    rcu_hxtal_clock_monitor_disable          0x0800356d   Thumb Code    18  gd32f1x0_rcu.o(.text)
    rcu_irc8m_adjust_value_set               0x08003581   Thumb Code    22  gd32f1x0_rcu.o(.text)
    rcu_irc14m_adjust_value_set              0x08003599   Thumb Code    22  gd32f1x0_rcu.o(.text)
    rcu_voltage_key_unlock                   0x080035b1   Thumb Code    30  gd32f1x0_rcu.o(.text)
    rcu_deepsleep_voltage_set                0x080035d1   Thumb Code    24  gd32f1x0_rcu.o(.text)
    rcu_power_down_voltage_set               0x080035e9   Thumb Code    24  gd32f1x0_rcu.o(.text)
    rcu_clock_freq_get                       0x08003601   Thumb Code   292  gd32f1x0_rcu.o(.text)
    timer_deinit                             0x08003735   Thumb Code   194  gd32f1x0_timer.o(.text)
    timer_struct_para_init                   0x080037f9   Thumb Code    16  gd32f1x0_timer.o(.text)
    timer_init                               0x08003809   Thumb Code   212  gd32f1x0_timer.o(.text)
    timer_enable                             0x080038dd   Thumb Code    10  gd32f1x0_timer.o(.text)
    timer_disable                            0x080038e9   Thumb Code    10  gd32f1x0_timer.o(.text)
    timer_auto_reload_shadow_enable          0x080038f5   Thumb Code    10  gd32f1x0_timer.o(.text)
    timer_auto_reload_shadow_disable         0x08003901   Thumb Code    10  gd32f1x0_timer.o(.text)
    timer_update_event_enable                0x0800390d   Thumb Code    10  gd32f1x0_timer.o(.text)
    timer_update_event_disable               0x08003919   Thumb Code    10  gd32f1x0_timer.o(.text)
    timer_counter_alignment                  0x08003925   Thumb Code    16  gd32f1x0_timer.o(.text)
    timer_counter_up_direction               0x08003935   Thumb Code    10  gd32f1x0_timer.o(.text)
    timer_counter_down_direction             0x08003941   Thumb Code    10  gd32f1x0_timer.o(.text)
    timer_prescaler_config                   0x0800394d   Thumb Code    18  gd32f1x0_timer.o(.text)
    timer_repetition_value_config            0x08003961   Thumb Code     4  gd32f1x0_timer.o(.text)
    timer_autoreload_value_config            0x08003965   Thumb Code     4  gd32f1x0_timer.o(.text)
    timer_counter_value_config               0x08003969   Thumb Code     4  gd32f1x0_timer.o(.text)
    timer_counter_read                       0x0800396d   Thumb Code     4  gd32f1x0_timer.o(.text)
    timer_prescaler_read                     0x08003971   Thumb Code     6  gd32f1x0_timer.o(.text)
    timer_single_pulse_mode_config           0x08003979   Thumb Code    30  gd32f1x0_timer.o(.text)
    timer_update_source_config               0x08003999   Thumb Code    30  gd32f1x0_timer.o(.text)
    timer_ocpre_clear_source_config          0x080039b9   Thumb Code    28  gd32f1x0_timer.o(.text)
    timer_interrupt_enable                   0x080039d5   Thumb Code     8  gd32f1x0_timer.o(.text)
    timer_interrupt_disable                  0x080039dd   Thumb Code    10  gd32f1x0_timer.o(.text)
    timer_interrupt_flag_get                 0x080039e9   Thumb Code    22  gd32f1x0_timer.o(.text)
    timer_interrupt_flag_clear               0x08003a01   Thumb Code     6  gd32f1x0_timer.o(.text)
    timer_flag_get                           0x08003a09   Thumb Code    10  gd32f1x0_timer.o(.text)
    timer_flag_clear                         0x08003a15   Thumb Code     6  gd32f1x0_timer.o(.text)
    timer_dma_enable                         0x08003a1d   Thumb Code     8  gd32f1x0_timer.o(.text)
    timer_dma_disable                        0x08003a25   Thumb Code    10  gd32f1x0_timer.o(.text)
    timer_channel_dma_request_source_select  0x08003a31   Thumb Code    30  gd32f1x0_timer.o(.text)
    timer_dma_transfer_config                0x08003a51   Thumb Code    24  gd32f1x0_timer.o(.text)
    timer_event_software_generate            0x08003a69   Thumb Code     8  gd32f1x0_timer.o(.text)
    timer_break_struct_para_init             0x08003a71   Thumb Code    16  gd32f1x0_timer.o(.text)
    timer_break_config                       0x08003a81   Thumb Code    36  gd32f1x0_timer.o(.text)
    timer_break_enable                       0x08003aa5   Thumb Code    10  gd32f1x0_timer.o(.text)
    timer_break_disable                      0x08003ab1   Thumb Code    10  gd32f1x0_timer.o(.text)
    timer_automatic_output_enable            0x08003abd   Thumb Code    10  gd32f1x0_timer.o(.text)
    timer_automatic_output_disable           0x08003ac9   Thumb Code    10  gd32f1x0_timer.o(.text)
    timer_primary_output_config              0x08003ad5   Thumb Code    18  gd32f1x0_timer.o(.text)
    timer_channel_control_shadow_config      0x08003ae9   Thumb Code    16  gd32f1x0_timer.o(.text)
    timer_channel_control_shadow_update_config 0x08003af9   Thumb Code    30  gd32f1x0_timer.o(.text)
    timer_channel_output_struct_para_init    0x08003b19   Thumb Code    12  gd32f1x0_timer.o(.text)
    timer_channel_output_config              0x08003b25   Thumb Code   550  gd32f1x0_timer.o(.text)
    timer_channel_output_mode_config         0x08003d4d   Thumb Code    58  gd32f1x0_timer.o(.text)
    timer_channel_output_pulse_value_config  0x08003d89   Thumb Code    12  gd32f1x0_timer.o(.text)
    timer_channel_output_shadow_config       0x08003d95   Thumb Code    58  gd32f1x0_timer.o(.text)
    timer_channel_output_fast_config         0x08003dd1   Thumb Code    58  gd32f1x0_timer.o(.text)
    timer_channel_output_clear_config        0x08003e0d   Thumb Code    58  gd32f1x0_timer.o(.text)
    timer_channel_output_polarity_config     0x08003e49   Thumb Code    74  gd32f1x0_timer.o(.text)
    timer_channel_complementary_output_polarity_config 0x08003e95   Thumb Code    74  gd32f1x0_timer.o(.text)
    timer_channel_output_state_config        0x08003ee1   Thumb Code    74  gd32f1x0_timer.o(.text)
    timer_channel_complementary_output_state_config 0x08003f2d   Thumb Code    60  gd32f1x0_timer.o(.text)
    timer_channel_input_struct_para_init     0x08003f69   Thumb Code    12  gd32f1x0_timer.o(.text)
    timer_input_capture_config               0x08003f75   Thumb Code   346  gd32f1x0_timer.o(.text)
    timer_channel_input_capture_prescaler_config 0x080040d1   Thumb Code    58  gd32f1x0_timer.o(.text)
    timer_channel_capture_value_register_read 0x0800410d   Thumb Code    14  gd32f1x0_timer.o(.text)
    timer_input_pwm_capture_config           0x0800411d   Thumb Code   356  gd32f1x0_timer.o(.text)
    timer_hall_mode_config                   0x08004281   Thumb Code    30  gd32f1x0_timer.o(.text)
    timer_input_trigger_source_select        0x080042a1   Thumb Code    16  gd32f1x0_timer.o(.text)
    timer_master_output_trigger_source_select 0x080042b1   Thumb Code    16  gd32f1x0_timer.o(.text)
    timer_slave_mode_select                  0x080042c1   Thumb Code    16  gd32f1x0_timer.o(.text)
    timer_master_slave_mode_config           0x080042d1   Thumb Code    30  gd32f1x0_timer.o(.text)
    timer_external_trigger_config            0x080042f1   Thumb Code    34  gd32f1x0_timer.o(.text)
    timer_quadrature_decoder_mode_config     0x08004315   Thumb Code    78  gd32f1x0_timer.o(.text)
    timer_internal_clock_config              0x08004365   Thumb Code    10  gd32f1x0_timer.o(.text)
    timer_internal_trigger_as_external_clock_config 0x08004371   Thumb Code    32  gd32f1x0_timer.o(.text)
    timer_external_trigger_as_external_clock_config 0x08004391   Thumb Code   148  gd32f1x0_timer.o(.text)
    timer_external_clock_mode0_config        0x08004425   Thumb Code    50  gd32f1x0_timer.o(.text)
    timer_external_clock_mode1_config        0x08004459   Thumb Code    42  gd32f1x0_timer.o(.text)
    timer_external_clock_mode1_disable       0x08004485   Thumb Code    10  gd32f1x0_timer.o(.text)
    timer_channel_remap_config               0x08004491   Thumb Code     4  gd32f1x0_timer.o(.text)
    usart_deinit                             0x08004495   Thumb Code    54  gd32f1x0_usart.o(.text)
    usart_baudrate_set                       0x080044cd   Thumb Code    90  gd32f1x0_usart.o(.text)
    usart_parity_config                      0x08004529   Thumb Code    24  gd32f1x0_usart.o(.text)
    usart_word_length_set                    0x08004541   Thumb Code    24  gd32f1x0_usart.o(.text)
    usart_stop_bit_set                       0x08004559   Thumb Code    24  gd32f1x0_usart.o(.text)
    usart_enable                             0x08004571   Thumb Code    10  gd32f1x0_usart.o(.text)
    usart_disable                            0x0800457d   Thumb Code    10  gd32f1x0_usart.o(.text)
    usart_transmit_config                    0x08004589   Thumb Code    16  gd32f1x0_usart.o(.text)
    usart_receive_config                     0x08004599   Thumb Code    16  gd32f1x0_usart.o(.text)
    usart_data_transmit                      0x080045a9   Thumb Code     8  gd32f1x0_usart.o(.text)
    usart_data_receive                       0x080045b1   Thumb Code     8  gd32f1x0_usart.o(.text)
    usart_data_first_config                  0x080045b9   Thumb Code    28  gd32f1x0_usart.o(.text)
    usart_invert_config                      0x080045d5   Thumb Code   106  gd32f1x0_usart.o(.text)
    usart_overrun_enable                     0x08004641   Thumb Code    18  gd32f1x0_usart.o(.text)
    usart_overrun_disable                    0x08004655   Thumb Code    18  gd32f1x0_usart.o(.text)
    usart_oversample_config                  0x08004669   Thumb Code    24  gd32f1x0_usart.o(.text)
    usart_sample_bit_config                  0x08004681   Thumb Code    24  gd32f1x0_usart.o(.text)
    usart_autobaud_detection_enable          0x08004699   Thumb Code    10  gd32f1x0_usart.o(.text)
    usart_autobaud_detection_disable         0x080046a5   Thumb Code    10  gd32f1x0_usart.o(.text)
    usart_autobaud_detection_mode_config     0x080046b1   Thumb Code    16  gd32f1x0_usart.o(.text)
    usart_mute_mode_enable                   0x080046c1   Thumb Code    10  gd32f1x0_usart.o(.text)
    usart_mute_mode_disable                  0x080046cd   Thumb Code    10  gd32f1x0_usart.o(.text)
    usart_mute_mode_wakeup_config            0x080046d9   Thumb Code    24  gd32f1x0_usart.o(.text)
    usart_address_detection_mode_config      0x080046f1   Thumb Code    28  gd32f1x0_usart.o(.text)
    usart_address_config                     0x0800470d   Thumb Code    26  gd32f1x0_usart.o(.text)
    usart_receiver_timeout_enable            0x08004729   Thumb Code    10  gd32f1x0_usart.o(.text)
    usart_receiver_timeout_disable           0x08004735   Thumb Code    10  gd32f1x0_usart.o(.text)
    usart_receiver_timeout_config            0x08004741   Thumb Code    16  gd32f1x0_usart.o(.text)
    usart_lin_mode_enable                    0x08004751   Thumb Code    18  gd32f1x0_usart.o(.text)
    usart_lin_mode_disable                   0x08004765   Thumb Code    18  gd32f1x0_usart.o(.text)
    usart_lin_break_detection_length_config  0x08004779   Thumb Code    20  gd32f1x0_usart.o(.text)
    usart_halfduplex_enable                  0x0800478d   Thumb Code    18  gd32f1x0_usart.o(.text)
    usart_halfduplex_disable                 0x080047a1   Thumb Code    18  gd32f1x0_usart.o(.text)
    usart_clock_enable                       0x080047b5   Thumb Code    18  gd32f1x0_usart.o(.text)
    usart_clock_disable                      0x080047c9   Thumb Code    18  gd32f1x0_usart.o(.text)
    usart_synchronous_clock_config           0x080047dd   Thumb Code    60  gd32f1x0_usart.o(.text)
    usart_smartcard_mode_enable              0x08004819   Thumb Code    18  gd32f1x0_usart.o(.text)
    usart_smartcard_mode_disable             0x0800482d   Thumb Code    18  gd32f1x0_usart.o(.text)
    usart_smartcard_mode_nack_enable         0x08004841   Thumb Code    18  gd32f1x0_usart.o(.text)
    usart_smartcard_mode_nack_disable        0x08004855   Thumb Code    18  gd32f1x0_usart.o(.text)
    usart_guard_time_config                  0x08004869   Thumb Code    28  gd32f1x0_usart.o(.text)
    usart_block_length_config                0x08004885   Thumb Code    18  gd32f1x0_usart.o(.text)
    usart_smartcard_autoretry_config         0x08004899   Thumb Code    30  gd32f1x0_usart.o(.text)
    usart_irda_mode_enable                   0x080048b9   Thumb Code    18  gd32f1x0_usart.o(.text)
    usart_irda_mode_disable                  0x080048cd   Thumb Code    18  gd32f1x0_usart.o(.text)
    usart_irda_lowpower_config               0x080048e1   Thumb Code    20  gd32f1x0_usart.o(.text)
    usart_prescaler_config                   0x080048f5   Thumb Code    24  gd32f1x0_usart.o(.text)
    usart_hardware_flow_rts_config           0x0800490d   Thumb Code    24  gd32f1x0_usart.o(.text)
    usart_hardware_flow_cts_config           0x08004925   Thumb Code    24  gd32f1x0_usart.o(.text)
    usart_rs485_driver_enable                0x0800493d   Thumb Code    18  gd32f1x0_usart.o(.text)
    usart_rs485_driver_disable               0x08004951   Thumb Code    18  gd32f1x0_usart.o(.text)
    usart_driver_assertime_config            0x08004965   Thumb Code    30  gd32f1x0_usart.o(.text)
    usart_driver_deassertime_config          0x08004985   Thumb Code    30  gd32f1x0_usart.o(.text)
    usart_depolarity_config                  0x080049a5   Thumb Code    28  gd32f1x0_usart.o(.text)
    usart_dma_receive_config                 0x080049c1   Thumb Code    16  gd32f1x0_usart.o(.text)
    usart_dma_transmit_config                0x080049d1   Thumb Code    16  gd32f1x0_usart.o(.text)
    usart_reception_error_dma_disable        0x080049e1   Thumb Code    18  gd32f1x0_usart.o(.text)
    usart_reception_error_dma_enable         0x080049f5   Thumb Code    18  gd32f1x0_usart.o(.text)
    usart_wakeup_enable                      0x08004a09   Thumb Code    10  gd32f1x0_usart.o(.text)
    usart_wakeup_disable                     0x08004a15   Thumb Code    10  gd32f1x0_usart.o(.text)
    usart_wakeup_mode_config                 0x08004a21   Thumb Code    28  gd32f1x0_usart.o(.text)
    usart_flag_get                           0x08004a3d   Thumb Code    16  gd32f1x0_usart.o(.text)
    usart_flag_clear                         0x08004a4d   Thumb Code    18  gd32f1x0_usart.o(.text)
    usart_interrupt_enable                   0x08004a61   Thumb Code    24  gd32f1x0_usart.o(.text)
    usart_interrupt_disable                  0x08004a79   Thumb Code    26  gd32f1x0_usart.o(.text)
    usart_command_enable                     0x08004a95   Thumb Code     8  gd32f1x0_usart.o(.text)
    usart_interrupt_flag_get                 0x08004a9d   Thumb Code    34  gd32f1x0_usart.o(.text)
    usart_interrupt_flag_clear               0x08004ac1   Thumb Code    18  gd32f1x0_usart.o(.text)
    Reset_Handler                            0x08004ad5   Thumb Code     8  startup_gd32f1x0.o(.text)
    ADC_CMP_IRQHandler                       0x08004aef   Thumb Code     0  startup_gd32f1x0.o(.text)
    CAN0_RX0_IRQHandler                      0x08004aef   Thumb Code     0  startup_gd32f1x0.o(.text)
    CAN0_RX1_IRQHandler                      0x08004aef   Thumb Code     0  startup_gd32f1x0.o(.text)
    CAN0_SCE_IRQHandler                      0x08004aef   Thumb Code     0  startup_gd32f1x0.o(.text)
    CAN0_TX_IRQHandler                       0x08004aef   Thumb Code     0  startup_gd32f1x0.o(.text)
    CAN1_RX0_IRQHandler                      0x08004aef   Thumb Code     0  startup_gd32f1x0.o(.text)
    CAN1_RX1_IRQHandler                      0x08004aef   Thumb Code     0  startup_gd32f1x0.o(.text)
    CAN1_SCE_IRQHandler                      0x08004aef   Thumb Code     0  startup_gd32f1x0.o(.text)
    CAN1_TX_IRQHandler                       0x08004aef   Thumb Code     0  startup_gd32f1x0.o(.text)
    CEC_IRQHandler                           0x08004aef   Thumb Code     0  startup_gd32f1x0.o(.text)
    DMA_Channel5_6_IRQHandler                0x08004aef   Thumb Code     0  startup_gd32f1x0.o(.text)
    EXTI0_1_IRQHandler                       0x08004aef   Thumb Code     0  startup_gd32f1x0.o(.text)
    EXTI2_3_IRQHandler                       0x08004aef   Thumb Code     0  startup_gd32f1x0.o(.text)
    EXTI4_15_IRQHandler                      0x08004aef   Thumb Code     0  startup_gd32f1x0.o(.text)
    FMC_IRQHandler                           0x08004aef   Thumb Code     0  startup_gd32f1x0.o(.text)
    I2C0_ER_IRQHandler                       0x08004aef   Thumb Code     0  startup_gd32f1x0.o(.text)
    I2C0_EV_IRQHandler                       0x08004aef   Thumb Code     0  startup_gd32f1x0.o(.text)
    I2C1_ER_IRQHandler                       0x08004aef   Thumb Code     0  startup_gd32f1x0.o(.text)
    I2C1_EV_IRQHandler                       0x08004aef   Thumb Code     0  startup_gd32f1x0.o(.text)
    I2C2_ER_IRQHandler                       0x08004aef   Thumb Code     0  startup_gd32f1x0.o(.text)
    I2C2_EV_IRQHandler                       0x08004aef   Thumb Code     0  startup_gd32f1x0.o(.text)
    LVD_IRQHandler                           0x08004aef   Thumb Code     0  startup_gd32f1x0.o(.text)
    RCU_IRQHandler                           0x08004aef   Thumb Code     0  startup_gd32f1x0.o(.text)
    RTC_IRQHandler                           0x08004aef   Thumb Code     0  startup_gd32f1x0.o(.text)
    SLCD_IRQHandler                          0x08004aef   Thumb Code     0  startup_gd32f1x0.o(.text)
    SPI0_IRQHandler                          0x08004aef   Thumb Code     0  startup_gd32f1x0.o(.text)
    SPI1_IRQHandler                          0x08004aef   Thumb Code     0  startup_gd32f1x0.o(.text)
    SPI2_IRQHandler                          0x08004aef   Thumb Code     0  startup_gd32f1x0.o(.text)
    TIMER0_Channel_IRQHandler                0x08004aef   Thumb Code     0  startup_gd32f1x0.o(.text)
    TIMER14_IRQHandler                       0x08004aef   Thumb Code     0  startup_gd32f1x0.o(.text)
    TIMER15_IRQHandler                       0x08004aef   Thumb Code     0  startup_gd32f1x0.o(.text)
    TIMER16_IRQHandler                       0x08004aef   Thumb Code     0  startup_gd32f1x0.o(.text)
    TIMER1_IRQHandler                        0x08004aef   Thumb Code     0  startup_gd32f1x0.o(.text)
    TIMER2_IRQHandler                        0x08004aef   Thumb Code     0  startup_gd32f1x0.o(.text)
    TIMER5_DAC_IRQHandler                    0x08004aef   Thumb Code     0  startup_gd32f1x0.o(.text)
    TSI_IRQHandler                           0x08004aef   Thumb Code     0  startup_gd32f1x0.o(.text)
    USART0_IRQHandler                        0x08004aef   Thumb Code     0  startup_gd32f1x0.o(.text)
    USART1_IRQHandler                        0x08004aef   Thumb Code     0  startup_gd32f1x0.o(.text)
    USBDWakeUp_IRQHandler                    0x08004aef   Thumb Code     0  startup_gd32f1x0.o(.text)
    USBD_HP_IRQHandler                       0x08004aef   Thumb Code     0  startup_gd32f1x0.o(.text)
    USBD_LP_IRQHandler                       0x08004aef   Thumb Code     0  startup_gd32f1x0.o(.text)
    WWDGT_IRQHandler                         0x08004aef   Thumb Code     0  startup_gd32f1x0.o(.text)
    SystemInit                               0x08004af9   Thumb Code   188  system_gd32f1x0.o(.text)
    SystemCoreClockUpdate                    0x08004bb5   Thumb Code   112  system_gd32f1x0.o(.text)
    __aeabi_fadd                             0x08004c35   Thumb Code   164  fadd.o(.text)
    __aeabi_fsub                             0x08004cd9   Thumb Code     6  fadd.o(.text)
    __aeabi_frsub                            0x08004cdf   Thumb Code     6  fadd.o(.text)
    __aeabi_fmul                             0x08004ce5   Thumb Code   100  fmul.o(.text)
    __aeabi_fdiv                             0x08004d49   Thumb Code   124  fdiv.o(.text)
    __aeabi_dadd                             0x08004dc5   Thumb Code   322  dadd.o(.text)
    __aeabi_dsub                             0x08004f07   Thumb Code     6  dadd.o(.text)
    __aeabi_drsub                            0x08004f0d   Thumb Code     6  dadd.o(.text)
    __aeabi_dmul                             0x08004f13   Thumb Code   228  dmul.o(.text)
    __aeabi_ddiv                             0x08004ff7   Thumb Code   222  ddiv.o(.text)
    __aeabi_fcmple                           0x080050d5   Thumb Code    28  fcmple.o(.text)
    __aeabi_fcmplt                           0x080050f1   Thumb Code    28  fcmplt.o(.text)
    __aeabi_fcmpge                           0x0800510d   Thumb Code    28  fcmpge.o(.text)
    __aeabi_fcmpgt                           0x08005129   Thumb Code    28  fcmpgt.o(.text)
    __aeabi_i2f                              0x08005145   Thumb Code    18  fflti.o(.text)
    __aeabi_ui2f                             0x08005157   Thumb Code    10  ffltui.o(.text)
    __aeabi_i2d                              0x08005161   Thumb Code    34  dflti.o(.text)
    __aeabi_ui2d                             0x08005183   Thumb Code    26  dfltui.o(.text)
    __aeabi_f2iz                             0x0800519d   Thumb Code    50  ffixi.o(.text)
    __aeabi_d2iz                             0x080051cf   Thumb Code    62  dfixi.o(.text)
    __aeabi_f2d                              0x0800520d   Thumb Code    38  f2d.o(.text)
    __aeabi_d2f                              0x08005233   Thumb Code    56  d2f.o(.text)
    __aeabi_llsl                             0x0800526b   Thumb Code    30  llshl.o(.text)
    _ll_shift_l                              0x0800526b   Thumb Code     0  llshl.o(.text)
    __aeabi_llsr                             0x08005289   Thumb Code    32  llushr.o(.text)
    _ll_ushift_r                             0x08005289   Thumb Code     0  llushr.o(.text)
    __aeabi_lasr                             0x080052a9   Thumb Code    36  llsshr.o(.text)
    _ll_sshift_r                             0x080052a9   Thumb Code     0  llsshr.o(.text)
    __I$use$fp                               0x080052cd   Thumb Code     0  iusefp.o(.text)
    _float_round                             0x080052cd   Thumb Code    18  fepilogue.o(.text)
    _float_epilogue                          0x080052df   Thumb Code    92  fepilogue.o(.text)
    _double_round                            0x0800533b   Thumb Code    30  depilogue.o(.text)
    _double_epilogue                         0x08005359   Thumb Code   156  depilogue.o(.text)
    __scatterload                            0x080053f5   Thumb Code    28  init.o(.text)
    __scatterload_rt2                        0x080053f5   Thumb Code     0  init.o(.text)
    __scatterload_copy                       0x08005419   Thumb Code    14  handlers.o(i.__scatterload_copy)
    __scatterload_null                       0x08005427   Thumb Code     2  handlers.o(i.__scatterload_null)
    __scatterload_zeroinit                   0x08005429   Thumb Code    14  handlers.o(i.__scatterload_zeroinit)
    hall_to_pos                              0x08005456   Data           8  bldc.o(.rodata.hall_to_pos)
    lookUpTableAngle                         0x08005460   Data         724  main.o(.rodata.lookUpTableAngle)
    Region$$Table$$Base                      0x08005734   Number         0  anon$$obj.o(Region$$Table)
    Region$$Table$$Limit                     0x08005754   Number         0  anon$$obj.o(Region$$Table)
    SystemCoreClock                          0x20000000   Data           4  system_gd32f1x0.o(.data.SystemCoreClock)
    batteryVoltage                           0x20000004   Data           4  bldc.o(.data.batteryVoltage)
    beepsBackwards                           0x20000008   Data           1  main.o(.data.beepsBackwards)
    currentDC                                0x2000000c   Data           4  bldc.o(.data.currentDC)
    offsetdc                                 0x20000012   Data           2  bldc.o(.data.offsetdc)
    speedLimit                               0x20000014   Data           2  main.o(.data.speedLimit)
    wState                                   0x20000016   Data           1  main.o(.data.wState)
    wStateSlave                              0x20000017   Data           1  main.o(.data.wStateSlave)
    adc_buffer                               0x20000032   Data           4  bldc.o(.bss.adc_buffer)
    beepsBackwardsMaster                     0x20000036   Data           1  commsmasterslave.o(.bss.beepsBackwardsMaster)
    bldc_enable                              0x20000037   Data           1  bldc.o(.bss.bldc_enable)
    bldc_inputFilterPwm                      0x20000038   Data           2  bldc.o(.bss.bldc_inputFilterPwm)
    bldc_outputFilterPwm                     0x2000003a   Data           2  bldc.o(.bss.bldc_outputFilterPwm)
    buzzerFreq                               0x2000003c   Data           1  bldc.o(.bss.buzzerFreq)
    buzzerPattern                            0x2000003d   Data           1  bldc.o(.bss.buzzerPattern)
    buzzerTimer                              0x2000003e   Data           2  bldc.o(.bss.buzzerTimer)
    buzzerToggle                             0x20000040   Data           1  bldc.o(.bss.buzzerToggle)
    dma_init_struct_adc                      0x20000044   Data          36  setup.o(.bss.dma_init_struct_adc)
    dma_init_struct_usart                    0x20000068   Data          36  setup.o(.bss.dma_init_struct_usart)
    enable                                   0x2000008c   Data           1  main.o(.bss.enable)
    filter_reg                               0x20000090   Data           4  bldc.o(.bss.filter_reg)
    hall                                     0x20000094   Data           1  bldc.o(.bss.hall)
    hall_a                                   0x20000095   Data           1  bldc.o(.bss.hall_a)
    hall_b                                   0x20000096   Data           1  bldc.o(.bss.hall_b)
    hall_c                                   0x20000097   Data           1  bldc.o(.bss.hall_c)
    iOdom                                    0x20000098   Data           4  bldc.o(.bss.iOdom)
    iTimeLastRx                              0x200000a0   Data           4  remoteuart.o(.bss.iTimeLastRx)
    iTimeNextLoop                            0x200000a4   Data           4  main.o(.bss.iTimeNextLoop)
    iTimeNextTx                              0x200000a8   Data           4  remoteuart.o(.bss.iTimeNextTx)
    inactivity_timeout_counter               0x200000ac   Data           4  main.o(.bss.inactivity_timeout_counter)
    lastPos                                  0x200000b0   Data           1  bldc.o(.bss.lastPos)
    msTicks                                  0x200000b4   Data           4  it.o(.bss.msTicks)
    oDataSlave                               0x200000b8   Data          16  main.o(.bss.oDataSlave)
    offsetcount                              0x200000c8   Data           2  bldc.o(.bss.offsetcount)
    pos                                      0x200000ca   Data           1  bldc.o(.bss.pos)
    pwmSlave                                 0x200000cc   Data           2  main.o(.bss.pwmSlave)
    realSpeed                                0x200000d0   Data           4  bldc.o(.bss.realSpeed)
    speed                                    0x200000d4   Data           4  main.o(.bss.speed)
    speedCounter                             0x200000d8   Data           4  bldc.o(.bss.speedCounter)
    steer                                    0x200000dc   Data           4  main.o(.bss.steer)
    steerCounter                             0x200000e0   Data           4  main.o(.bss.steerCounter)
    timedOut                                 0x200000e4   Data           1  it.o(.bss.timedOut)
    timeoutCounter_ms                        0x200000e8   Data           4  it.o(.bss.timeoutCounter_ms)
    timeoutTimer_paramter_struct             0x200000ec   Data          16  setup.o(.bss.timeoutTimer_paramter_struct)
    timerBldc_break_parameter_struct         0x200000fc   Data          24  setup.o(.bss.timerBldc_break_parameter_struct)
    timerBldc_oc_parameter_struct            0x20000114   Data          16  setup.o(.bss.timerBldc_oc_parameter_struct)
    timerBldc_paramter_struct                0x20000124   Data          16  setup.o(.bss.timerBldc_paramter_struct)
    usart0_rx_buf                            0x20000134   Data           1  setup.o(.bss.usart0_rx_buf)
    usart1_rx_buf                            0x20000135   Data           1  setup.o(.bss.usart1_rx_buf)
    __initial_sp                             0x20000538   Data           0  startup_gd32f1x0.o(STACK)



==============================================================================

Memory Map of the image

  Image Entry point : 0x08000169

  Load Region LR_IROM1 (Base: 0x08000000, Size: 0x00005770, Max: 0x00010000, ABSOLUTE)

    Execution Region ER_IROM1 (Exec base: 0x08000000, Load base: 0x08000000, Size: 0x00005754, Max: 0x00010000, ABSOLUTE)

    Exec Addr    Load Addr    Size         Type   Attr      Idx    E Section Name        Object

    0x08000000   0x08000000   0x00000168   Data   RO          118    RESET               startup_gd32f1x0.o
    0x08000168   0x08000168   0x00000000   Code   RO          123  * .ARM.Collect$$$$00000000  mc_w.l(entry.o)
    0x08000168   0x08000168   0x00000004   Code   RO          144    .ARM.Collect$$$$00000001  mc_w.l(entry2.o)
    0x0800016c   0x0800016c   0x00000004   Code   RO          147    .ARM.Collect$$$$00000004  mc_w.l(entry5.o)
    0x08000170   0x08000170   0x00000000   Code   RO          149    .ARM.Collect$$$$00000008  mc_w.l(entry7b.o)
    0x08000170   0x08000170   0x00000000   Code   RO          151    .ARM.Collect$$$$0000000A  mc_w.l(entry8b.o)
    0x08000170   0x08000170   0x00000008   Code   RO          152    .ARM.Collect$$$$0000000B  mc_w.l(entry9a.o)
    0x08000178   0x08000178   0x00000000   Code   RO          154    .ARM.Collect$$$$0000000D  mc_w.l(entry10a.o)
    0x08000178   0x08000178   0x00000000   Code   RO          156    .ARM.Collect$$$$0000000F  mc_w.l(entry11a.o)
    0x08000178   0x08000178   0x00000004   Code   RO          145    .ARM.Collect$$$$00002712  mc_w.l(entry2.o)
    0x0800017c   0x0800017c   0x00000662   Code   RO            1    .text               main.o
    0x080007de   0x080007de   0x00000002   PAD
    0x080007e0   0x080007e0   0x0000045e   Code   RO           19    .text               bldc.o
    0x08000c3e   0x08000c3e   0x00000002   PAD
    0x08000c40   0x08000c40   0x0000086c   Code   RO           45    .text               setup.o
    0x080014ac   0x080014ac   0x00000142   Code   RO           55    .text               it.o
    0x080015ee   0x080015ee   0x00000002   PAD
    0x080015f0   0x080015f0   0x0000010e   Code   RO           62    .text               comms.o
    0x080016fe   0x080016fe   0x00000002   PAD
    0x08001700   0x08001700   0x0000019c   Code   RO           64    .text               remoteuart.o
    0x0800189c   0x0800189c   0x000000fc   Code   RO           74    .text               commsmasterslave.o
    0x08001998   0x08001998   0x000005a6   Code   RO           81    .text               gd32f1x0_adc.o
    0x08001f3e   0x08001f3e   0x00000002   PAD
    0x08001f40   0x08001f40   0x0000034c   Code   RO           85    .text               gd32f1x0_dma.o
    0x0800228c   0x0800228c   0x000009d4   Code   RO           87    .text               gd32f1x0_fmc.o
    0x08002c60   0x08002c60   0x000000da   Code   RO           89    .text               gd32f1x0_fwdgt.o
    0x08002d3a   0x08002d3a   0x00000002   PAD
    0x08002d3c   0x08002d3c   0x00000198   Code   RO           91    .text               gd32f1x0_gpio.o
    0x08002ed4   0x08002ed4   0x00000130   Code   RO           96    .text               gd32f1x0_misc.o
    0x08003004   0x08003004   0x00000730   Code   RO          105    .text               gd32f1x0_rcu.o
    0x08003734   0x08003734   0x00000d60   Code   RO          110    .text               gd32f1x0_timer.o
    0x08004494   0x08004494   0x0000063e   Code   RO          112    .text               gd32f1x0_usart.o
    0x08004ad2   0x08004ad2   0x00000002   PAD
    0x08004ad4   0x08004ad4   0x00000024   Code   RO          119    .text               startup_gd32f1x0.o
    0x08004af8   0x08004af8   0x0000013c   Code   RO          120    .text               system_gd32f1x0.o
    0x08004c34   0x08004c34   0x000000b0   Code   RO          126    .text               mf_w.l(fadd.o)
    0x08004ce4   0x08004ce4   0x00000064   Code   RO          127    .text               mf_w.l(fmul.o)
    0x08004d48   0x08004d48   0x0000007c   Code   RO          128    .text               mf_w.l(fdiv.o)
    0x08004dc4   0x08004dc4   0x0000014e   Code   RO          129    .text               mf_w.l(dadd.o)
    0x08004f12   0x08004f12   0x000000e4   Code   RO          130    .text               mf_w.l(dmul.o)
    0x08004ff6   0x08004ff6   0x000000de   Code   RO          131    .text               mf_w.l(ddiv.o)
    0x080050d4   0x080050d4   0x0000001c   Code   RO          132    .text               mf_w.l(fcmple.o)
    0x080050f0   0x080050f0   0x0000001c   Code   RO          133    .text               mf_w.l(fcmplt.o)
    0x0800510c   0x0800510c   0x0000001c   Code   RO          134    .text               mf_w.l(fcmpge.o)
    0x08005128   0x08005128   0x0000001c   Code   RO          135    .text               mf_w.l(fcmpgt.o)
    0x08005144   0x08005144   0x00000012   Code   RO          136    .text               mf_w.l(fflti.o)
    0x08005156   0x08005156   0x0000000a   Code   RO          137    .text               mf_w.l(ffltui.o)
    0x08005160   0x08005160   0x00000022   Code   RO          138    .text               mf_w.l(dflti.o)
    0x08005182   0x08005182   0x0000001a   Code   RO          139    .text               mf_w.l(dfltui.o)
    0x0800519c   0x0800519c   0x00000032   Code   RO          140    .text               mf_w.l(ffixi.o)
    0x080051ce   0x080051ce   0x0000003e   Code   RO          141    .text               mf_w.l(dfixi.o)
    0x0800520c   0x0800520c   0x00000026   Code   RO          142    .text               mf_w.l(f2d.o)
    0x08005232   0x08005232   0x00000038   Code   RO          143    .text               mf_w.l(d2f.o)
    0x0800526a   0x0800526a   0x0000001e   Code   RO          158    .text               mc_w.l(llshl.o)
    0x08005288   0x08005288   0x00000020   Code   RO          159    .text               mc_w.l(llushr.o)
    0x080052a8   0x080052a8   0x00000024   Code   RO          160    .text               mc_w.l(llsshr.o)
    0x080052cc   0x080052cc   0x00000000   Code   RO          161    .text               mc_w.l(iusefp.o)
    0x080052cc   0x080052cc   0x0000006e   Code   RO          162    .text               mf_w.l(fepilogue.o)
    0x0800533a   0x0800533a   0x000000ba   Code   RO          163    .text               mf_w.l(depilogue.o)
    0x080053f4   0x080053f4   0x00000024   Code   RO          164    .text               mc_w.l(init.o)
    0x08005418   0x08005418   0x0000000e   Code   RO          167    i.__scatterload_copy  mc_w.l(handlers.o)
    0x08005426   0x08005426   0x00000002   Code   RO          168    i.__scatterload_null  mc_w.l(handlers.o)
    0x08005428   0x08005428   0x0000000e   Code   RO          169    i.__scatterload_zeroinit  mc_w.l(handlers.o)
    0x08005436   0x08005436   0x0000000c   Data   RO           35    .rodata..L__const.up_or_down.up_down  bldc.o
    0x08005442   0x08005442   0x0000000c   Data   RO           93    .rodata..Lswitch.table.gpio_deinit.1  gd32f1x0_gpio.o
    0x0800544e   0x0800544e   0x00000008   Data   RO          107    .rodata.cst8        gd32f1x0_rcu.o
    0x08005456   0x08005456   0x00000008   Data   RO           36    .rodata.hall_to_pos  bldc.o
    0x0800545e   0x0800545e   0x00000002   PAD
    0x08005460   0x08005460   0x000002d4   Data   RO           13    .rodata.lookUpTableAngle  main.o
    0x08005734   0x08005734   0x00000020   Data   RO          166    Region$$Table       anon$$obj.o


    Execution Region RW_IRAM1 (Exec base: 0x20000000, Load base: 0x08005758, Size: 0x00000538, Max: 0x00002000, ABSOLUTE)

    Exec Addr    Load Addr    Size         Type   Attr      Idx    E Section Name        Object

    0x20000000   0x08005758   0x00000004   Data   RW          122    .data.SystemCoreClock  system_gd32f1x0.o
    0x20000004   0x0800575c   0x00000004   Data   RW           21    .data.batteryVoltage  bldc.o
    0x20000008   0x08005760   0x00000001   Data   RW           10    .data.beepsBackwards  main.o
    0x20000009   0x08005761   0x00000003   PAD
    0x2000000c   0x08005764   0x00000004   Data   RW           22    .data.currentDC     bldc.o
    0x20000010   0x08005768   0x00000002   Data   RW           78    .data.iReceivePos   commsmasterslave.o
    0x20000012   0x0800576a   0x00000002   Data   RW           29    .data.offsetdc      bldc.o
    0x20000014   0x0800576c   0x00000002   Data   RW            5    .data.speedLimit    main.o
    0x20000016   0x0800576e   0x00000001   Data   RW            6    .data.wState        main.o
    0x20000017   0x0800576f   0x00000001   Data   RW            7    .data.wStateSlave   main.o
    0x20000018        -       0x00000009   Zero   RW           69    .bss.aReceiveBuffer  remoteuart.o
    0x20000021        -       0x00000010   Zero   RW           79    .bss.aReceiveBuffer  commsmasterslave.o
    0x20000031   0x08005770   0x00000001   PAD
    0x20000032        -       0x00000004   Zero   RW           37    .bss.adc_buffer     bldc.o
    0x20000036        -       0x00000001   Zero   RW           77    .bss.beepsBackwardsMaster  commsmasterslave.o
    0x20000037        -       0x00000001   Zero   RW           25    .bss.bldc_enable    bldc.o
    0x20000038        -       0x00000002   Zero   RW           24    .bss.bldc_inputFilterPwm  bldc.o
    0x2000003a        -       0x00000002   Zero   RW           26    .bss.bldc_outputFilterPwm  bldc.o
    0x2000003c        -       0x00000001   Zero   RW           32    .bss.buzzerFreq     bldc.o
    0x2000003d        -       0x00000001   Zero   RW           33    .bss.buzzerPattern  bldc.o
    0x2000003e        -       0x00000002   Zero   RW           27    .bss.buzzerTimer    bldc.o
    0x20000040        -       0x00000001   Zero   RW           31    .bss.buzzerToggle   bldc.o
    0x20000041   0x08005770   0x00000003   PAD
    0x20000044        -       0x00000024   Zero   RW           51    .bss.dma_init_struct_adc  setup.o
    0x20000068        -       0x00000024   Zero   RW           52    .bss.dma_init_struct_usart  setup.o
    0x2000008c        -       0x00000001   Zero   RW           14    .bss.enable         main.o
    0x2000008d   0x08005770   0x00000003   PAD
    0x20000090        -       0x00000004   Zero   RW           43    .bss.filter_reg     bldc.o
    0x20000094        -       0x00000001   Zero   RW           41    .bss.hall           bldc.o
    0x20000095        -       0x00000001   Zero   RW           38    .bss.hall_a         bldc.o
    0x20000096        -       0x00000001   Zero   RW           39    .bss.hall_b         bldc.o
    0x20000097        -       0x00000001   Zero   RW           40    .bss.hall_c         bldc.o
    0x20000098        -       0x00000004   Zero   RW           34    .bss.iOdom          bldc.o
    0x2000009c        -       0x00000002   Zero   RW           68    .bss.iReceivePos    remoteuart.o
    0x2000009e   0x08005770   0x00000002   PAD
    0x200000a0        -       0x00000004   Zero   RW           66    .bss.iTimeLastRx    remoteuart.o
    0x200000a4        -       0x00000004   Zero   RW           16    .bss.iTimeNextLoop  main.o
    0x200000a8        -       0x00000004   Zero   RW           67    .bss.iTimeNextTx    remoteuart.o
    0x200000ac        -       0x00000004   Zero   RW           12    .bss.inactivity_timeout_counter  main.o
    0x200000b0        -       0x00000001   Zero   RW           44    .bss.lastPos        bldc.o
    0x200000b1   0x08005770   0x00000003   PAD
    0x200000b4        -       0x00000004   Zero   RW           59    .bss.msTicks        it.o
    0x200000b8        -       0x00000010   Zero   RW           17    .bss.oDataSlave     main.o
    0x200000c8        -       0x00000002   Zero   RW           28    .bss.offsetcount    bldc.o
    0x200000ca        -       0x00000001   Zero   RW           42    .bss.pos            bldc.o
    0x200000cb   0x08005770   0x00000001   PAD
    0x200000cc        -       0x00000002   Zero   RW           15    .bss.pwmSlave       main.o
    0x200000ce   0x08005770   0x00000002   PAD
    0x200000d0        -       0x00000004   Zero   RW           23    .bss.realSpeed      bldc.o
    0x200000d4        -       0x00000004   Zero   RW            4    .bss.speed          main.o
    0x200000d8        -       0x00000004   Zero   RW           30    .bss.speedCounter   bldc.o
    0x200000dc        -       0x00000004   Zero   RW            8    .bss.steer          main.o
    0x200000e0        -       0x00000004   Zero   RW            3    .bss.steerCounter   main.o
    0x200000e4        -       0x00000001   Zero   RW           58    .bss.timedOut       it.o
    0x200000e5   0x08005770   0x00000003   PAD
    0x200000e8        -       0x00000004   Zero   RW           57    .bss.timeoutCounter_ms  it.o
    0x200000ec        -       0x00000010   Zero   RW           47    .bss.timeoutTimer_paramter_struct  setup.o
    0x200000fc        -       0x00000018   Zero   RW           50    .bss.timerBldc_break_parameter_struct  setup.o
    0x20000114        -       0x00000010   Zero   RW           49    .bss.timerBldc_oc_parameter_struct  setup.o
    0x20000124        -       0x00000010   Zero   RW           48    .bss.timerBldc_paramter_struct  setup.o
    0x20000134        -       0x00000001   Zero   RW           54    .bss.usart0_rx_buf  setup.o
    0x20000135        -       0x00000001   Zero   RW           53    .bss.usart1_rx_buf  setup.o
    0x20000136   0x08005770   0x00000002   PAD
    0x20000138        -       0x00000400   Zero   RW          116    STACK               startup_gd32f1x0.o


==============================================================================

Image component sizes


      Code (inc. data)   RO Data    RW Data    ZI Data      Debug   Object Name

      1118          6         20         10         38          0   bldc.o
       270          0          0          0          0          0   comms.o
       252          0          0          2         17          0   commsmasterslave.o
      1446         16          0          0          0          0   gd32f1x0_adc.o
       844          8          0          0          0          0   gd32f1x0_dma.o
      2516          0          0          0          0          0   gd32f1x0_fmc.o
       218          0          0          0          0          0   gd32f1x0_fwdgt.o
       408          0         12          0          0          0   gd32f1x0_gpio.o
       304          0          0          0          0          0   gd32f1x0_misc.o
      1840         34          8          0          0          0   gd32f1x0_rcu.o
      3424         44          0          0          0          0   gd32f1x0_timer.o
      1598          8          0          0          0          0   gd32f1x0_usart.o
       322          0          0          0          9          0   it.o
      1634          0        724          5         39          0   main.o
       412          0          0          0         19          0   remoteuart.o
      2156          0          0          0        146          0   setup.o
        36          8        360          0       1024          0   startup_gd32f1x0.o
       316         16          0          4          0          0   system_gd32f1x0.o

    ----------------------------------------------------------------------
     19128        140       1158         24       1312          0   Object Totals
         0          0         32          0          0          0   (incl. Generated)
        14          0          2          3         20          0   (incl. Padding)

    ----------------------------------------------------------------------

      Code (inc. data)   RO Data    RW Data    ZI Data      Debug   Library Member Name

         0          0          0          0          0          0   entry.o
         0          0          0          0          0          0   entry10a.o
         0          0          0          0          0          0   entry11a.o
         8          4          0          0          0          0   entry2.o
         4          0          0          0          0          0   entry5.o
         0          0          0          0          0          0   entry7b.o
         0          0          0          0          0          0   entry8b.o
         8          4          0          0          0          0   entry9a.o
        30          0          0          0          0          0   handlers.o
        36          8          0          0          0          0   init.o
         0          0          0          0          0          0   iusefp.o
        30          0          0          0          0          0   llshl.o
        36          0          0          0          0          0   llsshr.o
        32          0          0          0          0          0   llushr.o
        56          0          0          0          0          0   d2f.o
       334          0          0          0          0          0   dadd.o
       222          0          0          0          0          0   ddiv.o
       186          0          0          0          0          0   depilogue.o
        62          0          0          0          0          0   dfixi.o
        34          0          0          0          0          0   dflti.o
        26          0          0          0          0          0   dfltui.o
       228          0          0          0          0          0   dmul.o
        38          0          0          0          0          0   f2d.o
       176          0          0          0          0          0   fadd.o
        28          0          0          0          0          0   fcmpge.o
        28          0          0          0          0          0   fcmpgt.o
        28          0          0          0          0          0   fcmple.o
        28          0          0          0          0          0   fcmplt.o
       124          0          0          0          0          0   fdiv.o
       110          0          0          0          0          0   fepilogue.o
        50          0          0          0          0          0   ffixi.o
        18          0          0          0          0          0   fflti.o
        10          0          0          0          0          0   ffltui.o
       100          0          0          0          0          0   fmul.o

    ----------------------------------------------------------------------
      2070         16          0          0          0          0   Library Totals
         0          0          0          0          0          0   (incl. Padding)

    ----------------------------------------------------------------------

      Code (inc. data)   RO Data    RW Data    ZI Data      Debug   Library Name

       184         16          0          0          0          0   mc_w.l
      1886          0          0          0          0          0   mf_w.l

    ----------------------------------------------------------------------
      2070         16          0          0          0          0   Library Totals

    ----------------------------------------------------------------------

==============================================================================


      Code (inc. data)   RO Data    RW Data    ZI Data      Debug   

     21198        156       1158         24       1312          0   Grand Totals
     21198        156       1158         24       1312          0   ELF Image Totals
     21198        156       1158         24          0          0   ROM Totals

==============================================================================

    Total RO  Size (Code + RO Data)                22356 (  21.83kB)
    Total RW  Size (RW Data + ZI Data)              1336 (   1.30kB)
    Total ROM Size (Code + RO Data + RW Data)      22380 (  21.86kB)

==============================================================================

