Component: Arm Compiler for Embedded 6.19 Tool: armlink [5e73cb00]

==============================================================================

Section Cross References

    main.o(.text) refers to setup.o(.text) for ConfigRead
    main.o(.text) refers to system_gd32f1x0.o(.text) for SystemCoreClockUpdate
    main.o(.text) refers to system_gd32f1x0.o(.data.SystemCoreClock) for SystemCoreClock
    main.o(.text) refers to gd32f1x0_gpio.o(.text) for gpio_bit_write
    main.o(.text) refers to bldcbc.o(.text) for InitBldc
    main.o(.text) refers to gd32f1x0_fwdgt.o(.text) for fwdgt_counter_reload
    main.o(.text) refers to bldc.o(.bss.buzzerFreq) for buzzerFreq
    main.o(.text) refers to it.o(.text) for Delay
    main.o(.text) refers to main.o(.bss.iConfigMode) for iConfigMode
    main.o(.text) refers to bldc.o(.bss.buzzerPattern) for buzzerPattern
    main.o(.text) refers to main.o(.bss.iTimeNextLoop) for iTimeNextLoop
    main.o(.text) refers to main.o(.bss.speed) for speed
    main.o(.text) refers to main.o(.bss.steerCounter) for steerCounter
    main.o(.text) refers to remoteuart.o(.text) for RemoteUpdate
    main.o(.text) refers to main.o(.bss.speedShutoff) for speedShutoff
    main.o(.text) refers to fflti.o(.text) for __aeabi_i2f
    main.o(.text) refers to f2d.o(.text) for __aeabi_f2d
    main.o(.text) refers to dmul.o(.text) for __aeabi_dmul
    main.o(.text) refers to ddiv.o(.text) for __aeabi_ddiv
    main.o(.text) refers to dadd.o(.text) for __aeabi_dadd
    main.o(.text) refers to d2f.o(.text) for __aeabi_d2f
    main.o(.text) refers to main.o(.data.speedLimit) for speedLimit
    main.o(.text) refers to main.o(.bss.steer) for steer
    main.o(.text) refers to fmul.o(.text) for __aeabi_fmul
    main.o(.text) refers to ffixi.o(.text) for __aeabi_f2iz
    main.o(.text) refers to fadd.o(.text) for __aeabi_fsub
    main.o(.text) refers to fdiv.o(.text) for __aeabi_fdiv
    main.o(.text) refers to main.o(.rodata.lookUpTableAngle) for lookUpTableAngle
    main.o(.text) refers to fcmplt.o(.text) for __aeabi_fcmplt
    main.o(.text) refers to main.o(.bss.pwmSlave) for pwmSlave
    main.o(.text) refers to bldc.o(.text) for SetPWM
    main.o(.text) refers to main.o(.bss.enable) for enable
    main.o(.text) refers to it.o(.bss.timedOut) for timedOut
    main.o(.text) refers to main.o(.data.wStateSlave) for wStateSlave
    main.o(.text) refers to commsmasterslave.o(.text) for SendSlave
    main.o(.text) refers to bldc.o(.data.batteryVoltage) for batteryVoltage
    main.o(.text) refers to fcmple.o(.text) for __aeabi_fcmple
    main.o(.text) refers to main.o(.data.wState) for wState
    main.o(.text) refers to main.o(.data.beepsBackwards) for beepsBackwards
    main.o(.text) refers to dcmple.o(.text) for __aeabi_dcmple
    main.o(.text) refers to main.o(.bss.inactivity_timeout_counter) for inactivity_timeout_counter
    main.o(.text) refers to gd32f1x0_usart.o(.text) for usart_deinit
    main.o(.ARM.exidx) refers to main.o(.text) for [Anonymous Symbol]
    bldc.o(.text) refers to bldc.o(.rodata..L__const.up_or_down.up_down) for .L__const.up_or_down.up_down
    bldc.o(.text) refers to bldc.o(.bss.bldc_enable) for bldc_enable
    bldc.o(.text) refers to dflti.o(.text) for __aeabi_i2d
    bldc.o(.text) refers to ddiv.o(.text) for __aeabi_ddiv
    bldc.o(.text) refers to dmul.o(.text) for __aeabi_dmul
    bldc.o(.text) refers to dfixi.o(.text) for __aeabi_d2iz
    bldc.o(.text) refers to bldc.o(.bss.bldc_inputFilterPwm) for bldc_inputFilterPwm
    bldc.o(.text) refers to bldc.o(.bss.offsetcount) for offsetcount
    bldc.o(.text) refers to bldc.o(.bss.adc_buffer) for adc_buffer
    bldc.o(.text) refers to bldc.o(.data.offsetdc) for offsetdc
    bldc.o(.text) refers to bldc.o(.bss.buzzerTimer) for buzzerTimer
    bldc.o(.text) refers to bldc.o(.data.batteryVoltage) for batteryVoltage
    bldc.o(.text) refers to f2d.o(.text) for __aeabi_f2d
    bldc.o(.text) refers to dfltui.o(.text) for __aeabi_ui2d
    bldc.o(.text) refers to dadd.o(.text) for __aeabi_dadd
    bldc.o(.text) refers to d2f.o(.text) for __aeabi_d2f
    bldc.o(.text) refers to bldc.o(.bss.buzzerFreq) for buzzerFreq
    bldc.o(.text) refers to bldc.o(.bss.buzzerPattern) for buzzerPattern
    bldc.o(.text) refers to gd32f1x0_gpio.o(.text) for gpio_bit_write
    bldc.o(.text) refers to bldc.o(.data.currentDC) for currentDC
    bldc.o(.text) refers to fcmpgt.o(.text) for __aeabi_fcmpgt
    bldc.o(.text) refers to it.o(.bss.timedOut) for timedOut
    bldc.o(.text) refers to gd32f1x0_timer.o(.text) for timer_automatic_output_enable
    bldc.o(.text) refers to bldc.o(.bss.hall_a) for hall_a
    bldc.o(.text) refers to bldc.o(.bss.hall_b) for hall_b
    bldc.o(.text) refers to bldc.o(.bss.hall_c) for hall_c
    bldc.o(.text) refers to bldc.o(.bss.hall) for hall
    bldc.o(.text) refers to bldc.o(.rodata.hall_to_pos) for hall_to_pos
    bldc.o(.text) refers to bldc.o(.bss.pos) for pos
    bldc.o(.text) refers to bldc.o(.bss.buzzerToggle) for buzzerToggle
    bldc.o(.text) refers to bldc.o(.bss.filter_reg) for filter_reg
    bldc.o(.text) refers to bldc.o(.bss.bldc_outputFilterPwm) for bldc_outputFilterPwm
    bldc.o(.text) refers to bldcbc.o(.text) for bldc_get_pwm
    bldc.o(.text) refers to bldc.o(.bss.lastPos) for lastPos
    bldc.o(.text) refers to bldc.o(.bss.iOdom) for iOdom
    bldc.o(.text) refers to bldc.o(.bss.speedCounter) for speedCounter
    bldc.o(.text) refers to ffltui.o(.text) for __aeabi_ui2f
    bldc.o(.text) refers to fdiv.o(.text) for __aeabi_fdiv
    bldc.o(.text) refers to bldc.o(.bss.realSpeed) for realSpeed
    bldc.o(.ARM.exidx) refers to bldc.o(.text) for [Anonymous Symbol]
    bldcbc.o(.ARM.exidx) refers to bldcbc.o(.text) for [Anonymous Symbol]
    setup.o(.text) refers to gd32f1x0_gpio.o(.text) for gpio_mode_set
    setup.o(.text) refers to gd32f1x0_misc.o(.text) for nvic_priority_group_set
    setup.o(.text) refers to gd32f1x0_rcu.o(.text) for rcu_flag_get
    setup.o(.text) refers to gd32f1x0_fwdgt.o(.text) for fwdgt_config
    setup.o(.text) refers to gd32f1x0_timer.o(.text) for timer_deinit
    setup.o(.text) refers to setup.o(.bss.timeoutTimer_paramter_struct) for timeoutTimer_paramter_struct
    setup.o(.text) refers to setup.o(.bss.timerBldc_paramter_struct) for timerBldc_paramter_struct
    setup.o(.text) refers to setup.o(.bss.timerBldc_oc_parameter_struct) for timerBldc_oc_parameter_struct
    setup.o(.text) refers to setup.o(.bss.timerBldc_break_parameter_struct) for timerBldc_break_parameter_struct
    setup.o(.text) refers to gd32f1x0_dma.o(.text) for dma_deinit
    setup.o(.text) refers to setup.o(.bss.dma_init_struct_adc) for dma_init_struct_adc
    setup.o(.text) refers to bldc.o(.bss.adc_buffer) for adc_buffer
    setup.o(.text) refers to gd32f1x0_adc.o(.text) for adc_channel_length_config
    setup.o(.text) refers to gd32f1x0_usart.o(.text) for usart_baudrate_set
    setup.o(.text) refers to setup.o(.bss.dma_init_struct_usart) for dma_init_struct_usart
    setup.o(.text) refers to setup.o(.bss.usart1_rx_buf) for usart1_rx_buf
    setup.o(.text) refers to setup.o(.bss.usart0_rx_buf) for usart0_rx_buf
    setup.o(.text) refers to gd32f1x0_fmc.o(.text) for fmc_unlock
    setup.o(.text) refers to setup.o(.bss.oConfig) for oConfig
    setup.o(.ARM.exidx) refers to setup.o(.text) for [Anonymous Symbol]
    it.o(.text) refers to it.o(.bss.msTicks) for msTicks
    it.o(.text) refers to it.o(.bss.timeoutCounter_ms) for timeoutCounter_ms
    it.o(.text) refers to it.o(.bss.timedOut) for timedOut
    it.o(.text) refers to main.o(.bss.steer) for steer
    it.o(.text) refers to main.o(.bss.speed) for speed
    it.o(.text) refers to main.o(.data.beepsBackwards) for beepsBackwards
    it.o(.text) refers to gd32f1x0_timer.o(.text) for timer_interrupt_flag_clear
    it.o(.text) refers to gd32f1x0_adc.o(.text) for adc_software_trigger_enable
    it.o(.text) refers to gd32f1x0_dma.o(.text) for dma_interrupt_flag_get
    it.o(.text) refers to bldc.o(.text) for CalculateBLDC
    it.o(.text) refers to remoteuart.o(.text) for RemoteCallback
    it.o(.text) refers to commsmasterslave.o(.text) for UpdateUSARTMasterSlaveInput
    it.o(.ARM.exidx) refers to it.o(.text) for [Anonymous Symbol]
    comms.o(.text) refers to gd32f1x0_usart.o(.text) for usart_data_transmit
    comms.o(.ARM.exidx) refers to comms.o(.text) for [Anonymous Symbol]
    remoteuart.o(.text) refers to it.o(.text) for millis
    remoteuart.o(.text) refers to remoteuart.o(.bss.iTimeLastRx) for iTimeLastRx
    remoteuart.o(.text) refers to main.o(.bss.steer) for steer
    remoteuart.o(.text) refers to main.o(.bss.speed) for speed
    remoteuart.o(.text) refers to remoteuart.o(.bss.iTimeNextTx) for iTimeNextTx
    remoteuart.o(.text) refers to bldc.o(.data.batteryVoltage) for batteryVoltage
    remoteuart.o(.text) refers to fmul.o(.text) for __aeabi_fmul
    remoteuart.o(.text) refers to ffixi.o(.text) for __aeabi_f2iz
    remoteuart.o(.text) refers to bldc.o(.data.currentDC) for currentDC
    remoteuart.o(.text) refers to bldc.o(.bss.realSpeed) for realSpeed
    remoteuart.o(.text) refers to bldc.o(.bss.iOdom) for iOdom
    remoteuart.o(.text) refers to main.o(.bss.oDataSlave) for oDataSlave
    remoteuart.o(.text) refers to comms.o(.text) for CalcCRC
    remoteuart.o(.text) refers to setup.o(.bss.usart0_rx_buf) for usart0_rx_buf
    remoteuart.o(.text) refers to remoteuart.o(.bss.iReceivePos) for iReceivePos
    remoteuart.o(.text) refers to remoteuart.o(.bss.aReceiveBuffer) for aReceiveBuffer
    remoteuart.o(.text) refers to main.o(.data.wState) for wState
    remoteuart.o(.text) refers to main.o(.data.wStateSlave) for wStateSlave
    remoteuart.o(.ARM.exidx) refers to remoteuart.o(.text) for [Anonymous Symbol]
    commsmasterslave.o(.text) refers to setup.o(.bss.usart1_rx_buf) for usart1_rx_buf
    commsmasterslave.o(.text) refers to commsmasterslave.o(.data.iReceivePos) for iReceivePos
    commsmasterslave.o(.text) refers to commsmasterslave.o(.bss.aReceiveBuffer) for aReceiveBuffer
    commsmasterslave.o(.text) refers to comms.o(.text) for CalcCRC
    commsmasterslave.o(.text) refers to main.o(.bss.oDataSlave) for oDataSlave
    commsmasterslave.o(.text) refers to main.o(.data.wStateSlave) for wStateSlave
    commsmasterslave.o(.ARM.exidx) refers to commsmasterslave.o(.text) for [Anonymous Symbol]
    gd32f1x0_adc.o(.text) refers to gd32f1x0_rcu.o(.text) for rcu_periph_reset_enable
    gd32f1x0_adc.o(.ARM.exidx) refers to gd32f1x0_adc.o(.text) for [Anonymous Symbol]
    gd32f1x0_dbg.o(.ARM.exidx) refers to gd32f1x0_dbg.o(.text) for [Anonymous Symbol]
    gd32f1x0_dma.o(.ARM.exidx) refers to gd32f1x0_dma.o(.text) for [Anonymous Symbol]
    gd32f1x0_exti.o(.ARM.exidx) refers to gd32f1x0_exti.o(.text) for [Anonymous Symbol]
    gd32f1x0_fmc.o(.ARM.exidx) refers to gd32f1x0_fmc.o(.text) for [Anonymous Symbol]
    gd32f1x0_fwdgt.o(.ARM.exidx) refers to gd32f1x0_fwdgt.o(.text) for [Anonymous Symbol]
    gd32f1x0_gpio.o(.text) refers to gd32f1x0_gpio.o(.rodata..Lswitch.table.gpio_deinit.1) for .Lswitch.table.gpio_deinit.1
    gd32f1x0_gpio.o(.text) refers to gd32f1x0_rcu.o(.text) for rcu_periph_reset_enable
    gd32f1x0_gpio.o(.ARM.exidx) refers to gd32f1x0_gpio.o(.text) for [Anonymous Symbol]
    gd32f1x0_i2c.o(.text) refers to gd32f1x0_rcu.o(.text) for rcu_periph_reset_enable
    gd32f1x0_i2c.o(.ARM.exidx) refers to gd32f1x0_i2c.o(.text) for [Anonymous Symbol]
    gd32f1x0_misc.o(.ARM.exidx) refers to gd32f1x0_misc.o(.text) for [Anonymous Symbol]
    gd32f1x0_pmu.o(.text) refers to gd32f1x0_rcu.o(.text) for rcu_periph_reset_enable
    gd32f1x0_pmu.o(.text) refers to gd32f1x0_pmu.o(.bss.pmu_to_deepsleepmode.reg_snap.1) for pmu_to_deepsleepmode.reg_snap.1
    gd32f1x0_pmu.o(.text) refers to gd32f1x0_pmu.o(.bss.pmu_to_deepsleepmode.reg_snap.0) for pmu_to_deepsleepmode.reg_snap.0
    gd32f1x0_pmu.o(.text) refers to gd32f1x0_pmu.o(.bss.pmu_to_deepsleepmode.reg_snap.2) for pmu_to_deepsleepmode.reg_snap.2
    gd32f1x0_pmu.o(.text) refers to gd32f1x0_pmu.o(.bss.pmu_to_deepsleepmode.reg_snap.3) for pmu_to_deepsleepmode.reg_snap.3
    gd32f1x0_pmu.o(.ARM.exidx) refers to gd32f1x0_pmu.o(.text) for [Anonymous Symbol]
    gd32f1x0_rcu.o(.text) refers to gd32f1x0_rcu.o(.rodata.cst8) for .L__const.rcu_clock_freq_get.apb2_exp
    gd32f1x0_rcu.o(.ARM.exidx) refers to gd32f1x0_rcu.o(.text) for [Anonymous Symbol]
    gd32f1x0_syscfg.o(.text) refers to gd32f1x0_rcu.o(.text) for rcu_periph_reset_enable
    gd32f1x0_syscfg.o(.ARM.exidx) refers to gd32f1x0_syscfg.o(.text) for [Anonymous Symbol]
    gd32f1x0_timer.o(.text) refers to gd32f1x0_rcu.o(.text) for rcu_periph_reset_enable
    gd32f1x0_timer.o(.ARM.exidx) refers to gd32f1x0_timer.o(.text) for [Anonymous Symbol]
    gd32f1x0_usart.o(.text) refers to gd32f1x0_rcu.o(.text) for rcu_periph_reset_enable
    gd32f1x0_usart.o(.ARM.exidx) refers to gd32f1x0_usart.o(.text) for [Anonymous Symbol]
    gd32f1x0_wwdgt.o(.text) refers to gd32f1x0_rcu.o(.text) for rcu_periph_reset_enable
    gd32f1x0_wwdgt.o(.ARM.exidx) refers to gd32f1x0_wwdgt.o(.text) for [Anonymous Symbol]
    startup_gd32f1x0.o(RESET) refers to startup_gd32f1x0.o(STACK) for __initial_sp
    startup_gd32f1x0.o(RESET) refers to startup_gd32f1x0.o(.text) for Reset_Handler
    startup_gd32f1x0.o(RESET) refers to it.o(.text) for NMI_Handler
    startup_gd32f1x0.o(.text) refers to system_gd32f1x0.o(.text) for SystemInit
    startup_gd32f1x0.o(.text) refers to entry.o(.ARM.Collect$$$$00000000) for __main
    system_gd32f1x0.o(.text) refers to system_gd32f1x0.o(.data.SystemCoreClock) for SystemCoreClock
    system_gd32f1x0.o(.ARM.exidx) refers to system_gd32f1x0.o(.text) for [Anonymous Symbol]
    entry.o(.ARM.Collect$$$$00000000) refers (Special) to entry10a.o(.ARM.Collect$$$$0000000D) for __rt_final_cpp
    entry.o(.ARM.Collect$$$$00000000) refers (Special) to entry11a.o(.ARM.Collect$$$$0000000F) for __rt_final_exit
    entry.o(.ARM.Collect$$$$00000000) refers (Special) to entry7b.o(.ARM.Collect$$$$00000008) for _main_clock
    entry.o(.ARM.Collect$$$$00000000) refers (Special) to entry8b.o(.ARM.Collect$$$$0000000A) for _main_cpp_init
    entry.o(.ARM.Collect$$$$00000000) refers (Special) to entry9a.o(.ARM.Collect$$$$0000000B) for _main_init
    entry.o(.ARM.Collect$$$$00000000) refers (Special) to entry5.o(.ARM.Collect$$$$00000004) for _main_scatterload
    entry.o(.ARM.Collect$$$$00000000) refers (Special) to entry2.o(.ARM.Collect$$$$00000001) for _main_stk
    fadd.o(.text) refers (Special) to iusefp.o(.text) for __I$use$fp
    fadd.o(.text) refers to fepilogue.o(.text) for _float_epilogue
    fmul.o(.text) refers (Special) to iusefp.o(.text) for __I$use$fp
    fdiv.o(.text) refers (Special) to iusefp.o(.text) for __I$use$fp
    fdiv.o(.text) refers to fepilogue.o(.text) for _float_round
    dadd.o(.text) refers (Special) to iusefp.o(.text) for __I$use$fp
    dadd.o(.text) refers to llshl.o(.text) for __aeabi_llsl
    dadd.o(.text) refers to llsshr.o(.text) for __aeabi_lasr
    dadd.o(.text) refers to depilogue.o(.text) for _double_epilogue
    dmul.o(.text) refers (Special) to iusefp.o(.text) for __I$use$fp
    dmul.o(.text) refers to depilogue.o(.text) for _double_epilogue
    ddiv.o(.text) refers (Special) to iusefp.o(.text) for __I$use$fp
    ddiv.o(.text) refers to depilogue.o(.text) for _double_round
    fcmple.o(.text) refers (Special) to iusefp.o(.text) for __I$use$fp
    fcmplt.o(.text) refers (Special) to iusefp.o(.text) for __I$use$fp
    fcmpgt.o(.text) refers (Special) to iusefp.o(.text) for __I$use$fp
    dcmple.o(.text) refers (Special) to iusefp.o(.text) for __I$use$fp
    fflti.o(.text) refers (Special) to iusefp.o(.text) for __I$use$fp
    fflti.o(.text) refers to fepilogue.o(.text) for _float_epilogue
    ffltui.o(.text) refers (Special) to iusefp.o(.text) for __I$use$fp
    ffltui.o(.text) refers to fepilogue.o(.text) for _float_epilogue
    dflti.o(.text) refers (Special) to iusefp.o(.text) for __I$use$fp
    dflti.o(.text) refers to depilogue.o(.text) for _double_epilogue
    dfltui.o(.text) refers (Special) to iusefp.o(.text) for __I$use$fp
    dfltui.o(.text) refers to depilogue.o(.text) for _double_epilogue
    ffixi.o(.text) refers (Special) to iusefp.o(.text) for __I$use$fp
    dfixi.o(.text) refers (Special) to iusefp.o(.text) for __I$use$fp
    dfixi.o(.text) refers to llushr.o(.text) for __aeabi_llsr
    f2d.o(.text) refers (Special) to iusefp.o(.text) for __I$use$fp
    d2f.o(.text) refers (Special) to iusefp.o(.text) for __I$use$fp
    d2f.o(.text) refers to fepilogue.o(.text) for _float_round
    entry2.o(.ARM.Collect$$$$00000001) refers to entry2.o(.ARM.Collect$$$$00002712) for __lit__00000000
    entry2.o(.ARM.Collect$$$$00002712) refers to startup_gd32f1x0.o(STACK) for __initial_sp
    entry2.o(__vectab_stack_and_reset_area) refers to startup_gd32f1x0.o(STACK) for __initial_sp
    entry2.o(__vectab_stack_and_reset_area) refers to entry.o(.ARM.Collect$$$$00000000) for __main
    entry5.o(.ARM.Collect$$$$00000004) refers to init.o(.text) for __scatterload
    entry9a.o(.ARM.Collect$$$$0000000B) refers to main.o(.text) for main
    entry9b.o(.ARM.Collect$$$$0000000C) refers to main.o(.text) for main
    fepilogue.o(.text) refers (Special) to iusefp.o(.text) for __I$use$fp
    depilogue.o(.text) refers (Special) to iusefp.o(.text) for __I$use$fp
    depilogue.o(.text) refers to llshl.o(.text) for __aeabi_llsl
    depilogue.o(.text) refers to llushr.o(.text) for __aeabi_llsr
    init.o(.text) refers to entry5.o(.ARM.Collect$$$$00000004) for __main_after_scatterload


==============================================================================

Removing Unused input sections from the image.

    Removing main.o(.ARM.exidx), (24 bytes).
    Removing main.o(.bss.activateWeakening), (1 bytes).
    Removing main.o(.bss.slaveError), (1 bytes).
    Removing main.o(.ARM.use_no_argv), (4 bytes).
    Removing bldc.o(.ARM.exidx), (40 bytes).
    Removing bldcbc.o(.ARM.exidx), (16 bytes).
    Removing bldcsine.o(.text), (0 bytes).
    Removing setup.o(.ARM.exidx), (152 bytes).
    Removing it.o(.ARM.exidx), (136 bytes).
    Removing it.o(.bss.iUartCounter), (2 bytes).
    Removing led.o(.text), (0 bytes).
    Removing comms.o(.ARM.exidx), (16 bytes).
    Removing remoteuart.o(.ARM.exidx), (16 bytes).
    Removing remoteuart.o(.bss.aiDebug), (14 bytes).
    Removing remotecrsf.o(.text), (0 bytes).
    Removing remotedummy.o(.text), (0 bytes).
    Removing remoteuartbus.o(.text), (0 bytes).
    Removing commsmasterslave.o(.ARM.exidx), (24 bytes).
    Removing commsmasterslave.o(.bss.mosfetOutMaster), (1 bytes).
    Removing commsmasterslave.o(.bss.beepsBackwardsMaster), (1 bytes).
    Removing remoteadc.o(.text), (0 bytes).
    Removing remoteautodetect.o(.text), (0 bytes).
    Removing gd32f1x0_adc.o(.ARM.exidx), (256 bytes).
    Removing gd32f1x0_dbg.o(.text), (128 bytes).
    Removing gd32f1x0_dbg.o(.ARM.exidx), (48 bytes).
    Removing gd32f1x0_dma.o(.ARM.exidx), (216 bytes).
    Removing gd32f1x0_exti.o(.text), (366 bytes).
    Removing gd32f1x0_exti.o(.ARM.exidx), (96 bytes).
    Removing gd32f1x0_fmc.o(.ARM.exidx), (216 bytes).
    Removing gd32f1x0_fwdgt.o(.ARM.exidx), (48 bytes).
    Removing gd32f1x0_gpio.o(.ARM.exidx), (104 bytes).
    Removing gd32f1x0_i2c.o(.text), (810 bytes).
    Removing gd32f1x0_i2c.o(.ARM.exidx), (248 bytes).
    Removing gd32f1x0_misc.o(.ARM.exidx), (56 bytes).
    Removing gd32f1x0_opa.o(.text), (0 bytes).
    Removing gd32f1x0_pmu.o(.text), (490 bytes).
    Removing gd32f1x0_pmu.o(.ARM.exidx), (96 bytes).
    Removing gd32f1x0_pmu.o(.bss.pmu_to_deepsleepmode.reg_snap.0), (4 bytes).
    Removing gd32f1x0_pmu.o(.bss.pmu_to_deepsleepmode.reg_snap.1), (4 bytes).
    Removing gd32f1x0_pmu.o(.bss.pmu_to_deepsleepmode.reg_snap.2), (4 bytes).
    Removing gd32f1x0_pmu.o(.bss.pmu_to_deepsleepmode.reg_snap.3), (4 bytes).
    Removing gd32f1x0_rcu.o(.ARM.exidx), (336 bytes).
    Removing gd32f1x0_syscfg.o(.text), (258 bytes).
    Removing gd32f1x0_syscfg.o(.ARM.exidx), (72 bytes).
    Removing gd32f1x0_timer.o(.ARM.exidx), (568 bytes).
    Removing gd32f1x0_usart.o(.ARM.exidx), (544 bytes).
    Removing gd32f1x0_wwdgt.o(.text), (170 bytes).
    Removing gd32f1x0_wwdgt.o(.ARM.exidx), (56 bytes).
    Removing startup_gd32f1x0.o(HEAP), (1024 bytes).
    Removing system_gd32f1x0.o(.ARM.exidx), (16 bytes).

50 unused section(s) (total 6686 bytes) removed from the image.

==============================================================================

Image Symbol Table

    Local Symbols

    Symbol Name                              Value     Ov Type        Size  Object(Section)

    ../clib/microlib/init/entry.s            0x00000000   Number         0  entry.o ABSOLUTE
    ../clib/microlib/init/entry.s            0x00000000   Number         0  entry2.o ABSOLUTE
    ../clib/microlib/init/entry.s            0x00000000   Number         0  entry5.o ABSOLUTE
    ../clib/microlib/init/entry.s            0x00000000   Number         0  entry7a.o ABSOLUTE
    ../clib/microlib/init/entry.s            0x00000000   Number         0  entry7b.o ABSOLUTE
    ../clib/microlib/init/entry.s            0x00000000   Number         0  entry8a.o ABSOLUTE
    ../clib/microlib/init/entry.s            0x00000000   Number         0  entry8b.o ABSOLUTE
    ../clib/microlib/init/entry.s            0x00000000   Number         0  entry9a.o ABSOLUTE
    ../clib/microlib/init/entry.s            0x00000000   Number         0  entry9b.o ABSOLUTE
    ../clib/microlib/init/entry.s            0x00000000   Number         0  entry10a.o ABSOLUTE
    ../clib/microlib/init/entry.s            0x00000000   Number         0  entry10b.o ABSOLUTE
    ../clib/microlib/init/entry.s            0x00000000   Number         0  entry11a.o ABSOLUTE
    ../clib/microlib/init/entry.s            0x00000000   Number         0  entry11b.o ABSOLUTE
    ../clib/microlib/longlong.c              0x00000000   Number         0  llshl.o ABSOLUTE
    ../clib/microlib/longlong.c              0x00000000   Number         0  llushr.o ABSOLUTE
    ../clib/microlib/longlong.c              0x00000000   Number         0  llsshr.o ABSOLUTE
    ../clib/microlib/stubs.s                 0x00000000   Number         0  iusefp.o ABSOLUTE
    ../fplib/microlib/d2f.c                  0x00000000   Number         0  d2f.o ABSOLUTE
    ../fplib/microlib/f2d.c                  0x00000000   Number         0  f2d.o ABSOLUTE
    ../fplib/microlib/fpadd.c                0x00000000   Number         0  fadd.o ABSOLUTE
    ../fplib/microlib/fpadd.c                0x00000000   Number         0  dadd.o ABSOLUTE
    ../fplib/microlib/fpcmp.c                0x00000000   Number         0  fcmple.o ABSOLUTE
    ../fplib/microlib/fpcmp.c                0x00000000   Number         0  fcmplt.o ABSOLUTE
    ../fplib/microlib/fpcmp.c                0x00000000   Number         0  fcmpgt.o ABSOLUTE
    ../fplib/microlib/fpcmp.c                0x00000000   Number         0  dcmple.o ABSOLUTE
    ../fplib/microlib/fpdiv.c                0x00000000   Number         0  fdiv.o ABSOLUTE
    ../fplib/microlib/fpdiv.c                0x00000000   Number         0  ddiv.o ABSOLUTE
    ../fplib/microlib/fpepilogue.c           0x00000000   Number         0  fepilogue.o ABSOLUTE
    ../fplib/microlib/fpepilogue.c           0x00000000   Number         0  depilogue.o ABSOLUTE
    ../fplib/microlib/fpfix.c                0x00000000   Number         0  ffixi.o ABSOLUTE
    ../fplib/microlib/fpfix.c                0x00000000   Number         0  dfixi.o ABSOLUTE
    ../fplib/microlib/fpflt.c                0x00000000   Number         0  fflti.o ABSOLUTE
    ../fplib/microlib/fpflt.c                0x00000000   Number         0  ffltui.o ABSOLUTE
    ../fplib/microlib/fpflt.c                0x00000000   Number         0  dflti.o ABSOLUTE
    ../fplib/microlib/fpflt.c                0x00000000   Number         0  dfltui.o ABSOLUTE
    ../fplib/microlib/fpmul.c                0x00000000   Number         0  fmul.o ABSOLUTE
    ../fplib/microlib/fpmul.c                0x00000000   Number         0  dmul.o ABSOLUTE
    RTE/Device/GD32F130C8/startup_gd32f1x0.s 0x00000000   Number         0  startup_gd32f1x0.o ABSOLUTE
    RemoteAdc.c                              0x00000000   Number         0  remoteadc.o ABSOLUTE
    RemoteAutodetect.c                       0x00000000   Number         0  remoteautodetect.o ABSOLUTE
    bldc.c                                   0x00000000   Number         0  bldc.o ABSOLUTE
    bldcBC.c                                 0x00000000   Number         0  bldcbc.o ABSOLUTE
    bldcSINE.c                               0x00000000   Number         0  bldcsine.o ABSOLUTE
    comms.c                                  0x00000000   Number         0  comms.o ABSOLUTE
    commsMasterSlave.c                       0x00000000   Number         0  commsmasterslave.o ABSOLUTE
    dc.s                                     0x00000000   Number         0  dc.o ABSOLUTE
    gd32f1x0_adc.c                           0x00000000   Number         0  gd32f1x0_adc.o ABSOLUTE
    gd32f1x0_dbg.c                           0x00000000   Number         0  gd32f1x0_dbg.o ABSOLUTE
    gd32f1x0_dma.c                           0x00000000   Number         0  gd32f1x0_dma.o ABSOLUTE
    gd32f1x0_exti.c                          0x00000000   Number         0  gd32f1x0_exti.o ABSOLUTE
    gd32f1x0_fmc.c                           0x00000000   Number         0  gd32f1x0_fmc.o ABSOLUTE
    gd32f1x0_fwdgt.c                         0x00000000   Number         0  gd32f1x0_fwdgt.o ABSOLUTE
    gd32f1x0_gpio.c                          0x00000000   Number         0  gd32f1x0_gpio.o ABSOLUTE
    gd32f1x0_i2c.c                           0x00000000   Number         0  gd32f1x0_i2c.o ABSOLUTE
    gd32f1x0_misc.c                          0x00000000   Number         0  gd32f1x0_misc.o ABSOLUTE
    gd32f1x0_opa.c                           0x00000000   Number         0  gd32f1x0_opa.o ABSOLUTE
    gd32f1x0_pmu.c                           0x00000000   Number         0  gd32f1x0_pmu.o ABSOLUTE
    gd32f1x0_rcu.c                           0x00000000   Number         0  gd32f1x0_rcu.o ABSOLUTE
    gd32f1x0_syscfg.c                        0x00000000   Number         0  gd32f1x0_syscfg.o ABSOLUTE
    gd32f1x0_timer.c                         0x00000000   Number         0  gd32f1x0_timer.o ABSOLUTE
    gd32f1x0_usart.c                         0x00000000   Number         0  gd32f1x0_usart.o ABSOLUTE
    gd32f1x0_wwdgt.c                         0x00000000   Number         0  gd32f1x0_wwdgt.o ABSOLUTE
    handlers.s                               0x00000000   Number         0  handlers.o ABSOLUTE
    init.s                                   0x00000000   Number         0  init.o ABSOLUTE
    it.c                                     0x00000000   Number         0  it.o ABSOLUTE
    led.c                                    0x00000000   Number         0  led.o ABSOLUTE
    main.c                                   0x00000000   Number         0  main.o ABSOLUTE
    remoteCrsf.c                             0x00000000   Number         0  remotecrsf.o ABSOLUTE
    remoteDummy.c                            0x00000000   Number         0  remotedummy.o ABSOLUTE
    remoteUart.c                             0x00000000   Number         0  remoteuart.o ABSOLUTE
    remoteUartBus.c                          0x00000000   Number         0  remoteuartbus.o ABSOLUTE
    setup.c                                  0x00000000   Number         0  setup.o ABSOLUTE
    system_gd32f1x0.c                        0x00000000   Number         0  system_gd32f1x0.o ABSOLUTE
    RESET                                    0x08000000   Section      360  startup_gd32f1x0.o(RESET)
    .ARM.Collect$$$$00000000                 0x08000168   Section        0  entry.o(.ARM.Collect$$$$00000000)
    .ARM.Collect$$$$00000001                 0x08000168   Section        4  entry2.o(.ARM.Collect$$$$00000001)
    .ARM.Collect$$$$00000004                 0x0800016c   Section        4  entry5.o(.ARM.Collect$$$$00000004)
    .ARM.Collect$$$$00000008                 0x08000170   Section        0  entry7b.o(.ARM.Collect$$$$00000008)
    .ARM.Collect$$$$0000000A                 0x08000170   Section        0  entry8b.o(.ARM.Collect$$$$0000000A)
    .ARM.Collect$$$$0000000B                 0x08000170   Section        8  entry9a.o(.ARM.Collect$$$$0000000B)
    __lit__00000000                          0x08000178   Data           4  entry2.o(.ARM.Collect$$$$00002712)
    .ARM.Collect$$$$0000000D                 0x08000178   Section        0  entry10a.o(.ARM.Collect$$$$0000000D)
    .ARM.Collect$$$$0000000F                 0x08000178   Section        0  entry11a.o(.ARM.Collect$$$$0000000F)
    .ARM.Collect$$$$00002712                 0x08000178   Section        4  entry2.o(.ARM.Collect$$$$00002712)
    [Anonymous Symbol]                       0x0800017c   Section        0  main.o(.text)
    [Anonymous Symbol]                       0x080009ac   Section        0  bldc.o(.text)
    [Anonymous Symbol]                       0x08000e00   Section        0  bldcbc.o(.text)
    [Anonymous Symbol]                       0x08000e70   Section        0  setup.o(.text)
    [Anonymous Symbol]                       0x08001868   Section        0  it.o(.text)
    [Anonymous Symbol]                       0x080019ac   Section        0  comms.o(.text)
    [Anonymous Symbol]                       0x08001a18   Section        0  remoteuart.o(.text)
    [Anonymous Symbol]                       0x08001bb4   Section        0  commsmasterslave.o(.text)
    [Anonymous Symbol]                       0x08001c98   Section        0  gd32f1x0_adc.o(.text)
    [Anonymous Symbol]                       0x08002240   Section        0  gd32f1x0_dma.o(.text)
    [Anonymous Symbol]                       0x0800258c   Section        0  gd32f1x0_fmc.o(.text)
    [Anonymous Symbol]                       0x08002f60   Section        0  gd32f1x0_fwdgt.o(.text)
    [Anonymous Symbol]                       0x0800303c   Section        0  gd32f1x0_gpio.o(.text)
    [Anonymous Symbol]                       0x080031d4   Section        0  gd32f1x0_misc.o(.text)
    [Anonymous Symbol]                       0x08003304   Section        0  gd32f1x0_rcu.o(.text)
    [Anonymous Symbol]                       0x08003a34   Section        0  gd32f1x0_timer.o(.text)
    [Anonymous Symbol]                       0x08004794   Section        0  gd32f1x0_usart.o(.text)
    .text                                    0x08004dd4   Section       36  startup_gd32f1x0.o(.text)
    [Anonymous Symbol]                       0x08004df8   Section        0  system_gd32f1x0.o(.text)
    .text                                    0x08004f34   Section        0  fadd.o(.text)
    .text                                    0x08004fe4   Section        0  fmul.o(.text)
    .text                                    0x08005048   Section        0  fdiv.o(.text)
    .text                                    0x080050c4   Section        0  dadd.o(.text)
    .text                                    0x08005212   Section        0  dmul.o(.text)
    .text                                    0x080052f6   Section        0  ddiv.o(.text)
    .text                                    0x080053d4   Section        0  fcmple.o(.text)
    .text                                    0x080053f0   Section        0  fcmplt.o(.text)
    .text                                    0x0800540c   Section        0  fcmpgt.o(.text)
    .text                                    0x08005428   Section        0  dcmple.o(.text)
    .text                                    0x0800545e   Section        0  fflti.o(.text)
    .text                                    0x08005470   Section        0  ffltui.o(.text)
    .text                                    0x0800547a   Section        0  dflti.o(.text)
    .text                                    0x0800549c   Section        0  dfltui.o(.text)
    .text                                    0x080054b6   Section        0  ffixi.o(.text)
    .text                                    0x080054e8   Section        0  dfixi.o(.text)
    .text                                    0x08005526   Section        0  f2d.o(.text)
    .text                                    0x0800554c   Section        0  d2f.o(.text)
    .text                                    0x08005584   Section        0  llshl.o(.text)
    .text                                    0x080055a2   Section        0  llushr.o(.text)
    .text                                    0x080055c2   Section        0  llsshr.o(.text)
    .text                                    0x080055e6   Section        0  iusefp.o(.text)
    .text                                    0x080055e6   Section        0  fepilogue.o(.text)
    .text                                    0x08005654   Section        0  depilogue.o(.text)
    .text                                    0x08005710   Section       36  init.o(.text)
    i.__scatterload_copy                     0x08005734   Section       14  handlers.o(i.__scatterload_copy)
    i.__scatterload_null                     0x08005742   Section        2  handlers.o(i.__scatterload_null)
    i.__scatterload_zeroinit                 0x08005744   Section       14  handlers.o(i.__scatterload_zeroinit)
    .L__const.up_or_down.up_down             0x08005752   Data          12  bldc.o(.rodata..L__const.up_or_down.up_down)
    .Lswitch.table.gpio_deinit.1             0x0800575e   Data          12  gd32f1x0_gpio.o(.rodata..Lswitch.table.gpio_deinit.1)
    .L__const.rcu_clock_freq_get.apb2_exp    0x0800576a   Data           8  gd32f1x0_rcu.o(.rodata.cst8)
    iReceivePos                              0x20000010   Data           2  commsmasterslave.o(.data.iReceivePos)
    [Anonymous Symbol]                       0x20000010   Section        0  commsmasterslave.o(.data.iReceivePos)
    aReceiveBuffer                           0x20000018   Data           9  remoteuart.o(.bss.aReceiveBuffer)
    [Anonymous Symbol]                       0x20000018   Section        0  remoteuart.o(.bss.aReceiveBuffer)
    aReceiveBuffer                           0x20000021   Data          16  commsmasterslave.o(.bss.aReceiveBuffer)
    [Anonymous Symbol]                       0x20000021   Section        0  commsmasterslave.o(.bss.aReceiveBuffer)
    iReceivePos                              0x200000a0   Data           2  remoteuart.o(.bss.iReceivePos)
    [Anonymous Symbol]                       0x200000a0   Section        0  remoteuart.o(.bss.iReceivePos)
    STACK                                    0x20000158   Section     1024  startup_gd32f1x0.o(STACK)

    Global Symbols

    Symbol Name                              Value     Ov Type        Size  Object(Section)

    BuildAttributes$$THM_ISAv4$P$D$K$B$S$PE$A:L22UL41UL21$X:L11$S22US41US21$IEEE1$IW$~IW$USESV6$~STKCKD$USESV7$~SHL$OTIME$ROPI$EBA8$MICROLIB$REQ8$PRES8$EABIv2 0x00000000   Number         0  anon$$obj.o ABSOLUTE
    __cpp_initialize__aeabi_                  - Undefined Weak Reference
    __cxa_finalize                            - Undefined Weak Reference
    __decompress                              - Undefined Weak Reference
    _clock_init                               - Undefined Weak Reference
    _microlib_exit                            - Undefined Weak Reference
    __Vectors_Size                           0x00000168   Number         0  startup_gd32f1x0.o ABSOLUTE
    __Vectors                                0x08000000   Data           4  startup_gd32f1x0.o(RESET)
    __Vectors_End                            0x08000168   Data           0  startup_gd32f1x0.o(RESET)
    __main                                   0x08000169   Thumb Code     0  entry.o(.ARM.Collect$$$$00000000)
    _main_stk                                0x08000169   Thumb Code     0  entry2.o(.ARM.Collect$$$$00000001)
    _main_scatterload                        0x0800016d   Thumb Code     0  entry5.o(.ARM.Collect$$$$00000004)
    __main_after_scatterload                 0x08000171   Thumb Code     0  entry5.o(.ARM.Collect$$$$00000004)
    _main_clock                              0x08000171   Thumb Code     0  entry7b.o(.ARM.Collect$$$$00000008)
    _main_cpp_init                           0x08000171   Thumb Code     0  entry8b.o(.ARM.Collect$$$$0000000A)
    _main_init                               0x08000171   Thumb Code     0  entry9a.o(.ARM.Collect$$$$0000000B)
    __rt_final_cpp                           0x08000179   Thumb Code     0  entry10a.o(.ARM.Collect$$$$0000000D)
    __rt_final_exit                          0x08000179   Thumb Code     0  entry11a.o(.ARM.Collect$$$$0000000F)
    main                                     0x0800017d   Thumb Code  1784  main.o(.text)
    ShutOff                                  0x08000875   Thumb Code   164  main.o(.text)
    ShowBatteryState                         0x08000919   Thumb Code   148  main.o(.text)
    modulo                                   0x080009ad   Thumb Code    22  bldc.o(.text)
    up_or_down                               0x080009c5   Thumb Code    60  bldc.o(.text)
    SetEnable                                0x08000a01   Thumb Code    12  bldc.o(.text)
    SetPWM                                   0x08000a0d   Thumb Code    74  bldc.o(.text)
    CalculateBLDC                            0x08000a59   Thumb Code   934  bldc.o(.text)
    bldc_get_pwm                             0x08000e01   Thumb Code   106  bldcbc.o(.text)
    InitBldc                                 0x08000e6d   Thumb Code     2  bldcbc.o(.text)
    pinMode                                  0x08000e71   Thumb Code    42  setup.o(.text)
    pinModePull                              0x08000e9d   Thumb Code    40  setup.o(.text)
    Interrupt_init                           0x08000ec5   Thumb Code     8  setup.o(.text)
    Watchdog_init                            0x08000ecd   Thumb Code    56  setup.o(.text)
    TimeoutTimer_init                        0x08000f05   Thumb Code    92  setup.o(.text)
    GPIO_init                                0x08000f61   Thumb Code   696  setup.o(.text)
    PWM_init                                 0x08001219   Thumb Code   368  setup.o(.text)
    ADC_init                                 0x08001389   Thumb Code   234  setup.o(.text)
    USART1_Init                              0x08001475   Thumb Code   288  setup.o(.text)
    USART0_Init                              0x08001595   Thumb Code   284  setup.o(.text)
    flashErase                               0x080016b1   Thumb Code    28  setup.o(.text)
    flashRead                                0x080016cd   Thumb Code     4  setup.o(.text)
    flashWrite                               0x080016d1   Thumb Code    38  setup.o(.text)
    flashWriteBuffer                         0x080016f9   Thumb Code    64  setup.o(.text)
    flashReadBuffer                          0x08001739   Thumb Code    26  setup.o(.text)
    ConfigReset                              0x08001755   Thumb Code    36  setup.o(.text)
    ConfigWrite                              0x08001779   Thumb Code    92  setup.o(.text)
    ConfigRead                               0x080017d5   Thumb Code   116  setup.o(.text)
    confErase                                0x08001849   Thumb Code    32  setup.o(.text)
    SysTick_Handler                          0x08001869   Thumb Code    16  it.o(.text)
    ResetTimeout                             0x08001879   Thumb Code    14  it.o(.text)
    TIMER13_IRQHandler                       0x08001889   Thumb Code    96  it.o(.text)
    TIMER0_BRK_UP_TRG_COM_IRQHandler         0x080018e9   Thumb Code    26  it.o(.text)
    DMA_Channel0_IRQHandler                  0x08001905   Thumb Code    32  it.o(.text)
    DMA_Channel1_2_IRQHandler                0x08001925   Thumb Code    32  it.o(.text)
    DMA_Channel3_4_IRQHandler                0x08001945   Thumb Code    32  it.o(.text)
    millis                                   0x08001965   Thumb Code    12  it.o(.text)
    Delay                                    0x08001971   Thumb Code    28  it.o(.text)
    NMI_Handler                              0x0800198d   Thumb Code     2  it.o(.text)
    HardFault_Handler                        0x08001991   Thumb Code     2  it.o(.text)
    MemManage_Handler                        0x08001995   Thumb Code     2  it.o(.text)
    BusFault_Handler                         0x08001999   Thumb Code     2  it.o(.text)
    UsageFault_Handler                       0x0800199d   Thumb Code     2  it.o(.text)
    SVC_Handler                              0x080019a1   Thumb Code     2  it.o(.text)
    DebugMon_Handler                         0x080019a5   Thumb Code     2  it.o(.text)
    PendSV_Handler                           0x080019a9   Thumb Code     2  it.o(.text)
    SendBuffer                               0x080019ad   Thumb Code    48  comms.o(.text)
    CalcCRC                                  0x080019dd   Thumb Code    60  comms.o(.text)
    RemoteUpdate                             0x08001a19   Thumb Code   254  remoteuart.o(.text)
    RemoteCallback                           0x08001b19   Thumb Code   156  remoteuart.o(.text)
    UpdateUSARTMasterSlaveInput              0x08001bb5   Thumb Code   108  commsmasterslave.o(.text)
    ProessReceived                           0x08001c21   Thumb Code    32  commsmasterslave.o(.text)
    SendSlave                                0x08001c41   Thumb Code    88  commsmasterslave.o(.text)
    adc_deinit                               0x08001c99   Thumb Code    22  gd32f1x0_adc.o(.text)
    adc_enable                               0x08001cb1   Thumb Code    26  gd32f1x0_adc.o(.text)
    adc_disable                              0x08001ccd   Thumb Code    18  gd32f1x0_adc.o(.text)
    adc_calibration_enable                   0x08001ce1   Thumb Code    40  gd32f1x0_adc.o(.text)
    adc_dma_mode_enable                      0x08001d09   Thumb Code    18  gd32f1x0_adc.o(.text)
    adc_dma_mode_disable                     0x08001d1d   Thumb Code    18  gd32f1x0_adc.o(.text)
    adc_tempsensor_vrefint_enable            0x08001d31   Thumb Code    18  gd32f1x0_adc.o(.text)
    adc_tempsensor_vrefint_disable           0x08001d45   Thumb Code    18  gd32f1x0_adc.o(.text)
    adc_vbat_enable                          0x08001d59   Thumb Code    18  gd32f1x0_adc.o(.text)
    adc_vbat_disable                         0x08001d6d   Thumb Code    18  gd32f1x0_adc.o(.text)
    adc_discontinuous_mode_config            0x08001d81   Thumb Code    68  gd32f1x0_adc.o(.text)
    adc_special_function_config              0x08001dc5   Thumb Code   100  gd32f1x0_adc.o(.text)
    adc_data_alignment_config                0x08001e29   Thumb Code    26  gd32f1x0_adc.o(.text)
    adc_channel_length_config                0x08001e45   Thumb Code    82  gd32f1x0_adc.o(.text)
    adc_regular_channel_config               0x08001e99   Thumb Code   180  gd32f1x0_adc.o(.text)
    adc_inserted_channel_config              0x08001f4d   Thumb Code   114  gd32f1x0_adc.o(.text)
    adc_inserted_channel_offset_config       0x08001fc1   Thumb Code    32  gd32f1x0_adc.o(.text)
    adc_external_trigger_config              0x08001fe1   Thumb Code    72  gd32f1x0_adc.o(.text)
    adc_external_trigger_source_config       0x08002029   Thumb Code    42  gd32f1x0_adc.o(.text)
    adc_software_trigger_enable              0x08002055   Thumb Code    36  gd32f1x0_adc.o(.text)
    adc_regular_data_read                    0x08002079   Thumb Code    14  gd32f1x0_adc.o(.text)
    adc_inserted_data_read                   0x08002089   Thumb Code    74  gd32f1x0_adc.o(.text)
    adc_flag_get                             0x080020d5   Thumb Code    18  gd32f1x0_adc.o(.text)
    adc_flag_clear                           0x080020e9   Thumb Code    18  gd32f1x0_adc.o(.text)
    adc_interrupt_flag_get                   0x080020fd   Thumb Code    56  gd32f1x0_adc.o(.text)
    adc_interrupt_flag_clear                 0x08002135   Thumb Code    18  gd32f1x0_adc.o(.text)
    adc_interrupt_enable                     0x08002149   Thumb Code    48  gd32f1x0_adc.o(.text)
    adc_interrupt_disable                    0x08002179   Thumb Code    48  gd32f1x0_adc.o(.text)
    adc_watchdog_single_channel_enable       0x080021a9   Thumb Code    42  gd32f1x0_adc.o(.text)
    adc_watchdog_group_channel_enable        0x080021d5   Thumb Code    48  gd32f1x0_adc.o(.text)
    adc_watchdog_disable                     0x08002211   Thumb Code    24  gd32f1x0_adc.o(.text)
    adc_watchdog_threshold_config            0x08002229   Thumb Code    22  gd32f1x0_adc.o(.text)
    dma_deinit                               0x08002241   Thumb Code    48  gd32f1x0_dma.o(.text)
    dma_struct_para_init                     0x08002271   Thumb Code    24  gd32f1x0_dma.o(.text)
    dma_init                                 0x08002289   Thumb Code   122  gd32f1x0_dma.o(.text)
    dma_circulation_enable                   0x08002305   Thumb Code    24  gd32f1x0_dma.o(.text)
    dma_circulation_disable                  0x0800231d   Thumb Code    24  gd32f1x0_dma.o(.text)
    dma_memory_to_memory_enable              0x08002335   Thumb Code    24  gd32f1x0_dma.o(.text)
    dma_memory_to_memory_disable             0x0800234d   Thumb Code    24  gd32f1x0_dma.o(.text)
    dma_channel_enable                       0x08002365   Thumb Code    24  gd32f1x0_dma.o(.text)
    dma_channel_disable                      0x0800237d   Thumb Code    24  gd32f1x0_dma.o(.text)
    dma_periph_address_config                0x08002395   Thumb Code    16  gd32f1x0_dma.o(.text)
    dma_memory_address_config                0x080023a5   Thumb Code    16  gd32f1x0_dma.o(.text)
    dma_transfer_number_config               0x080023b5   Thumb Code    16  gd32f1x0_dma.o(.text)
    dma_transfer_number_get                  0x080023c5   Thumb Code    16  gd32f1x0_dma.o(.text)
    dma_priority_config                      0x080023d5   Thumb Code    26  gd32f1x0_dma.o(.text)
    dma_memory_width_config                  0x080023f1   Thumb Code    26  gd32f1x0_dma.o(.text)
    dma_periph_width_config                  0x0800240d   Thumb Code    26  gd32f1x0_dma.o(.text)
    dma_memory_increase_enable               0x08002429   Thumb Code    24  gd32f1x0_dma.o(.text)
    dma_memory_increase_disable              0x08002441   Thumb Code    24  gd32f1x0_dma.o(.text)
    dma_periph_increase_enable               0x08002459   Thumb Code    24  gd32f1x0_dma.o(.text)
    dma_periph_increase_disable              0x08002471   Thumb Code    24  gd32f1x0_dma.o(.text)
    dma_transfer_direction_config            0x08002489   Thumb Code    30  gd32f1x0_dma.o(.text)
    dma_interrupt_flag_get                   0x080024a9   Thumb Code   116  gd32f1x0_dma.o(.text)
    dma_interrupt_flag_clear                 0x0800251d   Thumb Code    20  gd32f1x0_dma.o(.text)
    dma_interrupt_enable                     0x08002531   Thumb Code    22  gd32f1x0_dma.o(.text)
    dma_interrupt_disable                    0x08002549   Thumb Code    24  gd32f1x0_dma.o(.text)
    dma_flag_get                             0x08002561   Thumb Code    22  gd32f1x0_dma.o(.text)
    dma_flag_clear                           0x08002579   Thumb Code    20  gd32f1x0_dma.o(.text)
    fmc_unlock                               0x0800258d   Thumb Code    38  gd32f1x0_fmc.o(.text)
    fmc_lock                                 0x080025b5   Thumb Code    18  gd32f1x0_fmc.o(.text)
    fmc_wscnt_set                            0x080025c9   Thumb Code    20  gd32f1x0_fmc.o(.text)
    fmc_wait_state_enable                    0x080025dd   Thumb Code    18  gd32f1x0_fmc.o(.text)
    fmc_wait_state_disable                   0x080025f1   Thumb Code    18  gd32f1x0_fmc.o(.text)
    fmc_page_erase                           0x08002605   Thumb Code   158  gd32f1x0_fmc.o(.text)
    fmc_mass_erase                           0x080026a5   Thumb Code   150  gd32f1x0_fmc.o(.text)
    fmc_word_program                         0x0800273d   Thumb Code   150  gd32f1x0_fmc.o(.text)
    fmc_halfword_program                     0x080027d5   Thumb Code   150  gd32f1x0_fmc.o(.text)
    ob_unlock                                0x0800286d   Thumb Code    38  gd32f1x0_fmc.o(.text)
    ob_lock                                  0x08002895   Thumb Code    18  gd32f1x0_fmc.o(.text)
    ob_reset                                 0x080028a9   Thumb Code    18  gd32f1x0_fmc.o(.text)
    ob_erase                                 0x080028bd   Thumb Code   294  gd32f1x0_fmc.o(.text)
    ob_obstat_plevel_get                     0x080029e5   Thumb Code    16  gd32f1x0_fmc.o(.text)
    ob_write_protection_enable               0x080029f5   Thumb Code   316  gd32f1x0_fmc.o(.text)
    ob_security_protection_config            0x08002b31   Thumb Code   304  gd32f1x0_fmc.o(.text)
    ob_user_write                            0x08002c61   Thumb Code   308  gd32f1x0_fmc.o(.text)
    ob_data_program                          0x08002d95   Thumb Code   304  gd32f1x0_fmc.o(.text)
    ob_user_get                              0x08002ec5   Thumb Code    16  gd32f1x0_fmc.o(.text)
    ob_data_get                              0x08002ed5   Thumb Code    14  gd32f1x0_fmc.o(.text)
    ob_write_protection_get                  0x08002ee5   Thumb Code    14  gd32f1x0_fmc.o(.text)
    fmc_interrupt_enable                     0x08002ef5   Thumb Code    16  gd32f1x0_fmc.o(.text)
    fmc_interrupt_disable                    0x08002f05   Thumb Code    18  gd32f1x0_fmc.o(.text)
    fmc_flag_get                             0x08002f19   Thumb Code    18  gd32f1x0_fmc.o(.text)
    fmc_flag_clear                           0x08002f2d   Thumb Code    16  gd32f1x0_fmc.o(.text)
    fmc_interrupt_flag_get                   0x08002f3d   Thumb Code    18  gd32f1x0_fmc.o(.text)
    fmc_interrupt_flag_clear                 0x08002f51   Thumb Code    16  gd32f1x0_fmc.o(.text)
    fwdgt_write_disable                      0x08002f61   Thumb Code    14  gd32f1x0_fwdgt.o(.text)
    fwdgt_counter_reload                     0x08002f71   Thumb Code    16  gd32f1x0_fwdgt.o(.text)
    fwdgt_enable                             0x08002f81   Thumb Code    16  gd32f1x0_fwdgt.o(.text)
    fwdgt_window_value_config                0x08002f91   Thumb Code    52  gd32f1x0_fwdgt.o(.text)
    fwdgt_config                             0x08002fc5   Thumb Code   100  gd32f1x0_fwdgt.o(.text)
    fwdgt_flag_get                           0x08003029   Thumb Code    18  gd32f1x0_fwdgt.o(.text)
    gpio_deinit                              0x0800303d   Thumb Code    58  gd32f1x0_gpio.o(.text)
    gpio_mode_set                            0x08003079   Thumb Code    84  gd32f1x0_gpio.o(.text)
    gpio_output_options_set                  0x080030cd   Thumb Code    70  gd32f1x0_gpio.o(.text)
    gpio_bit_set                             0x08003115   Thumb Code     4  gd32f1x0_gpio.o(.text)
    gpio_bit_reset                           0x08003119   Thumb Code     4  gd32f1x0_gpio.o(.text)
    gpio_bit_write                           0x0800311d   Thumb Code    12  gd32f1x0_gpio.o(.text)
    gpio_port_write                          0x08003129   Thumb Code     4  gd32f1x0_gpio.o(.text)
    gpio_input_bit_get                       0x0800312d   Thumb Code    10  gd32f1x0_gpio.o(.text)
    gpio_input_port_get                      0x08003139   Thumb Code     6  gd32f1x0_gpio.o(.text)
    gpio_output_bit_get                      0x08003141   Thumb Code    10  gd32f1x0_gpio.o(.text)
    gpio_output_port_get                     0x0800314d   Thumb Code     6  gd32f1x0_gpio.o(.text)
    gpio_af_set                              0x08003155   Thumb Code   110  gd32f1x0_gpio.o(.text)
    gpio_pin_lock                            0x080031c5   Thumb Code    16  gd32f1x0_gpio.o(.text)
    nvic_priority_group_set                  0x080031d5   Thumb Code    20  gd32f1x0_misc.o(.text)
    nvic_irq_enable                          0x080031e9   Thumb Code   168  gd32f1x0_misc.o(.text)
    nvic_irq_disable                         0x08003291   Thumb Code    30  gd32f1x0_misc.o(.text)
    nvic_vector_table_set                    0x080032b1   Thumb Code    24  gd32f1x0_misc.o(.text)
    system_lowpower_set                      0x080032c9   Thumb Code    16  gd32f1x0_misc.o(.text)
    system_lowpower_reset                    0x080032d9   Thumb Code    18  gd32f1x0_misc.o(.text)
    systick_clksource_set                    0x080032ed   Thumb Code    24  gd32f1x0_misc.o(.text)
    rcu_deinit                               0x08003305   Thumb Code   112  gd32f1x0_rcu.o(.text)
    rcu_periph_clock_enable                  0x08003375   Thumb Code    30  gd32f1x0_rcu.o(.text)
    rcu_periph_clock_disable                 0x08003395   Thumb Code    32  gd32f1x0_rcu.o(.text)
    rcu_periph_clock_sleep_enable            0x080033b5   Thumb Code    30  gd32f1x0_rcu.o(.text)
    rcu_periph_clock_sleep_disable           0x080033d5   Thumb Code    32  gd32f1x0_rcu.o(.text)
    rcu_periph_reset_enable                  0x080033f5   Thumb Code    30  gd32f1x0_rcu.o(.text)
    rcu_periph_reset_disable                 0x08003415   Thumb Code    32  gd32f1x0_rcu.o(.text)
    rcu_bkp_reset_enable                     0x08003435   Thumb Code    18  gd32f1x0_rcu.o(.text)
    rcu_bkp_reset_disable                    0x08003449   Thumb Code    18  gd32f1x0_rcu.o(.text)
    rcu_system_clock_source_config           0x0800345d   Thumb Code    20  gd32f1x0_rcu.o(.text)
    rcu_system_clock_source_get              0x08003471   Thumb Code    16  gd32f1x0_rcu.o(.text)
    rcu_ahb_clock_config                     0x08003481   Thumb Code    20  gd32f1x0_rcu.o(.text)
    rcu_apb1_clock_config                    0x08003495   Thumb Code    20  gd32f1x0_rcu.o(.text)
    rcu_apb2_clock_config                    0x080034a9   Thumb Code    20  gd32f1x0_rcu.o(.text)
    rcu_adc_clock_config                     0x080034bd   Thumb Code    88  gd32f1x0_rcu.o(.text)
    rcu_usbd_clock_config                    0x08003515   Thumb Code    24  gd32f1x0_rcu.o(.text)
    rcu_ckout_config                         0x0800352d   Thumb Code    22  gd32f1x0_rcu.o(.text)
    rcu_pll_config                           0x08003545   Thumb Code    36  gd32f1x0_rcu.o(.text)
    rcu_usart_clock_config                   0x08003569   Thumb Code    24  gd32f1x0_rcu.o(.text)
    rcu_cec_clock_config                     0x08003581   Thumb Code    24  gd32f1x0_rcu.o(.text)
    rcu_rtc_clock_config                     0x08003599   Thumb Code    24  gd32f1x0_rcu.o(.text)
    rcu_hxtal_prediv_config                  0x080035b1   Thumb Code    20  gd32f1x0_rcu.o(.text)
    rcu_lxtal_drive_capability_config        0x080035c5   Thumb Code    24  gd32f1x0_rcu.o(.text)
    rcu_flag_get                             0x080035dd   Thumb Code    26  gd32f1x0_rcu.o(.text)
    rcu_all_reset_flag_clear                 0x080035f9   Thumb Code    18  gd32f1x0_rcu.o(.text)
    rcu_interrupt_flag_get                   0x0800360d   Thumb Code    18  gd32f1x0_rcu.o(.text)
    rcu_interrupt_flag_clear                 0x08003621   Thumb Code    16  gd32f1x0_rcu.o(.text)
    rcu_interrupt_enable                     0x08003631   Thumb Code    16  gd32f1x0_rcu.o(.text)
    rcu_interrupt_disable                    0x08003641   Thumb Code    18  gd32f1x0_rcu.o(.text)
    rcu_osci_stab_wait                       0x08003655   Thumb Code   324  gd32f1x0_rcu.o(.text)
    rcu_osci_on                              0x08003799   Thumb Code    30  gd32f1x0_rcu.o(.text)
    rcu_osci_off                             0x080037b9   Thumb Code    32  gd32f1x0_rcu.o(.text)
    rcu_osci_bypass_mode_enable              0x080037d9   Thumb Code    64  gd32f1x0_rcu.o(.text)
    rcu_osci_bypass_mode_disable             0x08003819   Thumb Code    64  gd32f1x0_rcu.o(.text)
    rcu_hxtal_clock_monitor_enable           0x08003859   Thumb Code    18  gd32f1x0_rcu.o(.text)
    rcu_hxtal_clock_monitor_disable          0x0800386d   Thumb Code    18  gd32f1x0_rcu.o(.text)
    rcu_irc8m_adjust_value_set               0x08003881   Thumb Code    22  gd32f1x0_rcu.o(.text)
    rcu_irc14m_adjust_value_set              0x08003899   Thumb Code    22  gd32f1x0_rcu.o(.text)
    rcu_voltage_key_unlock                   0x080038b1   Thumb Code    30  gd32f1x0_rcu.o(.text)
    rcu_deepsleep_voltage_set                0x080038d1   Thumb Code    24  gd32f1x0_rcu.o(.text)
    rcu_power_down_voltage_set               0x080038e9   Thumb Code    24  gd32f1x0_rcu.o(.text)
    rcu_clock_freq_get                       0x08003901   Thumb Code   292  gd32f1x0_rcu.o(.text)
    timer_deinit                             0x08003a35   Thumb Code   194  gd32f1x0_timer.o(.text)
    timer_struct_para_init                   0x08003af9   Thumb Code    16  gd32f1x0_timer.o(.text)
    timer_init                               0x08003b09   Thumb Code   212  gd32f1x0_timer.o(.text)
    timer_enable                             0x08003bdd   Thumb Code    10  gd32f1x0_timer.o(.text)
    timer_disable                            0x08003be9   Thumb Code    10  gd32f1x0_timer.o(.text)
    timer_auto_reload_shadow_enable          0x08003bf5   Thumb Code    10  gd32f1x0_timer.o(.text)
    timer_auto_reload_shadow_disable         0x08003c01   Thumb Code    10  gd32f1x0_timer.o(.text)
    timer_update_event_enable                0x08003c0d   Thumb Code    10  gd32f1x0_timer.o(.text)
    timer_update_event_disable               0x08003c19   Thumb Code    10  gd32f1x0_timer.o(.text)
    timer_counter_alignment                  0x08003c25   Thumb Code    16  gd32f1x0_timer.o(.text)
    timer_counter_up_direction               0x08003c35   Thumb Code    10  gd32f1x0_timer.o(.text)
    timer_counter_down_direction             0x08003c41   Thumb Code    10  gd32f1x0_timer.o(.text)
    timer_prescaler_config                   0x08003c4d   Thumb Code    18  gd32f1x0_timer.o(.text)
    timer_repetition_value_config            0x08003c61   Thumb Code     4  gd32f1x0_timer.o(.text)
    timer_autoreload_value_config            0x08003c65   Thumb Code     4  gd32f1x0_timer.o(.text)
    timer_counter_value_config               0x08003c69   Thumb Code     4  gd32f1x0_timer.o(.text)
    timer_counter_read                       0x08003c6d   Thumb Code     4  gd32f1x0_timer.o(.text)
    timer_prescaler_read                     0x08003c71   Thumb Code     6  gd32f1x0_timer.o(.text)
    timer_single_pulse_mode_config           0x08003c79   Thumb Code    30  gd32f1x0_timer.o(.text)
    timer_update_source_config               0x08003c99   Thumb Code    30  gd32f1x0_timer.o(.text)
    timer_ocpre_clear_source_config          0x08003cb9   Thumb Code    28  gd32f1x0_timer.o(.text)
    timer_interrupt_enable                   0x08003cd5   Thumb Code     8  gd32f1x0_timer.o(.text)
    timer_interrupt_disable                  0x08003cdd   Thumb Code    10  gd32f1x0_timer.o(.text)
    timer_interrupt_flag_get                 0x08003ce9   Thumb Code    22  gd32f1x0_timer.o(.text)
    timer_interrupt_flag_clear               0x08003d01   Thumb Code     6  gd32f1x0_timer.o(.text)
    timer_flag_get                           0x08003d09   Thumb Code    10  gd32f1x0_timer.o(.text)
    timer_flag_clear                         0x08003d15   Thumb Code     6  gd32f1x0_timer.o(.text)
    timer_dma_enable                         0x08003d1d   Thumb Code     8  gd32f1x0_timer.o(.text)
    timer_dma_disable                        0x08003d25   Thumb Code    10  gd32f1x0_timer.o(.text)
    timer_channel_dma_request_source_select  0x08003d31   Thumb Code    30  gd32f1x0_timer.o(.text)
    timer_dma_transfer_config                0x08003d51   Thumb Code    24  gd32f1x0_timer.o(.text)
    timer_event_software_generate            0x08003d69   Thumb Code     8  gd32f1x0_timer.o(.text)
    timer_break_struct_para_init             0x08003d71   Thumb Code    16  gd32f1x0_timer.o(.text)
    timer_break_config                       0x08003d81   Thumb Code    36  gd32f1x0_timer.o(.text)
    timer_break_enable                       0x08003da5   Thumb Code    10  gd32f1x0_timer.o(.text)
    timer_break_disable                      0x08003db1   Thumb Code    10  gd32f1x0_timer.o(.text)
    timer_automatic_output_enable            0x08003dbd   Thumb Code    10  gd32f1x0_timer.o(.text)
    timer_automatic_output_disable           0x08003dc9   Thumb Code    10  gd32f1x0_timer.o(.text)
    timer_primary_output_config              0x08003dd5   Thumb Code    18  gd32f1x0_timer.o(.text)
    timer_channel_control_shadow_config      0x08003de9   Thumb Code    16  gd32f1x0_timer.o(.text)
    timer_channel_control_shadow_update_config 0x08003df9   Thumb Code    30  gd32f1x0_timer.o(.text)
    timer_channel_output_struct_para_init    0x08003e19   Thumb Code    12  gd32f1x0_timer.o(.text)
    timer_channel_output_config              0x08003e25   Thumb Code   550  gd32f1x0_timer.o(.text)
    timer_channel_output_mode_config         0x0800404d   Thumb Code    58  gd32f1x0_timer.o(.text)
    timer_channel_output_pulse_value_config  0x08004089   Thumb Code    12  gd32f1x0_timer.o(.text)
    timer_channel_output_shadow_config       0x08004095   Thumb Code    58  gd32f1x0_timer.o(.text)
    timer_channel_output_fast_config         0x080040d1   Thumb Code    58  gd32f1x0_timer.o(.text)
    timer_channel_output_clear_config        0x0800410d   Thumb Code    58  gd32f1x0_timer.o(.text)
    timer_channel_output_polarity_config     0x08004149   Thumb Code    74  gd32f1x0_timer.o(.text)
    timer_channel_complementary_output_polarity_config 0x08004195   Thumb Code    74  gd32f1x0_timer.o(.text)
    timer_channel_output_state_config        0x080041e1   Thumb Code    74  gd32f1x0_timer.o(.text)
    timer_channel_complementary_output_state_config 0x0800422d   Thumb Code    60  gd32f1x0_timer.o(.text)
    timer_channel_input_struct_para_init     0x08004269   Thumb Code    12  gd32f1x0_timer.o(.text)
    timer_input_capture_config               0x08004275   Thumb Code   346  gd32f1x0_timer.o(.text)
    timer_channel_input_capture_prescaler_config 0x080043d1   Thumb Code    58  gd32f1x0_timer.o(.text)
    timer_channel_capture_value_register_read 0x0800440d   Thumb Code    14  gd32f1x0_timer.o(.text)
    timer_input_pwm_capture_config           0x0800441d   Thumb Code   356  gd32f1x0_timer.o(.text)
    timer_hall_mode_config                   0x08004581   Thumb Code    30  gd32f1x0_timer.o(.text)
    timer_input_trigger_source_select        0x080045a1   Thumb Code    16  gd32f1x0_timer.o(.text)
    timer_master_output_trigger_source_select 0x080045b1   Thumb Code    16  gd32f1x0_timer.o(.text)
    timer_slave_mode_select                  0x080045c1   Thumb Code    16  gd32f1x0_timer.o(.text)
    timer_master_slave_mode_config           0x080045d1   Thumb Code    30  gd32f1x0_timer.o(.text)
    timer_external_trigger_config            0x080045f1   Thumb Code    34  gd32f1x0_timer.o(.text)
    timer_quadrature_decoder_mode_config     0x08004615   Thumb Code    78  gd32f1x0_timer.o(.text)
    timer_internal_clock_config              0x08004665   Thumb Code    10  gd32f1x0_timer.o(.text)
    timer_internal_trigger_as_external_clock_config 0x08004671   Thumb Code    32  gd32f1x0_timer.o(.text)
    timer_external_trigger_as_external_clock_config 0x08004691   Thumb Code   148  gd32f1x0_timer.o(.text)
    timer_external_clock_mode0_config        0x08004725   Thumb Code    50  gd32f1x0_timer.o(.text)
    timer_external_clock_mode1_config        0x08004759   Thumb Code    42  gd32f1x0_timer.o(.text)
    timer_external_clock_mode1_disable       0x08004785   Thumb Code    10  gd32f1x0_timer.o(.text)
    timer_channel_remap_config               0x08004791   Thumb Code     4  gd32f1x0_timer.o(.text)
    usart_deinit                             0x08004795   Thumb Code    54  gd32f1x0_usart.o(.text)
    usart_baudrate_set                       0x080047cd   Thumb Code    90  gd32f1x0_usart.o(.text)
    usart_parity_config                      0x08004829   Thumb Code    24  gd32f1x0_usart.o(.text)
    usart_word_length_set                    0x08004841   Thumb Code    24  gd32f1x0_usart.o(.text)
    usart_stop_bit_set                       0x08004859   Thumb Code    24  gd32f1x0_usart.o(.text)
    usart_enable                             0x08004871   Thumb Code    10  gd32f1x0_usart.o(.text)
    usart_disable                            0x0800487d   Thumb Code    10  gd32f1x0_usart.o(.text)
    usart_transmit_config                    0x08004889   Thumb Code    16  gd32f1x0_usart.o(.text)
    usart_receive_config                     0x08004899   Thumb Code    16  gd32f1x0_usart.o(.text)
    usart_data_transmit                      0x080048a9   Thumb Code     8  gd32f1x0_usart.o(.text)
    usart_data_receive                       0x080048b1   Thumb Code     8  gd32f1x0_usart.o(.text)
    usart_data_first_config                  0x080048b9   Thumb Code    28  gd32f1x0_usart.o(.text)
    usart_invert_config                      0x080048d5   Thumb Code   106  gd32f1x0_usart.o(.text)
    usart_overrun_enable                     0x08004941   Thumb Code    18  gd32f1x0_usart.o(.text)
    usart_overrun_disable                    0x08004955   Thumb Code    18  gd32f1x0_usart.o(.text)
    usart_oversample_config                  0x08004969   Thumb Code    24  gd32f1x0_usart.o(.text)
    usart_sample_bit_config                  0x08004981   Thumb Code    24  gd32f1x0_usart.o(.text)
    usart_autobaud_detection_enable          0x08004999   Thumb Code    10  gd32f1x0_usart.o(.text)
    usart_autobaud_detection_disable         0x080049a5   Thumb Code    10  gd32f1x0_usart.o(.text)
    usart_autobaud_detection_mode_config     0x080049b1   Thumb Code    16  gd32f1x0_usart.o(.text)
    usart_mute_mode_enable                   0x080049c1   Thumb Code    10  gd32f1x0_usart.o(.text)
    usart_mute_mode_disable                  0x080049cd   Thumb Code    10  gd32f1x0_usart.o(.text)
    usart_mute_mode_wakeup_config            0x080049d9   Thumb Code    24  gd32f1x0_usart.o(.text)
    usart_address_detection_mode_config      0x080049f1   Thumb Code    28  gd32f1x0_usart.o(.text)
    usart_address_config                     0x08004a0d   Thumb Code    26  gd32f1x0_usart.o(.text)
    usart_receiver_timeout_enable            0x08004a29   Thumb Code    10  gd32f1x0_usart.o(.text)
    usart_receiver_timeout_disable           0x08004a35   Thumb Code    10  gd32f1x0_usart.o(.text)
    usart_receiver_timeout_config            0x08004a41   Thumb Code    16  gd32f1x0_usart.o(.text)
    usart_lin_mode_enable                    0x08004a51   Thumb Code    18  gd32f1x0_usart.o(.text)
    usart_lin_mode_disable                   0x08004a65   Thumb Code    18  gd32f1x0_usart.o(.text)
    usart_lin_break_detection_length_config  0x08004a79   Thumb Code    20  gd32f1x0_usart.o(.text)
    usart_halfduplex_enable                  0x08004a8d   Thumb Code    18  gd32f1x0_usart.o(.text)
    usart_halfduplex_disable                 0x08004aa1   Thumb Code    18  gd32f1x0_usart.o(.text)
    usart_clock_enable                       0x08004ab5   Thumb Code    18  gd32f1x0_usart.o(.text)
    usart_clock_disable                      0x08004ac9   Thumb Code    18  gd32f1x0_usart.o(.text)
    usart_synchronous_clock_config           0x08004add   Thumb Code    60  gd32f1x0_usart.o(.text)
    usart_smartcard_mode_enable              0x08004b19   Thumb Code    18  gd32f1x0_usart.o(.text)
    usart_smartcard_mode_disable             0x08004b2d   Thumb Code    18  gd32f1x0_usart.o(.text)
    usart_smartcard_mode_nack_enable         0x08004b41   Thumb Code    18  gd32f1x0_usart.o(.text)
    usart_smartcard_mode_nack_disable        0x08004b55   Thumb Code    18  gd32f1x0_usart.o(.text)
    usart_guard_time_config                  0x08004b69   Thumb Code    28  gd32f1x0_usart.o(.text)
    usart_block_length_config                0x08004b85   Thumb Code    18  gd32f1x0_usart.o(.text)
    usart_smartcard_autoretry_config         0x08004b99   Thumb Code    30  gd32f1x0_usart.o(.text)
    usart_irda_mode_enable                   0x08004bb9   Thumb Code    18  gd32f1x0_usart.o(.text)
    usart_irda_mode_disable                  0x08004bcd   Thumb Code    18  gd32f1x0_usart.o(.text)
    usart_irda_lowpower_config               0x08004be1   Thumb Code    20  gd32f1x0_usart.o(.text)
    usart_prescaler_config                   0x08004bf5   Thumb Code    24  gd32f1x0_usart.o(.text)
    usart_hardware_flow_rts_config           0x08004c0d   Thumb Code    24  gd32f1x0_usart.o(.text)
    usart_hardware_flow_cts_config           0x08004c25   Thumb Code    24  gd32f1x0_usart.o(.text)
    usart_rs485_driver_enable                0x08004c3d   Thumb Code    18  gd32f1x0_usart.o(.text)
    usart_rs485_driver_disable               0x08004c51   Thumb Code    18  gd32f1x0_usart.o(.text)
    usart_driver_assertime_config            0x08004c65   Thumb Code    30  gd32f1x0_usart.o(.text)
    usart_driver_deassertime_config          0x08004c85   Thumb Code    30  gd32f1x0_usart.o(.text)
    usart_depolarity_config                  0x08004ca5   Thumb Code    28  gd32f1x0_usart.o(.text)
    usart_dma_receive_config                 0x08004cc1   Thumb Code    16  gd32f1x0_usart.o(.text)
    usart_dma_transmit_config                0x08004cd1   Thumb Code    16  gd32f1x0_usart.o(.text)
    usart_reception_error_dma_disable        0x08004ce1   Thumb Code    18  gd32f1x0_usart.o(.text)
    usart_reception_error_dma_enable         0x08004cf5   Thumb Code    18  gd32f1x0_usart.o(.text)
    usart_wakeup_enable                      0x08004d09   Thumb Code    10  gd32f1x0_usart.o(.text)
    usart_wakeup_disable                     0x08004d15   Thumb Code    10  gd32f1x0_usart.o(.text)
    usart_wakeup_mode_config                 0x08004d21   Thumb Code    28  gd32f1x0_usart.o(.text)
    usart_flag_get                           0x08004d3d   Thumb Code    16  gd32f1x0_usart.o(.text)
    usart_flag_clear                         0x08004d4d   Thumb Code    18  gd32f1x0_usart.o(.text)
    usart_interrupt_enable                   0x08004d61   Thumb Code    24  gd32f1x0_usart.o(.text)
    usart_interrupt_disable                  0x08004d79   Thumb Code    26  gd32f1x0_usart.o(.text)
    usart_command_enable                     0x08004d95   Thumb Code     8  gd32f1x0_usart.o(.text)
    usart_interrupt_flag_get                 0x08004d9d   Thumb Code    34  gd32f1x0_usart.o(.text)
    usart_interrupt_flag_clear               0x08004dc1   Thumb Code    18  gd32f1x0_usart.o(.text)
    Reset_Handler                            0x08004dd5   Thumb Code     8  startup_gd32f1x0.o(.text)
    ADC_CMP_IRQHandler                       0x08004def   Thumb Code     0  startup_gd32f1x0.o(.text)
    CAN0_RX0_IRQHandler                      0x08004def   Thumb Code     0  startup_gd32f1x0.o(.text)
    CAN0_RX1_IRQHandler                      0x08004def   Thumb Code     0  startup_gd32f1x0.o(.text)
    CAN0_SCE_IRQHandler                      0x08004def   Thumb Code     0  startup_gd32f1x0.o(.text)
    CAN0_TX_IRQHandler                       0x08004def   Thumb Code     0  startup_gd32f1x0.o(.text)
    CAN1_RX0_IRQHandler                      0x08004def   Thumb Code     0  startup_gd32f1x0.o(.text)
    CAN1_RX1_IRQHandler                      0x08004def   Thumb Code     0  startup_gd32f1x0.o(.text)
    CAN1_SCE_IRQHandler                      0x08004def   Thumb Code     0  startup_gd32f1x0.o(.text)
    CAN1_TX_IRQHandler                       0x08004def   Thumb Code     0  startup_gd32f1x0.o(.text)
    CEC_IRQHandler                           0x08004def   Thumb Code     0  startup_gd32f1x0.o(.text)
    DMA_Channel5_6_IRQHandler                0x08004def   Thumb Code     0  startup_gd32f1x0.o(.text)
    EXTI0_1_IRQHandler                       0x08004def   Thumb Code     0  startup_gd32f1x0.o(.text)
    EXTI2_3_IRQHandler                       0x08004def   Thumb Code     0  startup_gd32f1x0.o(.text)
    EXTI4_15_IRQHandler                      0x08004def   Thumb Code     0  startup_gd32f1x0.o(.text)
    FMC_IRQHandler                           0x08004def   Thumb Code     0  startup_gd32f1x0.o(.text)
    I2C0_ER_IRQHandler                       0x08004def   Thumb Code     0  startup_gd32f1x0.o(.text)
    I2C0_EV_IRQHandler                       0x08004def   Thumb Code     0  startup_gd32f1x0.o(.text)
    I2C1_ER_IRQHandler                       0x08004def   Thumb Code     0  startup_gd32f1x0.o(.text)
    I2C1_EV_IRQHandler                       0x08004def   Thumb Code     0  startup_gd32f1x0.o(.text)
    I2C2_ER_IRQHandler                       0x08004def   Thumb Code     0  startup_gd32f1x0.o(.text)
    I2C2_EV_IRQHandler                       0x08004def   Thumb Code     0  startup_gd32f1x0.o(.text)
    LVD_IRQHandler                           0x08004def   Thumb Code     0  startup_gd32f1x0.o(.text)
    RCU_IRQHandler                           0x08004def   Thumb Code     0  startup_gd32f1x0.o(.text)
    RTC_IRQHandler                           0x08004def   Thumb Code     0  startup_gd32f1x0.o(.text)
    SLCD_IRQHandler                          0x08004def   Thumb Code     0  startup_gd32f1x0.o(.text)
    SPI0_IRQHandler                          0x08004def   Thumb Code     0  startup_gd32f1x0.o(.text)
    SPI1_IRQHandler                          0x08004def   Thumb Code     0  startup_gd32f1x0.o(.text)
    SPI2_IRQHandler                          0x08004def   Thumb Code     0  startup_gd32f1x0.o(.text)
    TIMER0_Channel_IRQHandler                0x08004def   Thumb Code     0  startup_gd32f1x0.o(.text)
    TIMER14_IRQHandler                       0x08004def   Thumb Code     0  startup_gd32f1x0.o(.text)
    TIMER15_IRQHandler                       0x08004def   Thumb Code     0  startup_gd32f1x0.o(.text)
    TIMER16_IRQHandler                       0x08004def   Thumb Code     0  startup_gd32f1x0.o(.text)
    TIMER1_IRQHandler                        0x08004def   Thumb Code     0  startup_gd32f1x0.o(.text)
    TIMER2_IRQHandler                        0x08004def   Thumb Code     0  startup_gd32f1x0.o(.text)
    TIMER5_DAC_IRQHandler                    0x08004def   Thumb Code     0  startup_gd32f1x0.o(.text)
    TSI_IRQHandler                           0x08004def   Thumb Code     0  startup_gd32f1x0.o(.text)
    USART0_IRQHandler                        0x08004def   Thumb Code     0  startup_gd32f1x0.o(.text)
    USART1_IRQHandler                        0x08004def   Thumb Code     0  startup_gd32f1x0.o(.text)
    USBDWakeUp_IRQHandler                    0x08004def   Thumb Code     0  startup_gd32f1x0.o(.text)
    USBD_HP_IRQHandler                       0x08004def   Thumb Code     0  startup_gd32f1x0.o(.text)
    USBD_LP_IRQHandler                       0x08004def   Thumb Code     0  startup_gd32f1x0.o(.text)
    WWDGT_IRQHandler                         0x08004def   Thumb Code     0  startup_gd32f1x0.o(.text)
    SystemInit                               0x08004df9   Thumb Code   188  system_gd32f1x0.o(.text)
    SystemCoreClockUpdate                    0x08004eb5   Thumb Code   112  system_gd32f1x0.o(.text)
    __aeabi_fadd                             0x08004f35   Thumb Code   164  fadd.o(.text)
    __aeabi_fsub                             0x08004fd9   Thumb Code     6  fadd.o(.text)
    __aeabi_frsub                            0x08004fdf   Thumb Code     6  fadd.o(.text)
    __aeabi_fmul                             0x08004fe5   Thumb Code   100  fmul.o(.text)
    __aeabi_fdiv                             0x08005049   Thumb Code   124  fdiv.o(.text)
    __aeabi_dadd                             0x080050c5   Thumb Code   322  dadd.o(.text)
    __aeabi_dsub                             0x08005207   Thumb Code     6  dadd.o(.text)
    __aeabi_drsub                            0x0800520d   Thumb Code     6  dadd.o(.text)
    __aeabi_dmul                             0x08005213   Thumb Code   228  dmul.o(.text)
    __aeabi_ddiv                             0x080052f7   Thumb Code   222  ddiv.o(.text)
    __aeabi_fcmple                           0x080053d5   Thumb Code    28  fcmple.o(.text)
    __aeabi_fcmplt                           0x080053f1   Thumb Code    28  fcmplt.o(.text)
    __aeabi_fcmpgt                           0x0800540d   Thumb Code    28  fcmpgt.o(.text)
    __aeabi_dcmple                           0x08005429   Thumb Code    54  dcmple.o(.text)
    __aeabi_i2f                              0x0800545f   Thumb Code    18  fflti.o(.text)
    __aeabi_ui2f                             0x08005471   Thumb Code    10  ffltui.o(.text)
    __aeabi_i2d                              0x0800547b   Thumb Code    34  dflti.o(.text)
    __aeabi_ui2d                             0x0800549d   Thumb Code    26  dfltui.o(.text)
    __aeabi_f2iz                             0x080054b7   Thumb Code    50  ffixi.o(.text)
    __aeabi_d2iz                             0x080054e9   Thumb Code    62  dfixi.o(.text)
    __aeabi_f2d                              0x08005527   Thumb Code    38  f2d.o(.text)
    __aeabi_d2f                              0x0800554d   Thumb Code    56  d2f.o(.text)
    __aeabi_llsl                             0x08005585   Thumb Code    30  llshl.o(.text)
    _ll_shift_l                              0x08005585   Thumb Code     0  llshl.o(.text)
    __aeabi_llsr                             0x080055a3   Thumb Code    32  llushr.o(.text)
    _ll_ushift_r                             0x080055a3   Thumb Code     0  llushr.o(.text)
    __aeabi_lasr                             0x080055c3   Thumb Code    36  llsshr.o(.text)
    _ll_sshift_r                             0x080055c3   Thumb Code     0  llsshr.o(.text)
    __I$use$fp                               0x080055e7   Thumb Code     0  iusefp.o(.text)
    _float_round                             0x080055e7   Thumb Code    18  fepilogue.o(.text)
    _float_epilogue                          0x080055f9   Thumb Code    92  fepilogue.o(.text)
    _double_round                            0x08005655   Thumb Code    30  depilogue.o(.text)
    _double_epilogue                         0x08005673   Thumb Code   156  depilogue.o(.text)
    __scatterload                            0x08005711   Thumb Code    28  init.o(.text)
    __scatterload_rt2                        0x08005711   Thumb Code     0  init.o(.text)
    __scatterload_copy                       0x08005735   Thumb Code    14  handlers.o(i.__scatterload_copy)
    __scatterload_null                       0x08005743   Thumb Code     2  handlers.o(i.__scatterload_null)
    __scatterload_zeroinit                   0x08005745   Thumb Code    14  handlers.o(i.__scatterload_zeroinit)
    hall_to_pos                              0x08005772   Data           8  bldc.o(.rodata.hall_to_pos)
    lookUpTableAngle                         0x0800577c   Data         724  main.o(.rodata.lookUpTableAngle)
    Region$$Table$$Base                      0x08005a50   Number         0  anon$$obj.o(Region$$Table)
    Region$$Table$$Limit                     0x08005a70   Number         0  anon$$obj.o(Region$$Table)
    SystemCoreClock                          0x20000000   Data           4  system_gd32f1x0.o(.data.SystemCoreClock)
    batteryVoltage                           0x20000004   Data           4  bldc.o(.data.batteryVoltage)
    beepsBackwards                           0x20000008   Data           1  main.o(.data.beepsBackwards)
    currentDC                                0x2000000c   Data           4  bldc.o(.data.currentDC)
    offsetdc                                 0x20000012   Data           2  bldc.o(.data.offsetdc)
    speedLimit                               0x20000014   Data           2  main.o(.data.speedLimit)
    wState                                   0x20000016   Data           1  main.o(.data.wState)
    wStateSlave                              0x20000017   Data           1  main.o(.data.wStateSlave)
    adc_buffer                               0x20000032   Data           4  bldc.o(.bss.adc_buffer)
    bldc_enable                              0x20000036   Data           1  bldc.o(.bss.bldc_enable)
    bldc_inputFilterPwm                      0x20000038   Data           2  bldc.o(.bss.bldc_inputFilterPwm)
    bldc_outputFilterPwm                     0x2000003a   Data           2  bldc.o(.bss.bldc_outputFilterPwm)
    buzzerFreq                               0x2000003c   Data           1  bldc.o(.bss.buzzerFreq)
    buzzerPattern                            0x2000003d   Data           1  bldc.o(.bss.buzzerPattern)
    buzzerTimer                              0x2000003e   Data           2  bldc.o(.bss.buzzerTimer)
    buzzerToggle                             0x20000040   Data           1  bldc.o(.bss.buzzerToggle)
    dma_init_struct_adc                      0x20000044   Data          36  setup.o(.bss.dma_init_struct_adc)
    dma_init_struct_usart                    0x20000068   Data          36  setup.o(.bss.dma_init_struct_usart)
    enable                                   0x2000008c   Data           1  main.o(.bss.enable)
    filter_reg                               0x20000090   Data           4  bldc.o(.bss.filter_reg)
    hall                                     0x20000094   Data           1  bldc.o(.bss.hall)
    hall_a                                   0x20000095   Data           1  bldc.o(.bss.hall_a)
    hall_b                                   0x20000096   Data           1  bldc.o(.bss.hall_b)
    hall_c                                   0x20000097   Data           1  bldc.o(.bss.hall_c)
    iConfigMode                              0x20000098   Data           2  main.o(.bss.iConfigMode)
    iOdom                                    0x2000009c   Data           4  bldc.o(.bss.iOdom)
    iTimeLastRx                              0x200000a4   Data           4  remoteuart.o(.bss.iTimeLastRx)
    iTimeNextLoop                            0x200000a8   Data           4  main.o(.bss.iTimeNextLoop)
    iTimeNextTx                              0x200000ac   Data           4  remoteuart.o(.bss.iTimeNextTx)
    inactivity_timeout_counter               0x200000b0   Data           4  main.o(.bss.inactivity_timeout_counter)
    lastPos                                  0x200000b4   Data           1  bldc.o(.bss.lastPos)
    msTicks                                  0x200000b8   Data           4  it.o(.bss.msTicks)
    oConfig                                  0x200000bc   Data          18  setup.o(.bss.oConfig)
    oDataSlave                               0x200000d0   Data          16  main.o(.bss.oDataSlave)
    offsetcount                              0x200000e0   Data           2  bldc.o(.bss.offsetcount)
    pos                                      0x200000e2   Data           1  bldc.o(.bss.pos)
    pwmSlave                                 0x200000e4   Data           2  main.o(.bss.pwmSlave)
    realSpeed                                0x200000e8   Data           4  bldc.o(.bss.realSpeed)
    speed                                    0x200000ec   Data           4  main.o(.bss.speed)
    speedCounter                             0x200000f0   Data           4  bldc.o(.bss.speedCounter)
    speedShutoff                             0x200000f4   Data           4  main.o(.bss.speedShutoff)
    steer                                    0x200000f8   Data           4  main.o(.bss.steer)
    steerCounter                             0x200000fc   Data           4  main.o(.bss.steerCounter)
    timedOut                                 0x20000100   Data           1  it.o(.bss.timedOut)
    timeoutCounter_ms                        0x20000104   Data           4  it.o(.bss.timeoutCounter_ms)
    timeoutTimer_paramter_struct             0x20000108   Data          16  setup.o(.bss.timeoutTimer_paramter_struct)
    timerBldc_break_parameter_struct         0x20000118   Data          24  setup.o(.bss.timerBldc_break_parameter_struct)
    timerBldc_oc_parameter_struct            0x20000130   Data          16  setup.o(.bss.timerBldc_oc_parameter_struct)
    timerBldc_paramter_struct                0x20000140   Data          16  setup.o(.bss.timerBldc_paramter_struct)
    usart0_rx_buf                            0x20000150   Data           1  setup.o(.bss.usart0_rx_buf)
    usart1_rx_buf                            0x20000151   Data           1  setup.o(.bss.usart1_rx_buf)
    __initial_sp                             0x20000558   Data           0  startup_gd32f1x0.o(STACK)



==============================================================================

Memory Map of the image

  Image Entry point : 0x08000169

  Load Region LR_IROM1 (Base: 0x08000000, Size: 0x00005a88, Max: 0x00010000, ABSOLUTE)

    Execution Region ER_IROM1 (Exec base: 0x08000000, Load base: 0x08000000, Size: 0x00005a70, Max: 0x00010000, ABSOLUTE)

    Exec Addr    Load Addr    Size         Type   Attr      Idx    E Section Name        Object

    0x08000000   0x08000000   0x00000168   Data   RO          271    RESET               startup_gd32f1x0.o
    0x08000168   0x08000168   0x00000000   Code   RO          288  * .ARM.Collect$$$$00000000  mc_w.l(entry.o)
    0x08000168   0x08000168   0x00000004   Code   RO          327    .ARM.Collect$$$$00000001  mc_w.l(entry2.o)
    0x0800016c   0x0800016c   0x00000004   Code   RO          330    .ARM.Collect$$$$00000004  mc_w.l(entry5.o)
    0x08000170   0x08000170   0x00000000   Code   RO          332    .ARM.Collect$$$$00000008  mc_w.l(entry7b.o)
    0x08000170   0x08000170   0x00000000   Code   RO          334    .ARM.Collect$$$$0000000A  mc_w.l(entry8b.o)
    0x08000170   0x08000170   0x00000008   Code   RO          335    .ARM.Collect$$$$0000000B  mc_w.l(entry9a.o)
    0x08000178   0x08000178   0x00000000   Code   RO          337    .ARM.Collect$$$$0000000D  mc_w.l(entry10a.o)
    0x08000178   0x08000178   0x00000000   Code   RO          339    .ARM.Collect$$$$0000000F  mc_w.l(entry11a.o)
    0x08000178   0x08000178   0x00000004   Code   RO          328    .ARM.Collect$$$$00002712  mc_w.l(entry2.o)
    0x0800017c   0x0800017c   0x00000830   Code   RO            1    .text               main.o
    0x080009ac   0x080009ac   0x00000452   Code   RO           28    .text               bldc.o
    0x08000dfe   0x08000dfe   0x00000002   PAD
    0x08000e00   0x08000e00   0x0000006e   Code   RO           61    .text               bldcbc.o
    0x08000e6e   0x08000e6e   0x00000002   PAD
    0x08000e70   0x08000e70   0x000009f8   Code   RO           70    .text               setup.o
    0x08001868   0x08001868   0x00000142   Code   RO           88    .text               it.o
    0x080019aa   0x080019aa   0x00000002   PAD
    0x080019ac   0x080019ac   0x0000006c   Code   RO          101    .text               comms.o
    0x08001a18   0x08001a18   0x0000019c   Code   RO          109    .text               remoteuart.o
    0x08001bb4   0x08001bb4   0x000000e4   Code   RO          125    .text               commsmasterslave.o
    0x08001c98   0x08001c98   0x000005a6   Code   RO          140    .text               gd32f1x0_adc.o
    0x0800223e   0x0800223e   0x00000002   PAD
    0x08002240   0x08002240   0x0000034c   Code   RO          156    .text               gd32f1x0_dma.o
    0x0800258c   0x0800258c   0x000009d4   Code   RO          172    .text               gd32f1x0_fmc.o
    0x08002f60   0x08002f60   0x000000da   Code   RO          181    .text               gd32f1x0_fwdgt.o
    0x0800303a   0x0800303a   0x00000002   PAD
    0x0800303c   0x0800303c   0x00000198   Code   RO          189    .text               gd32f1x0_gpio.o
    0x080031d4   0x080031d4   0x00000130   Code   RO          206    .text               gd32f1x0_misc.o
    0x08003304   0x08003304   0x00000730   Code   RO          227    .text               gd32f1x0_rcu.o
    0x08003a34   0x08003a34   0x00000d60   Code   RO          244    .text               gd32f1x0_timer.o
    0x08004794   0x08004794   0x0000063e   Code   RO          253    .text               gd32f1x0_usart.o
    0x08004dd2   0x08004dd2   0x00000002   PAD
    0x08004dd4   0x08004dd4   0x00000024   Code   RO          272    .text               startup_gd32f1x0.o
    0x08004df8   0x08004df8   0x0000013c   Code   RO          278    .text               system_gd32f1x0.o
    0x08004f34   0x08004f34   0x000000b0   Code   RO          291    .text               mf_w.l(fadd.o)
    0x08004fe4   0x08004fe4   0x00000064   Code   RO          293    .text               mf_w.l(fmul.o)
    0x08005048   0x08005048   0x0000007c   Code   RO          295    .text               mf_w.l(fdiv.o)
    0x080050c4   0x080050c4   0x0000014e   Code   RO          297    .text               mf_w.l(dadd.o)
    0x08005212   0x08005212   0x000000e4   Code   RO          299    .text               mf_w.l(dmul.o)
    0x080052f6   0x080052f6   0x000000de   Code   RO          301    .text               mf_w.l(ddiv.o)
    0x080053d4   0x080053d4   0x0000001c   Code   RO          303    .text               mf_w.l(fcmple.o)
    0x080053f0   0x080053f0   0x0000001c   Code   RO          305    .text               mf_w.l(fcmplt.o)
    0x0800540c   0x0800540c   0x0000001c   Code   RO          307    .text               mf_w.l(fcmpgt.o)
    0x08005428   0x08005428   0x00000036   Code   RO          309    .text               mf_w.l(dcmple.o)
    0x0800545e   0x0800545e   0x00000012   Code   RO          311    .text               mf_w.l(fflti.o)
    0x08005470   0x08005470   0x0000000a   Code   RO          313    .text               mf_w.l(ffltui.o)
    0x0800547a   0x0800547a   0x00000022   Code   RO          315    .text               mf_w.l(dflti.o)
    0x0800549c   0x0800549c   0x0000001a   Code   RO          317    .text               mf_w.l(dfltui.o)
    0x080054b6   0x080054b6   0x00000032   Code   RO          319    .text               mf_w.l(ffixi.o)
    0x080054e8   0x080054e8   0x0000003e   Code   RO          321    .text               mf_w.l(dfixi.o)
    0x08005526   0x08005526   0x00000026   Code   RO          323    .text               mf_w.l(f2d.o)
    0x0800554c   0x0800554c   0x00000038   Code   RO          325    .text               mf_w.l(d2f.o)
    0x08005584   0x08005584   0x0000001e   Code   RO          341    .text               mc_w.l(llshl.o)
    0x080055a2   0x080055a2   0x00000020   Code   RO          343    .text               mc_w.l(llushr.o)
    0x080055c2   0x080055c2   0x00000024   Code   RO          345    .text               mc_w.l(llsshr.o)
    0x080055e6   0x080055e6   0x00000000   Code   RO          347    .text               mc_w.l(iusefp.o)
    0x080055e6   0x080055e6   0x0000006e   Code   RO          348    .text               mf_w.l(fepilogue.o)
    0x08005654   0x08005654   0x000000ba   Code   RO          350    .text               mf_w.l(depilogue.o)
    0x0800570e   0x0800570e   0x00000002   PAD
    0x08005710   0x08005710   0x00000024   Code   RO          352    .text               mc_w.l(init.o)
    0x08005734   0x08005734   0x0000000e   Code   RO          356    i.__scatterload_copy  mc_w.l(handlers.o)
    0x08005742   0x08005742   0x00000002   Code   RO          357    i.__scatterload_null  mc_w.l(handlers.o)
    0x08005744   0x08005744   0x0000000e   Code   RO          358    i.__scatterload_zeroinit  mc_w.l(handlers.o)
    0x08005752   0x08005752   0x0000000c   Data   RO           45    .rodata..L__const.up_or_down.up_down  bldc.o
    0x0800575e   0x0800575e   0x0000000c   Data   RO          191    .rodata..Lswitch.table.gpio_deinit.1  gd32f1x0_gpio.o
    0x0800576a   0x0800576a   0x00000008   Data   RO          229    .rodata.cst8        gd32f1x0_rcu.o
    0x08005772   0x08005772   0x00000008   Data   RO           46    .rodata.hall_to_pos  bldc.o
    0x0800577a   0x0800577a   0x00000002   PAD
    0x0800577c   0x0800577c   0x000002d4   Data   RO           15    .rodata.lookUpTableAngle  main.o
    0x08005a50   0x08005a50   0x00000020   Data   RO          355    Region$$Table       anon$$obj.o


    Execution Region RW_IRAM1 (Exec base: 0x20000000, Load base: 0x08005a70, Size: 0x00000558, Max: 0x00002000, ABSOLUTE)

    Exec Addr    Load Addr    Size         Type   Attr      Idx    E Section Name        Object

    0x20000000   0x08005a70   0x00000004   Data   RW          280    .data.SystemCoreClock  system_gd32f1x0.o
    0x20000004   0x08005a74   0x00000004   Data   RW           30    .data.batteryVoltage  bldc.o
    0x20000008   0x08005a78   0x00000001   Data   RW           12    .data.beepsBackwards  main.o
    0x20000009   0x08005a79   0x00000003   PAD
    0x2000000c   0x08005a7c   0x00000004   Data   RW           31    .data.currentDC     bldc.o
    0x20000010   0x08005a80   0x00000002   Data   RW          129    .data.iReceivePos   commsmasterslave.o
    0x20000012   0x08005a82   0x00000002   Data   RW           39    .data.offsetdc      bldc.o
    0x20000014   0x08005a84   0x00000002   Data   RW            6    .data.speedLimit    main.o
    0x20000016   0x08005a86   0x00000001   Data   RW            8    .data.wState        main.o
    0x20000017   0x08005a87   0x00000001   Data   RW            9    .data.wStateSlave   main.o
    0x20000018        -       0x00000009   Zero   RW          114    .bss.aReceiveBuffer  remoteuart.o
    0x20000021        -       0x00000010   Zero   RW          130    .bss.aReceiveBuffer  commsmasterslave.o
    0x20000031   0x08005a88   0x00000001   PAD
    0x20000032        -       0x00000004   Zero   RW           47    .bss.adc_buffer     bldc.o
    0x20000036        -       0x00000001   Zero   RW           34    .bss.bldc_enable    bldc.o
    0x20000037   0x08005a88   0x00000001   PAD
    0x20000038        -       0x00000002   Zero   RW           33    .bss.bldc_inputFilterPwm  bldc.o
    0x2000003a        -       0x00000002   Zero   RW           36    .bss.bldc_outputFilterPwm  bldc.o
    0x2000003c        -       0x00000001   Zero   RW           42    .bss.buzzerFreq     bldc.o
    0x2000003d        -       0x00000001   Zero   RW           43    .bss.buzzerPattern  bldc.o
    0x2000003e        -       0x00000002   Zero   RW           37    .bss.buzzerTimer    bldc.o
    0x20000040        -       0x00000001   Zero   RW           41    .bss.buzzerToggle   bldc.o
    0x20000041   0x08005a88   0x00000003   PAD
    0x20000044        -       0x00000024   Zero   RW           76    .bss.dma_init_struct_adc  setup.o
    0x20000068        -       0x00000024   Zero   RW           77    .bss.dma_init_struct_usart  setup.o
    0x2000008c        -       0x00000001   Zero   RW           16    .bss.enable         main.o
    0x2000008d   0x08005a88   0x00000003   PAD
    0x20000090        -       0x00000004   Zero   RW           52    .bss.filter_reg     bldc.o
    0x20000094        -       0x00000001   Zero   RW           35    .bss.hall           bldc.o
    0x20000095        -       0x00000001   Zero   RW           48    .bss.hall_a         bldc.o
    0x20000096        -       0x00000001   Zero   RW           49    .bss.hall_b         bldc.o
    0x20000097        -       0x00000001   Zero   RW           50    .bss.hall_c         bldc.o
    0x20000098        -       0x00000002   Zero   RW            7    .bss.iConfigMode    main.o
    0x2000009a   0x08005a88   0x00000002   PAD
    0x2000009c        -       0x00000004   Zero   RW           44    .bss.iOdom          bldc.o
    0x200000a0        -       0x00000002   Zero   RW          113    .bss.iReceivePos    remoteuart.o
    0x200000a2   0x08005a88   0x00000002   PAD
    0x200000a4        -       0x00000004   Zero   RW          111    .bss.iTimeLastRx    remoteuart.o
    0x200000a8        -       0x00000004   Zero   RW           18    .bss.iTimeNextLoop  main.o
    0x200000ac        -       0x00000004   Zero   RW          112    .bss.iTimeNextTx    remoteuart.o
    0x200000b0        -       0x00000004   Zero   RW           14    .bss.inactivity_timeout_counter  main.o
    0x200000b4        -       0x00000001   Zero   RW           53    .bss.lastPos        bldc.o
    0x200000b5   0x08005a88   0x00000003   PAD
    0x200000b8        -       0x00000004   Zero   RW           92    .bss.msTicks        it.o
    0x200000bc        -       0x00000012   Zero   RW           80    .bss.oConfig        setup.o
    0x200000ce   0x08005a88   0x00000002   PAD
    0x200000d0        -       0x00000010   Zero   RW           19    .bss.oDataSlave     main.o
    0x200000e0        -       0x00000002   Zero   RW           38    .bss.offsetcount    bldc.o
    0x200000e2        -       0x00000001   Zero   RW           51    .bss.pos            bldc.o
    0x200000e3   0x08005a88   0x00000001   PAD
    0x200000e4        -       0x00000002   Zero   RW           17    .bss.pwmSlave       main.o
    0x200000e6   0x08005a88   0x00000002   PAD
    0x200000e8        -       0x00000004   Zero   RW           32    .bss.realSpeed      bldc.o
    0x200000ec        -       0x00000004   Zero   RW            4    .bss.speed          main.o
    0x200000f0        -       0x00000004   Zero   RW           40    .bss.speedCounter   bldc.o
    0x200000f4        -       0x00000004   Zero   RW            5    .bss.speedShutoff   main.o
    0x200000f8        -       0x00000004   Zero   RW           10    .bss.steer          main.o
    0x200000fc        -       0x00000004   Zero   RW            3    .bss.steerCounter   main.o
    0x20000100        -       0x00000001   Zero   RW           91    .bss.timedOut       it.o
    0x20000101   0x08005a88   0x00000003   PAD
    0x20000104        -       0x00000004   Zero   RW           90    .bss.timeoutCounter_ms  it.o
    0x20000108        -       0x00000010   Zero   RW           72    .bss.timeoutTimer_paramter_struct  setup.o
    0x20000118        -       0x00000018   Zero   RW           75    .bss.timerBldc_break_parameter_struct  setup.o
    0x20000130        -       0x00000010   Zero   RW           74    .bss.timerBldc_oc_parameter_struct  setup.o
    0x20000140        -       0x00000010   Zero   RW           73    .bss.timerBldc_paramter_struct  setup.o
    0x20000150        -       0x00000001   Zero   RW           79    .bss.usart0_rx_buf  setup.o
    0x20000151        -       0x00000001   Zero   RW           78    .bss.usart1_rx_buf  setup.o
    0x20000152   0x08005a88   0x00000006   PAD
    0x20000158        -       0x00000400   Zero   RW          269    STACK               startup_gd32f1x0.o


==============================================================================

Image component sizes


      Code (inc. data)   RO Data    RW Data    ZI Data      Debug   Object Name

      1106          0         20         10         38       3655   bldc.o
       110          6          0          0          0        937   bldcbc.o
       108          0          0          0          0       2005   comms.o
       228          0          0          2         16       2065   commsmasterslave.o
      1446         16          0          0          0       7602   gd32f1x0_adc.o
       844          8          0          0          0       6135   gd32f1x0_dma.o
      2516          0          0          0          0      13249   gd32f1x0_fmc.o
       218          0          0          0          0       1996   gd32f1x0_fwdgt.o
       408          0         12          0          0       4211   gd32f1x0_gpio.o
       304          0          0          0          0       3163   gd32f1x0_misc.o
      1840         34          8          0          0      13480   gd32f1x0_rcu.o
      3424         44          0          0          0      18343   gd32f1x0_timer.o
      1598          8          0          0          0      11974   gd32f1x0_usart.o
       322          0          0          0          9       2672   it.o
      2096          0        724          5         45       7007   main.o
       412          0          0          0         19       1855   remoteuart.o
      2552          0          0          0        164       9762   setup.o
        36          8        360          0       1024        844   startup_gd32f1x0.o
       316         16          0          4          0       1592   system_gd32f1x0.o

    ----------------------------------------------------------------------
     19896        140       1158         24       1344     112547   Object Totals
         0          0         32          0          0          0   (incl. Generated)
        12          0          2          3         29          0   (incl. Padding)

    ----------------------------------------------------------------------

      Code (inc. data)   RO Data    RW Data    ZI Data      Debug   Library Member Name

         0          0          0          0          0          0   entry.o
         0          0          0          0          0          0   entry10a.o
         0          0          0          0          0          0   entry11a.o
         8          4          0          0          0          0   entry2.o
         4          0          0          0          0          0   entry5.o
         0          0          0          0          0          0   entry7b.o
         0          0          0          0          0          0   entry8b.o
         8          4          0          0          0          0   entry9a.o
        30          0          0          0          0          0   handlers.o
        36          8          0          0          0         68   init.o
         0          0          0          0          0          0   iusefp.o
        30          0          0          0          0         68   llshl.o
        36          0          0          0          0         68   llsshr.o
        32          0          0          0          0         68   llushr.o
        56          0          0          0          0         88   d2f.o
       334          0          0          0          0        148   dadd.o
        54          0          0          0          0         80   dcmple.o
       222          0          0          0          0        100   ddiv.o
       186          0          0          0          0        176   depilogue.o
        62          0          0          0          0         80   dfixi.o
        34          0          0          0          0         76   dflti.o
        26          0          0          0          0         76   dfltui.o
       228          0          0          0          0         96   dmul.o
        38          0          0          0          0         68   f2d.o
       176          0          0          0          0        140   fadd.o
        28          0          0          0          0         68   fcmpgt.o
        28          0          0          0          0         68   fcmple.o
        28          0          0          0          0         68   fcmplt.o
       124          0          0          0          0         88   fdiv.o
       110          0          0          0          0        168   fepilogue.o
        50          0          0          0          0         68   ffixi.o
        18          0          0          0          0         68   fflti.o
        10          0          0          0          0         68   ffltui.o
       100          0          0          0          0         76   fmul.o

    ----------------------------------------------------------------------
      2098         16          0          0          0       2140   Library Totals
         2          0          0          0          0          0   (incl. Padding)

    ----------------------------------------------------------------------

      Code (inc. data)   RO Data    RW Data    ZI Data      Debug   Library Name

       184         16          0          0          0        272   mc_w.l
      1912          0          0          0          0       1868   mf_w.l

    ----------------------------------------------------------------------
      2098         16          0          0          0       2140   Library Totals

    ----------------------------------------------------------------------

==============================================================================


      Code (inc. data)   RO Data    RW Data    ZI Data      Debug   

     21994        156       1158         24       1344     113407   Grand Totals
     21994        156       1158         24       1344     113407   ELF Image Totals
     21994        156       1158         24          0          0   ROM Totals

==============================================================================

    Total RO  Size (Code + RO Data)                23152 (  22.61kB)
    Total RW  Size (RW Data + ZI Data)              1368 (   1.34kB)
    Total ROM Size (Code + RO Data + RW Data)      23176 (  22.63kB)

==============================================================================

