Component: Arm Compiler for Embedded 6.19 Tool: armlink [5e73cb00]

==============================================================================

Section Cross References

    main.o(.text) refers to setup.o(.text) for ConfigRead
    main.o(.text) refers to system_gd32f1x0.o(.text) for SystemCoreClockUpdate
    main.o(.text) refers to system_gd32f1x0.o(.data.SystemCoreClock) for SystemCoreClock
    main.o(.text) refers to gd32f1x0_gpio.o(.text) for gpio_bit_write
    main.o(.text) refers to bldcbc.o(.text) for InitBldc
    main.o(.text) refers to gd32f1x0_fwdgt.o(.text) for fwdgt_counter_reload
    main.o(.text) refers to bldc.o(.bss.buzzerFreq) for buzzerFreq
    main.o(.text) refers to it.o(.text) for Delay
    main.o(.text) refers to main.o(.bss.iConfigMode) for iConfigMode
    main.o(.text) refers to bldc.o(.bss.buzzerPattern) for buzzerPattern
    main.o(.text) refers to main.o(.bss.iTimeNextLoop) for iTimeNextLoop
    main.o(.text) refers to main.o(.data.wState) for wState
    main.o(.text) refers to main.o(.bss.pwmSlave) for pwmSlave
    main.o(.text) refers to main.o(.bss.steerCounter) for steerCounter
    main.o(.text) refers to remotedummy.o(.text) for RemoteUpdate
    main.o(.text) refers to main.o(.bss.speed) for speed
    main.o(.text) refers to fflti.o(.text) for __aeabi_i2f
    main.o(.text) refers to f2d.o(.text) for __aeabi_f2d
    main.o(.text) refers to dmul.o(.text) for __aeabi_dmul
    main.o(.text) refers to ddiv.o(.text) for __aeabi_ddiv
    main.o(.text) refers to dadd.o(.text) for __aeabi_dadd
    main.o(.text) refers to d2f.o(.text) for __aeabi_d2f
    main.o(.text) refers to main.o(.data.speedLimit) for speedLimit
    main.o(.text) refers to main.o(.bss.steer) for steer
    main.o(.text) refers to fmul.o(.text) for __aeabi_fmul
    main.o(.text) refers to ffixi.o(.text) for __aeabi_f2iz
    main.o(.text) refers to fadd.o(.text) for __aeabi_fsub
    main.o(.text) refers to fdiv.o(.text) for __aeabi_fdiv
    main.o(.text) refers to main.o(.rodata.lookUpTableAngle) for lookUpTableAngle
    main.o(.text) refers to fcmplt.o(.text) for __aeabi_fcmplt
    main.o(.text) refers to bldc.o(.text) for SetPWM
    main.o(.text) refers to main.o(.bss.enable) for enable
    main.o(.text) refers to it.o(.bss.timedOut) for timedOut
    main.o(.text) refers to main.o(.data.wStateSlave) for wStateSlave
    main.o(.text) refers to commsmasterslave.o(.text) for SendSlave
    main.o(.text) refers to bldc.o(.data.batteryVoltage) for batteryVoltage
    main.o(.text) refers to fcmple.o(.text) for __aeabi_fcmple
    main.o(.text) refers to main.o(.data.beepsBackwards) for beepsBackwards
    main.o(.text) refers to main.o(.bss.inactivity_timeout_counter) for inactivity_timeout_counter
    main.o(.text) refers to gd32f1x0_usart.o(.text) for usart_deinit
    main.o(.ARM.exidx) refers to main.o(.text) for [Anonymous Symbol]
    bldc.o(.text) refers to bldc.o(.rodata..L__const.up_or_down.up_down) for .L__const.up_or_down.up_down
    bldc.o(.text) refers to bldc.o(.bss.bldc_enable) for bldc_enable
    bldc.o(.text) refers to dflti.o(.text) for __aeabi_i2d
    bldc.o(.text) refers to ddiv.o(.text) for __aeabi_ddiv
    bldc.o(.text) refers to dmul.o(.text) for __aeabi_dmul
    bldc.o(.text) refers to dfixi.o(.text) for __aeabi_d2iz
    bldc.o(.text) refers to bldc.o(.bss.bldc_inputFilterPwm) for bldc_inputFilterPwm
    bldc.o(.text) refers to bldc.o(.bss.offsetcount) for offsetcount
    bldc.o(.text) refers to bldc.o(.bss.adc_buffer) for adc_buffer
    bldc.o(.text) refers to bldc.o(.data.offsetdc) for offsetdc
    bldc.o(.text) refers to bldc.o(.bss.buzzerTimer) for buzzerTimer
    bldc.o(.text) refers to bldc.o(.data.batteryVoltage) for batteryVoltage
    bldc.o(.text) refers to f2d.o(.text) for __aeabi_f2d
    bldc.o(.text) refers to dfltui.o(.text) for __aeabi_ui2d
    bldc.o(.text) refers to dadd.o(.text) for __aeabi_dadd
    bldc.o(.text) refers to d2f.o(.text) for __aeabi_d2f
    bldc.o(.text) refers to bldc.o(.bss.buzzerFreq) for buzzerFreq
    bldc.o(.text) refers to bldc.o(.bss.buzzerPattern) for buzzerPattern
    bldc.o(.text) refers to gd32f1x0_gpio.o(.text) for gpio_bit_write
    bldc.o(.text) refers to bldc.o(.data.currentDC) for currentDC
    bldc.o(.text) refers to fcmpgt.o(.text) for __aeabi_fcmpgt
    bldc.o(.text) refers to it.o(.bss.timedOut) for timedOut
    bldc.o(.text) refers to gd32f1x0_timer.o(.text) for timer_automatic_output_enable
    bldc.o(.text) refers to bldc.o(.bss.hall_a) for hall_a
    bldc.o(.text) refers to bldc.o(.bss.hall_b) for hall_b
    bldc.o(.text) refers to bldc.o(.bss.hall_c) for hall_c
    bldc.o(.text) refers to bldc.o(.bss.hall) for hall
    bldc.o(.text) refers to bldc.o(.rodata.hall_to_pos) for hall_to_pos
    bldc.o(.text) refers to bldc.o(.bss.pos) for pos
    bldc.o(.text) refers to bldc.o(.bss.buzzerToggle) for buzzerToggle
    bldc.o(.text) refers to bldc.o(.bss.filter_reg) for filter_reg
    bldc.o(.text) refers to bldc.o(.bss.bldc_outputFilterPwm) for bldc_outputFilterPwm
    bldc.o(.text) refers to bldcbc.o(.text) for bldc_get_pwm
    bldc.o(.text) refers to bldc.o(.bss.lastPos) for lastPos
    bldc.o(.text) refers to bldc.o(.bss.iOdom) for iOdom
    bldc.o(.text) refers to bldc.o(.bss.speedCounter) for speedCounter
    bldc.o(.text) refers to ffltui.o(.text) for __aeabi_ui2f
    bldc.o(.text) refers to fdiv.o(.text) for __aeabi_fdiv
    bldc.o(.text) refers to bldc.o(.bss.realSpeed) for realSpeed
    bldc.o(.ARM.exidx) refers to bldc.o(.text) for [Anonymous Symbol]
    bldcbc.o(.ARM.exidx) refers to bldcbc.o(.text) for [Anonymous Symbol]
    setup.o(.text) refers to gd32f1x0_gpio.o(.text) for gpio_mode_set
    setup.o(.text) refers to gd32f1x0_misc.o(.text) for nvic_priority_group_set
    setup.o(.text) refers to gd32f1x0_rcu.o(.text) for rcu_flag_get
    setup.o(.text) refers to gd32f1x0_fwdgt.o(.text) for fwdgt_config
    setup.o(.text) refers to gd32f1x0_timer.o(.text) for timer_deinit
    setup.o(.text) refers to setup.o(.bss.timeoutTimer_paramter_struct) for timeoutTimer_paramter_struct
    setup.o(.text) refers to setup.o(.bss.timerBldc_paramter_struct) for timerBldc_paramter_struct
    setup.o(.text) refers to setup.o(.bss.timerBldc_oc_parameter_struct) for timerBldc_oc_parameter_struct
    setup.o(.text) refers to setup.o(.bss.timerBldc_break_parameter_struct) for timerBldc_break_parameter_struct
    setup.o(.text) refers to gd32f1x0_dma.o(.text) for dma_deinit
    setup.o(.text) refers to setup.o(.bss.dma_init_struct_adc) for dma_init_struct_adc
    setup.o(.text) refers to bldc.o(.bss.adc_buffer) for adc_buffer
    setup.o(.text) refers to gd32f1x0_adc.o(.text) for adc_channel_length_config
    setup.o(.text) refers to gd32f1x0_usart.o(.text) for usart_baudrate_set
    setup.o(.text) refers to setup.o(.bss.dma_init_struct_usart) for dma_init_struct_usart
    setup.o(.text) refers to setup.o(.bss.usart1_rx_buf) for usart1_rx_buf
    setup.o(.text) refers to gd32f1x0_fmc.o(.text) for fmc_unlock
    setup.o(.text) refers to setup.o(.bss.oConfig) for oConfig
    setup.o(.ARM.exidx) refers to setup.o(.text) for [Anonymous Symbol]
    it.o(.text) refers to it.o(.bss.msTicks) for msTicks
    it.o(.text) refers to it.o(.bss.timeoutCounter_ms) for timeoutCounter_ms
    it.o(.text) refers to it.o(.bss.timedOut) for timedOut
    it.o(.text) refers to main.o(.bss.steer) for steer
    it.o(.text) refers to main.o(.bss.speed) for speed
    it.o(.text) refers to main.o(.data.beepsBackwards) for beepsBackwards
    it.o(.text) refers to gd32f1x0_timer.o(.text) for timer_interrupt_flag_clear
    it.o(.text) refers to gd32f1x0_adc.o(.text) for adc_software_trigger_enable
    it.o(.text) refers to gd32f1x0_dma.o(.text) for dma_interrupt_flag_get
    it.o(.text) refers to bldc.o(.text) for CalculateBLDC
    it.o(.text) refers to commsmasterslave.o(.text) for UpdateUSARTMasterSlaveInput
    it.o(.ARM.exidx) refers to it.o(.text) for [Anonymous Symbol]
    comms.o(.text) refers to gd32f1x0_usart.o(.text) for usart_data_transmit
    comms.o(.ARM.exidx) refers to comms.o(.text) for [Anonymous Symbol]
    remotedummy.o(.text) refers to it.o(.bss.msTicks) for msTicks
    remotedummy.o(.text) refers to main.o(.bss.speed) for speed
    remotedummy.o(.text) refers to it.o(.text) for ResetTimeout
    remotedummy.o(.ARM.exidx) refers to remotedummy.o(.text) for [Anonymous Symbol]
    commsmasterslave.o(.text) refers to commsmasterslave.o(.bss.beepsBackwardsMaster) for beepsBackwardsMaster
    commsmasterslave.o(.text) refers to setup.o(.bss.usart1_rx_buf) for usart1_rx_buf
    commsmasterslave.o(.text) refers to commsmasterslave.o(.data.iReceivePos) for iReceivePos
    commsmasterslave.o(.text) refers to commsmasterslave.o(.bss.aReceiveBuffer) for aReceiveBuffer
    commsmasterslave.o(.text) refers to comms.o(.text) for CalcCRC
    commsmasterslave.o(.text) refers to main.o(.bss.oDataSlave) for oDataSlave
    commsmasterslave.o(.text) refers to main.o(.data.wStateSlave) for wStateSlave
    commsmasterslave.o(.ARM.exidx) refers to commsmasterslave.o(.text) for [Anonymous Symbol]
    gd32f1x0_adc.o(.text) refers to gd32f1x0_rcu.o(.text) for rcu_periph_reset_enable
    gd32f1x0_adc.o(.ARM.exidx) refers to gd32f1x0_adc.o(.text) for [Anonymous Symbol]
    gd32f1x0_dbg.o(.ARM.exidx) refers to gd32f1x0_dbg.o(.text) for [Anonymous Symbol]
    gd32f1x0_dma.o(.ARM.exidx) refers to gd32f1x0_dma.o(.text) for [Anonymous Symbol]
    gd32f1x0_exti.o(.ARM.exidx) refers to gd32f1x0_exti.o(.text) for [Anonymous Symbol]
    gd32f1x0_fmc.o(.ARM.exidx) refers to gd32f1x0_fmc.o(.text) for [Anonymous Symbol]
    gd32f1x0_fwdgt.o(.ARM.exidx) refers to gd32f1x0_fwdgt.o(.text) for [Anonymous Symbol]
    gd32f1x0_gpio.o(.text) refers to gd32f1x0_gpio.o(.rodata..Lswitch.table.gpio_deinit.1) for .Lswitch.table.gpio_deinit.1
    gd32f1x0_gpio.o(.text) refers to gd32f1x0_rcu.o(.text) for rcu_periph_reset_enable
    gd32f1x0_gpio.o(.ARM.exidx) refers to gd32f1x0_gpio.o(.text) for [Anonymous Symbol]
    gd32f1x0_i2c.o(.text) refers to gd32f1x0_rcu.o(.text) for rcu_periph_reset_enable
    gd32f1x0_i2c.o(.ARM.exidx) refers to gd32f1x0_i2c.o(.text) for [Anonymous Symbol]
    gd32f1x0_misc.o(.ARM.exidx) refers to gd32f1x0_misc.o(.text) for [Anonymous Symbol]
    gd32f1x0_pmu.o(.text) refers to gd32f1x0_rcu.o(.text) for rcu_periph_reset_enable
    gd32f1x0_pmu.o(.text) refers to gd32f1x0_pmu.o(.bss.pmu_to_deepsleepmode.reg_snap.1) for pmu_to_deepsleepmode.reg_snap.1
    gd32f1x0_pmu.o(.text) refers to gd32f1x0_pmu.o(.bss.pmu_to_deepsleepmode.reg_snap.0) for pmu_to_deepsleepmode.reg_snap.0
    gd32f1x0_pmu.o(.text) refers to gd32f1x0_pmu.o(.bss.pmu_to_deepsleepmode.reg_snap.2) for pmu_to_deepsleepmode.reg_snap.2
    gd32f1x0_pmu.o(.text) refers to gd32f1x0_pmu.o(.bss.pmu_to_deepsleepmode.reg_snap.3) for pmu_to_deepsleepmode.reg_snap.3
    gd32f1x0_pmu.o(.ARM.exidx) refers to gd32f1x0_pmu.o(.text) for [Anonymous Symbol]
    gd32f1x0_rcu.o(.text) refers to gd32f1x0_rcu.o(.rodata.cst8) for .L__const.rcu_clock_freq_get.apb2_exp
    gd32f1x0_rcu.o(.ARM.exidx) refers to gd32f1x0_rcu.o(.text) for [Anonymous Symbol]
    gd32f1x0_syscfg.o(.text) refers to gd32f1x0_rcu.o(.text) for rcu_periph_reset_enable
    gd32f1x0_syscfg.o(.ARM.exidx) refers to gd32f1x0_syscfg.o(.text) for [Anonymous Symbol]
    gd32f1x0_timer.o(.text) refers to gd32f1x0_rcu.o(.text) for rcu_periph_reset_enable
    gd32f1x0_timer.o(.ARM.exidx) refers to gd32f1x0_timer.o(.text) for [Anonymous Symbol]
    gd32f1x0_usart.o(.text) refers to gd32f1x0_rcu.o(.text) for rcu_periph_reset_enable
    gd32f1x0_usart.o(.ARM.exidx) refers to gd32f1x0_usart.o(.text) for [Anonymous Symbol]
    gd32f1x0_wwdgt.o(.text) refers to gd32f1x0_rcu.o(.text) for rcu_periph_reset_enable
    gd32f1x0_wwdgt.o(.ARM.exidx) refers to gd32f1x0_wwdgt.o(.text) for [Anonymous Symbol]
    startup_gd32f1x0.o(RESET) refers to startup_gd32f1x0.o(STACK) for __initial_sp
    startup_gd32f1x0.o(RESET) refers to startup_gd32f1x0.o(.text) for Reset_Handler
    startup_gd32f1x0.o(RESET) refers to it.o(.text) for NMI_Handler
    startup_gd32f1x0.o(.text) refers to system_gd32f1x0.o(.text) for SystemInit
    startup_gd32f1x0.o(.text) refers to entry.o(.ARM.Collect$$$$00000000) for __main
    system_gd32f1x0.o(.text) refers to system_gd32f1x0.o(.data.SystemCoreClock) for SystemCoreClock
    system_gd32f1x0.o(.ARM.exidx) refers to system_gd32f1x0.o(.text) for [Anonymous Symbol]
    entry.o(.ARM.Collect$$$$00000000) refers (Special) to entry10a.o(.ARM.Collect$$$$0000000D) for __rt_final_cpp
    entry.o(.ARM.Collect$$$$00000000) refers (Special) to entry11a.o(.ARM.Collect$$$$0000000F) for __rt_final_exit
    entry.o(.ARM.Collect$$$$00000000) refers (Special) to entry7b.o(.ARM.Collect$$$$00000008) for _main_clock
    entry.o(.ARM.Collect$$$$00000000) refers (Special) to entry8b.o(.ARM.Collect$$$$0000000A) for _main_cpp_init
    entry.o(.ARM.Collect$$$$00000000) refers (Special) to entry9a.o(.ARM.Collect$$$$0000000B) for _main_init
    entry.o(.ARM.Collect$$$$00000000) refers (Special) to entry5.o(.ARM.Collect$$$$00000004) for _main_scatterload
    entry.o(.ARM.Collect$$$$00000000) refers (Special) to entry2.o(.ARM.Collect$$$$00000001) for _main_stk
    fadd.o(.text) refers (Special) to iusefp.o(.text) for __I$use$fp
    fadd.o(.text) refers to fepilogue.o(.text) for _float_epilogue
    fmul.o(.text) refers (Special) to iusefp.o(.text) for __I$use$fp
    fdiv.o(.text) refers (Special) to iusefp.o(.text) for __I$use$fp
    fdiv.o(.text) refers to fepilogue.o(.text) for _float_round
    dadd.o(.text) refers (Special) to iusefp.o(.text) for __I$use$fp
    dadd.o(.text) refers to llshl.o(.text) for __aeabi_llsl
    dadd.o(.text) refers to llsshr.o(.text) for __aeabi_lasr
    dadd.o(.text) refers to depilogue.o(.text) for _double_epilogue
    dmul.o(.text) refers (Special) to iusefp.o(.text) for __I$use$fp
    dmul.o(.text) refers to depilogue.o(.text) for _double_epilogue
    ddiv.o(.text) refers (Special) to iusefp.o(.text) for __I$use$fp
    ddiv.o(.text) refers to depilogue.o(.text) for _double_round
    fcmple.o(.text) refers (Special) to iusefp.o(.text) for __I$use$fp
    fcmplt.o(.text) refers (Special) to iusefp.o(.text) for __I$use$fp
    fcmpgt.o(.text) refers (Special) to iusefp.o(.text) for __I$use$fp
    fflti.o(.text) refers (Special) to iusefp.o(.text) for __I$use$fp
    fflti.o(.text) refers to fepilogue.o(.text) for _float_epilogue
    ffltui.o(.text) refers (Special) to iusefp.o(.text) for __I$use$fp
    ffltui.o(.text) refers to fepilogue.o(.text) for _float_epilogue
    dflti.o(.text) refers (Special) to iusefp.o(.text) for __I$use$fp
    dflti.o(.text) refers to depilogue.o(.text) for _double_epilogue
    dfltui.o(.text) refers (Special) to iusefp.o(.text) for __I$use$fp
    dfltui.o(.text) refers to depilogue.o(.text) for _double_epilogue
    ffixi.o(.text) refers (Special) to iusefp.o(.text) for __I$use$fp
    dfixi.o(.text) refers (Special) to iusefp.o(.text) for __I$use$fp
    dfixi.o(.text) refers to llushr.o(.text) for __aeabi_llsr
    f2d.o(.text) refers (Special) to iusefp.o(.text) for __I$use$fp
    d2f.o(.text) refers (Special) to iusefp.o(.text) for __I$use$fp
    d2f.o(.text) refers to fepilogue.o(.text) for _float_round
    entry2.o(.ARM.Collect$$$$00000001) refers to entry2.o(.ARM.Collect$$$$00002712) for __lit__00000000
    entry2.o(.ARM.Collect$$$$00002712) refers to startup_gd32f1x0.o(STACK) for __initial_sp
    entry2.o(__vectab_stack_and_reset_area) refers to startup_gd32f1x0.o(STACK) for __initial_sp
    entry2.o(__vectab_stack_and_reset_area) refers to entry.o(.ARM.Collect$$$$00000000) for __main
    entry5.o(.ARM.Collect$$$$00000004) refers to init.o(.text) for __scatterload
    entry9a.o(.ARM.Collect$$$$0000000B) refers to main.o(.text) for main
    entry9b.o(.ARM.Collect$$$$0000000C) refers to main.o(.text) for main
    fepilogue.o(.text) refers (Special) to iusefp.o(.text) for __I$use$fp
    depilogue.o(.text) refers (Special) to iusefp.o(.text) for __I$use$fp
    depilogue.o(.text) refers to llshl.o(.text) for __aeabi_llsl
    depilogue.o(.text) refers to llushr.o(.text) for __aeabi_llsr
    init.o(.text) refers to entry5.o(.ARM.Collect$$$$00000004) for __main_after_scatterload


==============================================================================

Removing Unused input sections from the image.

    Removing main.o(.ARM.exidx), (32 bytes).
    Removing main.o(.bss.activateWeakening), (1 bytes).
    Removing main.o(.bss.slaveError), (1 bytes).
    Removing main.o(.ARM.use_no_argv), (4 bytes).
    Removing bldc.o(.ARM.exidx), (40 bytes).
    Removing bldcbc.o(.ARM.exidx), (16 bytes).
    Removing bldcsine.o(.text), (0 bytes).
    Removing setup.o(.ARM.exidx), (152 bytes).
    Removing setup.o(.bss.usart0_rx_buf), (1 bytes).
    Removing it.o(.ARM.exidx), (128 bytes).
    Removing it.o(.bss.iUartCounter), (2 bytes).
    Removing led.o(.text), (0 bytes).
    Removing comms.o(.ARM.exidx), (16 bytes).
    Removing remoteuart.o(.text), (0 bytes).
    Removing remotecrsf.o(.text), (0 bytes).
    Removing remotedummy.o(.ARM.exidx), (16 bytes).
    Removing remoteuartbus.o(.text), (0 bytes).
    Removing commsmasterslave.o(.ARM.exidx), (40 bytes).
    Removing commsmasterslave.o(.bss.mosfetOutMaster), (1 bytes).
    Removing remoteadc.o(.text), (0 bytes).
    Removing remoteautodetect.o(.text), (0 bytes).
    Removing gd32f1x0_adc.o(.ARM.exidx), (256 bytes).
    Removing gd32f1x0_dbg.o(.text), (128 bytes).
    Removing gd32f1x0_dbg.o(.ARM.exidx), (48 bytes).
    Removing gd32f1x0_dma.o(.ARM.exidx), (216 bytes).
    Removing gd32f1x0_exti.o(.text), (366 bytes).
    Removing gd32f1x0_exti.o(.ARM.exidx), (96 bytes).
    Removing gd32f1x0_fmc.o(.ARM.exidx), (216 bytes).
    Removing gd32f1x0_fwdgt.o(.ARM.exidx), (48 bytes).
    Removing gd32f1x0_gpio.o(.ARM.exidx), (104 bytes).
    Removing gd32f1x0_i2c.o(.text), (810 bytes).
    Removing gd32f1x0_i2c.o(.ARM.exidx), (248 bytes).
    Removing gd32f1x0_misc.o(.ARM.exidx), (56 bytes).
    Removing gd32f1x0_opa.o(.text), (0 bytes).
    Removing gd32f1x0_pmu.o(.text), (490 bytes).
    Removing gd32f1x0_pmu.o(.ARM.exidx), (96 bytes).
    Removing gd32f1x0_pmu.o(.bss.pmu_to_deepsleepmode.reg_snap.0), (4 bytes).
    Removing gd32f1x0_pmu.o(.bss.pmu_to_deepsleepmode.reg_snap.1), (4 bytes).
    Removing gd32f1x0_pmu.o(.bss.pmu_to_deepsleepmode.reg_snap.2), (4 bytes).
    Removing gd32f1x0_pmu.o(.bss.pmu_to_deepsleepmode.reg_snap.3), (4 bytes).
    Removing gd32f1x0_rcu.o(.ARM.exidx), (336 bytes).
    Removing gd32f1x0_syscfg.o(.text), (258 bytes).
    Removing gd32f1x0_syscfg.o(.ARM.exidx), (72 bytes).
    Removing gd32f1x0_timer.o(.ARM.exidx), (568 bytes).
    Removing gd32f1x0_usart.o(.ARM.exidx), (544 bytes).
    Removing gd32f1x0_wwdgt.o(.text), (170 bytes).
    Removing gd32f1x0_wwdgt.o(.ARM.exidx), (56 bytes).
    Removing startup_gd32f1x0.o(HEAP), (1024 bytes).
    Removing system_gd32f1x0.o(.ARM.exidx), (16 bytes).

49 unused section(s) (total 6688 bytes) removed from the image.

==============================================================================

Image Symbol Table

    Local Symbols

    Symbol Name                              Value     Ov Type        Size  Object(Section)

    ../clib/microlib/init/entry.s            0x00000000   Number         0  entry.o ABSOLUTE
    ../clib/microlib/init/entry.s            0x00000000   Number         0  entry2.o ABSOLUTE
    ../clib/microlib/init/entry.s            0x00000000   Number         0  entry5.o ABSOLUTE
    ../clib/microlib/init/entry.s            0x00000000   Number         0  entry7a.o ABSOLUTE
    ../clib/microlib/init/entry.s            0x00000000   Number         0  entry7b.o ABSOLUTE
    ../clib/microlib/init/entry.s            0x00000000   Number         0  entry8a.o ABSOLUTE
    ../clib/microlib/init/entry.s            0x00000000   Number         0  entry8b.o ABSOLUTE
    ../clib/microlib/init/entry.s            0x00000000   Number         0  entry9a.o ABSOLUTE
    ../clib/microlib/init/entry.s            0x00000000   Number         0  entry9b.o ABSOLUTE
    ../clib/microlib/init/entry.s            0x00000000   Number         0  entry10a.o ABSOLUTE
    ../clib/microlib/init/entry.s            0x00000000   Number         0  entry10b.o ABSOLUTE
    ../clib/microlib/init/entry.s            0x00000000   Number         0  entry11a.o ABSOLUTE
    ../clib/microlib/init/entry.s            0x00000000   Number         0  entry11b.o ABSOLUTE
    ../clib/microlib/longlong.c              0x00000000   Number         0  llshl.o ABSOLUTE
    ../clib/microlib/longlong.c              0x00000000   Number         0  llushr.o ABSOLUTE
    ../clib/microlib/longlong.c              0x00000000   Number         0  llsshr.o ABSOLUTE
    ../clib/microlib/stubs.s                 0x00000000   Number         0  iusefp.o ABSOLUTE
    ../fplib/microlib/d2f.c                  0x00000000   Number         0  d2f.o ABSOLUTE
    ../fplib/microlib/f2d.c                  0x00000000   Number         0  f2d.o ABSOLUTE
    ../fplib/microlib/fpadd.c                0x00000000   Number         0  fadd.o ABSOLUTE
    ../fplib/microlib/fpadd.c                0x00000000   Number         0  dadd.o ABSOLUTE
    ../fplib/microlib/fpcmp.c                0x00000000   Number         0  fcmple.o ABSOLUTE
    ../fplib/microlib/fpcmp.c                0x00000000   Number         0  fcmplt.o ABSOLUTE
    ../fplib/microlib/fpcmp.c                0x00000000   Number         0  fcmpgt.o ABSOLUTE
    ../fplib/microlib/fpdiv.c                0x00000000   Number         0  fdiv.o ABSOLUTE
    ../fplib/microlib/fpdiv.c                0x00000000   Number         0  ddiv.o ABSOLUTE
    ../fplib/microlib/fpepilogue.c           0x00000000   Number         0  fepilogue.o ABSOLUTE
    ../fplib/microlib/fpepilogue.c           0x00000000   Number         0  depilogue.o ABSOLUTE
    ../fplib/microlib/fpfix.c                0x00000000   Number         0  ffixi.o ABSOLUTE
    ../fplib/microlib/fpfix.c                0x00000000   Number         0  dfixi.o ABSOLUTE
    ../fplib/microlib/fpflt.c                0x00000000   Number         0  fflti.o ABSOLUTE
    ../fplib/microlib/fpflt.c                0x00000000   Number         0  ffltui.o ABSOLUTE
    ../fplib/microlib/fpflt.c                0x00000000   Number         0  dflti.o ABSOLUTE
    ../fplib/microlib/fpflt.c                0x00000000   Number         0  dfltui.o ABSOLUTE
    ../fplib/microlib/fpmul.c                0x00000000   Number         0  fmul.o ABSOLUTE
    ../fplib/microlib/fpmul.c                0x00000000   Number         0  dmul.o ABSOLUTE
    RTE/Device/GD32F130C8/startup_gd32f1x0.s 0x00000000   Number         0  startup_gd32f1x0.o ABSOLUTE
    RemoteAdc.c                              0x00000000   Number         0  remoteadc.o ABSOLUTE
    RemoteAutodetect.c                       0x00000000   Number         0  remoteautodetect.o ABSOLUTE
    bldc.c                                   0x00000000   Number         0  bldc.o ABSOLUTE
    bldcBC.c                                 0x00000000   Number         0  bldcbc.o ABSOLUTE
    bldcSINE.c                               0x00000000   Number         0  bldcsine.o ABSOLUTE
    comms.c                                  0x00000000   Number         0  comms.o ABSOLUTE
    commsMasterSlave.c                       0x00000000   Number         0  commsmasterslave.o ABSOLUTE
    dc.s                                     0x00000000   Number         0  dc.o ABSOLUTE
    gd32f1x0_adc.c                           0x00000000   Number         0  gd32f1x0_adc.o ABSOLUTE
    gd32f1x0_dbg.c                           0x00000000   Number         0  gd32f1x0_dbg.o ABSOLUTE
    gd32f1x0_dma.c                           0x00000000   Number         0  gd32f1x0_dma.o ABSOLUTE
    gd32f1x0_exti.c                          0x00000000   Number         0  gd32f1x0_exti.o ABSOLUTE
    gd32f1x0_fmc.c                           0x00000000   Number         0  gd32f1x0_fmc.o ABSOLUTE
    gd32f1x0_fwdgt.c                         0x00000000   Number         0  gd32f1x0_fwdgt.o ABSOLUTE
    gd32f1x0_gpio.c                          0x00000000   Number         0  gd32f1x0_gpio.o ABSOLUTE
    gd32f1x0_i2c.c                           0x00000000   Number         0  gd32f1x0_i2c.o ABSOLUTE
    gd32f1x0_misc.c                          0x00000000   Number         0  gd32f1x0_misc.o ABSOLUTE
    gd32f1x0_opa.c                           0x00000000   Number         0  gd32f1x0_opa.o ABSOLUTE
    gd32f1x0_pmu.c                           0x00000000   Number         0  gd32f1x0_pmu.o ABSOLUTE
    gd32f1x0_rcu.c                           0x00000000   Number         0  gd32f1x0_rcu.o ABSOLUTE
    gd32f1x0_syscfg.c                        0x00000000   Number         0  gd32f1x0_syscfg.o ABSOLUTE
    gd32f1x0_timer.c                         0x00000000   Number         0  gd32f1x0_timer.o ABSOLUTE
    gd32f1x0_usart.c                         0x00000000   Number         0  gd32f1x0_usart.o ABSOLUTE
    gd32f1x0_wwdgt.c                         0x00000000   Number         0  gd32f1x0_wwdgt.o ABSOLUTE
    handlers.s                               0x00000000   Number         0  handlers.o ABSOLUTE
    init.s                                   0x00000000   Number         0  init.o ABSOLUTE
    it.c                                     0x00000000   Number         0  it.o ABSOLUTE
    led.c                                    0x00000000   Number         0  led.o ABSOLUTE
    main.c                                   0x00000000   Number         0  main.o ABSOLUTE
    remoteCrsf.c                             0x00000000   Number         0  remotecrsf.o ABSOLUTE
    remoteDummy.c                            0x00000000   Number         0  remotedummy.o ABSOLUTE
    remoteUart.c                             0x00000000   Number         0  remoteuart.o ABSOLUTE
    remoteUartBus.c                          0x00000000   Number         0  remoteuartbus.o ABSOLUTE
    setup.c                                  0x00000000   Number         0  setup.o ABSOLUTE
    system_gd32f1x0.c                        0x00000000   Number         0  system_gd32f1x0.o ABSOLUTE
    RESET                                    0x08000000   Section      360  startup_gd32f1x0.o(RESET)
    .ARM.Collect$$$$00000000                 0x08000168   Section        0  entry.o(.ARM.Collect$$$$00000000)
    .ARM.Collect$$$$00000001                 0x08000168   Section        4  entry2.o(.ARM.Collect$$$$00000001)
    .ARM.Collect$$$$00000004                 0x0800016c   Section        4  entry5.o(.ARM.Collect$$$$00000004)
    .ARM.Collect$$$$00000008                 0x08000170   Section        0  entry7b.o(.ARM.Collect$$$$00000008)
    .ARM.Collect$$$$0000000A                 0x08000170   Section        0  entry8b.o(.ARM.Collect$$$$0000000A)
    .ARM.Collect$$$$0000000B                 0x08000170   Section        8  entry9a.o(.ARM.Collect$$$$0000000B)
    __lit__00000000                          0x08000178   Data           4  entry2.o(.ARM.Collect$$$$00002712)
    .ARM.Collect$$$$0000000D                 0x08000178   Section        0  entry10a.o(.ARM.Collect$$$$0000000D)
    .ARM.Collect$$$$0000000F                 0x08000178   Section        0  entry11a.o(.ARM.Collect$$$$0000000F)
    .ARM.Collect$$$$00002712                 0x08000178   Section        4  entry2.o(.ARM.Collect$$$$00002712)
    [Anonymous Symbol]                       0x0800017c   Section        0  main.o(.text)
    [Anonymous Symbol]                       0x0800074c   Section        0  bldc.o(.text)
    [Anonymous Symbol]                       0x08000bec   Section        0  bldcbc.o(.text)
    [Anonymous Symbol]                       0x08000c5c   Section        0  setup.o(.text)
    [Anonymous Symbol]                       0x08001544   Section        0  it.o(.text)
    [Anonymous Symbol]                       0x08001668   Section        0  comms.o(.text)
    [Anonymous Symbol]                       0x080016d4   Section        0  remotedummy.o(.text)
    [Anonymous Symbol]                       0x0800174c   Section        0  commsmasterslave.o(.text)
    [Anonymous Symbol]                       0x08001848   Section        0  gd32f1x0_adc.o(.text)
    [Anonymous Symbol]                       0x08001df0   Section        0  gd32f1x0_dma.o(.text)
    [Anonymous Symbol]                       0x0800213c   Section        0  gd32f1x0_fmc.o(.text)
    [Anonymous Symbol]                       0x08002b10   Section        0  gd32f1x0_fwdgt.o(.text)
    [Anonymous Symbol]                       0x08002bec   Section        0  gd32f1x0_gpio.o(.text)
    [Anonymous Symbol]                       0x08002d84   Section        0  gd32f1x0_misc.o(.text)
    [Anonymous Symbol]                       0x08002eb4   Section        0  gd32f1x0_rcu.o(.text)
    [Anonymous Symbol]                       0x080035e4   Section        0  gd32f1x0_timer.o(.text)
    [Anonymous Symbol]                       0x08004344   Section        0  gd32f1x0_usart.o(.text)
    .text                                    0x08004984   Section       36  startup_gd32f1x0.o(.text)
    [Anonymous Symbol]                       0x080049a8   Section        0  system_gd32f1x0.o(.text)
    .text                                    0x08004ae4   Section        0  fadd.o(.text)
    .text                                    0x08004b94   Section        0  fmul.o(.text)
    .text                                    0x08004bf8   Section        0  fdiv.o(.text)
    .text                                    0x08004c74   Section        0  dadd.o(.text)
    .text                                    0x08004dc2   Section        0  dmul.o(.text)
    .text                                    0x08004ea6   Section        0  ddiv.o(.text)
    .text                                    0x08004f84   Section        0  fcmple.o(.text)
    .text                                    0x08004fa0   Section        0  fcmplt.o(.text)
    .text                                    0x08004fbc   Section        0  fcmpgt.o(.text)
    .text                                    0x08004fd8   Section        0  fflti.o(.text)
    .text                                    0x08004fea   Section        0  ffltui.o(.text)
    .text                                    0x08004ff4   Section        0  dflti.o(.text)
    .text                                    0x08005016   Section        0  dfltui.o(.text)
    .text                                    0x08005030   Section        0  ffixi.o(.text)
    .text                                    0x08005062   Section        0  dfixi.o(.text)
    .text                                    0x080050a0   Section        0  f2d.o(.text)
    .text                                    0x080050c6   Section        0  d2f.o(.text)
    .text                                    0x080050fe   Section        0  llshl.o(.text)
    .text                                    0x0800511c   Section        0  llushr.o(.text)
    .text                                    0x0800513c   Section        0  llsshr.o(.text)
    .text                                    0x08005160   Section        0  iusefp.o(.text)
    .text                                    0x08005160   Section        0  fepilogue.o(.text)
    .text                                    0x080051ce   Section        0  depilogue.o(.text)
    .text                                    0x08005288   Section       36  init.o(.text)
    i.__scatterload_copy                     0x080052ac   Section       14  handlers.o(i.__scatterload_copy)
    i.__scatterload_null                     0x080052ba   Section        2  handlers.o(i.__scatterload_null)
    i.__scatterload_zeroinit                 0x080052bc   Section       14  handlers.o(i.__scatterload_zeroinit)
    .L__const.up_or_down.up_down             0x080052ca   Data          12  bldc.o(.rodata..L__const.up_or_down.up_down)
    .Lswitch.table.gpio_deinit.1             0x080052d6   Data          12  gd32f1x0_gpio.o(.rodata..Lswitch.table.gpio_deinit.1)
    .L__const.rcu_clock_freq_get.apb2_exp    0x080052e2   Data           8  gd32f1x0_rcu.o(.rodata.cst8)
    iReceivePos                              0x20000010   Data           2  commsmasterslave.o(.data.iReceivePos)
    [Anonymous Symbol]                       0x20000010   Section        0  commsmasterslave.o(.data.iReceivePos)
    aReceiveBuffer                           0x20000018   Data          16  commsmasterslave.o(.bss.aReceiveBuffer)
    [Anonymous Symbol]                       0x20000018   Section        0  commsmasterslave.o(.bss.aReceiveBuffer)
    STACK                                    0x20000138   Section     1024  startup_gd32f1x0.o(STACK)

    Global Symbols

    Symbol Name                              Value     Ov Type        Size  Object(Section)

    BuildAttributes$$THM_ISAv4$P$D$K$B$S$PE$A:L22UL41UL21$X:L11$S22US41US21$IEEE1$IW$~IW$USESV6$~STKCKD$USESV7$~SHL$OTIME$ROPI$EBA8$MICROLIB$REQ8$PRES8$EABIv2 0x00000000   Number         0  anon$$obj.o ABSOLUTE
    __cpp_initialize__aeabi_                  - Undefined Weak Reference
    __cxa_finalize                            - Undefined Weak Reference
    __decompress                              - Undefined Weak Reference
    _clock_init                               - Undefined Weak Reference
    _microlib_exit                            - Undefined Weak Reference
    __Vectors_Size                           0x00000168   Number         0  startup_gd32f1x0.o ABSOLUTE
    __Vectors                                0x08000000   Data           4  startup_gd32f1x0.o(RESET)
    __Vectors_End                            0x08000168   Data           0  startup_gd32f1x0.o(RESET)
    __main                                   0x08000169   Thumb Code     0  entry.o(.ARM.Collect$$$$00000000)
    _main_stk                                0x08000169   Thumb Code     0  entry2.o(.ARM.Collect$$$$00000001)
    _main_scatterload                        0x0800016d   Thumb Code     0  entry5.o(.ARM.Collect$$$$00000004)
    __main_after_scatterload                 0x08000171   Thumb Code     0  entry5.o(.ARM.Collect$$$$00000004)
    _main_clock                              0x08000171   Thumb Code     0  entry7b.o(.ARM.Collect$$$$00000008)
    _main_cpp_init                           0x08000171   Thumb Code     0  entry8b.o(.ARM.Collect$$$$0000000A)
    _main_init                               0x08000171   Thumb Code     0  entry9a.o(.ARM.Collect$$$$0000000B)
    __rt_final_cpp                           0x08000179   Thumb Code     0  entry10a.o(.ARM.Collect$$$$0000000D)
    __rt_final_exit                          0x08000179   Thumb Code     0  entry11a.o(.ARM.Collect$$$$0000000F)
    main                                     0x0800017d   Thumb Code  1322  main.o(.text)
    ShowBatteryState                         0x080006a9   Thumb Code     2  main.o(.text)
    BeepsBackwards                           0x080006ad   Thumb Code    60  main.o(.text)
    ShutOff                                  0x080006e9   Thumb Code    98  main.o(.text)
    modulo                                   0x0800074d   Thumb Code    22  bldc.o(.text)
    up_or_down                               0x08000765   Thumb Code    60  bldc.o(.text)
    SetEnable                                0x080007a1   Thumb Code    12  bldc.o(.text)
    SetPWM                                   0x080007ad   Thumb Code    74  bldc.o(.text)
    CalculateBLDC                            0x080007f9   Thumb Code  1012  bldc.o(.text)
    bldc_get_pwm                             0x08000bed   Thumb Code   106  bldcbc.o(.text)
    InitBldc                                 0x08000c59   Thumb Code     2  bldcbc.o(.text)
    pinMode                                  0x08000c5d   Thumb Code    42  setup.o(.text)
    pinModePull                              0x08000c89   Thumb Code    40  setup.o(.text)
    Interrupt_init                           0x08000cb1   Thumb Code     8  setup.o(.text)
    Watchdog_init                            0x08000cb9   Thumb Code    56  setup.o(.text)
    TimeoutTimer_init                        0x08000cf1   Thumb Code    92  setup.o(.text)
    GPIO_init                                0x08000d4d   Thumb Code   704  setup.o(.text)
    PWM_init                                 0x0800100d   Thumb Code   368  setup.o(.text)
    ADC_init                                 0x0800117d   Thumb Code   234  setup.o(.text)
    USART1_Init                              0x08001269   Thumb Code   288  setup.o(.text)
    USART0_Init                              0x08001389   Thumb Code     2  setup.o(.text)
    flashErase                               0x0800138d   Thumb Code    28  setup.o(.text)
    flashRead                                0x080013a9   Thumb Code     4  setup.o(.text)
    flashWrite                               0x080013ad   Thumb Code    38  setup.o(.text)
    flashWriteBuffer                         0x080013d5   Thumb Code    64  setup.o(.text)
    flashReadBuffer                          0x08001415   Thumb Code    26  setup.o(.text)
    ConfigReset                              0x08001431   Thumb Code    36  setup.o(.text)
    ConfigWrite                              0x08001455   Thumb Code    92  setup.o(.text)
    ConfigRead                               0x080014b1   Thumb Code   116  setup.o(.text)
    confErase                                0x08001525   Thumb Code    32  setup.o(.text)
    SysTick_Handler                          0x08001545   Thumb Code    16  it.o(.text)
    ResetTimeout                             0x08001555   Thumb Code    14  it.o(.text)
    TIMER13_IRQHandler                       0x08001565   Thumb Code    96  it.o(.text)
    TIMER0_BRK_UP_TRG_COM_IRQHandler         0x080015c5   Thumb Code    26  it.o(.text)
    DMA_Channel0_IRQHandler                  0x080015e1   Thumb Code    32  it.o(.text)
    DMA_Channel3_4_IRQHandler                0x08001601   Thumb Code    32  it.o(.text)
    millis                                   0x08001621   Thumb Code    12  it.o(.text)
    Delay                                    0x0800162d   Thumb Code    28  it.o(.text)
    NMI_Handler                              0x08001649   Thumb Code     2  it.o(.text)
    HardFault_Handler                        0x0800164d   Thumb Code     2  it.o(.text)
    MemManage_Handler                        0x08001651   Thumb Code     2  it.o(.text)
    BusFault_Handler                         0x08001655   Thumb Code     2  it.o(.text)
    UsageFault_Handler                       0x08001659   Thumb Code     2  it.o(.text)
    SVC_Handler                              0x0800165d   Thumb Code     2  it.o(.text)
    DebugMon_Handler                         0x08001661   Thumb Code     2  it.o(.text)
    PendSV_Handler                           0x08001665   Thumb Code     2  it.o(.text)
    SendBuffer                               0x08001669   Thumb Code    48  comms.o(.text)
    CalcCRC                                  0x08001699   Thumb Code    60  comms.o(.text)
    RemoteUpdate                             0x080016d5   Thumb Code   116  remotedummy.o(.text)
    RemoteCallback                           0x08001749   Thumb Code     2  remotedummy.o(.text)
    SetBeepsBackwardsMaster                  0x0800174d   Thumb Code    12  commsmasterslave.o(.text)
    GetBeepsBackwardsMaster                  0x08001759   Thumb Code    12  commsmasterslave.o(.text)
    UpdateUSARTMasterSlaveInput              0x08001765   Thumb Code   108  commsmasterslave.o(.text)
    ProessReceived                           0x080017d1   Thumb Code    32  commsmasterslave.o(.text)
    SendSlave                                0x080017f1   Thumb Code    88  commsmasterslave.o(.text)
    adc_deinit                               0x08001849   Thumb Code    22  gd32f1x0_adc.o(.text)
    adc_enable                               0x08001861   Thumb Code    26  gd32f1x0_adc.o(.text)
    adc_disable                              0x0800187d   Thumb Code    18  gd32f1x0_adc.o(.text)
    adc_calibration_enable                   0x08001891   Thumb Code    40  gd32f1x0_adc.o(.text)
    adc_dma_mode_enable                      0x080018b9   Thumb Code    18  gd32f1x0_adc.o(.text)
    adc_dma_mode_disable                     0x080018cd   Thumb Code    18  gd32f1x0_adc.o(.text)
    adc_tempsensor_vrefint_enable            0x080018e1   Thumb Code    18  gd32f1x0_adc.o(.text)
    adc_tempsensor_vrefint_disable           0x080018f5   Thumb Code    18  gd32f1x0_adc.o(.text)
    adc_vbat_enable                          0x08001909   Thumb Code    18  gd32f1x0_adc.o(.text)
    adc_vbat_disable                         0x0800191d   Thumb Code    18  gd32f1x0_adc.o(.text)
    adc_discontinuous_mode_config            0x08001931   Thumb Code    68  gd32f1x0_adc.o(.text)
    adc_special_function_config              0x08001975   Thumb Code   100  gd32f1x0_adc.o(.text)
    adc_data_alignment_config                0x080019d9   Thumb Code    26  gd32f1x0_adc.o(.text)
    adc_channel_length_config                0x080019f5   Thumb Code    82  gd32f1x0_adc.o(.text)
    adc_regular_channel_config               0x08001a49   Thumb Code   180  gd32f1x0_adc.o(.text)
    adc_inserted_channel_config              0x08001afd   Thumb Code   114  gd32f1x0_adc.o(.text)
    adc_inserted_channel_offset_config       0x08001b71   Thumb Code    32  gd32f1x0_adc.o(.text)
    adc_external_trigger_config              0x08001b91   Thumb Code    72  gd32f1x0_adc.o(.text)
    adc_external_trigger_source_config       0x08001bd9   Thumb Code    42  gd32f1x0_adc.o(.text)
    adc_software_trigger_enable              0x08001c05   Thumb Code    36  gd32f1x0_adc.o(.text)
    adc_regular_data_read                    0x08001c29   Thumb Code    14  gd32f1x0_adc.o(.text)
    adc_inserted_data_read                   0x08001c39   Thumb Code    74  gd32f1x0_adc.o(.text)
    adc_flag_get                             0x08001c85   Thumb Code    18  gd32f1x0_adc.o(.text)
    adc_flag_clear                           0x08001c99   Thumb Code    18  gd32f1x0_adc.o(.text)
    adc_interrupt_flag_get                   0x08001cad   Thumb Code    56  gd32f1x0_adc.o(.text)
    adc_interrupt_flag_clear                 0x08001ce5   Thumb Code    18  gd32f1x0_adc.o(.text)
    adc_interrupt_enable                     0x08001cf9   Thumb Code    48  gd32f1x0_adc.o(.text)
    adc_interrupt_disable                    0x08001d29   Thumb Code    48  gd32f1x0_adc.o(.text)
    adc_watchdog_single_channel_enable       0x08001d59   Thumb Code    42  gd32f1x0_adc.o(.text)
    adc_watchdog_group_channel_enable        0x08001d85   Thumb Code    48  gd32f1x0_adc.o(.text)
    adc_watchdog_disable                     0x08001dc1   Thumb Code    24  gd32f1x0_adc.o(.text)
    adc_watchdog_threshold_config            0x08001dd9   Thumb Code    22  gd32f1x0_adc.o(.text)
    dma_deinit                               0x08001df1   Thumb Code    48  gd32f1x0_dma.o(.text)
    dma_struct_para_init                     0x08001e21   Thumb Code    24  gd32f1x0_dma.o(.text)
    dma_init                                 0x08001e39   Thumb Code   122  gd32f1x0_dma.o(.text)
    dma_circulation_enable                   0x08001eb5   Thumb Code    24  gd32f1x0_dma.o(.text)
    dma_circulation_disable                  0x08001ecd   Thumb Code    24  gd32f1x0_dma.o(.text)
    dma_memory_to_memory_enable              0x08001ee5   Thumb Code    24  gd32f1x0_dma.o(.text)
    dma_memory_to_memory_disable             0x08001efd   Thumb Code    24  gd32f1x0_dma.o(.text)
    dma_channel_enable                       0x08001f15   Thumb Code    24  gd32f1x0_dma.o(.text)
    dma_channel_disable                      0x08001f2d   Thumb Code    24  gd32f1x0_dma.o(.text)
    dma_periph_address_config                0x08001f45   Thumb Code    16  gd32f1x0_dma.o(.text)
    dma_memory_address_config                0x08001f55   Thumb Code    16  gd32f1x0_dma.o(.text)
    dma_transfer_number_config               0x08001f65   Thumb Code    16  gd32f1x0_dma.o(.text)
    dma_transfer_number_get                  0x08001f75   Thumb Code    16  gd32f1x0_dma.o(.text)
    dma_priority_config                      0x08001f85   Thumb Code    26  gd32f1x0_dma.o(.text)
    dma_memory_width_config                  0x08001fa1   Thumb Code    26  gd32f1x0_dma.o(.text)
    dma_periph_width_config                  0x08001fbd   Thumb Code    26  gd32f1x0_dma.o(.text)
    dma_memory_increase_enable               0x08001fd9   Thumb Code    24  gd32f1x0_dma.o(.text)
    dma_memory_increase_disable              0x08001ff1   Thumb Code    24  gd32f1x0_dma.o(.text)
    dma_periph_increase_enable               0x08002009   Thumb Code    24  gd32f1x0_dma.o(.text)
    dma_periph_increase_disable              0x08002021   Thumb Code    24  gd32f1x0_dma.o(.text)
    dma_transfer_direction_config            0x08002039   Thumb Code    30  gd32f1x0_dma.o(.text)
    dma_interrupt_flag_get                   0x08002059   Thumb Code   116  gd32f1x0_dma.o(.text)
    dma_interrupt_flag_clear                 0x080020cd   Thumb Code    20  gd32f1x0_dma.o(.text)
    dma_interrupt_enable                     0x080020e1   Thumb Code    22  gd32f1x0_dma.o(.text)
    dma_interrupt_disable                    0x080020f9   Thumb Code    24  gd32f1x0_dma.o(.text)
    dma_flag_get                             0x08002111   Thumb Code    22  gd32f1x0_dma.o(.text)
    dma_flag_clear                           0x08002129   Thumb Code    20  gd32f1x0_dma.o(.text)
    fmc_unlock                               0x0800213d   Thumb Code    38  gd32f1x0_fmc.o(.text)
    fmc_lock                                 0x08002165   Thumb Code    18  gd32f1x0_fmc.o(.text)
    fmc_wscnt_set                            0x08002179   Thumb Code    20  gd32f1x0_fmc.o(.text)
    fmc_wait_state_enable                    0x0800218d   Thumb Code    18  gd32f1x0_fmc.o(.text)
    fmc_wait_state_disable                   0x080021a1   Thumb Code    18  gd32f1x0_fmc.o(.text)
    fmc_page_erase                           0x080021b5   Thumb Code   158  gd32f1x0_fmc.o(.text)
    fmc_mass_erase                           0x08002255   Thumb Code   150  gd32f1x0_fmc.o(.text)
    fmc_word_program                         0x080022ed   Thumb Code   150  gd32f1x0_fmc.o(.text)
    fmc_halfword_program                     0x08002385   Thumb Code   150  gd32f1x0_fmc.o(.text)
    ob_unlock                                0x0800241d   Thumb Code    38  gd32f1x0_fmc.o(.text)
    ob_lock                                  0x08002445   Thumb Code    18  gd32f1x0_fmc.o(.text)
    ob_reset                                 0x08002459   Thumb Code    18  gd32f1x0_fmc.o(.text)
    ob_erase                                 0x0800246d   Thumb Code   294  gd32f1x0_fmc.o(.text)
    ob_obstat_plevel_get                     0x08002595   Thumb Code    16  gd32f1x0_fmc.o(.text)
    ob_write_protection_enable               0x080025a5   Thumb Code   316  gd32f1x0_fmc.o(.text)
    ob_security_protection_config            0x080026e1   Thumb Code   304  gd32f1x0_fmc.o(.text)
    ob_user_write                            0x08002811   Thumb Code   308  gd32f1x0_fmc.o(.text)
    ob_data_program                          0x08002945   Thumb Code   304  gd32f1x0_fmc.o(.text)
    ob_user_get                              0x08002a75   Thumb Code    16  gd32f1x0_fmc.o(.text)
    ob_data_get                              0x08002a85   Thumb Code    14  gd32f1x0_fmc.o(.text)
    ob_write_protection_get                  0x08002a95   Thumb Code    14  gd32f1x0_fmc.o(.text)
    fmc_interrupt_enable                     0x08002aa5   Thumb Code    16  gd32f1x0_fmc.o(.text)
    fmc_interrupt_disable                    0x08002ab5   Thumb Code    18  gd32f1x0_fmc.o(.text)
    fmc_flag_get                             0x08002ac9   Thumb Code    18  gd32f1x0_fmc.o(.text)
    fmc_flag_clear                           0x08002add   Thumb Code    16  gd32f1x0_fmc.o(.text)
    fmc_interrupt_flag_get                   0x08002aed   Thumb Code    18  gd32f1x0_fmc.o(.text)
    fmc_interrupt_flag_clear                 0x08002b01   Thumb Code    16  gd32f1x0_fmc.o(.text)
    fwdgt_write_disable                      0x08002b11   Thumb Code    14  gd32f1x0_fwdgt.o(.text)
    fwdgt_counter_reload                     0x08002b21   Thumb Code    16  gd32f1x0_fwdgt.o(.text)
    fwdgt_enable                             0x08002b31   Thumb Code    16  gd32f1x0_fwdgt.o(.text)
    fwdgt_window_value_config                0x08002b41   Thumb Code    52  gd32f1x0_fwdgt.o(.text)
    fwdgt_config                             0x08002b75   Thumb Code   100  gd32f1x0_fwdgt.o(.text)
    fwdgt_flag_get                           0x08002bd9   Thumb Code    18  gd32f1x0_fwdgt.o(.text)
    gpio_deinit                              0x08002bed   Thumb Code    58  gd32f1x0_gpio.o(.text)
    gpio_mode_set                            0x08002c29   Thumb Code    84  gd32f1x0_gpio.o(.text)
    gpio_output_options_set                  0x08002c7d   Thumb Code    70  gd32f1x0_gpio.o(.text)
    gpio_bit_set                             0x08002cc5   Thumb Code     4  gd32f1x0_gpio.o(.text)
    gpio_bit_reset                           0x08002cc9   Thumb Code     4  gd32f1x0_gpio.o(.text)
    gpio_bit_write                           0x08002ccd   Thumb Code    12  gd32f1x0_gpio.o(.text)
    gpio_port_write                          0x08002cd9   Thumb Code     4  gd32f1x0_gpio.o(.text)
    gpio_input_bit_get                       0x08002cdd   Thumb Code    10  gd32f1x0_gpio.o(.text)
    gpio_input_port_get                      0x08002ce9   Thumb Code     6  gd32f1x0_gpio.o(.text)
    gpio_output_bit_get                      0x08002cf1   Thumb Code    10  gd32f1x0_gpio.o(.text)
    gpio_output_port_get                     0x08002cfd   Thumb Code     6  gd32f1x0_gpio.o(.text)
    gpio_af_set                              0x08002d05   Thumb Code   110  gd32f1x0_gpio.o(.text)
    gpio_pin_lock                            0x08002d75   Thumb Code    16  gd32f1x0_gpio.o(.text)
    nvic_priority_group_set                  0x08002d85   Thumb Code    20  gd32f1x0_misc.o(.text)
    nvic_irq_enable                          0x08002d99   Thumb Code   168  gd32f1x0_misc.o(.text)
    nvic_irq_disable                         0x08002e41   Thumb Code    30  gd32f1x0_misc.o(.text)
    nvic_vector_table_set                    0x08002e61   Thumb Code    24  gd32f1x0_misc.o(.text)
    system_lowpower_set                      0x08002e79   Thumb Code    16  gd32f1x0_misc.o(.text)
    system_lowpower_reset                    0x08002e89   Thumb Code    18  gd32f1x0_misc.o(.text)
    systick_clksource_set                    0x08002e9d   Thumb Code    24  gd32f1x0_misc.o(.text)
    rcu_deinit                               0x08002eb5   Thumb Code   112  gd32f1x0_rcu.o(.text)
    rcu_periph_clock_enable                  0x08002f25   Thumb Code    30  gd32f1x0_rcu.o(.text)
    rcu_periph_clock_disable                 0x08002f45   Thumb Code    32  gd32f1x0_rcu.o(.text)
    rcu_periph_clock_sleep_enable            0x08002f65   Thumb Code    30  gd32f1x0_rcu.o(.text)
    rcu_periph_clock_sleep_disable           0x08002f85   Thumb Code    32  gd32f1x0_rcu.o(.text)
    rcu_periph_reset_enable                  0x08002fa5   Thumb Code    30  gd32f1x0_rcu.o(.text)
    rcu_periph_reset_disable                 0x08002fc5   Thumb Code    32  gd32f1x0_rcu.o(.text)
    rcu_bkp_reset_enable                     0x08002fe5   Thumb Code    18  gd32f1x0_rcu.o(.text)
    rcu_bkp_reset_disable                    0x08002ff9   Thumb Code    18  gd32f1x0_rcu.o(.text)
    rcu_system_clock_source_config           0x0800300d   Thumb Code    20  gd32f1x0_rcu.o(.text)
    rcu_system_clock_source_get              0x08003021   Thumb Code    16  gd32f1x0_rcu.o(.text)
    rcu_ahb_clock_config                     0x08003031   Thumb Code    20  gd32f1x0_rcu.o(.text)
    rcu_apb1_clock_config                    0x08003045   Thumb Code    20  gd32f1x0_rcu.o(.text)
    rcu_apb2_clock_config                    0x08003059   Thumb Code    20  gd32f1x0_rcu.o(.text)
    rcu_adc_clock_config                     0x0800306d   Thumb Code    88  gd32f1x0_rcu.o(.text)
    rcu_usbd_clock_config                    0x080030c5   Thumb Code    24  gd32f1x0_rcu.o(.text)
    rcu_ckout_config                         0x080030dd   Thumb Code    22  gd32f1x0_rcu.o(.text)
    rcu_pll_config                           0x080030f5   Thumb Code    36  gd32f1x0_rcu.o(.text)
    rcu_usart_clock_config                   0x08003119   Thumb Code    24  gd32f1x0_rcu.o(.text)
    rcu_cec_clock_config                     0x08003131   Thumb Code    24  gd32f1x0_rcu.o(.text)
    rcu_rtc_clock_config                     0x08003149   Thumb Code    24  gd32f1x0_rcu.o(.text)
    rcu_hxtal_prediv_config                  0x08003161   Thumb Code    20  gd32f1x0_rcu.o(.text)
    rcu_lxtal_drive_capability_config        0x08003175   Thumb Code    24  gd32f1x0_rcu.o(.text)
    rcu_flag_get                             0x0800318d   Thumb Code    26  gd32f1x0_rcu.o(.text)
    rcu_all_reset_flag_clear                 0x080031a9   Thumb Code    18  gd32f1x0_rcu.o(.text)
    rcu_interrupt_flag_get                   0x080031bd   Thumb Code    18  gd32f1x0_rcu.o(.text)
    rcu_interrupt_flag_clear                 0x080031d1   Thumb Code    16  gd32f1x0_rcu.o(.text)
    rcu_interrupt_enable                     0x080031e1   Thumb Code    16  gd32f1x0_rcu.o(.text)
    rcu_interrupt_disable                    0x080031f1   Thumb Code    18  gd32f1x0_rcu.o(.text)
    rcu_osci_stab_wait                       0x08003205   Thumb Code   324  gd32f1x0_rcu.o(.text)
    rcu_osci_on                              0x08003349   Thumb Code    30  gd32f1x0_rcu.o(.text)
    rcu_osci_off                             0x08003369   Thumb Code    32  gd32f1x0_rcu.o(.text)
    rcu_osci_bypass_mode_enable              0x08003389   Thumb Code    64  gd32f1x0_rcu.o(.text)
    rcu_osci_bypass_mode_disable             0x080033c9   Thumb Code    64  gd32f1x0_rcu.o(.text)
    rcu_hxtal_clock_monitor_enable           0x08003409   Thumb Code    18  gd32f1x0_rcu.o(.text)
    rcu_hxtal_clock_monitor_disable          0x0800341d   Thumb Code    18  gd32f1x0_rcu.o(.text)
    rcu_irc8m_adjust_value_set               0x08003431   Thumb Code    22  gd32f1x0_rcu.o(.text)
    rcu_irc14m_adjust_value_set              0x08003449   Thumb Code    22  gd32f1x0_rcu.o(.text)
    rcu_voltage_key_unlock                   0x08003461   Thumb Code    30  gd32f1x0_rcu.o(.text)
    rcu_deepsleep_voltage_set                0x08003481   Thumb Code    24  gd32f1x0_rcu.o(.text)
    rcu_power_down_voltage_set               0x08003499   Thumb Code    24  gd32f1x0_rcu.o(.text)
    rcu_clock_freq_get                       0x080034b1   Thumb Code   292  gd32f1x0_rcu.o(.text)
    timer_deinit                             0x080035e5   Thumb Code   194  gd32f1x0_timer.o(.text)
    timer_struct_para_init                   0x080036a9   Thumb Code    16  gd32f1x0_timer.o(.text)
    timer_init                               0x080036b9   Thumb Code   212  gd32f1x0_timer.o(.text)
    timer_enable                             0x0800378d   Thumb Code    10  gd32f1x0_timer.o(.text)
    timer_disable                            0x08003799   Thumb Code    10  gd32f1x0_timer.o(.text)
    timer_auto_reload_shadow_enable          0x080037a5   Thumb Code    10  gd32f1x0_timer.o(.text)
    timer_auto_reload_shadow_disable         0x080037b1   Thumb Code    10  gd32f1x0_timer.o(.text)
    timer_update_event_enable                0x080037bd   Thumb Code    10  gd32f1x0_timer.o(.text)
    timer_update_event_disable               0x080037c9   Thumb Code    10  gd32f1x0_timer.o(.text)
    timer_counter_alignment                  0x080037d5   Thumb Code    16  gd32f1x0_timer.o(.text)
    timer_counter_up_direction               0x080037e5   Thumb Code    10  gd32f1x0_timer.o(.text)
    timer_counter_down_direction             0x080037f1   Thumb Code    10  gd32f1x0_timer.o(.text)
    timer_prescaler_config                   0x080037fd   Thumb Code    18  gd32f1x0_timer.o(.text)
    timer_repetition_value_config            0x08003811   Thumb Code     4  gd32f1x0_timer.o(.text)
    timer_autoreload_value_config            0x08003815   Thumb Code     4  gd32f1x0_timer.o(.text)
    timer_counter_value_config               0x08003819   Thumb Code     4  gd32f1x0_timer.o(.text)
    timer_counter_read                       0x0800381d   Thumb Code     4  gd32f1x0_timer.o(.text)
    timer_prescaler_read                     0x08003821   Thumb Code     6  gd32f1x0_timer.o(.text)
    timer_single_pulse_mode_config           0x08003829   Thumb Code    30  gd32f1x0_timer.o(.text)
    timer_update_source_config               0x08003849   Thumb Code    30  gd32f1x0_timer.o(.text)
    timer_ocpre_clear_source_config          0x08003869   Thumb Code    28  gd32f1x0_timer.o(.text)
    timer_interrupt_enable                   0x08003885   Thumb Code     8  gd32f1x0_timer.o(.text)
    timer_interrupt_disable                  0x0800388d   Thumb Code    10  gd32f1x0_timer.o(.text)
    timer_interrupt_flag_get                 0x08003899   Thumb Code    22  gd32f1x0_timer.o(.text)
    timer_interrupt_flag_clear               0x080038b1   Thumb Code     6  gd32f1x0_timer.o(.text)
    timer_flag_get                           0x080038b9   Thumb Code    10  gd32f1x0_timer.o(.text)
    timer_flag_clear                         0x080038c5   Thumb Code     6  gd32f1x0_timer.o(.text)
    timer_dma_enable                         0x080038cd   Thumb Code     8  gd32f1x0_timer.o(.text)
    timer_dma_disable                        0x080038d5   Thumb Code    10  gd32f1x0_timer.o(.text)
    timer_channel_dma_request_source_select  0x080038e1   Thumb Code    30  gd32f1x0_timer.o(.text)
    timer_dma_transfer_config                0x08003901   Thumb Code    24  gd32f1x0_timer.o(.text)
    timer_event_software_generate            0x08003919   Thumb Code     8  gd32f1x0_timer.o(.text)
    timer_break_struct_para_init             0x08003921   Thumb Code    16  gd32f1x0_timer.o(.text)
    timer_break_config                       0x08003931   Thumb Code    36  gd32f1x0_timer.o(.text)
    timer_break_enable                       0x08003955   Thumb Code    10  gd32f1x0_timer.o(.text)
    timer_break_disable                      0x08003961   Thumb Code    10  gd32f1x0_timer.o(.text)
    timer_automatic_output_enable            0x0800396d   Thumb Code    10  gd32f1x0_timer.o(.text)
    timer_automatic_output_disable           0x08003979   Thumb Code    10  gd32f1x0_timer.o(.text)
    timer_primary_output_config              0x08003985   Thumb Code    18  gd32f1x0_timer.o(.text)
    timer_channel_control_shadow_config      0x08003999   Thumb Code    16  gd32f1x0_timer.o(.text)
    timer_channel_control_shadow_update_config 0x080039a9   Thumb Code    30  gd32f1x0_timer.o(.text)
    timer_channel_output_struct_para_init    0x080039c9   Thumb Code    12  gd32f1x0_timer.o(.text)
    timer_channel_output_config              0x080039d5   Thumb Code   550  gd32f1x0_timer.o(.text)
    timer_channel_output_mode_config         0x08003bfd   Thumb Code    58  gd32f1x0_timer.o(.text)
    timer_channel_output_pulse_value_config  0x08003c39   Thumb Code    12  gd32f1x0_timer.o(.text)
    timer_channel_output_shadow_config       0x08003c45   Thumb Code    58  gd32f1x0_timer.o(.text)
    timer_channel_output_fast_config         0x08003c81   Thumb Code    58  gd32f1x0_timer.o(.text)
    timer_channel_output_clear_config        0x08003cbd   Thumb Code    58  gd32f1x0_timer.o(.text)
    timer_channel_output_polarity_config     0x08003cf9   Thumb Code    74  gd32f1x0_timer.o(.text)
    timer_channel_complementary_output_polarity_config 0x08003d45   Thumb Code    74  gd32f1x0_timer.o(.text)
    timer_channel_output_state_config        0x08003d91   Thumb Code    74  gd32f1x0_timer.o(.text)
    timer_channel_complementary_output_state_config 0x08003ddd   Thumb Code    60  gd32f1x0_timer.o(.text)
    timer_channel_input_struct_para_init     0x08003e19   Thumb Code    12  gd32f1x0_timer.o(.text)
    timer_input_capture_config               0x08003e25   Thumb Code   346  gd32f1x0_timer.o(.text)
    timer_channel_input_capture_prescaler_config 0x08003f81   Thumb Code    58  gd32f1x0_timer.o(.text)
    timer_channel_capture_value_register_read 0x08003fbd   Thumb Code    14  gd32f1x0_timer.o(.text)
    timer_input_pwm_capture_config           0x08003fcd   Thumb Code   356  gd32f1x0_timer.o(.text)
    timer_hall_mode_config                   0x08004131   Thumb Code    30  gd32f1x0_timer.o(.text)
    timer_input_trigger_source_select        0x08004151   Thumb Code    16  gd32f1x0_timer.o(.text)
    timer_master_output_trigger_source_select 0x08004161   Thumb Code    16  gd32f1x0_timer.o(.text)
    timer_slave_mode_select                  0x08004171   Thumb Code    16  gd32f1x0_timer.o(.text)
    timer_master_slave_mode_config           0x08004181   Thumb Code    30  gd32f1x0_timer.o(.text)
    timer_external_trigger_config            0x080041a1   Thumb Code    34  gd32f1x0_timer.o(.text)
    timer_quadrature_decoder_mode_config     0x080041c5   Thumb Code    78  gd32f1x0_timer.o(.text)
    timer_internal_clock_config              0x08004215   Thumb Code    10  gd32f1x0_timer.o(.text)
    timer_internal_trigger_as_external_clock_config 0x08004221   Thumb Code    32  gd32f1x0_timer.o(.text)
    timer_external_trigger_as_external_clock_config 0x08004241   Thumb Code   148  gd32f1x0_timer.o(.text)
    timer_external_clock_mode0_config        0x080042d5   Thumb Code    50  gd32f1x0_timer.o(.text)
    timer_external_clock_mode1_config        0x08004309   Thumb Code    42  gd32f1x0_timer.o(.text)
    timer_external_clock_mode1_disable       0x08004335   Thumb Code    10  gd32f1x0_timer.o(.text)
    timer_channel_remap_config               0x08004341   Thumb Code     4  gd32f1x0_timer.o(.text)
    usart_deinit                             0x08004345   Thumb Code    54  gd32f1x0_usart.o(.text)
    usart_baudrate_set                       0x0800437d   Thumb Code    90  gd32f1x0_usart.o(.text)
    usart_parity_config                      0x080043d9   Thumb Code    24  gd32f1x0_usart.o(.text)
    usart_word_length_set                    0x080043f1   Thumb Code    24  gd32f1x0_usart.o(.text)
    usart_stop_bit_set                       0x08004409   Thumb Code    24  gd32f1x0_usart.o(.text)
    usart_enable                             0x08004421   Thumb Code    10  gd32f1x0_usart.o(.text)
    usart_disable                            0x0800442d   Thumb Code    10  gd32f1x0_usart.o(.text)
    usart_transmit_config                    0x08004439   Thumb Code    16  gd32f1x0_usart.o(.text)
    usart_receive_config                     0x08004449   Thumb Code    16  gd32f1x0_usart.o(.text)
    usart_data_transmit                      0x08004459   Thumb Code     8  gd32f1x0_usart.o(.text)
    usart_data_receive                       0x08004461   Thumb Code     8  gd32f1x0_usart.o(.text)
    usart_data_first_config                  0x08004469   Thumb Code    28  gd32f1x0_usart.o(.text)
    usart_invert_config                      0x08004485   Thumb Code   106  gd32f1x0_usart.o(.text)
    usart_overrun_enable                     0x080044f1   Thumb Code    18  gd32f1x0_usart.o(.text)
    usart_overrun_disable                    0x08004505   Thumb Code    18  gd32f1x0_usart.o(.text)
    usart_oversample_config                  0x08004519   Thumb Code    24  gd32f1x0_usart.o(.text)
    usart_sample_bit_config                  0x08004531   Thumb Code    24  gd32f1x0_usart.o(.text)
    usart_autobaud_detection_enable          0x08004549   Thumb Code    10  gd32f1x0_usart.o(.text)
    usart_autobaud_detection_disable         0x08004555   Thumb Code    10  gd32f1x0_usart.o(.text)
    usart_autobaud_detection_mode_config     0x08004561   Thumb Code    16  gd32f1x0_usart.o(.text)
    usart_mute_mode_enable                   0x08004571   Thumb Code    10  gd32f1x0_usart.o(.text)
    usart_mute_mode_disable                  0x0800457d   Thumb Code    10  gd32f1x0_usart.o(.text)
    usart_mute_mode_wakeup_config            0x08004589   Thumb Code    24  gd32f1x0_usart.o(.text)
    usart_address_detection_mode_config      0x080045a1   Thumb Code    28  gd32f1x0_usart.o(.text)
    usart_address_config                     0x080045bd   Thumb Code    26  gd32f1x0_usart.o(.text)
    usart_receiver_timeout_enable            0x080045d9   Thumb Code    10  gd32f1x0_usart.o(.text)
    usart_receiver_timeout_disable           0x080045e5   Thumb Code    10  gd32f1x0_usart.o(.text)
    usart_receiver_timeout_config            0x080045f1   Thumb Code    16  gd32f1x0_usart.o(.text)
    usart_lin_mode_enable                    0x08004601   Thumb Code    18  gd32f1x0_usart.o(.text)
    usart_lin_mode_disable                   0x08004615   Thumb Code    18  gd32f1x0_usart.o(.text)
    usart_lin_break_detection_length_config  0x08004629   Thumb Code    20  gd32f1x0_usart.o(.text)
    usart_halfduplex_enable                  0x0800463d   Thumb Code    18  gd32f1x0_usart.o(.text)
    usart_halfduplex_disable                 0x08004651   Thumb Code    18  gd32f1x0_usart.o(.text)
    usart_clock_enable                       0x08004665   Thumb Code    18  gd32f1x0_usart.o(.text)
    usart_clock_disable                      0x08004679   Thumb Code    18  gd32f1x0_usart.o(.text)
    usart_synchronous_clock_config           0x0800468d   Thumb Code    60  gd32f1x0_usart.o(.text)
    usart_smartcard_mode_enable              0x080046c9   Thumb Code    18  gd32f1x0_usart.o(.text)
    usart_smartcard_mode_disable             0x080046dd   Thumb Code    18  gd32f1x0_usart.o(.text)
    usart_smartcard_mode_nack_enable         0x080046f1   Thumb Code    18  gd32f1x0_usart.o(.text)
    usart_smartcard_mode_nack_disable        0x08004705   Thumb Code    18  gd32f1x0_usart.o(.text)
    usart_guard_time_config                  0x08004719   Thumb Code    28  gd32f1x0_usart.o(.text)
    usart_block_length_config                0x08004735   Thumb Code    18  gd32f1x0_usart.o(.text)
    usart_smartcard_autoretry_config         0x08004749   Thumb Code    30  gd32f1x0_usart.o(.text)
    usart_irda_mode_enable                   0x08004769   Thumb Code    18  gd32f1x0_usart.o(.text)
    usart_irda_mode_disable                  0x0800477d   Thumb Code    18  gd32f1x0_usart.o(.text)
    usart_irda_lowpower_config               0x08004791   Thumb Code    20  gd32f1x0_usart.o(.text)
    usart_prescaler_config                   0x080047a5   Thumb Code    24  gd32f1x0_usart.o(.text)
    usart_hardware_flow_rts_config           0x080047bd   Thumb Code    24  gd32f1x0_usart.o(.text)
    usart_hardware_flow_cts_config           0x080047d5   Thumb Code    24  gd32f1x0_usart.o(.text)
    usart_rs485_driver_enable                0x080047ed   Thumb Code    18  gd32f1x0_usart.o(.text)
    usart_rs485_driver_disable               0x08004801   Thumb Code    18  gd32f1x0_usart.o(.text)
    usart_driver_assertime_config            0x08004815   Thumb Code    30  gd32f1x0_usart.o(.text)
    usart_driver_deassertime_config          0x08004835   Thumb Code    30  gd32f1x0_usart.o(.text)
    usart_depolarity_config                  0x08004855   Thumb Code    28  gd32f1x0_usart.o(.text)
    usart_dma_receive_config                 0x08004871   Thumb Code    16  gd32f1x0_usart.o(.text)
    usart_dma_transmit_config                0x08004881   Thumb Code    16  gd32f1x0_usart.o(.text)
    usart_reception_error_dma_disable        0x08004891   Thumb Code    18  gd32f1x0_usart.o(.text)
    usart_reception_error_dma_enable         0x080048a5   Thumb Code    18  gd32f1x0_usart.o(.text)
    usart_wakeup_enable                      0x080048b9   Thumb Code    10  gd32f1x0_usart.o(.text)
    usart_wakeup_disable                     0x080048c5   Thumb Code    10  gd32f1x0_usart.o(.text)
    usart_wakeup_mode_config                 0x080048d1   Thumb Code    28  gd32f1x0_usart.o(.text)
    usart_flag_get                           0x080048ed   Thumb Code    16  gd32f1x0_usart.o(.text)
    usart_flag_clear                         0x080048fd   Thumb Code    18  gd32f1x0_usart.o(.text)
    usart_interrupt_enable                   0x08004911   Thumb Code    24  gd32f1x0_usart.o(.text)
    usart_interrupt_disable                  0x08004929   Thumb Code    26  gd32f1x0_usart.o(.text)
    usart_command_enable                     0x08004945   Thumb Code     8  gd32f1x0_usart.o(.text)
    usart_interrupt_flag_get                 0x0800494d   Thumb Code    34  gd32f1x0_usart.o(.text)
    usart_interrupt_flag_clear               0x08004971   Thumb Code    18  gd32f1x0_usart.o(.text)
    Reset_Handler                            0x08004985   Thumb Code     8  startup_gd32f1x0.o(.text)
    ADC_CMP_IRQHandler                       0x0800499f   Thumb Code     0  startup_gd32f1x0.o(.text)
    CAN0_RX0_IRQHandler                      0x0800499f   Thumb Code     0  startup_gd32f1x0.o(.text)
    CAN0_RX1_IRQHandler                      0x0800499f   Thumb Code     0  startup_gd32f1x0.o(.text)
    CAN0_SCE_IRQHandler                      0x0800499f   Thumb Code     0  startup_gd32f1x0.o(.text)
    CAN0_TX_IRQHandler                       0x0800499f   Thumb Code     0  startup_gd32f1x0.o(.text)
    CAN1_RX0_IRQHandler                      0x0800499f   Thumb Code     0  startup_gd32f1x0.o(.text)
    CAN1_RX1_IRQHandler                      0x0800499f   Thumb Code     0  startup_gd32f1x0.o(.text)
    CAN1_SCE_IRQHandler                      0x0800499f   Thumb Code     0  startup_gd32f1x0.o(.text)
    CAN1_TX_IRQHandler                       0x0800499f   Thumb Code     0  startup_gd32f1x0.o(.text)
    CEC_IRQHandler                           0x0800499f   Thumb Code     0  startup_gd32f1x0.o(.text)
    DMA_Channel1_2_IRQHandler                0x0800499f   Thumb Code     0  startup_gd32f1x0.o(.text)
    DMA_Channel5_6_IRQHandler                0x0800499f   Thumb Code     0  startup_gd32f1x0.o(.text)
    EXTI0_1_IRQHandler                       0x0800499f   Thumb Code     0  startup_gd32f1x0.o(.text)
    EXTI2_3_IRQHandler                       0x0800499f   Thumb Code     0  startup_gd32f1x0.o(.text)
    EXTI4_15_IRQHandler                      0x0800499f   Thumb Code     0  startup_gd32f1x0.o(.text)
    FMC_IRQHandler                           0x0800499f   Thumb Code     0  startup_gd32f1x0.o(.text)
    I2C0_ER_IRQHandler                       0x0800499f   Thumb Code     0  startup_gd32f1x0.o(.text)
    I2C0_EV_IRQHandler                       0x0800499f   Thumb Code     0  startup_gd32f1x0.o(.text)
    I2C1_ER_IRQHandler                       0x0800499f   Thumb Code     0  startup_gd32f1x0.o(.text)
    I2C1_EV_IRQHandler                       0x0800499f   Thumb Code     0  startup_gd32f1x0.o(.text)
    I2C2_ER_IRQHandler                       0x0800499f   Thumb Code     0  startup_gd32f1x0.o(.text)
    I2C2_EV_IRQHandler                       0x0800499f   Thumb Code     0  startup_gd32f1x0.o(.text)
    LVD_IRQHandler                           0x0800499f   Thumb Code     0  startup_gd32f1x0.o(.text)
    RCU_IRQHandler                           0x0800499f   Thumb Code     0  startup_gd32f1x0.o(.text)
    RTC_IRQHandler                           0x0800499f   Thumb Code     0  startup_gd32f1x0.o(.text)
    SLCD_IRQHandler                          0x0800499f   Thumb Code     0  startup_gd32f1x0.o(.text)
    SPI0_IRQHandler                          0x0800499f   Thumb Code     0  startup_gd32f1x0.o(.text)
    SPI1_IRQHandler                          0x0800499f   Thumb Code     0  startup_gd32f1x0.o(.text)
    SPI2_IRQHandler                          0x0800499f   Thumb Code     0  startup_gd32f1x0.o(.text)
    TIMER0_Channel_IRQHandler                0x0800499f   Thumb Code     0  startup_gd32f1x0.o(.text)
    TIMER14_IRQHandler                       0x0800499f   Thumb Code     0  startup_gd32f1x0.o(.text)
    TIMER15_IRQHandler                       0x0800499f   Thumb Code     0  startup_gd32f1x0.o(.text)
    TIMER16_IRQHandler                       0x0800499f   Thumb Code     0  startup_gd32f1x0.o(.text)
    TIMER1_IRQHandler                        0x0800499f   Thumb Code     0  startup_gd32f1x0.o(.text)
    TIMER2_IRQHandler                        0x0800499f   Thumb Code     0  startup_gd32f1x0.o(.text)
    TIMER5_DAC_IRQHandler                    0x0800499f   Thumb Code     0  startup_gd32f1x0.o(.text)
    TSI_IRQHandler                           0x0800499f   Thumb Code     0  startup_gd32f1x0.o(.text)
    USART0_IRQHandler                        0x0800499f   Thumb Code     0  startup_gd32f1x0.o(.text)
    USART1_IRQHandler                        0x0800499f   Thumb Code     0  startup_gd32f1x0.o(.text)
    USBDWakeUp_IRQHandler                    0x0800499f   Thumb Code     0  startup_gd32f1x0.o(.text)
    USBD_HP_IRQHandler                       0x0800499f   Thumb Code     0  startup_gd32f1x0.o(.text)
    USBD_LP_IRQHandler                       0x0800499f   Thumb Code     0  startup_gd32f1x0.o(.text)
    WWDGT_IRQHandler                         0x0800499f   Thumb Code     0  startup_gd32f1x0.o(.text)
    SystemInit                               0x080049a9   Thumb Code   188  system_gd32f1x0.o(.text)
    SystemCoreClockUpdate                    0x08004a65   Thumb Code   112  system_gd32f1x0.o(.text)
    __aeabi_fadd                             0x08004ae5   Thumb Code   164  fadd.o(.text)
    __aeabi_fsub                             0x08004b89   Thumb Code     6  fadd.o(.text)
    __aeabi_frsub                            0x08004b8f   Thumb Code     6  fadd.o(.text)
    __aeabi_fmul                             0x08004b95   Thumb Code   100  fmul.o(.text)
    __aeabi_fdiv                             0x08004bf9   Thumb Code   124  fdiv.o(.text)
    __aeabi_dadd                             0x08004c75   Thumb Code   322  dadd.o(.text)
    __aeabi_dsub                             0x08004db7   Thumb Code     6  dadd.o(.text)
    __aeabi_drsub                            0x08004dbd   Thumb Code     6  dadd.o(.text)
    __aeabi_dmul                             0x08004dc3   Thumb Code   228  dmul.o(.text)
    __aeabi_ddiv                             0x08004ea7   Thumb Code   222  ddiv.o(.text)
    __aeabi_fcmple                           0x08004f85   Thumb Code    28  fcmple.o(.text)
    __aeabi_fcmplt                           0x08004fa1   Thumb Code    28  fcmplt.o(.text)
    __aeabi_fcmpgt                           0x08004fbd   Thumb Code    28  fcmpgt.o(.text)
    __aeabi_i2f                              0x08004fd9   Thumb Code    18  fflti.o(.text)
    __aeabi_ui2f                             0x08004feb   Thumb Code    10  ffltui.o(.text)
    __aeabi_i2d                              0x08004ff5   Thumb Code    34  dflti.o(.text)
    __aeabi_ui2d                             0x08005017   Thumb Code    26  dfltui.o(.text)
    __aeabi_f2iz                             0x08005031   Thumb Code    50  ffixi.o(.text)
    __aeabi_d2iz                             0x08005063   Thumb Code    62  dfixi.o(.text)
    __aeabi_f2d                              0x080050a1   Thumb Code    38  f2d.o(.text)
    __aeabi_d2f                              0x080050c7   Thumb Code    56  d2f.o(.text)
    __aeabi_llsl                             0x080050ff   Thumb Code    30  llshl.o(.text)
    _ll_shift_l                              0x080050ff   Thumb Code     0  llshl.o(.text)
    __aeabi_llsr                             0x0800511d   Thumb Code    32  llushr.o(.text)
    _ll_ushift_r                             0x0800511d   Thumb Code     0  llushr.o(.text)
    __aeabi_lasr                             0x0800513d   Thumb Code    36  llsshr.o(.text)
    _ll_sshift_r                             0x0800513d   Thumb Code     0  llsshr.o(.text)
    __I$use$fp                               0x08005161   Thumb Code     0  iusefp.o(.text)
    _float_round                             0x08005161   Thumb Code    18  fepilogue.o(.text)
    _float_epilogue                          0x08005173   Thumb Code    92  fepilogue.o(.text)
    _double_round                            0x080051cf   Thumb Code    30  depilogue.o(.text)
    _double_epilogue                         0x080051ed   Thumb Code   156  depilogue.o(.text)
    __scatterload                            0x08005289   Thumb Code    28  init.o(.text)
    __scatterload_rt2                        0x08005289   Thumb Code     0  init.o(.text)
    __scatterload_copy                       0x080052ad   Thumb Code    14  handlers.o(i.__scatterload_copy)
    __scatterload_null                       0x080052bb   Thumb Code     2  handlers.o(i.__scatterload_null)
    __scatterload_zeroinit                   0x080052bd   Thumb Code    14  handlers.o(i.__scatterload_zeroinit)
    hall_to_pos                              0x080052ea   Data           8  bldc.o(.rodata.hall_to_pos)
    lookUpTableAngle                         0x080052f4   Data         724  main.o(.rodata.lookUpTableAngle)
    Region$$Table$$Base                      0x080055c8   Number         0  anon$$obj.o(Region$$Table)
    Region$$Table$$Limit                     0x080055e8   Number         0  anon$$obj.o(Region$$Table)
    SystemCoreClock                          0x20000000   Data           4  system_gd32f1x0.o(.data.SystemCoreClock)
    batteryVoltage                           0x20000004   Data           4  bldc.o(.data.batteryVoltage)
    beepsBackwards                           0x20000008   Data           1  main.o(.data.beepsBackwards)
    currentDC                                0x2000000c   Data           4  bldc.o(.data.currentDC)
    offsetdc                                 0x20000012   Data           2  bldc.o(.data.offsetdc)
    speedLimit                               0x20000014   Data           2  main.o(.data.speedLimit)
    wState                                   0x20000016   Data           1  main.o(.data.wState)
    wStateSlave                              0x20000017   Data           1  main.o(.data.wStateSlave)
    adc_buffer                               0x20000028   Data           4  bldc.o(.bss.adc_buffer)
    beepsBackwardsMaster                     0x2000002c   Data           1  commsmasterslave.o(.bss.beepsBackwardsMaster)
    bldc_enable                              0x2000002d   Data           1  bldc.o(.bss.bldc_enable)
    bldc_inputFilterPwm                      0x2000002e   Data           2  bldc.o(.bss.bldc_inputFilterPwm)
    bldc_outputFilterPwm                     0x20000030   Data           2  bldc.o(.bss.bldc_outputFilterPwm)
    buzzerFreq                               0x20000032   Data           1  bldc.o(.bss.buzzerFreq)
    buzzerPattern                            0x20000033   Data           1  bldc.o(.bss.buzzerPattern)
    buzzerTimer                              0x20000034   Data           2  bldc.o(.bss.buzzerTimer)
    buzzerToggle                             0x20000036   Data           1  bldc.o(.bss.buzzerToggle)
    dma_init_struct_adc                      0x20000038   Data          36  setup.o(.bss.dma_init_struct_adc)
    dma_init_struct_usart                    0x2000005c   Data          36  setup.o(.bss.dma_init_struct_usart)
    enable                                   0x20000080   Data           1  main.o(.bss.enable)
    filter_reg                               0x20000084   Data           4  bldc.o(.bss.filter_reg)
    hall                                     0x20000088   Data           1  bldc.o(.bss.hall)
    hall_a                                   0x20000089   Data           1  bldc.o(.bss.hall_a)
    hall_b                                   0x2000008a   Data           1  bldc.o(.bss.hall_b)
    hall_c                                   0x2000008b   Data           1  bldc.o(.bss.hall_c)
    iConfigMode                              0x2000008c   Data           2  main.o(.bss.iConfigMode)
    iOdom                                    0x20000090   Data           4  bldc.o(.bss.iOdom)
    iTimeNextLoop                            0x20000094   Data           4  main.o(.bss.iTimeNextLoop)
    inactivity_timeout_counter               0x20000098   Data           4  main.o(.bss.inactivity_timeout_counter)
    lastPos                                  0x2000009c   Data           1  bldc.o(.bss.lastPos)
    msTicks                                  0x200000a0   Data           4  it.o(.bss.msTicks)
    oConfig                                  0x200000a4   Data          18  setup.o(.bss.oConfig)
    oDataSlave                               0x200000b8   Data          16  main.o(.bss.oDataSlave)
    offsetcount                              0x200000c8   Data           2  bldc.o(.bss.offsetcount)
    pos                                      0x200000ca   Data           1  bldc.o(.bss.pos)
    pwmSlave                                 0x200000cc   Data           2  main.o(.bss.pwmSlave)
    realSpeed                                0x200000d0   Data           4  bldc.o(.bss.realSpeed)
    speed                                    0x200000d4   Data           4  main.o(.bss.speed)
    speedCounter                             0x200000d8   Data           4  bldc.o(.bss.speedCounter)
    steer                                    0x200000dc   Data           4  main.o(.bss.steer)
    steerCounter                             0x200000e0   Data           4  main.o(.bss.steerCounter)
    timedOut                                 0x200000e4   Data           1  it.o(.bss.timedOut)
    timeoutCounter_ms                        0x200000e8   Data           4  it.o(.bss.timeoutCounter_ms)
    timeoutTimer_paramter_struct             0x200000ec   Data          16  setup.o(.bss.timeoutTimer_paramter_struct)
    timerBldc_break_parameter_struct         0x200000fc   Data          24  setup.o(.bss.timerBldc_break_parameter_struct)
    timerBldc_oc_parameter_struct            0x20000114   Data          16  setup.o(.bss.timerBldc_oc_parameter_struct)
    timerBldc_paramter_struct                0x20000124   Data          16  setup.o(.bss.timerBldc_paramter_struct)
    usart1_rx_buf                            0x20000134   Data           1  setup.o(.bss.usart1_rx_buf)
    __initial_sp                             0x20000538   Data           0  startup_gd32f1x0.o(STACK)



==============================================================================

Memory Map of the image

  Image Entry point : 0x08000169

  Load Region LR_IROM1 (Base: 0x08000000, Size: 0x00005600, Max: 0x00010000, ABSOLUTE)

    Execution Region ER_IROM1 (Exec base: 0x08000000, Load base: 0x08000000, Size: 0x000055e8, Max: 0x00010000, ABSOLUTE)

    Exec Addr    Load Addr    Size         Type   Attr      Idx    E Section Name        Object

    0x08000000   0x08000000   0x00000168   Data   RO          264    RESET               startup_gd32f1x0.o
    0x08000168   0x08000168   0x00000000   Code   RO          281  * .ARM.Collect$$$$00000000  mc_w.l(entry.o)
    0x08000168   0x08000168   0x00000004   Code   RO          318    .ARM.Collect$$$$00000001  mc_w.l(entry2.o)
    0x0800016c   0x0800016c   0x00000004   Code   RO          321    .ARM.Collect$$$$00000004  mc_w.l(entry5.o)
    0x08000170   0x08000170   0x00000000   Code   RO          323    .ARM.Collect$$$$00000008  mc_w.l(entry7b.o)
    0x08000170   0x08000170   0x00000000   Code   RO          325    .ARM.Collect$$$$0000000A  mc_w.l(entry8b.o)
    0x08000170   0x08000170   0x00000008   Code   RO          326    .ARM.Collect$$$$0000000B  mc_w.l(entry9a.o)
    0x08000178   0x08000178   0x00000000   Code   RO          328    .ARM.Collect$$$$0000000D  mc_w.l(entry10a.o)
    0x08000178   0x08000178   0x00000000   Code   RO          330    .ARM.Collect$$$$0000000F  mc_w.l(entry11a.o)
    0x08000178   0x08000178   0x00000004   Code   RO          319    .ARM.Collect$$$$00002712  mc_w.l(entry2.o)
    0x0800017c   0x0800017c   0x000005ce   Code   RO            1    .text               main.o
    0x0800074a   0x0800074a   0x00000002   PAD
    0x0800074c   0x0800074c   0x000004a0   Code   RO           26    .text               bldc.o
    0x08000bec   0x08000bec   0x0000006e   Code   RO           59    .text               bldcbc.o
    0x08000c5a   0x08000c5a   0x00000002   PAD
    0x08000c5c   0x08000c5c   0x000008e8   Code   RO           69    .text               setup.o
    0x08001544   0x08001544   0x00000122   Code   RO           87    .text               it.o
    0x08001666   0x08001666   0x00000002   PAD
    0x08001668   0x08001668   0x0000006c   Code   RO          100    .text               comms.o
    0x080016d4   0x080016d4   0x00000076   Code   RO          110    .text               remotedummy.o
    0x0800174a   0x0800174a   0x00000002   PAD
    0x0800174c   0x0800174c   0x000000fc   Code   RO          118    .text               commsmasterslave.o
    0x08001848   0x08001848   0x000005a6   Code   RO          133    .text               gd32f1x0_adc.o
    0x08001dee   0x08001dee   0x00000002   PAD
    0x08001df0   0x08001df0   0x0000034c   Code   RO          149    .text               gd32f1x0_dma.o
    0x0800213c   0x0800213c   0x000009d4   Code   RO          165    .text               gd32f1x0_fmc.o
    0x08002b10   0x08002b10   0x000000da   Code   RO          174    .text               gd32f1x0_fwdgt.o
    0x08002bea   0x08002bea   0x00000002   PAD
    0x08002bec   0x08002bec   0x00000198   Code   RO          182    .text               gd32f1x0_gpio.o
    0x08002d84   0x08002d84   0x00000130   Code   RO          199    .text               gd32f1x0_misc.o
    0x08002eb4   0x08002eb4   0x00000730   Code   RO          220    .text               gd32f1x0_rcu.o
    0x080035e4   0x080035e4   0x00000d60   Code   RO          237    .text               gd32f1x0_timer.o
    0x08004344   0x08004344   0x0000063e   Code   RO          246    .text               gd32f1x0_usart.o
    0x08004982   0x08004982   0x00000002   PAD
    0x08004984   0x08004984   0x00000024   Code   RO          265    .text               startup_gd32f1x0.o
    0x080049a8   0x080049a8   0x0000013c   Code   RO          271    .text               system_gd32f1x0.o
    0x08004ae4   0x08004ae4   0x000000b0   Code   RO          284    .text               mf_w.l(fadd.o)
    0x08004b94   0x08004b94   0x00000064   Code   RO          286    .text               mf_w.l(fmul.o)
    0x08004bf8   0x08004bf8   0x0000007c   Code   RO          288    .text               mf_w.l(fdiv.o)
    0x08004c74   0x08004c74   0x0000014e   Code   RO          290    .text               mf_w.l(dadd.o)
    0x08004dc2   0x08004dc2   0x000000e4   Code   RO          292    .text               mf_w.l(dmul.o)
    0x08004ea6   0x08004ea6   0x000000de   Code   RO          294    .text               mf_w.l(ddiv.o)
    0x08004f84   0x08004f84   0x0000001c   Code   RO          296    .text               mf_w.l(fcmple.o)
    0x08004fa0   0x08004fa0   0x0000001c   Code   RO          298    .text               mf_w.l(fcmplt.o)
    0x08004fbc   0x08004fbc   0x0000001c   Code   RO          300    .text               mf_w.l(fcmpgt.o)
    0x08004fd8   0x08004fd8   0x00000012   Code   RO          302    .text               mf_w.l(fflti.o)
    0x08004fea   0x08004fea   0x0000000a   Code   RO          304    .text               mf_w.l(ffltui.o)
    0x08004ff4   0x08004ff4   0x00000022   Code   RO          306    .text               mf_w.l(dflti.o)
    0x08005016   0x08005016   0x0000001a   Code   RO          308    .text               mf_w.l(dfltui.o)
    0x08005030   0x08005030   0x00000032   Code   RO          310    .text               mf_w.l(ffixi.o)
    0x08005062   0x08005062   0x0000003e   Code   RO          312    .text               mf_w.l(dfixi.o)
    0x080050a0   0x080050a0   0x00000026   Code   RO          314    .text               mf_w.l(f2d.o)
    0x080050c6   0x080050c6   0x00000038   Code   RO          316    .text               mf_w.l(d2f.o)
    0x080050fe   0x080050fe   0x0000001e   Code   RO          332    .text               mc_w.l(llshl.o)
    0x0800511c   0x0800511c   0x00000020   Code   RO          334    .text               mc_w.l(llushr.o)
    0x0800513c   0x0800513c   0x00000024   Code   RO          336    .text               mc_w.l(llsshr.o)
    0x08005160   0x08005160   0x00000000   Code   RO          338    .text               mc_w.l(iusefp.o)
    0x08005160   0x08005160   0x0000006e   Code   RO          339    .text               mf_w.l(fepilogue.o)
    0x080051ce   0x080051ce   0x000000ba   Code   RO          341    .text               mf_w.l(depilogue.o)
    0x08005288   0x08005288   0x00000024   Code   RO          343    .text               mc_w.l(init.o)
    0x080052ac   0x080052ac   0x0000000e   Code   RO          347    i.__scatterload_copy  mc_w.l(handlers.o)
    0x080052ba   0x080052ba   0x00000002   Code   RO          348    i.__scatterload_null  mc_w.l(handlers.o)
    0x080052bc   0x080052bc   0x0000000e   Code   RO          349    i.__scatterload_zeroinit  mc_w.l(handlers.o)
    0x080052ca   0x080052ca   0x0000000c   Data   RO           43    .rodata..L__const.up_or_down.up_down  bldc.o
    0x080052d6   0x080052d6   0x0000000c   Data   RO          184    .rodata..Lswitch.table.gpio_deinit.1  gd32f1x0_gpio.o
    0x080052e2   0x080052e2   0x00000008   Data   RO          222    .rodata.cst8        gd32f1x0_rcu.o
    0x080052ea   0x080052ea   0x00000008   Data   RO           44    .rodata.hall_to_pos  bldc.o
    0x080052f2   0x080052f2   0x00000002   PAD
    0x080052f4   0x080052f4   0x000002d4   Data   RO           14    .rodata.lookUpTableAngle  main.o
    0x080055c8   0x080055c8   0x00000020   Data   RO          346    Region$$Table       anon$$obj.o


    Execution Region RW_IRAM1 (Exec base: 0x20000000, Load base: 0x080055e8, Size: 0x00000538, Max: 0x00002000, ABSOLUTE)

    Exec Addr    Load Addr    Size         Type   Attr      Idx    E Section Name        Object

    0x20000000   0x080055e8   0x00000004   Data   RW          273    .data.SystemCoreClock  system_gd32f1x0.o
    0x20000004   0x080055ec   0x00000004   Data   RW           28    .data.batteryVoltage  bldc.o
    0x20000008   0x080055f0   0x00000001   Data   RW           11    .data.beepsBackwards  main.o
    0x20000009   0x080055f1   0x00000003   PAD
    0x2000000c   0x080055f4   0x00000004   Data   RW           29    .data.currentDC     bldc.o
    0x20000010   0x080055f8   0x00000002   Data   RW          122    .data.iReceivePos   commsmasterslave.o
    0x20000012   0x080055fa   0x00000002   Data   RW           37    .data.offsetdc      bldc.o
    0x20000014   0x080055fc   0x00000002   Data   RW            5    .data.speedLimit    main.o
    0x20000016   0x080055fe   0x00000001   Data   RW            7    .data.wState        main.o
    0x20000017   0x080055ff   0x00000001   Data   RW            8    .data.wStateSlave   main.o
    0x20000018        -       0x00000010   Zero   RW          123    .bss.aReceiveBuffer  commsmasterslave.o
    0x20000028        -       0x00000004   Zero   RW           45    .bss.adc_buffer     bldc.o
    0x2000002c        -       0x00000001   Zero   RW          121    .bss.beepsBackwardsMaster  commsmasterslave.o
    0x2000002d        -       0x00000001   Zero   RW           32    .bss.bldc_enable    bldc.o
    0x2000002e        -       0x00000002   Zero   RW           31    .bss.bldc_inputFilterPwm  bldc.o
    0x20000030        -       0x00000002   Zero   RW           34    .bss.bldc_outputFilterPwm  bldc.o
    0x20000032        -       0x00000001   Zero   RW           40    .bss.buzzerFreq     bldc.o
    0x20000033        -       0x00000001   Zero   RW           41    .bss.buzzerPattern  bldc.o
    0x20000034        -       0x00000002   Zero   RW           35    .bss.buzzerTimer    bldc.o
    0x20000036        -       0x00000001   Zero   RW           39    .bss.buzzerToggle   bldc.o
    0x20000037   0x08005600   0x00000001   PAD
    0x20000038        -       0x00000024   Zero   RW           75    .bss.dma_init_struct_adc  setup.o
    0x2000005c        -       0x00000024   Zero   RW           76    .bss.dma_init_struct_usart  setup.o
    0x20000080        -       0x00000001   Zero   RW           15    .bss.enable         main.o
    0x20000081   0x08005600   0x00000003   PAD
    0x20000084        -       0x00000004   Zero   RW           50    .bss.filter_reg     bldc.o
    0x20000088        -       0x00000001   Zero   RW           33    .bss.hall           bldc.o
    0x20000089        -       0x00000001   Zero   RW           46    .bss.hall_a         bldc.o
    0x2000008a        -       0x00000001   Zero   RW           47    .bss.hall_b         bldc.o
    0x2000008b        -       0x00000001   Zero   RW           48    .bss.hall_c         bldc.o
    0x2000008c        -       0x00000002   Zero   RW            6    .bss.iConfigMode    main.o
    0x2000008e   0x08005600   0x00000002   PAD
    0x20000090        -       0x00000004   Zero   RW           42    .bss.iOdom          bldc.o
    0x20000094        -       0x00000004   Zero   RW           17    .bss.iTimeNextLoop  main.o
    0x20000098        -       0x00000004   Zero   RW           13    .bss.inactivity_timeout_counter  main.o
    0x2000009c        -       0x00000001   Zero   RW           51    .bss.lastPos        bldc.o
    0x2000009d   0x08005600   0x00000003   PAD
    0x200000a0        -       0x00000004   Zero   RW           91    .bss.msTicks        it.o
    0x200000a4        -       0x00000012   Zero   RW           78    .bss.oConfig        setup.o
    0x200000b6   0x08005600   0x00000002   PAD
    0x200000b8        -       0x00000010   Zero   RW           18    .bss.oDataSlave     main.o
    0x200000c8        -       0x00000002   Zero   RW           36    .bss.offsetcount    bldc.o
    0x200000ca        -       0x00000001   Zero   RW           49    .bss.pos            bldc.o
    0x200000cb   0x08005600   0x00000001   PAD
    0x200000cc        -       0x00000002   Zero   RW           16    .bss.pwmSlave       main.o
    0x200000ce   0x08005600   0x00000002   PAD
    0x200000d0        -       0x00000004   Zero   RW           30    .bss.realSpeed      bldc.o
    0x200000d4        -       0x00000004   Zero   RW            4    .bss.speed          main.o
    0x200000d8        -       0x00000004   Zero   RW           38    .bss.speedCounter   bldc.o
    0x200000dc        -       0x00000004   Zero   RW            9    .bss.steer          main.o
    0x200000e0        -       0x00000004   Zero   RW            3    .bss.steerCounter   main.o
    0x200000e4        -       0x00000001   Zero   RW           90    .bss.timedOut       it.o
    0x200000e5   0x08005600   0x00000003   PAD
    0x200000e8        -       0x00000004   Zero   RW           89    .bss.timeoutCounter_ms  it.o
    0x200000ec        -       0x00000010   Zero   RW           71    .bss.timeoutTimer_paramter_struct  setup.o
    0x200000fc        -       0x00000018   Zero   RW           74    .bss.timerBldc_break_parameter_struct  setup.o
    0x20000114        -       0x00000010   Zero   RW           73    .bss.timerBldc_oc_parameter_struct  setup.o
    0x20000124        -       0x00000010   Zero   RW           72    .bss.timerBldc_paramter_struct  setup.o
    0x20000134        -       0x00000001   Zero   RW           77    .bss.usart1_rx_buf  setup.o
    0x20000135   0x08005600   0x00000003   PAD
    0x20000138        -       0x00000400   Zero   RW          262    STACK               startup_gd32f1x0.o


==============================================================================

Image component sizes


      Code (inc. data)   RO Data    RW Data    ZI Data      Debug   Object Name

      1184          0         20         10         38       3773   bldc.o
       110          6          0          0          0       1347   bldcbc.o
       108          0          0          0          0       2005   comms.o
       252          0          0          2         17       2268   commsmasterslave.o
      1446         16          0          0          0       7602   gd32f1x0_adc.o
       844          8          0          0          0       6135   gd32f1x0_dma.o
      2516          0          0          0          0      13249   gd32f1x0_fmc.o
       218          0          0          0          0       1996   gd32f1x0_fwdgt.o
       408          0         12          0          0       4211   gd32f1x0_gpio.o
       304          0          0          0          0       3163   gd32f1x0_misc.o
      1840         34          8          0          0      13480   gd32f1x0_rcu.o
      3424         44          0          0          0      18343   gd32f1x0_timer.o
      1598          8          0          0          0      11974   gd32f1x0_usart.o
       290          0          0          0          9       2570   it.o
      1486          0        724          5         41       5837   main.o
       118          0          0          0          0        658   remotedummy.o
      2280          0          0          0        163       9624   setup.o
        36          8        360          0       1024        844   startup_gd32f1x0.o
       316         16          0          4          0       1592   system_gd32f1x0.o

    ----------------------------------------------------------------------
     18792        140       1158         24       1312     110671   Object Totals
         0          0         32          0          0          0   (incl. Generated)
        14          0          2          3         20          0   (incl. Padding)

    ----------------------------------------------------------------------

      Code (inc. data)   RO Data    RW Data    ZI Data      Debug   Library Member Name

         0          0          0          0          0          0   entry.o
         0          0          0          0          0          0   entry10a.o
         0          0          0          0          0          0   entry11a.o
         8          4          0          0          0          0   entry2.o
         4          0          0          0          0          0   entry5.o
         0          0          0          0          0          0   entry7b.o
         0          0          0          0          0          0   entry8b.o
         8          4          0          0          0          0   entry9a.o
        30          0          0          0          0          0   handlers.o
        36          8          0          0          0         68   init.o
         0          0          0          0          0          0   iusefp.o
        30          0          0          0          0         68   llshl.o
        36          0          0          0          0         68   llsshr.o
        32          0          0          0          0         68   llushr.o
        56          0          0          0          0         88   d2f.o
       334          0          0          0          0        148   dadd.o
       222          0          0          0          0        100   ddiv.o
       186          0          0          0          0        176   depilogue.o
        62          0          0          0          0         80   dfixi.o
        34          0          0          0          0         76   dflti.o
        26          0          0          0          0         76   dfltui.o
       228          0          0          0          0         96   dmul.o
        38          0          0          0          0         68   f2d.o
       176          0          0          0          0        140   fadd.o
        28          0          0          0          0         68   fcmpgt.o
        28          0          0          0          0         68   fcmple.o
        28          0          0          0          0         68   fcmplt.o
       124          0          0          0          0         88   fdiv.o
       110          0          0          0          0        168   fepilogue.o
        50          0          0          0          0         68   ffixi.o
        18          0          0          0          0         68   fflti.o
        10          0          0          0          0         68   ffltui.o
       100          0          0          0          0         76   fmul.o

    ----------------------------------------------------------------------
      2042         16          0          0          0       2060   Library Totals
         0          0          0          0          0          0   (incl. Padding)

    ----------------------------------------------------------------------

      Code (inc. data)   RO Data    RW Data    ZI Data      Debug   Library Name

       184         16          0          0          0        272   mc_w.l
      1858          0          0          0          0       1788   mf_w.l

    ----------------------------------------------------------------------
      2042         16          0          0          0       2060   Library Totals

    ----------------------------------------------------------------------

==============================================================================


      Code (inc. data)   RO Data    RW Data    ZI Data      Debug   

     20834        156       1158         24       1312     111503   Grand Totals
     20834        156       1158         24       1312     111503   ELF Image Totals
     20834        156       1158         24          0          0   ROM Totals

==============================================================================

    Total RO  Size (Code + RO Data)                21992 (  21.48kB)
    Total RW  Size (RW Data + ZI Data)              1336 (   1.30kB)
    Total ROM Size (Code + RO Data + RW Data)      22016 (  21.50kB)

==============================================================================

