Component: Arm Compiler for Embedded 6.19 Tool: armlink [5e73cb00]

==============================================================================

Section Cross References

    main.o(.text) refers to system_gd32e23x.o(.text) for SystemCoreClockUpdate
    main.o(.text) refers to setup.o(.text) for Watchdog_init
    main.o(.text) refers to gd32e23x_gpio.o(.text) for gpio_bit_write
    main.o(.text) refers to gd32e23x_fwdgt.o(.text) for fwdgt_counter_reload
    main.o(.text) refers to it.o(.text) for millis
    main.o(.text) refers to remoteuart.o(.text) for RemoteUpdate
    main.o(.text) refers to fflti.o(.text) for __aeabi_i2f
    main.o(.text) refers to f2d.o(.text) for __aeabi_f2d
    main.o(.text) refers to dmul.o(.text) for __aeabi_dmul
    main.o(.text) refers to ddiv.o(.text) for __aeabi_ddiv
    main.o(.text) refers to daddsub.o(.text) for __aeabi_dadd
    main.o(.text) refers to d2f.o(.text) for __aeabi_d2f
    main.o(.text) refers to fmul.o(x$fpl$fmul) for __aeabi_fmul
    main.o(.text) refers to ffixi.o(.text) for __aeabi_f2iz
    main.o(.text) refers to faddsub.o(x$fpl$fsub) for __aeabi_fsub
    main.o(.text) refers to fdiv.o(.text) for __aeabi_fdiv
    main.o(.text) refers to faddsub.o(x$fpl$fadd) for __aeabi_fadd
    main.o(.text) refers to fcmp.o(i._fls) for __aeabi_fcmplt
    main.o(.text) refers to bldc.o(.text) for SetPWM
    main.o(.text) refers to commsmasterslave.o(.text) for SendSlave
    main.o(.text) refers to fcmp.o(i._fgr) for __aeabi_fcmpgt
    main.o(.text) refers to dcmp.o(i._dleq) for __aeabi_dcmple
    main.o(.text) refers to dcmp.o(i._dls) for __aeabi_dcmplt
    main.o(.text) refers to gd32e23x_usart.o(.text) for usart_deinit
    main.o(.text) refers to system_gd32e23x.o(.data.SystemCoreClock) for SystemCoreClock
    main.o(.text) refers to main.o(.bss.iTimeNextLoop) for iTimeNextLoop
    main.o(.text) refers to main.o(.bss.steerCounter) for steerCounter
    main.o(.text) refers to main.o(.bss.speed) for speed
    main.o(.text) refers to main.o(.data.speedLimit) for speedLimit
    main.o(.text) refers to main.o(.bss.steer) for steer
    main.o(.text) refers to main.o(.rodata.lookUpTableAngle) for lookUpTableAngle
    main.o(.text) refers to main.o(.bss.pwmSlave) for pwmSlave
    main.o(.text) refers to main.o(.data.wStateSlave) for wStateSlave
    main.o(.text) refers to main.o(.bss.enable) for enable
    main.o(.text) refers to it.o(.bss.timedOut) for timedOut
    main.o(.text) refers to bldc.o(.data.batteryVoltage) for batteryVoltage
    main.o(.text) refers to main.o(.bss.inactivity_timeout_counter) for inactivity_timeout_counter
    main.o(.text) refers to main.o(.data.wState) for wState
    main.o(.ARM.exidx) refers to main.o(.text) for [Anonymous Symbol]
    bldc.o(.text) refers to bldc.o(.rodata..L__const.up_or_down.up_down) for [Anonymous Symbol]
    bldc.o(.text) refers to bldc.o(.bss.bldc_enable) for bldc_enable
    bldc.o(.text) refers to dflti.o(.text) for __aeabi_i2d
    bldc.o(.text) refers to dmul.o(.text) for __aeabi_dmul
    bldc.o(.text) refers to dcmp.o(i._dls) for __aeabi_dcmplt
    bldc.o(.text) refers to dfixi.o(.text) for __aeabi_d2iz
    bldc.o(.text) refers to bldc.o(.bss.bldc_inputFilterPwm) for bldc_inputFilterPwm
    bldc.o(.text) refers to f2d.o(.text) for __aeabi_f2d
    bldc.o(.text) refers to daddsub.o(.text) for __aeabi_dadd
    bldc.o(.text) refers to d2f.o(.text) for __aeabi_d2f
    bldc.o(.text) refers to fcmp.o(i._fgr) for __aeabi_fcmpgt
    bldc.o(.text) refers to gd32e23x_timer.o(.text) for timer_automatic_output_disable
    bldc.o(.text) refers to gd32e23x_gpio.o(.text) for gpio_input_bit_get
    bldc.o(.text) refers to fflti.o(.text) for __aeabi_ui2f
    bldc.o(.text) refers to fdiv.o(.text) for __aeabi_fdiv
    bldc.o(.text) refers to bldc.o(.bss.offsetcount) for offsetcount
    bldc.o(.text) refers to bldc.o(.bss.buzzerTimer) for buzzerTimer
    bldc.o(.text) refers to bldc.o(.data.batteryVoltage) for batteryVoltage
    bldc.o(.text) refers to bldc.o(.bss.adc_buffer) for adc_buffer
    bldc.o(.text) refers to bldc.o(.data.offsetdc) for offsetdc
    bldc.o(.text) refers to bldc.o(.data.currentDC) for currentDC
    bldc.o(.text) refers to it.o(.bss.timedOut) for timedOut
    bldc.o(.text) refers to bldc.o(.bss.hall_a) for hall_a
    bldc.o(.text) refers to bldc.o(.bss.hall_b) for hall_b
    bldc.o(.text) refers to bldc.o(.bss.hall_c) for hall_c
    bldc.o(.text) refers to bldc.o(.bss.hall) for hall
    bldc.o(.text) refers to bldc.o(.rodata.hall_to_pos) for hall_to_pos
    bldc.o(.text) refers to bldc.o(.bss.pos) for pos
    bldc.o(.text) refers to bldc.o(.bss.filter_reg) for filter_reg
    bldc.o(.text) refers to bldc.o(.bss.bldc_outputFilterPwm) for bldc_outputFilterPwm
    bldc.o(.text) refers to bldc.o(.bss.lastPos) for lastPos
    bldc.o(.text) refers to bldc.o(.bss.iOdom) for iOdom
    bldc.o(.text) refers to bldc.o(.bss.speedCounter) for speedCounter
    bldc.o(.text) refers to bldc.o(.bss.realSpeed) for realSpeed
    bldc.o(.ARM.exidx) refers to bldc.o(.text) for [Anonymous Symbol]
    setup.o(.text) refers to gd32e23x_rcu.o(.text) for rcu_flag_get
    setup.o(.text) refers to gd32e23x_fwdgt.o(.text) for fwdgt_config
    setup.o(.text) refers to gd32e23x_timer.o(.text) for timer_deinit
    setup.o(.text) refers to gd32e23x_misc.o(.text) for nvic_irq_enable
    setup.o(.text) refers to setup.o(.bss.timeoutTimer_paramter_struct) for timeoutTimer_paramter_struct
    setup.o(.text) refers to gd32e23x_gpio.o(.text) for gpio_mode_set
    setup.o(.text) refers to setup.o(.bss.timerBldc_paramter_struct) for timerBldc_paramter_struct
    setup.o(.text) refers to setup.o(.bss.timerBldc_oc_parameter_struct) for timerBldc_oc_parameter_struct
    setup.o(.text) refers to setup.o(.bss.timerBldc_break_parameter_struct) for timerBldc_break_parameter_struct
    setup.o(.text) refers to gd32e23x_dma.o(.text) for dma_deinit
    setup.o(.text) refers to gd32e23x_adc.o(.text) for adc_channel_length_config
    setup.o(.text) refers to setup.o(.bss.dma_init_struct_adc) for dma_init_struct_adc
    setup.o(.text) refers to bldc.o(.bss.adc_buffer) for adc_buffer
    setup.o(.text) refers to gd32e23x_usart.o(.text) for usart_baudrate_set
    setup.o(.text) refers to setup.o(.bss.dma_init_struct_usart) for dma_init_struct_usart
    setup.o(.text) refers to setup.o(.bss.usart1_rx_buf) for usart1_rx_buf
    setup.o(.text) refers to setup.o(.bss.usart0_rx_buf) for usart0_rx_buf
    setup.o(.ARM.exidx) refers to setup.o(.text) for [Anonymous Symbol]
    it.o(.text) refers to it.o(.bss.msTicks) for msTicks
    it.o(.text) refers to it.o(.bss.timeoutCounter_ms) for timeoutCounter_ms
    it.o(.text) refers to gd32e23x_timer.o(.text) for timer_interrupt_flag_clear
    it.o(.text) refers to it.o(.bss.timedOut) for timedOut
    it.o(.text) refers to main.o(.bss.speed) for speed
    it.o(.text) refers to main.o(.bss.steer) for steer
    it.o(.text) refers to main.o(.data.beepsBackwards) for beepsBackwards
    it.o(.text) refers to gd32e23x_adc.o(.text) for adc_software_trigger_enable
    it.o(.text) refers to bldc.o(.text) for CalculateBLDC
    it.o(.text) refers to gd32e23x_dma.o(.text) for dma_interrupt_flag_get
    it.o(.text) refers to remoteuart.o(.text) for RemoteCallback
    it.o(.text) refers to commsmasterslave.o(.text) for UpdateUSARTMasterSlaveInput
    it.o(.ARM.exidx) refers to it.o(.text) for [Anonymous Symbol]
    remoteuart.o(.text) refers to it.o(.text) for millis
    remoteuart.o(.text) refers to fmul.o(x$fpl$fmul) for __aeabi_fmul
    remoteuart.o(.text) refers to ffixi.o(.text) for __aeabi_f2iz
    remoteuart.o(.text) refers to commsmasterslave.o(.text) for CalcCRC
    remoteuart.o(.text) refers to remoteuart.o(.bss.iTimeLastRx) for iTimeLastRx
    remoteuart.o(.text) refers to main.o(.bss.speed) for speed
    remoteuart.o(.text) refers to main.o(.bss.steer) for steer
    remoteuart.o(.text) refers to remoteuart.o(.bss.iTimeNextTx) for iTimeNextTx
    remoteuart.o(.text) refers to bldc.o(.data.batteryVoltage) for batteryVoltage
    remoteuart.o(.text) refers to bldc.o(.data.currentDC) for currentDC
    remoteuart.o(.text) refers to bldc.o(.bss.realSpeed) for realSpeed
    remoteuart.o(.text) refers to main.o(.bss.oDataSlave) for oDataSlave
    remoteuart.o(.text) refers to bldc.o(.bss.iOdom) for iOdom
    remoteuart.o(.text) refers to setup.o(.bss.usart0_rx_buf) for usart0_rx_buf
    remoteuart.o(.text) refers to remoteuart.o(.bss.iReceivePos) for [Anonymous Symbol]
    remoteuart.o(.text) refers to remoteuart.o(.bss.aReceiveBuffer) for [Anonymous Symbol]
    remoteuart.o(.text) refers to main.o(.data.wState) for wState
    remoteuart.o(.text) refers to main.o(.data.wStateSlave) for wStateSlave
    remoteuart.o(.ARM.exidx) refers to remoteuart.o(.text) for [Anonymous Symbol]
    commsmasterslave.o(.text) refers to gd32e23x_usart.o(.text) for usart_data_transmit
    commsmasterslave.o(.text) refers to commsmasterslave.o(.bss.beepsBackwardsMaster) for beepsBackwardsMaster
    commsmasterslave.o(.text) refers to setup.o(.bss.usart1_rx_buf) for usart1_rx_buf
    commsmasterslave.o(.text) refers to commsmasterslave.o(.data.iReceivePos) for [Anonymous Symbol]
    commsmasterslave.o(.text) refers to commsmasterslave.o(.bss.aReceiveBuffer) for [Anonymous Symbol]
    commsmasterslave.o(.text) refers to main.o(.bss.oDataSlave) for oDataSlave
    commsmasterslave.o(.text) refers to main.o(.data.wStateSlave) for wStateSlave
    commsmasterslave.o(.ARM.exidx) refers to commsmasterslave.o(.text) for [Anonymous Symbol]
    gd32e23x_adc.o(.text) refers to gd32e23x_rcu.o(.text) for rcu_periph_reset_enable
    gd32e23x_adc.o(.ARM.exidx) refers to gd32e23x_adc.o(.text) for [Anonymous Symbol]
    gd32e23x_dma.o(.ARM.exidx) refers to gd32e23x_dma.o(.text) for [Anonymous Symbol]
    gd32e23x_fmc.o(.ARM.exidx) refers to gd32e23x_fmc.o(.text) for [Anonymous Symbol]
    gd32e23x_fwdgt.o(.ARM.exidx) refers to gd32e23x_fwdgt.o(.text) for [Anonymous Symbol]
    gd32e23x_gpio.o(.text) refers to gd32e23x_rcu.o(.text) for rcu_periph_reset_enable
    gd32e23x_gpio.o(.text) refers to gd32e23x_gpio.o(.rodata..Lswitch.table.gpio_deinit.1) for [Anonymous Symbol]
    gd32e23x_gpio.o(.ARM.exidx) refers to gd32e23x_gpio.o(.text) for [Anonymous Symbol]
    gd32e23x_i2c.o(.text) refers to gd32e23x_rcu.o(.text) for rcu_periph_reset_enable
    gd32e23x_i2c.o(.ARM.exidx) refers to gd32e23x_i2c.o(.text) for [Anonymous Symbol]
    gd32e23x_misc.o(.ARM.exidx) refers to gd32e23x_misc.o(.text) for [Anonymous Symbol]
    gd32e23x_pmu.o(.text) refers to gd32e23x_rcu.o(.text) for rcu_periph_reset_enable
    gd32e23x_pmu.o(.text) refers to gd32e23x_pmu.o(.bss.pmu_to_deepsleepmode.reg_snap.0) for [Anonymous Symbol]
    gd32e23x_pmu.o(.text) refers to gd32e23x_pmu.o(.bss.pmu_to_deepsleepmode.reg_snap.1) for [Anonymous Symbol]
    gd32e23x_pmu.o(.text) refers to gd32e23x_pmu.o(.bss.pmu_to_deepsleepmode.reg_snap.2) for [Anonymous Symbol]
    gd32e23x_pmu.o(.ARM.exidx) refers to gd32e23x_pmu.o(.text) for [Anonymous Symbol]
    gd32e23x_rcu.o(.text) refers to gd32e23x_rcu.o(.rodata.cst8) for [Anonymous Symbol]
    gd32e23x_rcu.o(.ARM.exidx) refers to gd32e23x_rcu.o(.text) for [Anonymous Symbol]
    gd32e23x_syscfg.o(.text) refers to gd32e23x_rcu.o(.text) for rcu_periph_reset_enable
    gd32e23x_syscfg.o(.ARM.exidx) refers to gd32e23x_syscfg.o(.text) for [Anonymous Symbol]
    gd32e23x_timer.o(.text) refers to gd32e23x_rcu.o(.text) for rcu_periph_reset_enable
    gd32e23x_timer.o(.ARM.exidx) refers to gd32e23x_timer.o(.text) for [Anonymous Symbol]
    gd32e23x_usart.o(.text) refers to gd32e23x_rcu.o(.text) for rcu_periph_reset_enable
    gd32e23x_usart.o(.ARM.exidx) refers to gd32e23x_usart.o(.text) for [Anonymous Symbol]
    gd32e23x_wwdgt.o(.text) refers to gd32e23x_rcu.o(.text) for rcu_periph_reset_enable
    gd32e23x_wwdgt.o(.ARM.exidx) refers to gd32e23x_wwdgt.o(.text) for [Anonymous Symbol]
    startup_gd32e23x.o(STACK) refers (Special) to heapauxi.o(.text) for __use_two_region_memory
    startup_gd32e23x.o(HEAP) refers (Special) to heapauxi.o(.text) for __use_two_region_memory
    startup_gd32e23x.o(RESET) refers (Special) to heapauxi.o(.text) for __use_two_region_memory
    startup_gd32e23x.o(RESET) refers to startup_gd32e23x.o(STACK) for __initial_sp
    startup_gd32e23x.o(RESET) refers to startup_gd32e23x.o(.text) for Reset_Handler
    startup_gd32e23x.o(RESET) refers to it.o(.text) for NMI_Handler
    startup_gd32e23x.o(.text) refers (Special) to heapauxi.o(.text) for __use_two_region_memory
    startup_gd32e23x.o(.text) refers to system_gd32e23x.o(.text) for SystemInit
    startup_gd32e23x.o(.text) refers to __main.o(!!!main) for __main
    startup_gd32e23x.o(.text) refers to startup_gd32e23x.o(HEAP) for Heap_Mem
    startup_gd32e23x.o(.text) refers to startup_gd32e23x.o(STACK) for Stack_Mem
    system_gd32e23x.o(.text) refers to gd32e23x_misc.o(.text) for nvic_vector_table_set
    system_gd32e23x.o(.text) refers to system_gd32e23x.o(.data.SystemCoreClock) for SystemCoreClock
    system_gd32e23x.o(.ARM.exidx) refers to system_gd32e23x.o(.text) for [Anonymous Symbol]
    __main.o(!!!main) refers to __rtentry.o(.ARM.Collect$$rtentry$$00000000) for __rt_entry
    d2f.o(.text) refers (Special) to usenofp.o(x$fpl$usenofp) for __I$use$fp
    daddsub.o(.text) refers (Special) to usenofp.o(x$fpl$usenofp) for __I$use$fp
    dcmp.o(i._deq) refers (Special) to usenofp.o(x$fpl$usenofp) for __I$use$fp
    dcmp.o(i._deq) refers to deqf.o(x$fpl$deqf) for _dcmpeq
    dcmp.o(i._dgeq) refers (Special) to usenofp.o(x$fpl$usenofp) for __I$use$fp
    dcmp.o(i._dgeq) refers to dgef.o(x$fpl$dgeqf) for _dcmpge
    dcmp.o(i._dgr) refers (Special) to usenofp.o(x$fpl$usenofp) for __I$use$fp
    dcmp.o(i._dgr) refers to dgef.o(x$fpl$dgeqf) for _dcmpge
    dcmp.o(i._dleq) refers (Special) to usenofp.o(x$fpl$usenofp) for __I$use$fp
    dcmp.o(i._dleq) refers to dlef.o(x$fpl$dleqf) for _dcmple
    dcmp.o(i._dls) refers (Special) to usenofp.o(x$fpl$usenofp) for __I$use$fp
    dcmp.o(i._dls) refers to dlef.o(x$fpl$dleqf) for _dcmple
    dcmp.o(i._dneq) refers (Special) to usenofp.o(x$fpl$usenofp) for __I$use$fp
    dcmp.o(i._dneq) refers to deqf.o(x$fpl$deqf) for _dcmpeq
    ddiv.o(.text) refers (Special) to usenofp.o(x$fpl$usenofp) for __I$use$fp
    ddiv.o(.text) refers to ddiv.o(.constdata) for .constdata
    ddiv.o(.constdata) refers (Special) to usenofp.o(x$fpl$usenofp) for __I$use$fp
    dfixi.o(.text) refers (Special) to usenofp.o(x$fpl$usenofp) for __I$use$fp
    dflti.o(.text) refers (Special) to usenofp.o(x$fpl$usenofp) for __I$use$fp
    dmul.o(.text) refers (Special) to usenofp.o(x$fpl$usenofp) for __I$use$fp
    f2d.o(.text) refers (Special) to usenofp.o(x$fpl$usenofp) for __I$use$fp
    faddsub.o(x$fpl$fadd) refers (Special) to usenofp.o(x$fpl$usenofp) for __I$use$fp
    faddsub.o(x$fpl$fadd) refers to faddsub.o(x$fpl$fsub) for _fsub1
    faddsub.o(x$fpl$frsb) refers (Special) to usenofp.o(x$fpl$usenofp) for __I$use$fp
    faddsub.o(x$fpl$frsb) refers to faddsub.o(x$fpl$fsub) for _fsub1
    faddsub.o(x$fpl$frsb) refers to faddsub.o(x$fpl$fadd) for _fadd1
    faddsub.o(x$fpl$fsub) refers (Special) to usenofp.o(x$fpl$usenofp) for __I$use$fp
    faddsub.o(x$fpl$fsub) refers to faddsub.o(x$fpl$fadd) for _fadd1
    fcmp.o(i._feq) refers (Special) to usenofp.o(x$fpl$usenofp) for __I$use$fp
    fcmp.o(i._feq) refers to feqf.o(x$fpl$feqf) for _fcmpeq
    fcmp.o(i._fgeq) refers (Special) to usenofp.o(x$fpl$usenofp) for __I$use$fp
    fcmp.o(i._fgeq) refers to fgef.o(x$fpl$fgeqf) for _fcmpge
    fcmp.o(i._fgr) refers (Special) to usenofp.o(x$fpl$usenofp) for __I$use$fp
    fcmp.o(i._fgr) refers to fgef.o(x$fpl$fgeqf) for _fcmpge
    fcmp.o(i._fleq) refers (Special) to usenofp.o(x$fpl$usenofp) for __I$use$fp
    fcmp.o(i._fleq) refers to flef.o(x$fpl$fleqf) for _fcmple
    fcmp.o(i._fls) refers (Special) to usenofp.o(x$fpl$usenofp) for __I$use$fp
    fcmp.o(i._fls) refers to flef.o(x$fpl$fleqf) for _fcmple
    fcmp.o(i._fneq) refers (Special) to usenofp.o(x$fpl$usenofp) for __I$use$fp
    fcmp.o(i._fneq) refers to feqf.o(x$fpl$feqf) for _fcmpeq
    fdiv.o(.text) refers (Special) to usenofp.o(x$fpl$usenofp) for __I$use$fp
    fdiv.o(.text) refers to fdiv.o(.constdata) for .constdata
    fdiv.o(.constdata) refers (Special) to usenofp.o(x$fpl$usenofp) for __I$use$fp
    ffixi.o(.text) refers (Special) to usenofp.o(x$fpl$usenofp) for __I$use$fp
    fflti.o(.text) refers (Special) to usenofp.o(x$fpl$usenofp) for __I$use$fp
    fmul.o(x$fpl$fmul) refers (Special) to usenofp.o(x$fpl$usenofp) for __I$use$fp
    __rtentry.o(.ARM.Collect$$rtentry$$00000000) refers (Special) to __rtentry2.o(.ARM.Collect$$rtentry$$0000000A) for __rt_entry_li
    __rtentry.o(.ARM.Collect$$rtentry$$00000000) refers (Special) to __rtentry2.o(.ARM.Collect$$rtentry$$0000000D) for __rt_entry_main
    __rtentry.o(.ARM.Collect$$rtentry$$00000000) refers (Special) to __rtentry2.o(.ARM.Collect$$rtentry$$0000000C) for __rt_entry_postli_1
    __rtentry.o(.ARM.Collect$$rtentry$$00000000) refers (Special) to __rtentry2.o(.ARM.Collect$$rtentry$$00000009) for __rt_entry_postsh_1
    __rtentry.o(.ARM.Collect$$rtentry$$00000000) refers (Special) to __rtentry2.o(.ARM.Collect$$rtentry$$00000002) for __rt_entry_presh_1
    __rtentry.o(.ARM.Collect$$rtentry$$00000000) refers (Special) to __rtentry4.o(.ARM.Collect$$rtentry$$00000004) for __rt_entry_sh
    deqf.o(x$fpl$deqf) refers (Special) to usenofp.o(x$fpl$usenofp) for __I$use$fp
    deqf.o(x$fpl$deqf) refers to dcmpin.o(.text) for __fpl_dcmp_InfNaN
    dgef.o(x$fpl$dgeqf) refers (Special) to usenofp.o(x$fpl$usenofp) for __I$use$fp
    dgef.o(x$fpl$dgeqf) refers to dcmpin.o(.text) for __fpl_dcmp_InfNaN
    dlef.o(x$fpl$dleqf) refers (Special) to usenofp.o(x$fpl$usenofp) for __I$use$fp
    dlef.o(x$fpl$dleqf) refers to dcmpin.o(.text) for __fpl_dcmp_InfNaN
    feqf.o(x$fpl$feqf) refers (Special) to usenofp.o(x$fpl$usenofp) for __I$use$fp
    feqf.o(x$fpl$feqf) refers to fcmpin.o(.text) for __fpl_fcmp_InfNaN
    fgef.o(x$fpl$fgeqf) refers (Special) to usenofp.o(x$fpl$usenofp) for __I$use$fp
    fgef.o(x$fpl$fgeqf) refers to fcmpin.o(.text) for __fpl_fcmp_InfNaN
    flef.o(x$fpl$fleqf) refers (Special) to usenofp.o(x$fpl$usenofp) for __I$use$fp
    flef.o(x$fpl$fleqf) refers to fcmpin.o(.text) for __fpl_fcmp_InfNaN
    __rtentry2.o(.ARM.Collect$$rtentry$$00000008) refers to boardinit2.o(.text) for _platform_post_stackheap_init
    __rtentry2.o(.ARM.Collect$$rtentry$$0000000A) refers to libinit.o(.ARM.Collect$$libinit$$00000000) for __rt_lib_init
    __rtentry2.o(.ARM.Collect$$rtentry$$0000000B) refers to boardinit3.o(.text) for _platform_post_lib_init
    __rtentry2.o(.ARM.Collect$$rtentry$$0000000D) refers to main.o(.text) for main
    __rtentry2.o(.ARM.Collect$$rtentry$$0000000D) refers to exit.o(.text) for exit
    __rtentry2.o(.ARM.exidx) refers to __rtentry2.o(.ARM.Collect$$rtentry$$00000001) for .ARM.Collect$$rtentry$$00000001
    __rtentry2.o(.ARM.exidx) refers to __rtentry2.o(.ARM.Collect$$rtentry$$00000008) for .ARM.Collect$$rtentry$$00000008
    __rtentry2.o(.ARM.exidx) refers to __rtentry2.o(.ARM.Collect$$rtentry$$0000000A) for .ARM.Collect$$rtentry$$0000000A
    __rtentry2.o(.ARM.exidx) refers to __rtentry2.o(.ARM.Collect$$rtentry$$0000000B) for .ARM.Collect$$rtentry$$0000000B
    __rtentry2.o(.ARM.exidx) refers to __rtentry2.o(.ARM.Collect$$rtentry$$0000000D) for .ARM.Collect$$rtentry$$0000000D
    __rtentry4.o(.ARM.Collect$$rtentry$$00000004) refers to sys_stackheap_outer.o(.text) for __user_setup_stackheap
    __rtentry4.o(.ARM.exidx) refers to __rtentry4.o(.ARM.Collect$$rtentry$$00000004) for .ARM.Collect$$rtentry$$00000004
    dcmpin.o(.text) refers (Special) to usenofp.o(x$fpl$usenofp) for __I$use$fp
    dcmpin.o(.text) refers to cmpret.o(.text) for __fpl_cmpreturn
    dcmpin.o(.text) refers to dnan2.o(.text) for __fpl_dcheck_NaN2
    fcmpin.o(.text) refers (Special) to usenofp.o(x$fpl$usenofp) for __I$use$fp
    fcmpin.o(.text) refers to cmpret.o(.text) for __fpl_cmpreturn
    fcmpin.o(.text) refers to fnan2.o(.text) for __fpl_fcheck_NaN2
    sys_stackheap_outer.o(.text) refers to libspace.o(.text) for __user_perproc_libspace
    sys_stackheap_outer.o(.text) refers to startup_gd32e23x.o(.text) for __user_initial_stackheap
    sys_stackheap_outer.o(__vectab_stack_and_reset_area) refers to tempstk.o(.text) for __temporary_stack_top
    sys_stackheap_outer.o(__vectab_stack_and_reset_area) refers to __main.o(!!!main) for __main
    exit.o(.text) refers to rtexit.o(.ARM.Collect$$rtexit$$00000000) for __rt_exit
    libinit.o(.ARM.Collect$$libinit$$00000000) refers (Special) to libinit2.o(.ARM.Collect$$libinit$$00000030) for __rt_lib_init_alloca_1
    libinit.o(.ARM.Collect$$libinit$$00000000) refers (Special) to libinit2.o(.ARM.Collect$$libinit$$0000002E) for __rt_lib_init_argv_1
    libinit.o(.ARM.Collect$$libinit$$00000000) refers (Special) to libinit2.o(.ARM.Collect$$libinit$$0000001D) for __rt_lib_init_atexit_1
    libinit.o(.ARM.Collect$$libinit$$00000000) refers (Special) to libinit2.o(.ARM.Collect$$libinit$$00000023) for __rt_lib_init_clock_1
    libinit.o(.ARM.Collect$$libinit$$00000000) refers (Special) to libinit2.o(.ARM.Collect$$libinit$$00000034) for __rt_lib_init_cpp_1
    libinit.o(.ARM.Collect$$libinit$$00000000) refers (Special) to libinit2.o(.ARM.Collect$$libinit$$00000032) for __rt_lib_init_exceptions_1
    libinit.o(.ARM.Collect$$libinit$$00000000) refers (Special) to libinit2.o(.ARM.Collect$$libinit$$00000002) for __rt_lib_init_fp_1
    libinit.o(.ARM.Collect$$libinit$$00000000) refers (Special) to libinit2.o(.ARM.Collect$$libinit$$00000021) for __rt_lib_init_fp_trap_1
    libinit.o(.ARM.Collect$$libinit$$00000000) refers (Special) to libinit2.o(.ARM.Collect$$libinit$$00000025) for __rt_lib_init_getenv_1
    libinit.o(.ARM.Collect$$libinit$$00000000) refers (Special) to libinit2.o(.ARM.Collect$$libinit$$0000000C) for __rt_lib_init_heap_1
    libinit.o(.ARM.Collect$$libinit$$00000000) refers (Special) to libinit2.o(.ARM.Collect$$libinit$$00000013) for __rt_lib_init_lc_collate_1
    libinit.o(.ARM.Collect$$libinit$$00000000) refers (Special) to libinit2.o(.ARM.Collect$$libinit$$00000015) for __rt_lib_init_lc_ctype_1
    libinit.o(.ARM.Collect$$libinit$$00000000) refers (Special) to libinit2.o(.ARM.Collect$$libinit$$00000017) for __rt_lib_init_lc_monetary_1
    libinit.o(.ARM.Collect$$libinit$$00000000) refers (Special) to libinit2.o(.ARM.Collect$$libinit$$00000019) for __rt_lib_init_lc_numeric_1
    libinit.o(.ARM.Collect$$libinit$$00000000) refers (Special) to libinit2.o(.ARM.Collect$$libinit$$0000001B) for __rt_lib_init_lc_time_1
    libinit.o(.ARM.Collect$$libinit$$00000000) refers (Special) to libinit2.o(.ARM.Collect$$libinit$$00000006) for __rt_lib_init_preinit_1
    libinit.o(.ARM.Collect$$libinit$$00000000) refers (Special) to libinit2.o(.ARM.Collect$$libinit$$00000010) for __rt_lib_init_rand_1
    libinit.o(.ARM.Collect$$libinit$$00000000) refers (Special) to libinit2.o(.ARM.Collect$$libinit$$00000004) for __rt_lib_init_relocate_pie_1
    libinit.o(.ARM.Collect$$libinit$$00000000) refers (Special) to libinit2.o(.ARM.Collect$$libinit$$00000035) for __rt_lib_init_return
    libinit.o(.ARM.Collect$$libinit$$00000000) refers (Special) to libinit2.o(.ARM.Collect$$libinit$$0000001F) for __rt_lib_init_signal_1
    libinit.o(.ARM.Collect$$libinit$$00000000) refers (Special) to libinit2.o(.ARM.Collect$$libinit$$00000027) for __rt_lib_init_stdio_1
    libinit.o(.ARM.Collect$$libinit$$00000000) refers (Special) to libinit2.o(.ARM.Collect$$libinit$$0000000E) for __rt_lib_init_user_alloc_1
    cmpret.o(.text) refers (Special) to usenofp.o(x$fpl$usenofp) for __I$use$fp
    dnan2.o(.text) refers (Special) to usenofp.o(x$fpl$usenofp) for __I$use$fp
    dnan2.o(.text) refers to retnan.o(.text) for __fpl_return_NaN
    fnan2.o(.text) refers (Special) to usenofp.o(x$fpl$usenofp) for __I$use$fp
    fnan2.o(.text) refers to retnan.o(.text) for __fpl_return_NaN
    libspace.o(.text) refers to libspace.o(.bss) for __libspace_start
    rtexit.o(.ARM.Collect$$rtexit$$00000000) refers (Special) to rtexit2.o(.ARM.Collect$$rtexit$$00000004) for __rt_exit_exit
    rtexit.o(.ARM.Collect$$rtexit$$00000000) refers (Special) to rtexit2.o(.ARM.Collect$$rtexit$$00000003) for __rt_exit_ls
    rtexit.o(.ARM.Collect$$rtexit$$00000000) refers (Special) to rtexit2.o(.ARM.Collect$$rtexit$$00000002) for __rt_exit_prels_1
    rtexit.o(.ARM.exidx) refers (Special) to rtexit2.o(.ARM.Collect$$rtexit$$00000004) for __rt_exit_exit
    rtexit.o(.ARM.exidx) refers (Special) to rtexit2.o(.ARM.Collect$$rtexit$$00000003) for __rt_exit_ls
    rtexit.o(.ARM.exidx) refers (Special) to rtexit2.o(.ARM.Collect$$rtexit$$00000002) for __rt_exit_prels_1
    rtexit.o(.ARM.exidx) refers to rtexit.o(.ARM.Collect$$rtexit$$00000000) for .ARM.Collect$$rtexit$$00000000
    libinit2.o(.ARM.Collect$$libinit$$00000012) refers to libinit2.o(.ARM.Collect$$libinit$$00000011) for .ARM.Collect$$libinit$$00000011
    libinit2.o(.ARM.Collect$$libinit$$00000014) refers to libinit2.o(.ARM.Collect$$libinit$$00000011) for .ARM.Collect$$libinit$$00000011
    libinit2.o(.ARM.Collect$$libinit$$00000016) refers to libinit2.o(.ARM.Collect$$libinit$$00000011) for .ARM.Collect$$libinit$$00000011
    libinit2.o(.ARM.Collect$$libinit$$00000018) refers to libinit2.o(.ARM.Collect$$libinit$$00000011) for .ARM.Collect$$libinit$$00000011
    libinit2.o(.ARM.Collect$$libinit$$0000001A) refers to libinit2.o(.ARM.Collect$$libinit$$00000011) for .ARM.Collect$$libinit$$00000011
    libinit2.o(.ARM.Collect$$libinit$$00000028) refers to argv_veneer.o(.text) for __ARM_argv_veneer
    libinit2.o(.ARM.Collect$$libinit$$00000029) refers to argv_veneer.o(.text) for __ARM_argv_veneer
    retnan.o(.text) refers (Special) to usenofp.o(x$fpl$usenofp) for __I$use$fp
    retnan.o(.text) refers to cmpret.o(.text) for __fpl_cmpreturn
    rtexit2.o(.ARM.Collect$$rtexit$$00000003) refers to libshutdown.o(.ARM.Collect$$libshutdown$$00000000) for __rt_lib_shutdown
    rtexit2.o(.ARM.Collect$$rtexit$$00000004) refers to sys_exit.o(.text) for _sys_exit
    rtexit2.o(.ARM.exidx) refers to rtexit2.o(.ARM.Collect$$rtexit$$00000001) for .ARM.Collect$$rtexit$$00000001
    rtexit2.o(.ARM.exidx) refers to rtexit2.o(.ARM.Collect$$rtexit$$00000003) for .ARM.Collect$$rtexit$$00000003
    rtexit2.o(.ARM.exidx) refers to rtexit2.o(.ARM.Collect$$rtexit$$00000004) for .ARM.Collect$$rtexit$$00000004
    sys_exit.o(.text) refers (Special) to use_no_semi.o(.text) for __I$use$semihosting
    sys_exit.o(.text) refers (Special) to indicate_semi.o(.text) for __semihosting_library_function
    sys_exit_hlt.o(.text) refers (Special) to use_no_semi.o(.text) for __I$use$semihosting
    sys_exit_hlt.o(.text) refers (Special) to indicate_semi.o(.text) for __semihosting_library_function
    _get_argv_nomalloc.o(.text) refers (Special) to hrguard.o(.text) for __heap_region$guard
    _get_argv_nomalloc.o(.text) refers to defsig_rtmem_outer.o(.text) for __rt_SIGRTMEM
    _get_argv_nomalloc.o(.text) refers to sys_command.o(.text) for _sys_command_string
    libshutdown.o(.ARM.Collect$$libshutdown$$00000000) refers (Special) to libshutdown2.o(.ARM.Collect$$libshutdown$$00000002) for __rt_lib_shutdown_cpp_1
    libshutdown.o(.ARM.Collect$$libshutdown$$00000000) refers (Special) to libshutdown2.o(.ARM.Collect$$libshutdown$$00000007) for __rt_lib_shutdown_fp_trap_1
    libshutdown.o(.ARM.Collect$$libshutdown$$00000000) refers (Special) to libshutdown2.o(.ARM.Collect$$libshutdown$$0000000F) for __rt_lib_shutdown_heap_1
    libshutdown.o(.ARM.Collect$$libshutdown$$00000000) refers (Special) to libshutdown2.o(.ARM.Collect$$libshutdown$$00000010) for __rt_lib_shutdown_return
    libshutdown.o(.ARM.Collect$$libshutdown$$00000000) refers (Special) to libshutdown2.o(.ARM.Collect$$libshutdown$$0000000A) for __rt_lib_shutdown_signal_1
    libshutdown.o(.ARM.Collect$$libshutdown$$00000000) refers (Special) to libshutdown2.o(.ARM.Collect$$libshutdown$$00000004) for __rt_lib_shutdown_stdio_1
    libshutdown.o(.ARM.Collect$$libshutdown$$00000000) refers (Special) to libshutdown2.o(.ARM.Collect$$libshutdown$$0000000C) for __rt_lib_shutdown_user_alloc_1
    sys_command.o(.text) refers (Special) to use_no_semi.o(.text) for __I$use$semihosting
    sys_command.o(.text) refers (Special) to indicate_semi.o(.text) for __semihosting_library_function
    sys_command_hlt.o(.text) refers (Special) to use_no_semi.o(.text) for __I$use$semihosting
    sys_command_hlt.o(.text) refers (Special) to indicate_semi.o(.text) for __semihosting_library_function
    defsig_rtmem_outer.o(.text) refers to defsig_rtmem_inner.o(.text) for __rt_SIGRTMEM_inner
    defsig_rtmem_outer.o(.text) refers to defsig_exit.o(.text) for __sig_exit
    defsig_rtmem_formal.o(.text) refers to rt_raise.o(.text) for __rt_raise
    rt_raise.o(.text) refers to __raise.o(.text) for __raise
    rt_raise.o(.text) refers to sys_exit.o(.text) for _sys_exit
    defsig_exit.o(.text) refers to sys_exit.o(.text) for _sys_exit
    defsig_rtmem_inner.o(.text) refers to defsig_general.o(.text) for __default_signal_display
    __raise.o(.text) refers to defsig.o(CL$$defsig) for __default_signal_handler
    defsig_general.o(.text) refers to sys_wrch.o(.text) for _ttywrch
    sys_wrch.o(.text) refers (Special) to use_no_semi.o(.text) for __I$use$semihosting
    sys_wrch.o(.text) refers (Special) to indicate_semi.o(.text) for __semihosting_library_function
    sys_wrch_hlt.o(.text) refers (Special) to use_no_semi.o(.text) for __I$use$semihosting
    sys_wrch_hlt.o(.text) refers (Special) to indicate_semi.o(.text) for __semihosting_library_function
    defsig.o(CL$$defsig) refers to defsig_rtmem_inner.o(.text) for __rt_SIGRTMEM_inner
    defsig_abrt_inner.o(.text) refers to defsig_general.o(.text) for __default_signal_display
    defsig_fpe_inner.o(.text) refers to defsig_general.o(.text) for __default_signal_display
    defsig_rtred_inner.o(.text) refers to defsig_general.o(.text) for __default_signal_display
    defsig_stak_inner.o(.text) refers to defsig_general.o(.text) for __default_signal_display
    defsig_pvfn_inner.o(.text) refers to defsig_general.o(.text) for __default_signal_display
    defsig_cppl_inner.o(.text) refers to defsig_general.o(.text) for __default_signal_display
    defsig_segv_inner.o(.text) refers to defsig_general.o(.text) for __default_signal_display
    defsig_other.o(.text) refers to defsig_general.o(.text) for __default_signal_display


==============================================================================

Removing Unused input sections from the image.

    Removing main.o(.ARM.exidx), (32 bytes).
    Removing main.o(.bss.activateWeakening), (1 bytes).
    Removing main.o(.bss.slaveError), (1 bytes).
    Removing main.o(.ARM.use_no_argv), (4 bytes).
    Removing bldc.o(.ARM.exidx), (48 bytes).
    Removing bldc.o(.rodata.pwm_res), (2 bytes).
    Removing setup.o(.ARM.exidx), (64 bytes).
    Removing it.o(.ARM.exidx), (136 bytes).
    Removing it.o(.bss.iUartCounter), (2 bytes).
    Removing led.o(.text), (0 bytes).
    Removing remoteuart.o(.ARM.exidx), (16 bytes).
    Removing remoteuart.o(.bss.aiDebug), (14 bytes).
    Removing remotecrsf.o(.text), (0 bytes).
    Removing remotedummy.o(.text), (0 bytes).
    Removing remoteuartbus.o(.text), (0 bytes).
    Removing commsmasterslave.o(.ARM.exidx), (56 bytes).
    Removing commsmasterslave.o(.bss.mosfetOutMaster), (1 bytes).
    Removing remoteautodetect.o(.text), (0 bytes).
    Removing gd32e23x_adc.o(.ARM.exidx), (272 bytes).
    Removing gd32e23x_dma.o(.ARM.exidx), (216 bytes).
    Removing gd32e23x_fmc.o(.text), (2200 bytes).
    Removing gd32e23x_fmc.o(.ARM.exidx), (240 bytes).
    Removing gd32e23x_fwdgt.o(.ARM.exidx), (72 bytes).
    Removing gd32e23x_gpio.o(.ARM.exidx), (120 bytes).
    Removing gd32e23x_i2c.o(.text), (908 bytes).
    Removing gd32e23x_i2c.o(.ARM.exidx), (280 bytes).
    Removing gd32e23x_misc.o(.ARM.exidx), (56 bytes).
    Removing gd32e23x_pmu.o(.text), (456 bytes).
    Removing gd32e23x_pmu.o(.ARM.exidx), (104 bytes).
    Removing gd32e23x_pmu.o(.bss.pmu_to_deepsleepmode.reg_snap.0), (4 bytes).
    Removing gd32e23x_pmu.o(.bss.pmu_to_deepsleepmode.reg_snap.1), (4 bytes).
    Removing gd32e23x_pmu.o(.bss.pmu_to_deepsleepmode.reg_snap.2), (4 bytes).
    Removing gd32e23x_rcu.o(.ARM.exidx), (312 bytes).
    Removing gd32e23x_syscfg.o(.text), (276 bytes).
    Removing gd32e23x_syscfg.o(.ARM.exidx), (80 bytes).
    Removing gd32e23x_timer.o(.ARM.exidx), (584 bytes).
    Removing gd32e23x_usart.o(.ARM.exidx), (592 bytes).
    Removing gd32e23x_wwdgt.o(.text), (156 bytes).
    Removing gd32e23x_wwdgt.o(.ARM.exidx), (56 bytes).
    Removing system_gd32e23x.o(.ARM.exidx), (16 bytes).

40 unused section(s) (total 7385 bytes) removed from the image.

==============================================================================

Image Symbol Table

    Local Symbols

    Symbol Name                              Value     Ov Type        Size  Object(Section)

    ../clib/angel/boardlib.s                 0x00000000   Number         0  boardinit1.o ABSOLUTE
    ../clib/angel/boardlib.s                 0x00000000   Number         0  boardinit2.o ABSOLUTE
    ../clib/angel/boardlib.s                 0x00000000   Number         0  boardinit3.o ABSOLUTE
    ../clib/angel/boardlib.s                 0x00000000   Number         0  boardshut.o ABSOLUTE
    ../clib/angel/handlers.s                 0x00000000   Number         0  __scatter_copy.o ABSOLUTE
    ../clib/angel/handlers.s                 0x00000000   Number         0  __scatter_zi.o ABSOLUTE
    ../clib/angel/kernel.s                   0x00000000   Number         0  __rtentry.o ABSOLUTE
    ../clib/angel/kernel.s                   0x00000000   Number         0  __rtentry2.o ABSOLUTE
    ../clib/angel/kernel.s                   0x00000000   Number         0  __rtentry4.o ABSOLUTE
    ../clib/angel/kernel.s                   0x00000000   Number         0  rtexit.o ABSOLUTE
    ../clib/angel/kernel.s                   0x00000000   Number         0  rtexit2.o ABSOLUTE
    ../clib/angel/rt.s                       0x00000000   Number         0  rt_raise.o ABSOLUTE
    ../clib/angel/scatterp.s                 0x00000000   Number         0  __scatter.o ABSOLUTE
    ../clib/angel/startup.s                  0x00000000   Number         0  __main.o ABSOLUTE
    ../clib/angel/sys.s                      0x00000000   Number         0  sys_stackheap_outer.o ABSOLUTE
    ../clib/angel/sys.s                      0x00000000   Number         0  libspace.o ABSOLUTE
    ../clib/angel/sys.s                      0x00000000   Number         0  tempstk.o ABSOLUTE
    ../clib/angel/sys.s                      0x00000000   Number         0  use_no_semi.o ABSOLUTE
    ../clib/angel/sys.s                      0x00000000   Number         0  indicate_semi.o ABSOLUTE
    ../clib/angel/sysapp.c                   0x00000000   Number         0  sys_exit.o ABSOLUTE
    ../clib/angel/sysapp.c                   0x00000000   Number         0  sys_exit_hlt.o ABSOLUTE
    ../clib/angel/sysapp.c                   0x00000000   Number         0  sys_command.o ABSOLUTE
    ../clib/angel/sysapp.c                   0x00000000   Number         0  sys_command_hlt.o ABSOLUTE
    ../clib/angel/sysapp.c                   0x00000000   Number         0  sys_wrch.o ABSOLUTE
    ../clib/angel/sysapp.c                   0x00000000   Number         0  sys_wrch_hlt.o ABSOLUTE
    ../clib/armsys.c                         0x00000000   Number         0  argv_veneer.o ABSOLUTE
    ../clib/armsys.c                         0x00000000   Number         0  _get_argv_nomalloc.o ABSOLUTE
    ../clib/armsys.c                         0x00000000   Number         0  no_argv.o ABSOLUTE
    ../clib/heapalloc.c                      0x00000000   Number         0  hrguard.o ABSOLUTE
    ../clib/heapaux.c                        0x00000000   Number         0  heapauxi.o ABSOLUTE
    ../clib/libinit.s                        0x00000000   Number         0  libinit.o ABSOLUTE
    ../clib/libinit.s                        0x00000000   Number         0  libinit2.o ABSOLUTE
    ../clib/libinit.s                        0x00000000   Number         0  libshutdown.o ABSOLUTE
    ../clib/libinit.s                        0x00000000   Number         0  libshutdown2.o ABSOLUTE
    ../clib/signal.c                         0x00000000   Number         0  defsig_rtmem_outer.o ABSOLUTE
    ../clib/signal.c                         0x00000000   Number         0  defsig_rtmem_formal.o ABSOLUTE
    ../clib/signal.c                         0x00000000   Number         0  defsig_exit.o ABSOLUTE
    ../clib/signal.c                         0x00000000   Number         0  defsig_rtmem_inner.o ABSOLUTE
    ../clib/signal.c                         0x00000000   Number         0  __raise.o ABSOLUTE
    ../clib/signal.c                         0x00000000   Number         0  defsig_general.o ABSOLUTE
    ../clib/signal.c                         0x00000000   Number         0  defsig_abrt_inner.o ABSOLUTE
    ../clib/signal.c                         0x00000000   Number         0  defsig_fpe_inner.o ABSOLUTE
    ../clib/signal.c                         0x00000000   Number         0  defsig_rtred_inner.o ABSOLUTE
    ../clib/signal.c                         0x00000000   Number         0  defsig_stak_inner.o ABSOLUTE
    ../clib/signal.c                         0x00000000   Number         0  defsig_pvfn_inner.o ABSOLUTE
    ../clib/signal.c                         0x00000000   Number         0  defsig_cppl_inner.o ABSOLUTE
    ../clib/signal.c                         0x00000000   Number         0  defsig_segv_inner.o ABSOLUTE
    ../clib/signal.c                         0x00000000   Number         0  defsig_other.o ABSOLUTE
    ../clib/signal.s                         0x00000000   Number         0  defsig.o ABSOLUTE
    ../clib/stdlib.c                         0x00000000   Number         0  exit.o ABSOLUTE
    ../fplib/cfplib/cmp.c                    0x00000000   Number         0  dcmp.o ABSOLUTE
    ../fplib/cfplib/cmp.c                    0x00000000   Number         0  fcmp.o ABSOLUTE
    ../fplib/cfplib/cmpret.c                 0x00000000   Number         0  cmpret.o ABSOLUTE
    ../fplib/cfplib/d2f.c                    0x00000000   Number         0  d2f.o ABSOLUTE
    ../fplib/cfplib/daddsub.c                0x00000000   Number         0  daddsub.o ABSOLUTE
    ../fplib/cfplib/dcmpin.c                 0x00000000   Number         0  dcmpin.o ABSOLUTE
    ../fplib/cfplib/ddiv.c                   0x00000000   Number         0  ddiv.o ABSOLUTE
    ../fplib/cfplib/dmul.c                   0x00000000   Number         0  dmul.o ABSOLUTE
    ../fplib/cfplib/f2d.c                    0x00000000   Number         0  f2d.o ABSOLUTE
    ../fplib/cfplib/fcmpin.c                 0x00000000   Number         0  fcmpin.o ABSOLUTE
    ../fplib/cfplib/fdiv.c                   0x00000000   Number         0  fdiv.o ABSOLUTE
    ../fplib/cfplib/ffix.c                   0x00000000   Number         0  dfixi.o ABSOLUTE
    ../fplib/cfplib/ffix.c                   0x00000000   Number         0  ffixi.o ABSOLUTE
    ../fplib/cfplib/fflt.c                   0x00000000   Number         0  dflti.o ABSOLUTE
    ../fplib/cfplib/fflt.c                   0x00000000   Number         0  fflti.o ABSOLUTE
    ../fplib/cfplib/fpinit.c                 0x00000000   Number         0  fpinit.o ABSOLUTE
    ../fplib/cfplib/nan2.c                   0x00000000   Number         0  dnan2.o ABSOLUTE
    ../fplib/cfplib/nan2.c                   0x00000000   Number         0  fnan2.o ABSOLUTE
    ../fplib/cfplib/retnan.c                 0x00000000   Number         0  retnan.o ABSOLUTE
    ../fplib/deqf6m.s                        0x00000000   Number         0  deqf.o ABSOLUTE
    ../fplib/dgeqf6m.s                       0x00000000   Number         0  dgef.o ABSOLUTE
    ../fplib/dleqf6m.s                       0x00000000   Number         0  dlef.o ABSOLUTE
    ../fplib/faddsub6m.s                     0x00000000   Number         0  faddsub.o ABSOLUTE
    ../fplib/feqf6m.s                        0x00000000   Number         0  feqf.o ABSOLUTE
    ../fplib/fgeqf6m.s                       0x00000000   Number         0  fgef.o ABSOLUTE
    ../fplib/fleqf6m.s                       0x00000000   Number         0  flef.o ABSOLUTE
    ../fplib/fmul6m.s                        0x00000000   Number         0  fmul.o ABSOLUTE
    ../fplib/usenofp.s                       0x00000000   Number         0  usenofp.o ABSOLUTE
    RTE/Device/GD32E230C8/startup_gd32e23x.s 0x00000000   Number         0  startup_gd32e23x.o ABSOLUTE
    RemoteAutodetect.c                       0x00000000   Number         0  remoteautodetect.o ABSOLUTE
    bldc.c                                   0x00000000   Number         0  bldc.o ABSOLUTE
    commsMasterSlave.c                       0x00000000   Number         0  commsmasterslave.o ABSOLUTE
    dc.s                                     0x00000000   Number         0  dc.o ABSOLUTE
    gd32e23x_adc.c                           0x00000000   Number         0  gd32e23x_adc.o ABSOLUTE
    gd32e23x_dma.c                           0x00000000   Number         0  gd32e23x_dma.o ABSOLUTE
    gd32e23x_fmc.c                           0x00000000   Number         0  gd32e23x_fmc.o ABSOLUTE
    gd32e23x_fwdgt.c                         0x00000000   Number         0  gd32e23x_fwdgt.o ABSOLUTE
    gd32e23x_gpio.c                          0x00000000   Number         0  gd32e23x_gpio.o ABSOLUTE
    gd32e23x_i2c.c                           0x00000000   Number         0  gd32e23x_i2c.o ABSOLUTE
    gd32e23x_misc.c                          0x00000000   Number         0  gd32e23x_misc.o ABSOLUTE
    gd32e23x_pmu.c                           0x00000000   Number         0  gd32e23x_pmu.o ABSOLUTE
    gd32e23x_rcu.c                           0x00000000   Number         0  gd32e23x_rcu.o ABSOLUTE
    gd32e23x_syscfg.c                        0x00000000   Number         0  gd32e23x_syscfg.o ABSOLUTE
    gd32e23x_timer.c                         0x00000000   Number         0  gd32e23x_timer.o ABSOLUTE
    gd32e23x_usart.c                         0x00000000   Number         0  gd32e23x_usart.o ABSOLUTE
    gd32e23x_wwdgt.c                         0x00000000   Number         0  gd32e23x_wwdgt.o ABSOLUTE
    it.c                                     0x00000000   Number         0  it.o ABSOLUTE
    led.c                                    0x00000000   Number         0  led.o ABSOLUTE
    main.c                                   0x00000000   Number         0  main.o ABSOLUTE
    remoteCrsf.c                             0x00000000   Number         0  remotecrsf.o ABSOLUTE
    remoteDummy.c                            0x00000000   Number         0  remotedummy.o ABSOLUTE
    remoteUart.c                             0x00000000   Number         0  remoteuart.o ABSOLUTE
    remoteUartBus.c                          0x00000000   Number         0  remoteuartbus.o ABSOLUTE
    setup.c                                  0x00000000   Number         0  setup.o ABSOLUTE
    system_gd32e23x.c                        0x00000000   Number         0  system_gd32e23x.o ABSOLUTE
    RESET                                    0x08000000   Section      204  startup_gd32e23x.o(RESET)
    !!!main                                  0x080000cc   Section        8  __main.o(!!!main)
    !!!scatter                               0x080000d4   Section       60  __scatter.o(!!!scatter)
    !!handler_copy                           0x08000110   Section       26  __scatter_copy.o(!!handler_copy)
    !!handler_zi                             0x0800012c   Section       28  __scatter_zi.o(!!handler_zi)
    .ARM.Collect$$libinit$$00000000          0x08000148   Section        2  libinit.o(.ARM.Collect$$libinit$$00000000)
    .ARM.Collect$$libinit$$00000002          0x0800014a   Section        0  libinit2.o(.ARM.Collect$$libinit$$00000002)
    .ARM.Collect$$libinit$$00000004          0x0800014a   Section        0  libinit2.o(.ARM.Collect$$libinit$$00000004)
    .ARM.Collect$$libinit$$00000006          0x0800014a   Section        0  libinit2.o(.ARM.Collect$$libinit$$00000006)
    .ARM.Collect$$libinit$$0000000C          0x0800014a   Section        0  libinit2.o(.ARM.Collect$$libinit$$0000000C)
    .ARM.Collect$$libinit$$0000000E          0x0800014a   Section        0  libinit2.o(.ARM.Collect$$libinit$$0000000E)
    .ARM.Collect$$libinit$$00000010          0x0800014a   Section        0  libinit2.o(.ARM.Collect$$libinit$$00000010)
    .ARM.Collect$$libinit$$00000013          0x0800014a   Section        0  libinit2.o(.ARM.Collect$$libinit$$00000013)
    .ARM.Collect$$libinit$$00000015          0x0800014a   Section        0  libinit2.o(.ARM.Collect$$libinit$$00000015)
    .ARM.Collect$$libinit$$00000017          0x0800014a   Section        0  libinit2.o(.ARM.Collect$$libinit$$00000017)
    .ARM.Collect$$libinit$$00000019          0x0800014a   Section        0  libinit2.o(.ARM.Collect$$libinit$$00000019)
    .ARM.Collect$$libinit$$0000001B          0x0800014a   Section        0  libinit2.o(.ARM.Collect$$libinit$$0000001B)
    .ARM.Collect$$libinit$$0000001D          0x0800014a   Section        0  libinit2.o(.ARM.Collect$$libinit$$0000001D)
    .ARM.Collect$$libinit$$0000001F          0x0800014a   Section        0  libinit2.o(.ARM.Collect$$libinit$$0000001F)
    .ARM.Collect$$libinit$$00000021          0x0800014a   Section        0  libinit2.o(.ARM.Collect$$libinit$$00000021)
    .ARM.Collect$$libinit$$00000023          0x0800014a   Section        0  libinit2.o(.ARM.Collect$$libinit$$00000023)
    .ARM.Collect$$libinit$$00000025          0x0800014a   Section        0  libinit2.o(.ARM.Collect$$libinit$$00000025)
    .ARM.Collect$$libinit$$00000027          0x0800014a   Section        0  libinit2.o(.ARM.Collect$$libinit$$00000027)
    .ARM.Collect$$libinit$$0000002E          0x0800014a   Section        0  libinit2.o(.ARM.Collect$$libinit$$0000002E)
    .ARM.Collect$$libinit$$00000030          0x0800014a   Section        0  libinit2.o(.ARM.Collect$$libinit$$00000030)
    .ARM.Collect$$libinit$$00000032          0x0800014a   Section        0  libinit2.o(.ARM.Collect$$libinit$$00000032)
    .ARM.Collect$$libinit$$00000034          0x0800014a   Section        0  libinit2.o(.ARM.Collect$$libinit$$00000034)
    .ARM.Collect$$libinit$$00000035          0x0800014a   Section        2  libinit2.o(.ARM.Collect$$libinit$$00000035)
    .ARM.Collect$$libshutdown$$00000000      0x0800014c   Section        2  libshutdown.o(.ARM.Collect$$libshutdown$$00000000)
    .ARM.Collect$$libshutdown$$00000002      0x0800014e   Section        0  libshutdown2.o(.ARM.Collect$$libshutdown$$00000002)
    .ARM.Collect$$libshutdown$$00000004      0x0800014e   Section        0  libshutdown2.o(.ARM.Collect$$libshutdown$$00000004)
    .ARM.Collect$$libshutdown$$00000007      0x0800014e   Section        0  libshutdown2.o(.ARM.Collect$$libshutdown$$00000007)
    .ARM.Collect$$libshutdown$$0000000A      0x0800014e   Section        0  libshutdown2.o(.ARM.Collect$$libshutdown$$0000000A)
    .ARM.Collect$$libshutdown$$0000000C      0x0800014e   Section        0  libshutdown2.o(.ARM.Collect$$libshutdown$$0000000C)
    .ARM.Collect$$libshutdown$$0000000F      0x0800014e   Section        0  libshutdown2.o(.ARM.Collect$$libshutdown$$0000000F)
    .ARM.Collect$$libshutdown$$00000010      0x0800014e   Section        2  libshutdown2.o(.ARM.Collect$$libshutdown$$00000010)
    .ARM.Collect$$rtentry$$00000000          0x08000150   Section        0  __rtentry.o(.ARM.Collect$$rtentry$$00000000)
    .ARM.Collect$$rtentry$$00000002          0x08000150   Section        0  __rtentry2.o(.ARM.Collect$$rtentry$$00000002)
    .ARM.Collect$$rtentry$$00000004          0x08000150   Section        6  __rtentry4.o(.ARM.Collect$$rtentry$$00000004)
    .ARM.Collect$$rtentry$$00000009          0x08000156   Section        0  __rtentry2.o(.ARM.Collect$$rtentry$$00000009)
    .ARM.Collect$$rtentry$$0000000A          0x08000156   Section        4  __rtentry2.o(.ARM.Collect$$rtentry$$0000000A)
    .ARM.Collect$$rtentry$$0000000C          0x0800015a   Section        0  __rtentry2.o(.ARM.Collect$$rtentry$$0000000C)
    .ARM.Collect$$rtentry$$0000000D          0x0800015a   Section        8  __rtentry2.o(.ARM.Collect$$rtentry$$0000000D)
    .ARM.Collect$$rtexit$$00000000           0x08000162   Section        2  rtexit.o(.ARM.Collect$$rtexit$$00000000)
    .ARM.Collect$$rtexit$$00000002           0x08000164   Section        0  rtexit2.o(.ARM.Collect$$rtexit$$00000002)
    .ARM.Collect$$rtexit$$00000003           0x08000164   Section        4  rtexit2.o(.ARM.Collect$$rtexit$$00000003)
    .ARM.Collect$$rtexit$$00000004           0x08000168   Section        6  rtexit2.o(.ARM.Collect$$rtexit$$00000004)
    [Anonymous Symbol]                       0x08000170   Section        0  main.o(.text)
    __arm_cp.0_0                             0x08000524   Number         4  main.o(.text)
    __arm_cp.0_1                             0x08000528   Number         4  main.o(.text)
    __arm_cp.0_2                             0x0800052c   Number         4  main.o(.text)
    __arm_cp.0_3                             0x08000530   Number         4  main.o(.text)
    __arm_cp.0_4                             0x08000534   Number         4  main.o(.text)
    __arm_cp.0_5                             0x08000538   Number         4  main.o(.text)
    __arm_cp.0_6                             0x0800053c   Number         4  main.o(.text)
    __arm_cp.0_7                             0x08000540   Number         4  main.o(.text)
    __arm_cp.0_8                             0x08000544   Number         4  main.o(.text)
    __arm_cp.0_9                             0x08000548   Number         4  main.o(.text)
    __arm_cp.0_10                            0x0800054c   Number         4  main.o(.text)
    __arm_cp.0_11                            0x08000550   Number         4  main.o(.text)
    __arm_cp.0_12                            0x08000554   Number         4  main.o(.text)
    __arm_cp.0_13                            0x08000558   Number         4  main.o(.text)
    __arm_cp.0_14                            0x0800055c   Number         4  main.o(.text)
    __arm_cp.0_15                            0x08000560   Number         4  main.o(.text)
    __arm_cp.0_16                            0x08000564   Number         4  main.o(.text)
    __arm_cp.0_17                            0x08000568   Number         4  main.o(.text)
    __arm_cp.0_18                            0x0800056c   Number         4  main.o(.text)
    __arm_cp.0_19                            0x08000570   Number         4  main.o(.text)
    __arm_cp.0_20                            0x08000574   Number         4  main.o(.text)
    __arm_cp.0_21                            0x08000578   Number         4  main.o(.text)
    __arm_cp.0_22                            0x0800057c   Number         4  main.o(.text)
    __arm_cp.0_23                            0x08000580   Number         4  main.o(.text)
    __arm_cp.0_24                            0x08000584   Number         4  main.o(.text)
    __arm_cp.0_25                            0x08000588   Number         4  main.o(.text)
    __arm_cp.0_26                            0x0800058c   Number         4  main.o(.text)
    __arm_cp.0_27                            0x08000590   Number         4  main.o(.text)
    __arm_cp.0_28                            0x08000594   Number         4  main.o(.text)
    __arm_cp.0_29                            0x08000598   Number         4  main.o(.text)
    __arm_cp.0_30                            0x0800059c   Number         4  main.o(.text)
    __arm_cp.0_31                            0x080005a0   Number         4  main.o(.text)
    __arm_cp.0_32                            0x080005a4   Number         4  main.o(.text)
    __arm_cp.0_33                            0x080005a8   Number         4  main.o(.text)
    __arm_cp.0_34                            0x080005ac   Number         4  main.o(.text)
    __arm_cp.3_0                             0x080005e4   Number         4  main.o(.text)
    __arm_cp.3_1                             0x080005e8   Number         4  main.o(.text)
    __arm_cp.3_2                             0x080005ec   Number         4  main.o(.text)
    [Anonymous Symbol]                       0x080005f0   Section        0  bldc.o(.text)
    __arm_cp.1_0                             0x08000628   Number         4  bldc.o(.text)
    __arm_cp.3_0                             0x080006a4   Number         4  bldc.o(.text)
    __arm_cp.4_0                             0x08000708   Number         4  bldc.o(.text)
    __arm_cp.4_1                             0x0800070c   Number         4  bldc.o(.text)
    __arm_cp.4_2                             0x08000710   Number         4  bldc.o(.text)
    __arm_cp.4_3                             0x08000714   Number         4  bldc.o(.text)
    __arm_cp.5_0                             0x080009a4   Number         4  bldc.o(.text)
    __arm_cp.5_1                             0x080009a8   Number         4  bldc.o(.text)
    __arm_cp.5_2                             0x080009ac   Number         4  bldc.o(.text)
    __arm_cp.5_3                             0x080009b0   Number         4  bldc.o(.text)
    __arm_cp.5_4                             0x080009b4   Number         4  bldc.o(.text)
    __arm_cp.5_5                             0x080009b8   Number         4  bldc.o(.text)
    __arm_cp.5_6                             0x080009bc   Number         4  bldc.o(.text)
    __arm_cp.5_7                             0x080009c0   Number         4  bldc.o(.text)
    __arm_cp.5_8                             0x080009c4   Number         4  bldc.o(.text)
    __arm_cp.5_9                             0x080009c8   Number         4  bldc.o(.text)
    __arm_cp.5_10                            0x080009cc   Number         4  bldc.o(.text)
    __arm_cp.5_11                            0x080009d0   Number         4  bldc.o(.text)
    __arm_cp.5_12                            0x080009d4   Number         4  bldc.o(.text)
    __arm_cp.5_13                            0x080009d8   Number         4  bldc.o(.text)
    __arm_cp.5_14                            0x080009dc   Number         4  bldc.o(.text)
    __arm_cp.5_15                            0x080009e0   Number         4  bldc.o(.text)
    __arm_cp.5_16                            0x080009e4   Number         4  bldc.o(.text)
    __arm_cp.5_17                            0x080009e8   Number         4  bldc.o(.text)
    __arm_cp.5_18                            0x080009ec   Number         4  bldc.o(.text)
    __arm_cp.5_19                            0x080009f0   Number         4  bldc.o(.text)
    __arm_cp.5_20                            0x080009f4   Number         4  bldc.o(.text)
    __arm_cp.5_21                            0x080009f8   Number         4  bldc.o(.text)
    __arm_cp.5_22                            0x080009fc   Number         4  bldc.o(.text)
    __arm_cp.5_23                            0x08000a00   Number         4  bldc.o(.text)
    __arm_cp.5_24                            0x08000a04   Number         4  bldc.o(.text)
    __arm_cp.5_25                            0x08000a08   Number         4  bldc.o(.text)
    __arm_cp.5_26                            0x08000a0c   Number         4  bldc.o(.text)
    __arm_cp.5_27                            0x08000a10   Number         4  bldc.o(.text)
    __arm_cp.5_28                            0x08000a14   Number         4  bldc.o(.text)
    __arm_cp.5_29                            0x08000a18   Number         4  bldc.o(.text)
    __arm_cp.5_30                            0x08000a1c   Number         4  bldc.o(.text)
    __arm_cp.5_31                            0x08000a20   Number         4  bldc.o(.text)
    __arm_cp.5_32                            0x08000a24   Number         4  bldc.o(.text)
    __arm_cp.5_33                            0x08000a28   Number         4  bldc.o(.text)
    __arm_cp.5_34                            0x08000a2c   Number         4  bldc.o(.text)
    __arm_cp.5_35                            0x08000a30   Number         4  bldc.o(.text)
    __arm_cp.5_36                            0x08000a34   Number         4  bldc.o(.text)
    __arm_cp.5_37                            0x08000a38   Number         4  bldc.o(.text)
    __arm_cp.5_38                            0x08000a3c   Number         4  bldc.o(.text)
    [Anonymous Symbol]                       0x08000a40   Section        0  setup.o(.text)
    __arm_cp.1_0                             0x08000a78   Number         4  setup.o(.text)
    __arm_cp.1_1                             0x08000a7c   Number         4  setup.o(.text)
    __arm_cp.2_0                             0x08000ad4   Number         4  setup.o(.text)
    __arm_cp.2_1                             0x08000ad8   Number         4  setup.o(.text)
    __arm_cp.2_2                             0x08000adc   Number         4  setup.o(.text)
    __arm_cp.3_0                             0x08000d8c   Number         4  setup.o(.text)
    __arm_cp.3_1                             0x08000d90   Number         4  setup.o(.text)
    __arm_cp.3_2                             0x08000d94   Number         4  setup.o(.text)
    __arm_cp.3_3                             0x08000d98   Number         4  setup.o(.text)
    __arm_cp.4_0                             0x08000f04   Number         4  setup.o(.text)
    __arm_cp.4_1                             0x08000f08   Number         4  setup.o(.text)
    __arm_cp.4_2                             0x08000f0c   Number         4  setup.o(.text)
    __arm_cp.4_3                             0x08000f10   Number         4  setup.o(.text)
    __arm_cp.4_4                             0x08000f14   Number         4  setup.o(.text)
    __arm_cp.4_5                             0x08000f18   Number         4  setup.o(.text)
    __arm_cp.5_0                             0x08000ff0   Number         4  setup.o(.text)
    __arm_cp.5_1                             0x08000ff4   Number         4  setup.o(.text)
    __arm_cp.5_2                             0x08000ff8   Number         4  setup.o(.text)
    __arm_cp.5_3                             0x08000ffc   Number         4  setup.o(.text)
    __arm_cp.6_0                             0x08001118   Number         4  setup.o(.text)
    __arm_cp.6_1                             0x0800111c   Number         4  setup.o(.text)
    __arm_cp.6_2                             0x08001120   Number         4  setup.o(.text)
    __arm_cp.6_3                             0x08001124   Number         4  setup.o(.text)
    __arm_cp.7_0                             0x08001238   Number         4  setup.o(.text)
    __arm_cp.7_1                             0x0800123c   Number         4  setup.o(.text)
    __arm_cp.7_3                             0x08001240   Number         4  setup.o(.text)
    [Anonymous Symbol]                       0x08001244   Section        0  it.o(.text)
    __arm_cp.0_0                             0x08001250   Number         4  it.o(.text)
    __arm_cp.1_0                             0x0800125c   Number         4  it.o(.text)
    __arm_cp.2_0                             0x08001298   Number         4  it.o(.text)
    __arm_cp.2_1                             0x0800129c   Number         4  it.o(.text)
    __arm_cp.2_2                             0x080012a0   Number         4  it.o(.text)
    __arm_cp.2_3                             0x080012a4   Number         4  it.o(.text)
    __arm_cp.2_4                             0x080012a8   Number         4  it.o(.text)
    __arm_cp.2_5                             0x080012ac   Number         4  it.o(.text)
    __arm_cp.2_6                             0x080012b0   Number         4  it.o(.text)
    __arm_cp.3_0                             0x080012cc   Number         4  it.o(.text)
    __arm_cp.7_0                             0x08001338   Number         4  it.o(.text)
    __arm_cp.8_0                             0x08001350   Number         4  it.o(.text)
    [Anonymous Symbol]                       0x08001364   Section        0  remoteuart.o(.text)
    __arm_cp.0_0                             0x08001410   Number         4  remoteuart.o(.text)
    __arm_cp.0_1                             0x08001414   Number         4  remoteuart.o(.text)
    __arm_cp.0_2                             0x08001418   Number         4  remoteuart.o(.text)
    __arm_cp.0_3                             0x0800141c   Number         4  remoteuart.o(.text)
    __arm_cp.0_4                             0x08001420   Number         4  remoteuart.o(.text)
    __arm_cp.0_5                             0x08001424   Number         4  remoteuart.o(.text)
    __arm_cp.0_6                             0x08001428   Number         4  remoteuart.o(.text)
    __arm_cp.0_7                             0x0800142c   Number         4  remoteuart.o(.text)
    __arm_cp.0_8                             0x08001430   Number         4  remoteuart.o(.text)
    __arm_cp.0_9                             0x08001434   Number         4  remoteuart.o(.text)
    __arm_cp.0_10                            0x08001438   Number         4  remoteuart.o(.text)
    __arm_cp.0_11                            0x0800143c   Number         4  remoteuart.o(.text)
    __arm_cp.1_0                             0x080014bc   Number         4  remoteuart.o(.text)
    __arm_cp.1_1                             0x080014c0   Number         4  remoteuart.o(.text)
    __arm_cp.1_2                             0x080014c4   Number         4  remoteuart.o(.text)
    __arm_cp.1_4                             0x080014c8   Number         4  remoteuart.o(.text)
    __arm_cp.1_5                             0x080014cc   Number         4  remoteuart.o(.text)
    __arm_cp.1_7                             0x080014d0   Number         4  remoteuart.o(.text)
    __arm_cp.1_8                             0x080014d4   Number         4  remoteuart.o(.text)
    [Anonymous Symbol]                       0x080014d8   Section        0  commsmasterslave.o(.text)
    __arm_cp.0_0                             0x08001508   Number         4  commsmasterslave.o(.text)
    __arm_cp.1_0                             0x08001548   Number         4  commsmasterslave.o(.text)
    __arm_cp.2_0                             0x08001554   Number         4  commsmasterslave.o(.text)
    __arm_cp.3_0                             0x08001560   Number         4  commsmasterslave.o(.text)
    __arm_cp.4_0                             0x0800161c   Number         4  commsmasterslave.o(.text)
    __arm_cp.4_1                             0x08001620   Number         4  commsmasterslave.o(.text)
    __arm_cp.4_2                             0x08001624   Number         4  commsmasterslave.o(.text)
    __arm_cp.4_3                             0x08001628   Number         4  commsmasterslave.o(.text)
    __arm_cp.4_4                             0x0800162c   Number         4  commsmasterslave.o(.text)
    __arm_cp.4_5                             0x08001630   Number         4  commsmasterslave.o(.text)
    __arm_cp.5_0                             0x08001680   Number         4  commsmasterslave.o(.text)
    __arm_cp.6_0                             0x0800170c   Number         4  commsmasterslave.o(.text)
    __arm_cp.6_1                             0x08001710   Number         4  commsmasterslave.o(.text)
    __arm_cp.6_2                             0x08001714   Number         4  commsmasterslave.o(.text)
    __arm_cp.6_3                             0x08001718   Number         4  commsmasterslave.o(.text)
    __arm_cp.6_4                             0x0800171c   Number         4  commsmasterslave.o(.text)
    [Anonymous Symbol]                       0x08001720   Section        0  gd32e23x_adc.o(.text)
    __arm_cp.0_0                             0x08001738   Number         4  gd32e23x_adc.o(.text)
    __arm_cp.1_0                             0x08001750   Number         4  gd32e23x_adc.o(.text)
    __arm_cp.2_0                             0x08001760   Number         4  gd32e23x_adc.o(.text)
    __arm_cp.3_0                             0x08001784   Number         4  gd32e23x_adc.o(.text)
    __arm_cp.4_0                             0x08001798   Number         4  gd32e23x_adc.o(.text)
    __arm_cp.5_0                             0x080017ac   Number         4  gd32e23x_adc.o(.text)
    __arm_cp.6_0                             0x080017c0   Number         4  gd32e23x_adc.o(.text)
    __arm_cp.7_0                             0x080017d4   Number         4  gd32e23x_adc.o(.text)
    __arm_cp.8_0                             0x08001818   Number         4  gd32e23x_adc.o(.text)
    __arm_cp.9_0                             0x0800188c   Number         4  gd32e23x_adc.o(.text)
    __arm_cp.10_0                            0x080018a8   Number         4  gd32e23x_adc.o(.text)
    __arm_cp.11_0                            0x080018e8   Number         4  gd32e23x_adc.o(.text)
    __arm_cp.12_0                            0x08001974   Number         4  gd32e23x_adc.o(.text)
    __arm_cp.13_0                            0x080019d4   Number         4  gd32e23x_adc.o(.text)
    __arm_cp.14_0                            0x080019f4   Number         4  gd32e23x_adc.o(.text)
    __arm_cp.14_1                            0x080019f8   Number         4  gd32e23x_adc.o(.text)
    __arm_cp.15_0                            0x08001a3c   Number         4  gd32e23x_adc.o(.text)
    __arm_cp.16_0                            0x08001a60   Number         4  gd32e23x_adc.o(.text)
    __arm_cp.16_1                            0x08001a64   Number         4  gd32e23x_adc.o(.text)
    __arm_cp.16_2                            0x08001a68   Number         4  gd32e23x_adc.o(.text)
    __arm_cp.17_0                            0x08001a94   Number         4  gd32e23x_adc.o(.text)
    __arm_cp.18_0                            0x08001aa0   Number         4  gd32e23x_adc.o(.text)
    __arm_cp.19_0                            0x08001ae8   Number         4  gd32e23x_adc.o(.text)
    __arm_cp.20_0                            0x08001af8   Number         4  gd32e23x_adc.o(.text)
    __arm_cp.21_0                            0x08001b08   Number         4  gd32e23x_adc.o(.text)
    __arm_cp.22_0                            0x08001b3c   Number         4  gd32e23x_adc.o(.text)
    __arm_cp.23_0                            0x08001b4c   Number         4  gd32e23x_adc.o(.text)
    __arm_cp.24_0                            0x08001b84   Number         4  gd32e23x_adc.o(.text)
    __arm_cp.25_0                            0x08001bbc   Number         4  gd32e23x_adc.o(.text)
    __arm_cp.26_0                            0x08001bdc   Number         4  gd32e23x_adc.o(.text)
    __arm_cp.26_1                            0x08001be0   Number         4  gd32e23x_adc.o(.text)
    __arm_cp.26_2                            0x08001be4   Number         4  gd32e23x_adc.o(.text)
    __arm_cp.27_0                            0x08001c0c   Number         4  gd32e23x_adc.o(.text)
    __arm_cp.27_1                            0x08001c10   Number         4  gd32e23x_adc.o(.text)
    __arm_cp.28_0                            0x08001c2c   Number         4  gd32e23x_adc.o(.text)
    __arm_cp.28_1                            0x08001c30   Number         4  gd32e23x_adc.o(.text)
    __arm_cp.29_0                            0x08001c44   Number         4  gd32e23x_adc.o(.text)
    __arm_cp.29_1                            0x08001c48   Number         4  gd32e23x_adc.o(.text)
    __arm_cp.30_0                            0x08001c60   Number         4  gd32e23x_adc.o(.text)
    __arm_cp.31_0                            0x08001c8c   Number         4  gd32e23x_adc.o(.text)
    __arm_cp.31_1                            0x08001c90   Number         4  gd32e23x_adc.o(.text)
    __arm_cp.32_0                            0x08001ca0   Number         4  gd32e23x_adc.o(.text)
    __arm_cp.33_0                            0x08001cb0   Number         4  gd32e23x_adc.o(.text)
    [Anonymous Symbol]                       0x08001cb4   Section        0  gd32e23x_dma.o(.text)
    __arm_cp.0_0                             0x08001ce0   Number         4  gd32e23x_dma.o(.text)
    __arm_cp.2_0                             0x08001d68   Number         4  gd32e23x_dma.o(.text)
    __arm_cp.3_0                             0x08001d7c   Number         4  gd32e23x_dma.o(.text)
    __arm_cp.4_0                             0x08001d90   Number         4  gd32e23x_dma.o(.text)
    __arm_cp.5_0                             0x08001da4   Number         4  gd32e23x_dma.o(.text)
    __arm_cp.6_0                             0x08001dbc   Number         4  gd32e23x_dma.o(.text)
    __arm_cp.7_0                             0x08001dd4   Number         4  gd32e23x_dma.o(.text)
    __arm_cp.8_0                             0x08001de8   Number         4  gd32e23x_dma.o(.text)
    __arm_cp.9_0                             0x08001df8   Number         4  gd32e23x_dma.o(.text)
    __arm_cp.10_0                            0x08001e08   Number         4  gd32e23x_dma.o(.text)
    __arm_cp.11_0                            0x08001e18   Number         4  gd32e23x_dma.o(.text)
    __arm_cp.12_0                            0x08001e28   Number         4  gd32e23x_dma.o(.text)
    __arm_cp.13_0                            0x08001e44   Number         4  gd32e23x_dma.o(.text)
    __arm_cp.14_0                            0x08001e60   Number         4  gd32e23x_dma.o(.text)
    __arm_cp.15_0                            0x08001e7c   Number         4  gd32e23x_dma.o(.text)
    __arm_cp.16_0                            0x08001e90   Number         4  gd32e23x_dma.o(.text)
    __arm_cp.17_0                            0x08001ea4   Number         4  gd32e23x_dma.o(.text)
    __arm_cp.18_0                            0x08001eb8   Number         4  gd32e23x_dma.o(.text)
    __arm_cp.19_0                            0x08001ecc   Number         4  gd32e23x_dma.o(.text)
    __arm_cp.20_0                            0x08001eec   Number         4  gd32e23x_dma.o(.text)
    __arm_cp.21_0                            0x08001f00   Number         4  gd32e23x_dma.o(.text)
    __arm_cp.22_0                            0x08001f14   Number         4  gd32e23x_dma.o(.text)
    __arm_cp.23_0                            0x08001f50   Number         4  gd32e23x_dma.o(.text)
    __arm_cp.24_0                            0x08001f64   Number         4  gd32e23x_dma.o(.text)
    __arm_cp.25_0                            0x08001f78   Number         4  gd32e23x_dma.o(.text)
    __arm_cp.26_0                            0x08001f8c   Number         4  gd32e23x_dma.o(.text)
    [Anonymous Symbol]                       0x08001f90   Section        0  gd32e23x_fwdgt.o(.text)
    __arm_cp.0_0                             0x08001f98   Number         4  gd32e23x_fwdgt.o(.text)
    __arm_cp.0_1                             0x08001f9c   Number         4  gd32e23x_fwdgt.o(.text)
    __arm_cp.1_0                             0x08001fa8   Number         4  gd32e23x_fwdgt.o(.text)
    __arm_cp.2_0                             0x08001fb4   Number         4  gd32e23x_fwdgt.o(.text)
    __arm_cp.2_1                             0x08001fb8   Number         4  gd32e23x_fwdgt.o(.text)
    __arm_cp.3_0                             0x08001fe0   Number         4  gd32e23x_fwdgt.o(.text)
    __arm_cp.3_1                             0x08001fe4   Number         4  gd32e23x_fwdgt.o(.text)
    __arm_cp.3_2                             0x08001fe8   Number         4  gd32e23x_fwdgt.o(.text)
    __arm_cp.4_0                             0x08002014   Number         4  gd32e23x_fwdgt.o(.text)
    __arm_cp.4_1                             0x08002018   Number         4  gd32e23x_fwdgt.o(.text)
    __arm_cp.4_2                             0x0800201c   Number         4  gd32e23x_fwdgt.o(.text)
    __arm_cp.4_3                             0x08002020   Number         4  gd32e23x_fwdgt.o(.text)
    __arm_cp.5_0                             0x0800204c   Number         4  gd32e23x_fwdgt.o(.text)
    __arm_cp.5_1                             0x08002050   Number         4  gd32e23x_fwdgt.o(.text)
    __arm_cp.5_2                             0x08002054   Number         4  gd32e23x_fwdgt.o(.text)
    __arm_cp.5_3                             0x08002058   Number         4  gd32e23x_fwdgt.o(.text)
    __arm_cp.6_0                             0x08002064   Number         4  gd32e23x_fwdgt.o(.text)
    __arm_cp.6_1                             0x08002068   Number         4  gd32e23x_fwdgt.o(.text)
    __arm_cp.7_0                             0x080020ac   Number         4  gd32e23x_fwdgt.o(.text)
    __arm_cp.7_1                             0x080020b0   Number         4  gd32e23x_fwdgt.o(.text)
    __arm_cp.7_2                             0x080020b4   Number         4  gd32e23x_fwdgt.o(.text)
    __arm_cp.7_3                             0x080020b8   Number         4  gd32e23x_fwdgt.o(.text)
    __arm_cp.7_4                             0x080020bc   Number         4  gd32e23x_fwdgt.o(.text)
    __arm_cp.8_0                             0x080020cc   Number         4  gd32e23x_fwdgt.o(.text)
    [Anonymous Symbol]                       0x080020d0   Section        0  gd32e23x_gpio.o(.text)
    __arm_cp.0_0                             0x08002104   Number         4  gd32e23x_gpio.o(.text)
    __arm_cp.14_0                            0x08002248   Number         4  gd32e23x_gpio.o(.text)
    [Anonymous Symbol]                       0x0800224c   Section        0  gd32e23x_misc.o(.text)
    __arm_cp.0_0                             0x08002294   Number         4  gd32e23x_misc.o(.text)
    __arm_cp.0_1                             0x08002298   Number         4  gd32e23x_misc.o(.text)
    __arm_cp.0_2                             0x0800229c   Number         4  gd32e23x_misc.o(.text)
    __arm_cp.1_0                             0x080022c0   Number         4  gd32e23x_misc.o(.text)
    __arm_cp.2_0                             0x080022d8   Number         4  gd32e23x_misc.o(.text)
    __arm_cp.2_1                             0x080022dc   Number         4  gd32e23x_misc.o(.text)
    __arm_cp.3_0                             0x080022ec   Number         4  gd32e23x_misc.o(.text)
    __arm_cp.3_1                             0x080022f0   Number         4  gd32e23x_misc.o(.text)
    __arm_cp.4_0                             0x08002300   Number         4  gd32e23x_misc.o(.text)
    __arm_cp.5_0                             0x08002310   Number         4  gd32e23x_misc.o(.text)
    __arm_cp.6_0                             0x0800232c   Number         4  gd32e23x_misc.o(.text)
    [Anonymous Symbol]                       0x08002330   Section        0  gd32e23x_rcu.o(.text)
    __arm_cp.0_0                             0x08002394   Number         4  gd32e23x_rcu.o(.text)
    __arm_cp.0_1                             0x08002398   Number         4  gd32e23x_rcu.o(.text)
    __arm_cp.0_2                             0x0800239c   Number         4  gd32e23x_rcu.o(.text)
    __arm_cp.0_3                             0x080023a0   Number         4  gd32e23x_rcu.o(.text)
    __arm_cp.1_0                             0x080023b8   Number         4  gd32e23x_rcu.o(.text)
    __arm_cp.2_0                             0x080023d0   Number         4  gd32e23x_rcu.o(.text)
    __arm_cp.3_0                             0x080023e8   Number         4  gd32e23x_rcu.o(.text)
    __arm_cp.4_0                             0x08002400   Number         4  gd32e23x_rcu.o(.text)
    __arm_cp.5_0                             0x08002418   Number         4  gd32e23x_rcu.o(.text)
    __arm_cp.6_0                             0x08002430   Number         4  gd32e23x_rcu.o(.text)
    __arm_cp.7_0                             0x08002444   Number         4  gd32e23x_rcu.o(.text)
    __arm_cp.8_0                             0x08002458   Number         4  gd32e23x_rcu.o(.text)
    __arm_cp.9_0                             0x0800246c   Number         4  gd32e23x_rcu.o(.text)
    __arm_cp.10_0                            0x0800247c   Number         4  gd32e23x_rcu.o(.text)
    __arm_cp.11_0                            0x08002490   Number         4  gd32e23x_rcu.o(.text)
    __arm_cp.12_0                            0x080024a4   Number         4  gd32e23x_rcu.o(.text)
    __arm_cp.13_0                            0x080024b8   Number         4  gd32e23x_rcu.o(.text)
    __arm_cp.14_0                            0x08002584   Number         4  gd32e23x_rcu.o(.text)
    __arm_cp.14_1                            0x08002588   Number         4  gd32e23x_rcu.o(.text)
    __arm_cp.15_0                            0x080025a0   Number         4  gd32e23x_rcu.o(.text)
    __arm_cp.16_0                            0x080025bc   Number         4  gd32e23x_rcu.o(.text)
    __arm_cp.16_1                            0x080025c0   Number         4  gd32e23x_rcu.o(.text)
    __arm_cp.17_0                            0x080025d8   Number         4  gd32e23x_rcu.o(.text)
    __arm_cp.18_0                            0x080025f0   Number         4  gd32e23x_rcu.o(.text)
    __arm_cp.19_0                            0x08002604   Number         4  gd32e23x_rcu.o(.text)
    __arm_cp.20_0                            0x0800261c   Number         4  gd32e23x_rcu.o(.text)
    __arm_cp.21_0                            0x08002634   Number         4  gd32e23x_rcu.o(.text)
    __arm_cp.22_0                            0x08002648   Number         4  gd32e23x_rcu.o(.text)
    __arm_cp.23_0                            0x08002660   Number         4  gd32e23x_rcu.o(.text)
    __arm_cp.24_0                            0x08002678   Number         4  gd32e23x_rcu.o(.text)
    __arm_cp.25_0                            0x08002690   Number         4  gd32e23x_rcu.o(.text)
    __arm_cp.26_0                            0x080026a8   Number         4  gd32e23x_rcu.o(.text)
    __arm_cp.27_0                            0x08002784   Number         4  gd32e23x_rcu.o(.text)
    __arm_cp.27_1                            0x08002788   Number         4  gd32e23x_rcu.o(.text)
    __arm_cp.27_2                            0x0800278c   Number         4  gd32e23x_rcu.o(.text)
    __arm_cp.27_3                            0x08002790   Number         4  gd32e23x_rcu.o(.text)
    __arm_cp.27_4                            0x08002794   Number         4  gd32e23x_rcu.o(.text)
    __arm_cp.28_0                            0x080027ac   Number         4  gd32e23x_rcu.o(.text)
    __arm_cp.29_0                            0x080027c4   Number         4  gd32e23x_rcu.o(.text)
    __arm_cp.30_0                            0x08002800   Number         4  gd32e23x_rcu.o(.text)
    __arm_cp.31_0                            0x0800283c   Number         4  gd32e23x_rcu.o(.text)
    __arm_cp.32_0                            0x08002850   Number         4  gd32e23x_rcu.o(.text)
    __arm_cp.33_0                            0x08002864   Number         4  gd32e23x_rcu.o(.text)
    __arm_cp.34_0                            0x08002878   Number         4  gd32e23x_rcu.o(.text)
    __arm_cp.35_0                            0x0800288c   Number         4  gd32e23x_rcu.o(.text)
    __arm_cp.36_0                            0x080028a4   Number         4  gd32e23x_rcu.o(.text)
    __arm_cp.36_1                            0x080028a8   Number         4  gd32e23x_rcu.o(.text)
    __arm_cp.37_0                            0x080028c0   Number         4  gd32e23x_rcu.o(.text)
    __arm_cp.38_0                            0x080029c8   Number         4  gd32e23x_rcu.o(.text)
    __arm_cp.38_1                            0x080029cc   Number         4  gd32e23x_rcu.o(.text)
    __arm_cp.38_2                            0x080029d0   Number         4  gd32e23x_rcu.o(.text)
    __arm_cp.38_4                            0x080029e4   Number         4  gd32e23x_rcu.o(.text)
    __arm_cp.38_5                            0x080029e8   Number         4  gd32e23x_rcu.o(.text)
    __arm_cp.38_6                            0x080029ec   Number         4  gd32e23x_rcu.o(.text)
    [Anonymous Symbol]                       0x080029f0   Section        0  gd32e23x_timer.o(.text)
    __arm_cp.0_0                             0x08002a54   Number         4  gd32e23x_timer.o(.text)
    __arm_cp.0_1                             0x08002a58   Number         4  gd32e23x_timer.o(.text)
    __arm_cp.0_2                             0x08002a5c   Number         4  gd32e23x_timer.o(.text)
    __arm_cp.0_3                             0x08002a60   Number         4  gd32e23x_timer.o(.text)
    __arm_cp.0_4                             0x08002a64   Number         4  gd32e23x_timer.o(.text)
    __arm_cp.0_5                             0x08002a68   Number         4  gd32e23x_timer.o(.text)
    __arm_cp.0_6                             0x08002a6c   Number         4  gd32e23x_timer.o(.text)
    __arm_cp.0_7                             0x08002a70   Number         4  gd32e23x_timer.o(.text)
    __arm_cp.0_8                             0x08002a74   Number         4  gd32e23x_timer.o(.text)
    __arm_cp.0_9                             0x08002a78   Number         4  gd32e23x_timer.o(.text)
    __arm_cp.1_0                             0x08002a8c   Number         4  gd32e23x_timer.o(.text)
    __arm_cp.2_0                             0x08002b20   Number         4  gd32e23x_timer.o(.text)
    __arm_cp.2_1                             0x08002b24   Number         4  gd32e23x_timer.o(.text)
    __arm_cp.2_2                             0x08002b28   Number         4  gd32e23x_timer.o(.text)
    __arm_cp.2_3                             0x08002b2c   Number         4  gd32e23x_timer.o(.text)
    __arm_cp.2_4                             0x08002b30   Number         4  gd32e23x_timer.o(.text)
    __arm_cp.2_5                             0x08002b34   Number         4  gd32e23x_timer.o(.text)
    __arm_cp.2_6                             0x08002b38   Number         4  gd32e23x_timer.o(.text)
    __arm_cp.2_7                             0x08002b3c   Number         4  gd32e23x_timer.o(.text)
    __arm_cp.30_0                            0x08002c90   Number         4  gd32e23x_timer.o(.text)
    __arm_cp.42_0                            0x08002f60   Number         4  gd32e23x_timer.o(.text)
    __arm_cp.42_1                            0x08002f64   Number         4  gd32e23x_timer.o(.text)
    __arm_cp.42_2                            0x08002f68   Number         4  gd32e23x_timer.o(.text)
    __arm_cp.42_3                            0x08002f6c   Number         4  gd32e23x_timer.o(.text)
    __arm_cp.42_4                            0x08002f70   Number         4  gd32e23x_timer.o(.text)
    __arm_cp.53_0                            0x080033dc   Number         4  gd32e23x_timer.o(.text)
    __arm_cp.56_0                            0x080035a4   Number         4  gd32e23x_timer.o(.text)
    __arm_cp.56_1                            0x080035a8   Number         4  gd32e23x_timer.o(.text)
    __arm_cp.56_2                            0x080035ac   Number         4  gd32e23x_timer.o(.text)
    __arm_cp.63_0                            0x08003674   Number         4  gd32e23x_timer.o(.text)
    [Anonymous Symbol]                       0x080037d4   Section        0  gd32e23x_usart.o(.text)
    __arm_cp.0_0                             0x080037fc   Number         4  gd32e23x_usart.o(.text)
    __arm_cp.0_1                             0x08003800   Number         4  gd32e23x_usart.o(.text)
    __arm_cp.0_2                             0x08003804   Number         4  gd32e23x_usart.o(.text)
    __arm_cp.0_3                             0x08003808   Number         4  gd32e23x_usart.o(.text)
    __arm_cp.1_0                             0x08003858   Number         4  gd32e23x_usart.o(.text)
    __arm_cp.1_1                             0x0800385c   Number         4  gd32e23x_usart.o(.text)
    __arm_cp.1_2                             0x08003860   Number         4  gd32e23x_usart.o(.text)
    __arm_cp.18_0                            0x08003a00   Number         4  gd32e23x_usart.o(.text)
    __arm_cp.19_0                            0x08003a0c   Number         4  gd32e23x_usart.o(.text)
    __arm_cp.73_0                            0x08003e68   Number         4  gd32e23x_usart.o(.text)
    .text                                    0x08003e6c   Section       56  startup_gd32e23x.o(.text)
    [Anonymous Symbol]                       0x08003ea4   Section        0  system_gd32e23x.o(.text)
    __arm_cp.0_0                             0x08003f74   Number         4  system_gd32e23x.o(.text)
    __arm_cp.0_1                             0x08003f78   Number         4  system_gd32e23x.o(.text)
    __arm_cp.0_2                             0x08003f7c   Number         4  system_gd32e23x.o(.text)
    __arm_cp.0_3                             0x08003f80   Number         4  system_gd32e23x.o(.text)
    __arm_cp.0_4                             0x08003f84   Number         4  system_gd32e23x.o(.text)
    __arm_cp.0_5                             0x08003f88   Number         4  system_gd32e23x.o(.text)
    __arm_cp.0_6                             0x08003f8c   Number         4  system_gd32e23x.o(.text)
    __arm_cp.0_7                             0x08003f90   Number         4  system_gd32e23x.o(.text)
    __arm_cp.1_0                             0x08003ff4   Number         4  system_gd32e23x.o(.text)
    __arm_cp.1_1                             0x08003ff8   Number         4  system_gd32e23x.o(.text)
    __arm_cp.1_2                             0x08003ffc   Number         4  system_gd32e23x.o(.text)
    __arm_cp.1_3                             0x08004000   Number         4  system_gd32e23x.o(.text)
    .text                                    0x08004014   Section        0  heapauxi.o(.text)
    .text                                    0x0800401c   Section        0  d2f.o(.text)
    _dadd1                                   0x08004099   Thumb Code   290  daddsub.o(.text)
    .text                                    0x08004098   Section        0  daddsub.o(.text)
    _dsub1                                   0x080041bb   Thumb Code   470  daddsub.o(.text)
    .text                                    0x080043f0   Section        0  ddiv.o(.text)
    .text                                    0x08004838   Section        0  dfixi.o(.text)
    .text                                    0x080048a4   Section        0  dflti.o(.text)
    .text                                    0x080048fc   Section        0  dmul.o(.text)
    .text                                    0x08004b44   Section        0  f2d.o(.text)
    .text                                    0x08004b98   Section        0  fdiv.o(.text)
    .text                                    0x08004cf8   Section        0  ffixi.o(.text)
    .text                                    0x08004d44   Section        0  fflti.o(.text)
    .text                                    0x08004da4   Section        0  dcmpin.o(.text)
    .text                                    0x08004e44   Section        0  fcmpin.o(.text)
    .text                                    0x08004ea8   Section       62  sys_stackheap_outer.o(.text)
    .text                                    0x08004ee6   Section        0  exit.o(.text)
    .text                                    0x08004ef6   Section        0  cmpret.o(.text)
    .text                                    0x08004f24   Section        0  dnan2.o(.text)
    .text                                    0x08004f38   Section        0  fnan2.o(.text)
    .text                                    0x08004f48   Section        8  libspace.o(.text)
    .text                                    0x08004f50   Section        0  retnan.o(.text)
    .text                                    0x08004fb0   Section        0  sys_exit.o(.text)
    .text                                    0x08004fbc   Section        2  use_no_semi.o(.text)
    .text                                    0x08004fbe   Section        0  indicate_semi.o(.text)
    i._dleq                                  0x08004fbe   Section        0  dcmp.o(i._dleq)
    i._dls                                   0x08004fd8   Section        0  dcmp.o(i._dls)
    i._fgr                                   0x08004fee   Section        0  fcmp.o(i._fgr)
    i._fls                                   0x08005004   Section        0  fcmp.o(i._fls)
    x$fpl$dleqf                              0x0800501c   Section      100  dlef.o(x$fpl$dleqf)
    x$fpl$fadd                               0x08005080   Section      140  faddsub.o(x$fpl$fadd)
    _fadd1                                   0x0800508d   Thumb Code     0  faddsub.o(x$fpl$fadd)
    x$fpl$fgeqf                              0x0800510c   Section       84  fgef.o(x$fpl$fgeqf)
    x$fpl$fleqf                              0x08005160   Section       84  flef.o(x$fpl$fleqf)
    x$fpl$fmul                               0x080051b4   Section      176  fmul.o(x$fpl$fmul)
    x$fpl$fsub                               0x08005264   Section      208  faddsub.o(x$fpl$fsub)
    _fsub1                                   0x08005271   Thumb Code     0  faddsub.o(x$fpl$fsub)
    ddiv_reciptbl                            0x08005334   Data         128  ddiv.o(.constdata)
    .constdata                               0x08005334   Section      128  ddiv.o(.constdata)
    x$fpl$usenofp                            0x08005334   Section        0  usenofp.o(x$fpl$usenofp)
    fdiv_tab                                 0x080053b4   Data          64  fdiv.o(.constdata)
    .constdata                               0x080053b4   Section       64  fdiv.o(.constdata)
    [Anonymous Symbol]                       0x080053f4   Section        0  bldc.o(.rodata..L__const.up_or_down.up_down)
    [Anonymous Symbol]                       0x08005400   Section        0  gd32e23x_gpio.o(.rodata..Lswitch.table.gpio_deinit.1)
    [Anonymous Symbol]                       0x0800540c   Section        0  gd32e23x_rcu.o(.rodata.cst8)
    iReceivePos                              0x20000010   Data           2  commsmasterslave.o(.data.iReceivePos)
    [Anonymous Symbol]                       0x20000010   Section        0  commsmasterslave.o(.data.iReceivePos)
    .bss                                     0x20000018   Section       96  libspace.o(.bss)
    aReceiveBuffer                           0x20000078   Data           9  remoteuart.o(.bss.aReceiveBuffer)
    [Anonymous Symbol]                       0x20000078   Section        0  remoteuart.o(.bss.aReceiveBuffer)
    aReceiveBuffer                           0x20000081   Data          16  commsmasterslave.o(.bss.aReceiveBuffer)
    [Anonymous Symbol]                       0x20000081   Section        0  commsmasterslave.o(.bss.aReceiveBuffer)
    iReceivePos                              0x200000e8   Data           2  remoteuart.o(.bss.iReceivePos)
    [Anonymous Symbol]                       0x200000e8   Section        0  remoteuart.o(.bss.iReceivePos)
    Heap_Mem                                 0x20000178   Data        1024  startup_gd32e23x.o(HEAP)
    HEAP                                     0x20000178   Section     1024  startup_gd32e23x.o(HEAP)
    Stack_Mem                                0x20000578   Data        1024  startup_gd32e23x.o(STACK)
    STACK                                    0x20000578   Section     1024  startup_gd32e23x.o(STACK)
    __initial_sp                             0x20000978   Data           0  startup_gd32e23x.o(STACK)

    Global Symbols

    Symbol Name                              Value     Ov Type        Size  Object(Section)

    BuildAttributes$$THM_ISAv3M$S$8M$PE$A:L22$X:L11$S22$IEEE1$IW$~IW$USESV6$~STKCKD$USESV7$~SHL$OTIME$ROPI$EBA8$UX$STANDARDLIB$REQ8$PRES8$EABIv2 0x00000000   Number         0  anon$$obj.o ABSOLUTE
    __ARM_exceptions_init                     - Undefined Weak Reference
    __alloca_initialize                       - Undefined Weak Reference
    __arm_preinit_                            - Undefined Weak Reference
    __arm_relocate_pie_                       - Undefined Weak Reference
    __cpp_initialize__aeabi_                  - Undefined Weak Reference
    __cxa_finalize                            - Undefined Weak Reference
    __rt_locale                               - Undefined Weak Reference
    __sigvec_lookup                           - Undefined Weak Reference
    _atexit_init                              - Undefined Weak Reference
    _call_atexit_fns                          - Undefined Weak Reference
    _clock_init                               - Undefined Weak Reference
    _fp_trap_init                             - Undefined Weak Reference
    _fp_trap_shutdown                         - Undefined Weak Reference
    _get_lc_collate                           - Undefined Weak Reference
    _get_lc_ctype                             - Undefined Weak Reference
    _get_lc_monetary                          - Undefined Weak Reference
    _get_lc_numeric                           - Undefined Weak Reference
    _get_lc_time                              - Undefined Weak Reference
    _getenv_init                              - Undefined Weak Reference
    _handle_redirection                       - Undefined Weak Reference
    _init_alloc                               - Undefined Weak Reference
    _init_user_alloc                          - Undefined Weak Reference
    _initio                                   - Undefined Weak Reference
    _rand_init                                - Undefined Weak Reference
    _signal_finish                            - Undefined Weak Reference
    _signal_init                              - Undefined Weak Reference
    _terminate_alloc                          - Undefined Weak Reference
    _terminate_user_alloc                     - Undefined Weak Reference
    _terminateio                              - Undefined Weak Reference
    __Vectors_Size                           0x000000cc   Number         0  startup_gd32e23x.o ABSOLUTE
    __Vectors                                0x08000000   Data           4  startup_gd32e23x.o(RESET)
    __Vectors_End                            0x080000cc   Data           0  startup_gd32e23x.o(RESET)
    __main                                   0x080000cd   Thumb Code     8  __main.o(!!!main)
    __scatterload                            0x080000d5   Thumb Code     0  __scatter.o(!!!scatter)
    __scatterload_rt2                        0x080000d5   Thumb Code    52  __scatter.o(!!!scatter)
    __scatterload_rt2_thumb_only             0x080000d5   Thumb Code     0  __scatter.o(!!!scatter)
    __scatterload_null                       0x080000e5   Thumb Code     0  __scatter.o(!!!scatter)
    __scatterload_copy                       0x08000111   Thumb Code    26  __scatter_copy.o(!!handler_copy)
    __scatterload_zeroinit                   0x0800012d   Thumb Code    28  __scatter_zi.o(!!handler_zi)
    __rt_lib_init                            0x08000149   Thumb Code     0  libinit.o(.ARM.Collect$$libinit$$00000000)
    __rt_lib_init_alloca_1                   0x0800014b   Thumb Code     0  libinit2.o(.ARM.Collect$$libinit$$00000030)
    __rt_lib_init_argv_1                     0x0800014b   Thumb Code     0  libinit2.o(.ARM.Collect$$libinit$$0000002E)
    __rt_lib_init_atexit_1                   0x0800014b   Thumb Code     0  libinit2.o(.ARM.Collect$$libinit$$0000001D)
    __rt_lib_init_clock_1                    0x0800014b   Thumb Code     0  libinit2.o(.ARM.Collect$$libinit$$00000023)
    __rt_lib_init_cpp_1                      0x0800014b   Thumb Code     0  libinit2.o(.ARM.Collect$$libinit$$00000034)
    __rt_lib_init_exceptions_1               0x0800014b   Thumb Code     0  libinit2.o(.ARM.Collect$$libinit$$00000032)
    __rt_lib_init_fp_1                       0x0800014b   Thumb Code     0  libinit2.o(.ARM.Collect$$libinit$$00000002)
    __rt_lib_init_fp_trap_1                  0x0800014b   Thumb Code     0  libinit2.o(.ARM.Collect$$libinit$$00000021)
    __rt_lib_init_getenv_1                   0x0800014b   Thumb Code     0  libinit2.o(.ARM.Collect$$libinit$$00000025)
    __rt_lib_init_heap_1                     0x0800014b   Thumb Code     0  libinit2.o(.ARM.Collect$$libinit$$0000000C)
    __rt_lib_init_lc_collate_1               0x0800014b   Thumb Code     0  libinit2.o(.ARM.Collect$$libinit$$00000013)
    __rt_lib_init_lc_ctype_1                 0x0800014b   Thumb Code     0  libinit2.o(.ARM.Collect$$libinit$$00000015)
    __rt_lib_init_lc_monetary_1              0x0800014b   Thumb Code     0  libinit2.o(.ARM.Collect$$libinit$$00000017)
    __rt_lib_init_lc_numeric_1               0x0800014b   Thumb Code     0  libinit2.o(.ARM.Collect$$libinit$$00000019)
    __rt_lib_init_lc_time_1                  0x0800014b   Thumb Code     0  libinit2.o(.ARM.Collect$$libinit$$0000001B)
    __rt_lib_init_preinit_1                  0x0800014b   Thumb Code     0  libinit2.o(.ARM.Collect$$libinit$$00000006)
    __rt_lib_init_rand_1                     0x0800014b   Thumb Code     0  libinit2.o(.ARM.Collect$$libinit$$00000010)
    __rt_lib_init_relocate_pie_1             0x0800014b   Thumb Code     0  libinit2.o(.ARM.Collect$$libinit$$00000004)
    __rt_lib_init_return                     0x0800014b   Thumb Code     0  libinit2.o(.ARM.Collect$$libinit$$00000035)
    __rt_lib_init_signal_1                   0x0800014b   Thumb Code     0  libinit2.o(.ARM.Collect$$libinit$$0000001F)
    __rt_lib_init_stdio_1                    0x0800014b   Thumb Code     0  libinit2.o(.ARM.Collect$$libinit$$00000027)
    __rt_lib_init_user_alloc_1               0x0800014b   Thumb Code     0  libinit2.o(.ARM.Collect$$libinit$$0000000E)
    __rt_lib_shutdown                        0x0800014d   Thumb Code     0  libshutdown.o(.ARM.Collect$$libshutdown$$00000000)
    __rt_lib_shutdown_cpp_1                  0x0800014f   Thumb Code     0  libshutdown2.o(.ARM.Collect$$libshutdown$$00000002)
    __rt_lib_shutdown_fp_trap_1              0x0800014f   Thumb Code     0  libshutdown2.o(.ARM.Collect$$libshutdown$$00000007)
    __rt_lib_shutdown_heap_1                 0x0800014f   Thumb Code     0  libshutdown2.o(.ARM.Collect$$libshutdown$$0000000F)
    __rt_lib_shutdown_return                 0x0800014f   Thumb Code     0  libshutdown2.o(.ARM.Collect$$libshutdown$$00000010)
    __rt_lib_shutdown_signal_1               0x0800014f   Thumb Code     0  libshutdown2.o(.ARM.Collect$$libshutdown$$0000000A)
    __rt_lib_shutdown_stdio_1                0x0800014f   Thumb Code     0  libshutdown2.o(.ARM.Collect$$libshutdown$$00000004)
    __rt_lib_shutdown_user_alloc_1           0x0800014f   Thumb Code     0  libshutdown2.o(.ARM.Collect$$libshutdown$$0000000C)
    __rt_entry                               0x08000151   Thumb Code     0  __rtentry.o(.ARM.Collect$$rtentry$$00000000)
    __rt_entry_presh_1                       0x08000151   Thumb Code     0  __rtentry2.o(.ARM.Collect$$rtentry$$00000002)
    __rt_entry_sh                            0x08000151   Thumb Code     0  __rtentry4.o(.ARM.Collect$$rtentry$$00000004)
    __rt_entry_li                            0x08000157   Thumb Code     0  __rtentry2.o(.ARM.Collect$$rtentry$$0000000A)
    __rt_entry_postsh_1                      0x08000157   Thumb Code     0  __rtentry2.o(.ARM.Collect$$rtentry$$00000009)
    __rt_entry_main                          0x0800015b   Thumb Code     0  __rtentry2.o(.ARM.Collect$$rtentry$$0000000D)
    __rt_entry_postli_1                      0x0800015b   Thumb Code     0  __rtentry2.o(.ARM.Collect$$rtentry$$0000000C)
    __rt_exit                                0x08000163   Thumb Code     0  rtexit.o(.ARM.Collect$$rtexit$$00000000)
    __rt_exit_ls                             0x08000165   Thumb Code     0  rtexit2.o(.ARM.Collect$$rtexit$$00000003)
    __rt_exit_prels_1                        0x08000165   Thumb Code     0  rtexit2.o(.ARM.Collect$$rtexit$$00000002)
    __rt_exit_exit                           0x08000169   Thumb Code     0  rtexit2.o(.ARM.Collect$$rtexit$$00000004)
    main                                     0x08000171   Thumb Code   948  main.o(.text)
    ShowBatteryState                         0x080005b1   Thumb Code     2  main.o(.text)
    BeepsBackwards                           0x080005b3   Thumb Code     2  main.o(.text)
    ShutOff                                  0x080005b5   Thumb Code    48  main.o(.text)
    modulo                                   0x080005f1   Thumb Code    22  bldc.o(.text)
    up_or_down                               0x08000609   Thumb Code    32  bldc.o(.text)
    blockPWM                                 0x0800062d   Thumb Code   112  bldc.o(.text)
    SetEnable                                0x0800069d   Thumb Code     8  bldc.o(.text)
    SetPWM                                   0x080006a9   Thumb Code    96  bldc.o(.text)
    CalculateBLDC                            0x08000719   Thumb Code   652  bldc.o(.text)
    Interrupt_init                           0x08000a41   Thumb Code     2  setup.o(.text)
    Watchdog_init                            0x08000a45   Thumb Code    52  setup.o(.text)
    TimeoutTimer_init                        0x08000a81   Thumb Code    84  setup.o(.text)
    GPIO_init                                0x08000ae1   Thumb Code   684  setup.o(.text)
    PWM_init                                 0x08000d9d   Thumb Code   360  setup.o(.text)
    ADC_init                                 0x08000f1d   Thumb Code   212  setup.o(.text)
    USART1_Init                              0x08001001   Thumb Code   280  setup.o(.text)
    USART0_Init                              0x08001129   Thumb Code   272  setup.o(.text)
    SysTick_Handler                          0x08001245   Thumb Code    12  it.o(.text)
    ResetTimeout                             0x08001255   Thumb Code     8  it.o(.text)
    TIMER13_IRQHandler                       0x08001261   Thumb Code    56  it.o(.text)
    TIMER0_BRK_UP_TRG_COM_IRQHandler         0x080012b5   Thumb Code    24  it.o(.text)
    DMA_Channel0_IRQHandler                  0x080012d1   Thumb Code    32  it.o(.text)
    DMA_Channel1_2_IRQHandler                0x080012f1   Thumb Code    32  it.o(.text)
    DMA_Channel3_4_IRQHandler                0x08001311   Thumb Code    32  it.o(.text)
    millis                                   0x08001331   Thumb Code     8  it.o(.text)
    Delay                                    0x0800133d   Thumb Code    20  it.o(.text)
    NMI_Handler                              0x08001355   Thumb Code     2  it.o(.text)
    HardFault_Handler                        0x08001357   Thumb Code     2  it.o(.text)
    MemManage_Handler                        0x08001359   Thumb Code     2  it.o(.text)
    BusFault_Handler                         0x0800135b   Thumb Code     2  it.o(.text)
    UsageFault_Handler                       0x0800135d   Thumb Code     2  it.o(.text)
    SVC_Handler                              0x0800135f   Thumb Code     2  it.o(.text)
    DebugMon_Handler                         0x08001361   Thumb Code     2  it.o(.text)
    PendSV_Handler                           0x08001363   Thumb Code     2  it.o(.text)
    RemoteUpdate                             0x08001365   Thumb Code   172  remoteuart.o(.text)
    RemoteCallback                           0x08001441   Thumb Code   124  remoteuart.o(.text)
    SendBuffer                               0x080014d9   Thumb Code    48  commsmasterslave.o(.text)
    CalcCRC                                  0x0800150d   Thumb Code    60  commsmasterslave.o(.text)
    SetBeepsBackwardsMaster                  0x0800154d   Thumb Code     8  commsmasterslave.o(.text)
    GetBeepsBackwardsMaster                  0x08001559   Thumb Code     8  commsmasterslave.o(.text)
    UpdateUSARTMasterSlaveInput              0x08001565   Thumb Code   184  commsmasterslave.o(.text)
    ProessReceived                           0x08001635   Thumb Code    76  commsmasterslave.o(.text)
    SendSlave                                0x08001685   Thumb Code   136  commsmasterslave.o(.text)
    adc_deinit                               0x08001721   Thumb Code    24  gd32e23x_adc.o(.text)
    adc_enable                               0x0800173d   Thumb Code    20  gd32e23x_adc.o(.text)
    adc_disable                              0x08001755   Thumb Code    12  gd32e23x_adc.o(.text)
    adc_calibration_enable                   0x08001765   Thumb Code    32  gd32e23x_adc.o(.text)
    adc_dma_mode_enable                      0x08001789   Thumb Code    16  gd32e23x_adc.o(.text)
    adc_dma_mode_disable                     0x0800179d   Thumb Code    16  gd32e23x_adc.o(.text)
    adc_tempsensor_vrefint_enable            0x080017b1   Thumb Code    16  gd32e23x_adc.o(.text)
    adc_tempsensor_vrefint_disable           0x080017c5   Thumb Code    16  gd32e23x_adc.o(.text)
    adc_discontinuous_mode_config            0x080017d9   Thumb Code    64  gd32e23x_adc.o(.text)
    adc_special_function_config              0x0800181d   Thumb Code   112  gd32e23x_adc.o(.text)
    adc_data_alignment_config                0x08001891   Thumb Code    24  gd32e23x_adc.o(.text)
    adc_channel_length_config                0x080018ad   Thumb Code    60  gd32e23x_adc.o(.text)
    adc_regular_channel_config               0x080018ed   Thumb Code   136  gd32e23x_adc.o(.text)
    adc_inserted_channel_config              0x08001979   Thumb Code    92  gd32e23x_adc.o(.text)
    adc_inserted_channel_offset_config       0x080019d9   Thumb Code    28  gd32e23x_adc.o(.text)
    adc_external_trigger_config              0x080019fd   Thumb Code    64  gd32e23x_adc.o(.text)
    adc_external_trigger_source_config       0x08001a41   Thumb Code    32  gd32e23x_adc.o(.text)
    adc_software_trigger_enable              0x08001a6d   Thumb Code    40  gd32e23x_adc.o(.text)
    adc_regular_data_read                    0x08001a99   Thumb Code     8  gd32e23x_adc.o(.text)
    adc_inserted_data_read                   0x08001aa5   Thumb Code    68  gd32e23x_adc.o(.text)
    adc_flag_get                             0x08001aed   Thumb Code    12  gd32e23x_adc.o(.text)
    adc_flag_clear                           0x08001afd   Thumb Code    12  gd32e23x_adc.o(.text)
    adc_interrupt_flag_get                   0x08001b0d   Thumb Code    48  gd32e23x_adc.o(.text)
    adc_interrupt_flag_clear                 0x08001b41   Thumb Code    12  gd32e23x_adc.o(.text)
    adc_interrupt_enable                     0x08001b51   Thumb Code    52  gd32e23x_adc.o(.text)
    adc_interrupt_disable                    0x08001b89   Thumb Code    52  gd32e23x_adc.o(.text)
    adc_watchdog_single_channel_enable       0x08001bc1   Thumb Code    28  gd32e23x_adc.o(.text)
    adc_watchdog_group_channel_enable        0x08001be9   Thumb Code    36  gd32e23x_adc.o(.text)
    adc_watchdog_disable                     0x08001c21   Thumb Code    12  gd32e23x_adc.o(.text)
    adc_watchdog_threshold_config            0x08001c35   Thumb Code    16  gd32e23x_adc.o(.text)
    adc_resolution_config                    0x08001c4d   Thumb Code    20  gd32e23x_adc.o(.text)
    adc_oversample_mode_config               0x08001c65   Thumb Code    40  gd32e23x_adc.o(.text)
    adc_oversample_mode_enable               0x08001c95   Thumb Code    12  gd32e23x_adc.o(.text)
    adc_oversample_mode_disable              0x08001ca5   Thumb Code    12  gd32e23x_adc.o(.text)
    dma_deinit                               0x08001cb5   Thumb Code    44  gd32e23x_dma.o(.text)
    dma_struct_para_init                     0x08001ce5   Thumb Code    20  gd32e23x_dma.o(.text)
    dma_init                                 0x08001cf9   Thumb Code   112  gd32e23x_dma.o(.text)
    dma_channel_disable                      0x08001d6d   Thumb Code    16  gd32e23x_dma.o(.text)
    dma_circulation_enable                   0x08001d81   Thumb Code    16  gd32e23x_dma.o(.text)
    dma_circulation_disable                  0x08001d95   Thumb Code    16  gd32e23x_dma.o(.text)
    dma_memory_to_memory_enable              0x08001da9   Thumb Code    20  gd32e23x_dma.o(.text)
    dma_memory_to_memory_disable             0x08001dc1   Thumb Code    20  gd32e23x_dma.o(.text)
    dma_channel_enable                       0x08001dd9   Thumb Code    16  gd32e23x_dma.o(.text)
    dma_periph_address_config                0x08001ded   Thumb Code    12  gd32e23x_dma.o(.text)
    dma_memory_address_config                0x08001dfd   Thumb Code    12  gd32e23x_dma.o(.text)
    dma_transfer_number_config               0x08001e0d   Thumb Code    12  gd32e23x_dma.o(.text)
    dma_transfer_number_get                  0x08001e1d   Thumb Code    12  gd32e23x_dma.o(.text)
    dma_priority_config                      0x08001e2d   Thumb Code    24  gd32e23x_dma.o(.text)
    dma_memory_width_config                  0x08001e49   Thumb Code    24  gd32e23x_dma.o(.text)
    dma_periph_width_config                  0x08001e65   Thumb Code    24  gd32e23x_dma.o(.text)
    dma_memory_increase_enable               0x08001e81   Thumb Code    16  gd32e23x_dma.o(.text)
    dma_memory_increase_disable              0x08001e95   Thumb Code    16  gd32e23x_dma.o(.text)
    dma_periph_increase_enable               0x08001ea9   Thumb Code    16  gd32e23x_dma.o(.text)
    dma_periph_increase_disable              0x08001ebd   Thumb Code    16  gd32e23x_dma.o(.text)
    dma_transfer_direction_config            0x08001ed1   Thumb Code    28  gd32e23x_dma.o(.text)
    dma_flag_get                             0x08001ef1   Thumb Code    16  gd32e23x_dma.o(.text)
    dma_flag_clear                           0x08001f05   Thumb Code    16  gd32e23x_dma.o(.text)
    dma_interrupt_flag_get                   0x08001f19   Thumb Code    56  gd32e23x_dma.o(.text)
    dma_interrupt_flag_clear                 0x08001f55   Thumb Code    16  gd32e23x_dma.o(.text)
    dma_interrupt_enable                     0x08001f69   Thumb Code    16  gd32e23x_dma.o(.text)
    dma_interrupt_disable                    0x08001f7d   Thumb Code    16  gd32e23x_dma.o(.text)
    fwdgt_write_enable                       0x08001f91   Thumb Code     8  gd32e23x_fwdgt.o(.text)
    fwdgt_write_disable                      0x08001fa1   Thumb Code     8  gd32e23x_fwdgt.o(.text)
    fwdgt_enable                             0x08001fad   Thumb Code     8  gd32e23x_fwdgt.o(.text)
    fwdgt_prescaler_value_config             0x08001fbd   Thumb Code    36  gd32e23x_fwdgt.o(.text)
    fwdgt_reload_value_config                0x08001fed   Thumb Code    40  gd32e23x_fwdgt.o(.text)
    fwdgt_window_value_config                0x08002025   Thumb Code    40  gd32e23x_fwdgt.o(.text)
    fwdgt_counter_reload                     0x0800205d   Thumb Code     8  gd32e23x_fwdgt.o(.text)
    fwdgt_config                             0x0800206d   Thumb Code    64  gd32e23x_fwdgt.o(.text)
    fwdgt_flag_get                           0x080020c1   Thumb Code    12  gd32e23x_fwdgt.o(.text)
    gpio_deinit                              0x080020d1   Thumb Code    52  gd32e23x_gpio.o(.text)
    gpio_mode_set                            0x08002109   Thumb Code    66  gd32e23x_gpio.o(.text)
    gpio_output_options_set                  0x0800214b   Thumb Code    70  gd32e23x_gpio.o(.text)
    gpio_bit_set                             0x08002191   Thumb Code     4  gd32e23x_gpio.o(.text)
    gpio_bit_reset                           0x08002195   Thumb Code     4  gd32e23x_gpio.o(.text)
    gpio_bit_write                           0x08002199   Thumb Code    14  gd32e23x_gpio.o(.text)
    gpio_port_write                          0x080021a7   Thumb Code     4  gd32e23x_gpio.o(.text)
    gpio_input_bit_get                       0x080021ab   Thumb Code    10  gd32e23x_gpio.o(.text)
    gpio_input_port_get                      0x080021b5   Thumb Code     6  gd32e23x_gpio.o(.text)
    gpio_output_bit_get                      0x080021bb   Thumb Code    10  gd32e23x_gpio.o(.text)
    gpio_output_port_get                     0x080021c5   Thumb Code     6  gd32e23x_gpio.o(.text)
    gpio_af_set                              0x080021cb   Thumb Code    94  gd32e23x_gpio.o(.text)
    gpio_pin_lock                            0x08002229   Thumb Code    18  gd32e23x_gpio.o(.text)
    gpio_bit_toggle                          0x0800223b   Thumb Code     4  gd32e23x_gpio.o(.text)
    gpio_port_toggle                         0x08002241   Thumb Code     8  gd32e23x_gpio.o(.text)
    nvic_irq_enable                          0x0800224d   Thumb Code    72  gd32e23x_misc.o(.text)
    nvic_irq_disable                         0x080022a1   Thumb Code    32  gd32e23x_misc.o(.text)
    nvic_system_reset                        0x080022c5   Thumb Code    20  gd32e23x_misc.o(.text)
    nvic_vector_table_set                    0x080022e1   Thumb Code    12  gd32e23x_misc.o(.text)
    system_lowpower_set                      0x080022f5   Thumb Code    12  gd32e23x_misc.o(.text)
    system_lowpower_reset                    0x08002305   Thumb Code    12  gd32e23x_misc.o(.text)
    systick_clksource_set                    0x08002315   Thumb Code    24  gd32e23x_misc.o(.text)
    rcu_deinit                               0x08002331   Thumb Code   100  gd32e23x_rcu.o(.text)
    rcu_periph_clock_enable                  0x080023a5   Thumb Code    20  gd32e23x_rcu.o(.text)
    rcu_periph_clock_disable                 0x080023bd   Thumb Code    20  gd32e23x_rcu.o(.text)
    rcu_periph_clock_sleep_enable            0x080023d5   Thumb Code    20  gd32e23x_rcu.o(.text)
    rcu_periph_clock_sleep_disable           0x080023ed   Thumb Code    20  gd32e23x_rcu.o(.text)
    rcu_periph_reset_enable                  0x08002405   Thumb Code    20  gd32e23x_rcu.o(.text)
    rcu_periph_reset_disable                 0x0800241d   Thumb Code    20  gd32e23x_rcu.o(.text)
    rcu_bkp_reset_enable                     0x08002435   Thumb Code    16  gd32e23x_rcu.o(.text)
    rcu_bkp_reset_disable                    0x08002449   Thumb Code    16  gd32e23x_rcu.o(.text)
    rcu_system_clock_source_config           0x0800245d   Thumb Code    16  gd32e23x_rcu.o(.text)
    rcu_system_clock_source_get              0x08002471   Thumb Code    12  gd32e23x_rcu.o(.text)
    rcu_ahb_clock_config                     0x08002481   Thumb Code    16  gd32e23x_rcu.o(.text)
    rcu_apb1_clock_config                    0x08002495   Thumb Code    16  gd32e23x_rcu.o(.text)
    rcu_apb2_clock_config                    0x080024a9   Thumb Code    16  gd32e23x_rcu.o(.text)
    rcu_adc_clock_config                     0x080024bd   Thumb Code   200  gd32e23x_rcu.o(.text)
    rcu_ckout_config                         0x0800258d   Thumb Code    20  gd32e23x_rcu.o(.text)
    rcu_pll_config                           0x080025a5   Thumb Code    24  gd32e23x_rcu.o(.text)
    rcu_usart_clock_config                   0x080025c5   Thumb Code    20  gd32e23x_rcu.o(.text)
    rcu_rtc_clock_config                     0x080025dd   Thumb Code    20  gd32e23x_rcu.o(.text)
    rcu_hxtal_prediv_config                  0x080025f5   Thumb Code    16  gd32e23x_rcu.o(.text)
    rcu_lxtal_drive_capability_config        0x08002609   Thumb Code    20  gd32e23x_rcu.o(.text)
    rcu_flag_get                             0x08002621   Thumb Code    20  gd32e23x_rcu.o(.text)
    rcu_all_reset_flag_clear                 0x08002639   Thumb Code    16  gd32e23x_rcu.o(.text)
    rcu_interrupt_flag_get                   0x0800264d   Thumb Code    20  gd32e23x_rcu.o(.text)
    rcu_interrupt_flag_clear                 0x08002665   Thumb Code    20  gd32e23x_rcu.o(.text)
    rcu_interrupt_enable                     0x0800267d   Thumb Code    20  gd32e23x_rcu.o(.text)
    rcu_interrupt_disable                    0x08002695   Thumb Code    20  gd32e23x_rcu.o(.text)
    rcu_osci_stab_wait                       0x080026ad   Thumb Code   216  gd32e23x_rcu.o(.text)
    rcu_osci_on                              0x08002799   Thumb Code    20  gd32e23x_rcu.o(.text)
    rcu_osci_off                             0x080027b1   Thumb Code    20  gd32e23x_rcu.o(.text)
    rcu_osci_bypass_mode_enable              0x080027c9   Thumb Code    56  gd32e23x_rcu.o(.text)
    rcu_osci_bypass_mode_disable             0x08002805   Thumb Code    56  gd32e23x_rcu.o(.text)
    rcu_hxtal_clock_monitor_enable           0x08002841   Thumb Code    16  gd32e23x_rcu.o(.text)
    rcu_hxtal_clock_monitor_disable          0x08002855   Thumb Code    16  gd32e23x_rcu.o(.text)
    rcu_irc8m_adjust_value_set               0x08002869   Thumb Code    16  gd32e23x_rcu.o(.text)
    rcu_irc28m_adjust_value_set              0x0800287d   Thumb Code    16  gd32e23x_rcu.o(.text)
    rcu_voltage_key_unlock                   0x08002891   Thumb Code    20  gd32e23x_rcu.o(.text)
    rcu_deepsleep_voltage_set                0x080028ad   Thumb Code    20  gd32e23x_rcu.o(.text)
    rcu_clock_freq_get                       0x080028c5   Thumb Code   260  gd32e23x_rcu.o(.text)
    timer_deinit                             0x080029f1   Thumb Code   100  gd32e23x_timer.o(.text)
    timer_struct_para_init                   0x08002a7d   Thumb Code    16  gd32e23x_timer.o(.text)
    timer_init                               0x08002a91   Thumb Code   144  gd32e23x_timer.o(.text)
    timer_enable                             0x08002b41   Thumb Code    10  gd32e23x_timer.o(.text)
    timer_disable                            0x08002b4b   Thumb Code    10  gd32e23x_timer.o(.text)
    timer_auto_reload_shadow_enable          0x08002b55   Thumb Code    10  gd32e23x_timer.o(.text)
    timer_auto_reload_shadow_disable         0x08002b5f   Thumb Code    10  gd32e23x_timer.o(.text)
    timer_update_event_enable                0x08002b69   Thumb Code    10  gd32e23x_timer.o(.text)
    timer_update_event_disable               0x08002b73   Thumb Code    10  gd32e23x_timer.o(.text)
    timer_counter_alignment                  0x08002b7d   Thumb Code    16  gd32e23x_timer.o(.text)
    timer_counter_up_direction               0x08002b8d   Thumb Code    10  gd32e23x_timer.o(.text)
    timer_counter_down_direction             0x08002b97   Thumb Code    10  gd32e23x_timer.o(.text)
    timer_prescaler_config                   0x08002ba1   Thumb Code    16  gd32e23x_timer.o(.text)
    timer_repetition_value_config            0x08002bb1   Thumb Code     4  gd32e23x_timer.o(.text)
    timer_autoreload_value_config            0x08002bb5   Thumb Code     4  gd32e23x_timer.o(.text)
    timer_counter_value_config               0x08002bb9   Thumb Code     4  gd32e23x_timer.o(.text)
    timer_counter_read                       0x08002bbd   Thumb Code     4  gd32e23x_timer.o(.text)
    timer_prescaler_read                     0x08002bc1   Thumb Code     6  gd32e23x_timer.o(.text)
    timer_single_pulse_mode_config           0x08002bc7   Thumb Code    26  gd32e23x_timer.o(.text)
    timer_update_source_config               0x08002be1   Thumb Code    26  gd32e23x_timer.o(.text)
    timer_ocpre_clear_source_config          0x08002bfb   Thumb Code    26  gd32e23x_timer.o(.text)
    timer_interrupt_enable                   0x08002c15   Thumb Code     8  gd32e23x_timer.o(.text)
    timer_interrupt_disable                  0x08002c1d   Thumb Code     8  gd32e23x_timer.o(.text)
    timer_interrupt_flag_get                 0x08002c25   Thumb Code    20  gd32e23x_timer.o(.text)
    timer_interrupt_flag_clear               0x08002c39   Thumb Code     8  gd32e23x_timer.o(.text)
    timer_flag_get                           0x08002c41   Thumb Code    10  gd32e23x_timer.o(.text)
    timer_flag_clear                         0x08002c4b   Thumb Code     8  gd32e23x_timer.o(.text)
    timer_dma_enable                         0x08002c53   Thumb Code     8  gd32e23x_timer.o(.text)
    timer_dma_disable                        0x08002c5b   Thumb Code     8  gd32e23x_timer.o(.text)
    timer_channel_dma_request_source_select  0x08002c63   Thumb Code    26  gd32e23x_timer.o(.text)
    timer_dma_transfer_config                0x08002c7d   Thumb Code    20  gd32e23x_timer.o(.text)
    timer_event_software_generate            0x08002c95   Thumb Code     8  gd32e23x_timer.o(.text)
    timer_break_struct_para_init             0x08002c9d   Thumb Code    18  gd32e23x_timer.o(.text)
    timer_break_config                       0x08002caf   Thumb Code    30  gd32e23x_timer.o(.text)
    timer_break_enable                       0x08002ccd   Thumb Code    12  gd32e23x_timer.o(.text)
    timer_break_disable                      0x08002cd9   Thumb Code    12  gd32e23x_timer.o(.text)
    timer_automatic_output_enable            0x08002ce5   Thumb Code    12  gd32e23x_timer.o(.text)
    timer_automatic_output_disable           0x08002cf1   Thumb Code    12  gd32e23x_timer.o(.text)
    timer_primary_output_config              0x08002cfd   Thumb Code    22  gd32e23x_timer.o(.text)
    timer_channel_control_shadow_config      0x08002d13   Thumb Code    18  gd32e23x_timer.o(.text)
    timer_channel_control_shadow_update_config 0x08002d25   Thumb Code    26  gd32e23x_timer.o(.text)
    timer_channel_output_struct_para_init    0x08002d3f   Thumb Code    16  gd32e23x_timer.o(.text)
    timer_channel_output_config              0x08002d51   Thumb Code   528  gd32e23x_timer.o(.text)
    timer_channel_output_mode_config         0x08002f75   Thumb Code    92  gd32e23x_timer.o(.text)
    timer_channel_output_pulse_value_config  0x08002fd1   Thumb Code    12  gd32e23x_timer.o(.text)
    timer_channel_output_shadow_config       0x08002fdd   Thumb Code    92  gd32e23x_timer.o(.text)
    timer_channel_output_fast_config         0x08003039   Thumb Code    92  gd32e23x_timer.o(.text)
    timer_channel_output_clear_config        0x08003095   Thumb Code    92  gd32e23x_timer.o(.text)
    timer_channel_output_polarity_config     0x080030f1   Thumb Code    90  gd32e23x_timer.o(.text)
    timer_channel_complementary_output_polarity_config 0x0800314d   Thumb Code    90  gd32e23x_timer.o(.text)
    timer_channel_output_state_config        0x080031a9   Thumb Code    90  gd32e23x_timer.o(.text)
    timer_channel_complementary_output_state_config 0x08003203   Thumb Code    54  gd32e23x_timer.o(.text)
    timer_channel_input_struct_para_init     0x08003239   Thumb Code    14  gd32e23x_timer.o(.text)
    timer_input_capture_config               0x08003249   Thumb Code   404  gd32e23x_timer.o(.text)
    timer_channel_input_capture_prescaler_config 0x080033e1   Thumb Code    92  gd32e23x_timer.o(.text)
    timer_channel_capture_value_register_read 0x0800343d   Thumb Code    16  gd32e23x_timer.o(.text)
    timer_input_pwm_capture_config           0x0800344d   Thumb Code   344  gd32e23x_timer.o(.text)
    timer_hall_mode_config                   0x080035b1   Thumb Code    26  gd32e23x_timer.o(.text)
    timer_input_trigger_source_select        0x080035cb   Thumb Code    16  gd32e23x_timer.o(.text)
    timer_master_output_trigger_source_select 0x080035db   Thumb Code    16  gd32e23x_timer.o(.text)
    timer_slave_mode_select                  0x080035eb   Thumb Code    16  gd32e23x_timer.o(.text)
    timer_master_slave_mode_config           0x080035fb   Thumb Code    26  gd32e23x_timer.o(.text)
    timer_external_trigger_config            0x08003615   Thumb Code    30  gd32e23x_timer.o(.text)
    timer_quadrature_decoder_mode_config     0x08003635   Thumb Code    64  gd32e23x_timer.o(.text)
    timer_internal_clock_config              0x08003679   Thumb Code    10  gd32e23x_timer.o(.text)
    timer_internal_trigger_as_external_clock_config 0x08003683   Thumb Code    30  gd32e23x_timer.o(.text)
    timer_external_trigger_as_external_clock_config 0x080036a1   Thumb Code   148  gd32e23x_timer.o(.text)
    timer_external_clock_mode0_config        0x08003735   Thumb Code    44  gd32e23x_timer.o(.text)
    timer_external_clock_mode1_config        0x08003761   Thumb Code    40  gd32e23x_timer.o(.text)
    timer_external_clock_mode1_disable       0x08003789   Thumb Code    12  gd32e23x_timer.o(.text)
    timer_channel_remap_config               0x08003795   Thumb Code     4  gd32e23x_timer.o(.text)
    timer_write_chxval_register_config       0x08003799   Thumb Code    30  gd32e23x_timer.o(.text)
    timer_output_value_selection_config      0x080037b7   Thumb Code    30  gd32e23x_timer.o(.text)
    usart_deinit                             0x080037d5   Thumb Code    40  gd32e23x_usart.o(.text)
    usart_baudrate_set                       0x0800380d   Thumb Code    76  gd32e23x_usart.o(.text)
    usart_parity_config                      0x08003865   Thumb Code    26  gd32e23x_usart.o(.text)
    usart_word_length_set                    0x0800387f   Thumb Code    26  gd32e23x_usart.o(.text)
    usart_stop_bit_set                       0x08003899   Thumb Code    26  gd32e23x_usart.o(.text)
    usart_enable                             0x080038b3   Thumb Code    10  gd32e23x_usart.o(.text)
    usart_disable                            0x080038bd   Thumb Code    10  gd32e23x_usart.o(.text)
    usart_transmit_config                    0x080038c7   Thumb Code    16  gd32e23x_usart.o(.text)
    usart_receive_config                     0x080038d7   Thumb Code    16  gd32e23x_usart.o(.text)
    usart_data_first_config                  0x080038e7   Thumb Code    26  gd32e23x_usart.o(.text)
    usart_invert_config                      0x08003901   Thumb Code   112  gd32e23x_usart.o(.text)
    usart_overrun_enable                     0x08003971   Thumb Code    20  gd32e23x_usart.o(.text)
    usart_overrun_disable                    0x08003985   Thumb Code    20  gd32e23x_usart.o(.text)
    usart_oversample_config                  0x08003999   Thumb Code    26  gd32e23x_usart.o(.text)
    usart_sample_bit_config                  0x080039b3   Thumb Code    26  gd32e23x_usart.o(.text)
    usart_receiver_timeout_enable            0x080039cd   Thumb Code    12  gd32e23x_usart.o(.text)
    usart_receiver_timeout_disable           0x080039d9   Thumb Code    12  gd32e23x_usart.o(.text)
    usart_receiver_timeout_threshold_config  0x080039e5   Thumb Code    18  gd32e23x_usart.o(.text)
    usart_data_transmit                      0x080039f9   Thumb Code     8  gd32e23x_usart.o(.text)
    usart_data_receive                       0x08003a05   Thumb Code     8  gd32e23x_usart.o(.text)
    usart_autobaud_detection_enable          0x08003a11   Thumb Code    12  gd32e23x_usart.o(.text)
    usart_autobaud_detection_disable         0x08003a1d   Thumb Code    12  gd32e23x_usart.o(.text)
    usart_autobaud_detection_mode_config     0x08003a29   Thumb Code    18  gd32e23x_usart.o(.text)
    usart_address_config                     0x08003a3b   Thumb Code    28  gd32e23x_usart.o(.text)
    usart_address_detection_mode_config      0x08003a57   Thumb Code    26  gd32e23x_usart.o(.text)
    usart_mute_mode_enable                   0x08003a71   Thumb Code    12  gd32e23x_usart.o(.text)
    usart_mute_mode_disable                  0x08003a7d   Thumb Code    12  gd32e23x_usart.o(.text)
    usart_mute_mode_wakeup_config            0x08003a89   Thumb Code    26  gd32e23x_usart.o(.text)
    usart_lin_mode_enable                    0x08003aa3   Thumb Code    20  gd32e23x_usart.o(.text)
    usart_lin_mode_disable                   0x08003ab7   Thumb Code    20  gd32e23x_usart.o(.text)
    usart_lin_break_detection_length_config  0x08003acb   Thumb Code    26  gd32e23x_usart.o(.text)
    usart_halfduplex_enable                  0x08003ae5   Thumb Code    18  gd32e23x_usart.o(.text)
    usart_halfduplex_disable                 0x08003af7   Thumb Code    18  gd32e23x_usart.o(.text)
    usart_clock_enable                       0x08003b09   Thumb Code    20  gd32e23x_usart.o(.text)
    usart_clock_disable                      0x08003b1d   Thumb Code    20  gd32e23x_usart.o(.text)
    usart_synchronous_clock_config           0x08003b31   Thumb Code    58  gd32e23x_usart.o(.text)
    usart_guard_time_config                  0x08003b6b   Thumb Code    30  gd32e23x_usart.o(.text)
    usart_smartcard_mode_enable              0x08003b89   Thumb Code    18  gd32e23x_usart.o(.text)
    usart_smartcard_mode_disable             0x08003b9b   Thumb Code    18  gd32e23x_usart.o(.text)
    usart_smartcard_mode_nack_enable         0x08003bad   Thumb Code    18  gd32e23x_usart.o(.text)
    usart_smartcard_mode_nack_disable        0x08003bbf   Thumb Code    18  gd32e23x_usart.o(.text)
    usart_smartcard_mode_early_nack_enable   0x08003bd1   Thumb Code    12  gd32e23x_usart.o(.text)
    usart_smartcard_mode_early_nack_disable  0x08003bdd   Thumb Code    12  gd32e23x_usart.o(.text)
    usart_smartcard_autoretry_config         0x08003be9   Thumb Code    30  gd32e23x_usart.o(.text)
    usart_block_length_config                0x08003c07   Thumb Code    20  gd32e23x_usart.o(.text)
    usart_irda_mode_enable                   0x08003c1b   Thumb Code    18  gd32e23x_usart.o(.text)
    usart_irda_mode_disable                  0x08003c2d   Thumb Code    18  gd32e23x_usart.o(.text)
    usart_prescaler_config                   0x08003c3f   Thumb Code    24  gd32e23x_usart.o(.text)
    usart_irda_lowpower_config               0x08003c57   Thumb Code    26  gd32e23x_usart.o(.text)
    usart_hardware_flow_rts_config           0x08003c71   Thumb Code    26  gd32e23x_usart.o(.text)
    usart_hardware_flow_cts_config           0x08003c8b   Thumb Code    26  gd32e23x_usart.o(.text)
    usart_hardware_flow_coherence_config     0x08003ca5   Thumb Code    22  gd32e23x_usart.o(.text)
    usart_rs485_driver_enable                0x08003cbb   Thumb Code    20  gd32e23x_usart.o(.text)
    usart_rs485_driver_disable               0x08003ccf   Thumb Code    20  gd32e23x_usart.o(.text)
    usart_driver_assertime_config            0x08003ce3   Thumb Code    30  gd32e23x_usart.o(.text)
    usart_driver_deassertime_config          0x08003d01   Thumb Code    30  gd32e23x_usart.o(.text)
    usart_depolarity_config                  0x08003d1f   Thumb Code    28  gd32e23x_usart.o(.text)
    usart_dma_receive_config                 0x08003d3b   Thumb Code    16  gd32e23x_usart.o(.text)
    usart_dma_transmit_config                0x08003d4b   Thumb Code    16  gd32e23x_usart.o(.text)
    usart_reception_error_dma_disable        0x08003d5b   Thumb Code    20  gd32e23x_usart.o(.text)
    usart_reception_error_dma_enable         0x08003d6f   Thumb Code    20  gd32e23x_usart.o(.text)
    usart_wakeup_enable                      0x08003d83   Thumb Code    10  gd32e23x_usart.o(.text)
    usart_wakeup_disable                     0x08003d8d   Thumb Code    10  gd32e23x_usart.o(.text)
    usart_wakeup_mode_config                 0x08003d97   Thumb Code    28  gd32e23x_usart.o(.text)
    usart_receive_fifo_enable                0x08003db3   Thumb Code    14  gd32e23x_usart.o(.text)
    usart_receive_fifo_disable               0x08003dc1   Thumb Code    14  gd32e23x_usart.o(.text)
    usart_receive_fifo_counter_number        0x08003dcf   Thumb Code    10  gd32e23x_usart.o(.text)
    usart_flag_get                           0x08003dd9   Thumb Code    16  gd32e23x_usart.o(.text)
    usart_flag_clear                         0x08003de9   Thumb Code    16  gd32e23x_usart.o(.text)
    usart_interrupt_enable                   0x08003df9   Thumb Code    18  gd32e23x_usart.o(.text)
    usart_interrupt_disable                  0x08003e0b   Thumb Code    18  gd32e23x_usart.o(.text)
    usart_command_enable                     0x08003e1d   Thumb Code     8  gd32e23x_usart.o(.text)
    usart_interrupt_flag_get                 0x08003e25   Thumb Code    30  gd32e23x_usart.o(.text)
    usart_interrupt_flag_clear               0x08003e45   Thumb Code    36  gd32e23x_usart.o(.text)
    Reset_Handler                            0x08003e6d   Thumb Code     8  startup_gd32e23x.o(.text)
    ADC_CMP_IRQHandler                       0x08003e7f   Thumb Code     0  startup_gd32e23x.o(.text)
    EXTI0_1_IRQHandler                       0x08003e7f   Thumb Code     0  startup_gd32e23x.o(.text)
    EXTI2_3_IRQHandler                       0x08003e7f   Thumb Code     0  startup_gd32e23x.o(.text)
    EXTI4_15_IRQHandler                      0x08003e7f   Thumb Code     0  startup_gd32e23x.o(.text)
    FMC_IRQHandler                           0x08003e7f   Thumb Code     0  startup_gd32e23x.o(.text)
    I2C0_ER_IRQHandler                       0x08003e7f   Thumb Code     0  startup_gd32e23x.o(.text)
    I2C0_EV_IRQHandler                       0x08003e7f   Thumb Code     0  startup_gd32e23x.o(.text)
    I2C1_ER_IRQHandler                       0x08003e7f   Thumb Code     0  startup_gd32e23x.o(.text)
    I2C1_EV_IRQHandler                       0x08003e7f   Thumb Code     0  startup_gd32e23x.o(.text)
    LVD_IRQHandler                           0x08003e7f   Thumb Code     0  startup_gd32e23x.o(.text)
    RCU_IRQHandler                           0x08003e7f   Thumb Code     0  startup_gd32e23x.o(.text)
    RTC_IRQHandler                           0x08003e7f   Thumb Code     0  startup_gd32e23x.o(.text)
    SPI0_IRQHandler                          0x08003e7f   Thumb Code     0  startup_gd32e23x.o(.text)
    SPI1_IRQHandler                          0x08003e7f   Thumb Code     0  startup_gd32e23x.o(.text)
    TIMER0_Channel_IRQHandler                0x08003e7f   Thumb Code     0  startup_gd32e23x.o(.text)
    TIMER14_IRQHandler                       0x08003e7f   Thumb Code     0  startup_gd32e23x.o(.text)
    TIMER15_IRQHandler                       0x08003e7f   Thumb Code     0  startup_gd32e23x.o(.text)
    TIMER16_IRQHandler                       0x08003e7f   Thumb Code     0  startup_gd32e23x.o(.text)
    TIMER2_IRQHandler                        0x08003e7f   Thumb Code     0  startup_gd32e23x.o(.text)
    TIMER5_IRQHandler                        0x08003e7f   Thumb Code     0  startup_gd32e23x.o(.text)
    USART0_IRQHandler                        0x08003e7f   Thumb Code     0  startup_gd32e23x.o(.text)
    USART1_IRQHandler                        0x08003e7f   Thumb Code     0  startup_gd32e23x.o(.text)
    WWDGT_IRQHandler                         0x08003e7f   Thumb Code     0  startup_gd32e23x.o(.text)
    __user_initial_stackheap                 0x08003e81   Thumb Code    10  startup_gd32e23x.o(.text)
    SystemInit                               0x08003ea5   Thumb Code   208  system_gd32e23x.o(.text)
    SystemCoreClockUpdate                    0x08003f95   Thumb Code    96  system_gd32e23x.o(.text)
    __use_two_region_memory                  0x08004015   Thumb Code     2  heapauxi.o(.text)
    __rt_heap_escrow$2region                 0x08004017   Thumb Code     2  heapauxi.o(.text)
    __rt_heap_expand$2region                 0x08004019   Thumb Code     2  heapauxi.o(.text)
    __aeabi_d2f                              0x0800401d   Thumb Code     0  d2f.o(.text)
    _d2f                                     0x0800401d   Thumb Code   120  d2f.o(.text)
    __aeabi_dadd                             0x08004391   Thumb Code     0  daddsub.o(.text)
    _dadd                                    0x08004391   Thumb Code    26  daddsub.o(.text)
    __aeabi_dsub                             0x080043ab   Thumb Code     0  daddsub.o(.text)
    _dsub                                    0x080043ab   Thumb Code    22  daddsub.o(.text)
    __aeabi_drsub                            0x080043c1   Thumb Code     0  daddsub.o(.text)
    _drsb                                    0x080043c1   Thumb Code    28  daddsub.o(.text)
    __aeabi_ddiv                             0x080043f1   Thumb Code     0  ddiv.o(.text)
    _ddiv                                    0x080043f1   Thumb Code  1072  ddiv.o(.text)
    _drdiv                                   0x08004821   Thumb Code    20  ddiv.o(.text)
    __aeabi_d2iz                             0x08004839   Thumb Code     0  dfixi.o(.text)
    _dfix                                    0x08004839   Thumb Code    98  dfixi.o(.text)
    __aeabi_i2d_normalise                    0x080048a5   Thumb Code    66  dflti.o(.text)
    __aeabi_i2d                              0x080048e7   Thumb Code    16  dflti.o(.text)
    _dflt                                    0x080048e7   Thumb Code     0  dflti.o(.text)
    __aeabi_ui2d                             0x080048f7   Thumb Code     6  dflti.o(.text)
    _dfltu                                   0x080048f7   Thumb Code     0  dflti.o(.text)
    __aeabi_dmul                             0x080048fd   Thumb Code     0  dmul.o(.text)
    _dmul                                    0x080048fd   Thumb Code   558  dmul.o(.text)
    __aeabi_f2d                              0x08004b45   Thumb Code     0  f2d.o(.text)
    _f2d                                     0x08004b45   Thumb Code    80  f2d.o(.text)
    __aeabi_fdiv                             0x08004b99   Thumb Code     0  fdiv.o(.text)
    _fdiv                                    0x08004b99   Thumb Code   334  fdiv.o(.text)
    _frdiv                                   0x08004ce7   Thumb Code     8  fdiv.o(.text)
    __aeabi_f2iz                             0x08004cf9   Thumb Code     0  ffixi.o(.text)
    _ffix                                    0x08004cf9   Thumb Code    76  ffixi.o(.text)
    __aeabi_i2f_normalise                    0x08004d45   Thumb Code    72  fflti.o(.text)
    __aeabi_i2f                              0x08004d8d   Thumb Code    16  fflti.o(.text)
    _fflt                                    0x08004d8d   Thumb Code     0  fflti.o(.text)
    __aeabi_ui2f                             0x08004d9d   Thumb Code     6  fflti.o(.text)
    _ffltu                                   0x08004d9d   Thumb Code     0  fflti.o(.text)
    __fpl_dcmp_InfNaN                        0x08004da5   Thumb Code   154  dcmpin.o(.text)
    __fpl_fcmp_InfNaN                        0x08004e45   Thumb Code    96  fcmpin.o(.text)
    __user_setup_stackheap                   0x08004ea9   Thumb Code    62  sys_stackheap_outer.o(.text)
    exit                                     0x08004ee7   Thumb Code    16  exit.o(.text)
    __fpl_cmpreturn                          0x08004ef7   Thumb Code    46  cmpret.o(.text)
    __fpl_dcheck_NaN2                        0x08004f25   Thumb Code    14  dnan2.o(.text)
    __fpl_fcheck_NaN2                        0x08004f39   Thumb Code    10  fnan2.o(.text)
    __user_libspace                          0x08004f49   Thumb Code     8  libspace.o(.text)
    __user_perproc_libspace                  0x08004f49   Thumb Code     0  libspace.o(.text)
    __user_perthread_libspace                0x08004f49   Thumb Code     0  libspace.o(.text)
    __fpl_return_NaN                         0x08004f51   Thumb Code    94  retnan.o(.text)
    _sys_exit                                0x08004fb1   Thumb Code     8  sys_exit.o(.text)
    __I$use$semihosting                      0x08004fbd   Thumb Code     0  use_no_semi.o(.text)
    __use_no_semihosting_swi                 0x08004fbd   Thumb Code     2  use_no_semi.o(.text)
    __aeabi_dcmple                           0x08004fbf   Thumb Code     0  dcmp.o(i._dleq)
    __semihosting_library_function           0x08004fbf   Thumb Code     0  indicate_semi.o(.text)
    _dleq                                    0x08004fbf   Thumb Code    26  dcmp.o(i._dleq)
    __aeabi_dcmplt                           0x08004fd9   Thumb Code     0  dcmp.o(i._dls)
    _dls                                     0x08004fd9   Thumb Code    22  dcmp.o(i._dls)
    __aeabi_fcmpgt                           0x08004fef   Thumb Code     0  fcmp.o(i._fgr)
    _fgr                                     0x08004fef   Thumb Code    22  fcmp.o(i._fgr)
    __aeabi_fcmplt                           0x08005005   Thumb Code     0  fcmp.o(i._fls)
    _fls                                     0x08005005   Thumb Code    22  fcmp.o(i._fls)
    __aeabi_cdcmple                          0x0800501d   Thumb Code     0  dlef.o(x$fpl$dleqf)
    _dcmple                                  0x0800501d   Thumb Code    94  dlef.o(x$fpl$dleqf)
    __aeabi_fadd                             0x08005081   Thumb Code     0  faddsub.o(x$fpl$fadd)
    _fadd                                    0x08005081   Thumb Code   134  faddsub.o(x$fpl$fadd)
    _fcmpge                                  0x0800510d   Thumb Code    78  fgef.o(x$fpl$fgeqf)
    __aeabi_cfcmple                          0x08005161   Thumb Code     0  flef.o(x$fpl$fleqf)
    _fcmple                                  0x08005161   Thumb Code    78  flef.o(x$fpl$fleqf)
    __aeabi_fmul                             0x080051b5   Thumb Code     0  fmul.o(x$fpl$fmul)
    _fmul                                    0x080051b5   Thumb Code   172  fmul.o(x$fpl$fmul)
    __aeabi_fsub                             0x08005265   Thumb Code     0  faddsub.o(x$fpl$fsub)
    _fsub                                    0x08005265   Thumb Code   204  faddsub.o(x$fpl$fsub)
    __I$use$fp                               0x08005334   Number         0  usenofp.o(x$fpl$usenofp)
    hall_to_pos                              0x08005414   Data           8  bldc.o(.rodata.hall_to_pos)
    lookUpTableAngle                         0x0800541c   Data         724  main.o(.rodata.lookUpTableAngle)
    Region$$Table$$Base                      0x080056f0   Number         0  anon$$obj.o(Region$$Table)
    Region$$Table$$Limit                     0x08005710   Number         0  anon$$obj.o(Region$$Table)
    SystemCoreClock                          0x20000000   Data           4  system_gd32e23x.o(.data.SystemCoreClock)
    batteryVoltage                           0x20000004   Data           4  bldc.o(.data.batteryVoltage)
    beepsBackwards                           0x20000008   Data           1  main.o(.data.beepsBackwards)
    currentDC                                0x2000000c   Data           4  bldc.o(.data.currentDC)
    offsetdc                                 0x20000012   Data           2  bldc.o(.data.offsetdc)
    speedLimit                               0x20000014   Data           2  main.o(.data.speedLimit)
    wState                                   0x20000016   Data           1  main.o(.data.wState)
    wStateSlave                              0x20000017   Data           1  main.o(.data.wStateSlave)
    __libspace_start                         0x20000018   Data          96  libspace.o(.bss)
    __temporary_stack_top$libspace           0x20000078   Data           0  libspace.o(.bss)
    adc_buffer                               0x20000092   Data           4  bldc.o(.bss.adc_buffer)
    beepsBackwardsMaster                     0x20000096   Data           1  commsmasterslave.o(.bss.beepsBackwardsMaster)
    bldc_enable                              0x20000097   Data           1  bldc.o(.bss.bldc_enable)
    bldc_inputFilterPwm                      0x20000098   Data           2  bldc.o(.bss.bldc_inputFilterPwm)
    bldc_outputFilterPwm                     0x2000009a   Data           2  bldc.o(.bss.bldc_outputFilterPwm)
    buzzerTimer                              0x2000009c   Data           2  bldc.o(.bss.buzzerTimer)
    dma_init_struct_adc                      0x200000a0   Data          28  setup.o(.bss.dma_init_struct_adc)
    dma_init_struct_usart                    0x200000bc   Data          28  setup.o(.bss.dma_init_struct_usart)
    enable                                   0x200000d8   Data           1  main.o(.bss.enable)
    filter_reg                               0x200000dc   Data           4  bldc.o(.bss.filter_reg)
    hall                                     0x200000e0   Data           1  bldc.o(.bss.hall)
    hall_a                                   0x200000e1   Data           1  bldc.o(.bss.hall_a)
    hall_b                                   0x200000e2   Data           1  bldc.o(.bss.hall_b)
    hall_c                                   0x200000e3   Data           1  bldc.o(.bss.hall_c)
    iOdom                                    0x200000e4   Data           4  bldc.o(.bss.iOdom)
    iTimeLastRx                              0x200000ec   Data           4  remoteuart.o(.bss.iTimeLastRx)
    iTimeNextLoop                            0x200000f0   Data           4  main.o(.bss.iTimeNextLoop)
    iTimeNextTx                              0x200000f4   Data           4  remoteuart.o(.bss.iTimeNextTx)
    inactivity_timeout_counter               0x200000f8   Data           4  main.o(.bss.inactivity_timeout_counter)
    lastPos                                  0x200000fc   Data           1  bldc.o(.bss.lastPos)
    msTicks                                  0x20000100   Data           4  it.o(.bss.msTicks)
    oDataSlave                               0x20000104   Data          16  main.o(.bss.oDataSlave)
    offsetcount                              0x20000114   Data           2  bldc.o(.bss.offsetcount)
    pos                                      0x20000116   Data           1  bldc.o(.bss.pos)
    pwmSlave                                 0x20000118   Data           2  main.o(.bss.pwmSlave)
    realSpeed                                0x2000011c   Data           4  bldc.o(.bss.realSpeed)
    speed                                    0x20000120   Data           4  main.o(.bss.speed)
    speedCounter                             0x20000124   Data           4  bldc.o(.bss.speedCounter)
    steer                                    0x20000128   Data           4  main.o(.bss.steer)
    steerCounter                             0x2000012c   Data           4  main.o(.bss.steerCounter)
    timedOut                                 0x20000130   Data           1  it.o(.bss.timedOut)
    timeoutCounter_ms                        0x20000134   Data           4  it.o(.bss.timeoutCounter_ms)
    timeoutTimer_paramter_struct             0x20000138   Data          16  setup.o(.bss.timeoutTimer_paramter_struct)
    timerBldc_break_parameter_struct         0x20000148   Data          14  setup.o(.bss.timerBldc_break_parameter_struct)
    timerBldc_oc_parameter_struct            0x20000156   Data          12  setup.o(.bss.timerBldc_oc_parameter_struct)
    timerBldc_paramter_struct                0x20000164   Data          16  setup.o(.bss.timerBldc_paramter_struct)
    usart0_rx_buf                            0x20000174   Data           1  setup.o(.bss.usart0_rx_buf)
    usart1_rx_buf                            0x20000175   Data           1  setup.o(.bss.usart1_rx_buf)



==============================================================================

Memory Map of the image

  Image Entry point : 0x080000cd

  Load Region LR_IROM1 (Base: 0x08000000, Size: 0x00005728, Max: 0x00010000, ABSOLUTE)

    Execution Region ER_IROM1 (Exec base: 0x08000000, Load base: 0x08000000, Size: 0x00005710, Max: 0x00010000, ABSOLUTE)

    Exec Addr    Load Addr    Size         Type   Attr      Idx    E Section Name        Object

    0x08000000   0x08000000   0x000000cc   Data   RO          110    RESET               startup_gd32e23x.o
    0x080000cc   0x080000cc   0x00000008   Code   RO          118  * !!!main             c_p.l(__main.o)
    0x080000d4   0x080000d4   0x0000003c   Code   RO          291    !!!scatter          c_p.l(__scatter.o)
    0x08000110   0x08000110   0x0000001a   Code   RO          292    !!handler_copy      c_p.l(__scatter_copy.o)
    0x0800012a   0x0800012a   0x00000002   PAD
    0x0800012c   0x0800012c   0x0000001c   Code   RO          293    !!handler_zi        c_p.l(__scatter_zi.o)
    0x08000148   0x08000148   0x00000002   Code   RO          178    .ARM.Collect$$libinit$$00000000  c_p.l(libinit.o)
    0x0800014a   0x0800014a   0x00000000   Code   RO          188    .ARM.Collect$$libinit$$00000002  c_p.l(libinit2.o)
    0x0800014a   0x0800014a   0x00000000   Code   RO          190    .ARM.Collect$$libinit$$00000004  c_p.l(libinit2.o)
    0x0800014a   0x0800014a   0x00000000   Code   RO          192    .ARM.Collect$$libinit$$00000006  c_p.l(libinit2.o)
    0x0800014a   0x0800014a   0x00000000   Code   RO          195    .ARM.Collect$$libinit$$0000000C  c_p.l(libinit2.o)
    0x0800014a   0x0800014a   0x00000000   Code   RO          197    .ARM.Collect$$libinit$$0000000E  c_p.l(libinit2.o)
    0x0800014a   0x0800014a   0x00000000   Code   RO          199    .ARM.Collect$$libinit$$00000010  c_p.l(libinit2.o)
    0x0800014a   0x0800014a   0x00000000   Code   RO          202    .ARM.Collect$$libinit$$00000013  c_p.l(libinit2.o)
    0x0800014a   0x0800014a   0x00000000   Code   RO          204    .ARM.Collect$$libinit$$00000015  c_p.l(libinit2.o)
    0x0800014a   0x0800014a   0x00000000   Code   RO          206    .ARM.Collect$$libinit$$00000017  c_p.l(libinit2.o)
    0x0800014a   0x0800014a   0x00000000   Code   RO          208    .ARM.Collect$$libinit$$00000019  c_p.l(libinit2.o)
    0x0800014a   0x0800014a   0x00000000   Code   RO          210    .ARM.Collect$$libinit$$0000001B  c_p.l(libinit2.o)
    0x0800014a   0x0800014a   0x00000000   Code   RO          212    .ARM.Collect$$libinit$$0000001D  c_p.l(libinit2.o)
    0x0800014a   0x0800014a   0x00000000   Code   RO          214    .ARM.Collect$$libinit$$0000001F  c_p.l(libinit2.o)
    0x0800014a   0x0800014a   0x00000000   Code   RO          216    .ARM.Collect$$libinit$$00000021  c_p.l(libinit2.o)
    0x0800014a   0x0800014a   0x00000000   Code   RO          218    .ARM.Collect$$libinit$$00000023  c_p.l(libinit2.o)
    0x0800014a   0x0800014a   0x00000000   Code   RO          220    .ARM.Collect$$libinit$$00000025  c_p.l(libinit2.o)
    0x0800014a   0x0800014a   0x00000000   Code   RO          222    .ARM.Collect$$libinit$$00000027  c_p.l(libinit2.o)
    0x0800014a   0x0800014a   0x00000000   Code   RO          226    .ARM.Collect$$libinit$$0000002E  c_p.l(libinit2.o)
    0x0800014a   0x0800014a   0x00000000   Code   RO          228    .ARM.Collect$$libinit$$00000030  c_p.l(libinit2.o)
    0x0800014a   0x0800014a   0x00000000   Code   RO          230    .ARM.Collect$$libinit$$00000032  c_p.l(libinit2.o)
    0x0800014a   0x0800014a   0x00000000   Code   RO          232    .ARM.Collect$$libinit$$00000034  c_p.l(libinit2.o)
    0x0800014a   0x0800014a   0x00000002   Code   RO          233    .ARM.Collect$$libinit$$00000035  c_p.l(libinit2.o)
    0x0800014c   0x0800014c   0x00000002   Code   RO          249    .ARM.Collect$$libshutdown$$00000000  c_p.l(libshutdown.o)
    0x0800014e   0x0800014e   0x00000000   Code   RO          258    .ARM.Collect$$libshutdown$$00000002  c_p.l(libshutdown2.o)
    0x0800014e   0x0800014e   0x00000000   Code   RO          260    .ARM.Collect$$libshutdown$$00000004  c_p.l(libshutdown2.o)
    0x0800014e   0x0800014e   0x00000000   Code   RO          263    .ARM.Collect$$libshutdown$$00000007  c_p.l(libshutdown2.o)
    0x0800014e   0x0800014e   0x00000000   Code   RO          266    .ARM.Collect$$libshutdown$$0000000A  c_p.l(libshutdown2.o)
    0x0800014e   0x0800014e   0x00000000   Code   RO          268    .ARM.Collect$$libshutdown$$0000000C  c_p.l(libshutdown2.o)
    0x0800014e   0x0800014e   0x00000000   Code   RO          271    .ARM.Collect$$libshutdown$$0000000F  c_p.l(libshutdown2.o)
    0x0800014e   0x0800014e   0x00000002   Code   RO          272    .ARM.Collect$$libshutdown$$00000010  c_p.l(libshutdown2.o)
    0x08000150   0x08000150   0x00000000   Code   RO          147    .ARM.Collect$$rtentry$$00000000  c_p.l(__rtentry.o)
    0x08000150   0x08000150   0x00000000   Code   RO          156    .ARM.Collect$$rtentry$$00000002  c_p.l(__rtentry2.o)
    0x08000150   0x08000150   0x00000006   Code   RO          168    .ARM.Collect$$rtentry$$00000004  c_p.l(__rtentry4.o)
    0x08000156   0x08000156   0x00000000   Code   RO          158    .ARM.Collect$$rtentry$$00000009  c_p.l(__rtentry2.o)
    0x08000156   0x08000156   0x00000004   Code   RO          159    .ARM.Collect$$rtentry$$0000000A  c_p.l(__rtentry2.o)
    0x0800015a   0x0800015a   0x00000000   Code   RO          161    .ARM.Collect$$rtentry$$0000000C  c_p.l(__rtentry2.o)
    0x0800015a   0x0800015a   0x00000008   Code   RO          162    .ARM.Collect$$rtentry$$0000000D  c_p.l(__rtentry2.o)
    0x08000162   0x08000162   0x00000002   Code   RO          185    .ARM.Collect$$rtexit$$00000000  c_p.l(rtexit.o)
    0x08000164   0x08000164   0x00000000   Code   RO          236    .ARM.Collect$$rtexit$$00000002  c_p.l(rtexit2.o)
    0x08000164   0x08000164   0x00000004   Code   RO          237    .ARM.Collect$$rtexit$$00000003  c_p.l(rtexit2.o)
    0x08000168   0x08000168   0x00000006   Code   RO          238    .ARM.Collect$$rtexit$$00000004  c_p.l(rtexit2.o)
    0x0800016e   0x0800016e   0x00000002   PAD
    0x08000170   0x08000170   0x00000480   Code   RO            1    .text               main.o
    0x080005f0   0x080005f0   0x00000450   Code   RO           19    .text               bldc.o
    0x08000a40   0x08000a40   0x00000804   Code   RO           43    .text               setup.o
    0x08001244   0x08001244   0x00000120   Code   RO           53    .text               it.o
    0x08001364   0x08001364   0x00000174   Code   RO           60    .text               remoteuart.o
    0x080014d8   0x080014d8   0x00000248   Code   RO           70    .text               commsmasterslave.o
    0x08001720   0x08001720   0x00000594   Code   RO           77    .text               gd32e23x_adc.o
    0x08001cb4   0x08001cb4   0x000002dc   Code   RO           79    .text               gd32e23x_dma.o
    0x08001f90   0x08001f90   0x00000140   Code   RO           83    .text               gd32e23x_fwdgt.o
    0x080020d0   0x080020d0   0x0000017c   Code   RO           85    .text               gd32e23x_gpio.o
    0x0800224c   0x0800224c   0x000000e4   Code   RO           90    .text               gd32e23x_misc.o
    0x08002330   0x08002330   0x000006c0   Code   RO           97    .text               gd32e23x_rcu.o
    0x080029f0   0x080029f0   0x00000de4   Code   RO          102    .text               gd32e23x_timer.o
    0x080037d4   0x080037d4   0x00000698   Code   RO          104    .text               gd32e23x_usart.o
    0x08003e6c   0x08003e6c   0x00000038   Code   RO          111    .text               startup_gd32e23x.o
    0x08003ea4   0x08003ea4   0x00000170   Code   RO          112    .text               system_gd32e23x.o
    0x08004014   0x08004014   0x00000006   Code   RO          117    .text               c_p.l(heapauxi.o)
    0x0800401a   0x0800401a   0x00000002   PAD
    0x0800401c   0x0800401c   0x0000007c   Code   RO          119    .text               fz_ps.l(d2f.o)
    0x08004098   0x08004098   0x00000358   Code   RO          120    .text               fz_ps.l(daddsub.o)
    0x080043f0   0x080043f0   0x00000448   Code   RO          127    .text               fz_ps.l(ddiv.o)
    0x08004838   0x08004838   0x0000006c   Code   RO          129    .text               fz_ps.l(dfixi.o)
    0x080048a4   0x080048a4   0x00000058   Code   RO          130    .text               fz_ps.l(dflti.o)
    0x080048fc   0x080048fc   0x00000248   Code   RO          131    .text               fz_ps.l(dmul.o)
    0x08004b44   0x08004b44   0x00000054   Code   RO          132    .text               fz_ps.l(f2d.o)
    0x08004b98   0x08004b98   0x00000160   Code   RO          142    .text               fz_ps.l(fdiv.o)
    0x08004cf8   0x08004cf8   0x0000004c   Code   RO          144    .text               fz_ps.l(ffixi.o)
    0x08004d44   0x08004d44   0x0000005e   Code   RO          145    .text               fz_ps.l(fflti.o)
    0x08004da2   0x08004da2   0x00000002   PAD
    0x08004da4   0x08004da4   0x000000a0   Code   RO          170    .text               fz_ps.l(dcmpin.o)
    0x08004e44   0x08004e44   0x00000064   Code   RO          171    .text               fz_ps.l(fcmpin.o)
    0x08004ea8   0x08004ea8   0x0000003e   Code   RO          172    .text               c_p.l(sys_stackheap_outer.o)
    0x08004ee6   0x08004ee6   0x00000010   Code   RO          174    .text               c_p.l(exit.o)
    0x08004ef6   0x08004ef6   0x0000002e   Code   RO          179    .text               fz_ps.l(cmpret.o)
    0x08004f24   0x08004f24   0x00000014   Code   RO          180    .text               fz_ps.l(dnan2.o)
    0x08004f38   0x08004f38   0x00000010   Code   RO          181    .text               fz_ps.l(fnan2.o)
    0x08004f48   0x08004f48   0x00000008   Code   RO          182    .text               c_p.l(libspace.o)
    0x08004f50   0x08004f50   0x0000005e   Code   RO          234    .text               fz_ps.l(retnan.o)
    0x08004fae   0x08004fae   0x00000002   PAD
    0x08004fb0   0x08004fb0   0x0000000c   Code   RO          244    .text               c_p.l(sys_exit.o)
    0x08004fbc   0x08004fbc   0x00000002   Code   RO          252    .text               c_p.l(use_no_semi.o)
    0x08004fbe   0x08004fbe   0x00000000   Code   RO          253    .text               c_p.l(indicate_semi.o)
    0x08004fbe   0x08004fbe   0x0000001a   Code   RO          124    i._dleq             fz_ps.l(dcmp.o)
    0x08004fd8   0x08004fd8   0x00000016   Code   RO          125    i._dls              fz_ps.l(dcmp.o)
    0x08004fee   0x08004fee   0x00000016   Code   RO          138    i._fgr              fz_ps.l(fcmp.o)
    0x08005004   0x08005004   0x00000016   Code   RO          140    i._fls              fz_ps.l(fcmp.o)
    0x0800501a   0x0800501a   0x00000002   PAD
    0x0800501c   0x0800501c   0x00000064   Code   RO          150    x$fpl$dleqf         fz_ps.l(dlef.o)
    0x08005080   0x08005080   0x0000008c   Code   RO          133    x$fpl$fadd          fz_ps.l(faddsub.o)
    0x0800510c   0x0800510c   0x00000054   Code   RO          152    x$fpl$fgeqf         fz_ps.l(fgef.o)
    0x08005160   0x08005160   0x00000054   Code   RO          153    x$fpl$fleqf         fz_ps.l(flef.o)
    0x080051b4   0x080051b4   0x000000b0   Code   RO          146    x$fpl$fmul          fz_ps.l(fmul.o)
    0x08005264   0x08005264   0x000000d0   Code   RO          135    x$fpl$fsub          fz_ps.l(faddsub.o)
    0x08005334   0x08005334   0x00000000   Code   RO          154    x$fpl$usenofp       fz_ps.l(usenofp.o)
    0x08005334   0x08005334   0x00000080   Data   RO          128    .constdata          fz_ps.l(ddiv.o)
    0x080053b4   0x080053b4   0x00000040   Data   RO          143    .constdata          fz_ps.l(fdiv.o)
    0x080053f4   0x080053f4   0x0000000c   Data   RO           33    .rodata..L__const.up_or_down.up_down  bldc.o
    0x08005400   0x08005400   0x0000000c   Data   RO           87    .rodata..Lswitch.table.gpio_deinit.1  gd32e23x_gpio.o
    0x0800540c   0x0800540c   0x00000008   Data   RO           99    .rodata.cst8        gd32e23x_rcu.o
    0x08005414   0x08005414   0x00000008   Data   RO           34    .rodata.hall_to_pos  bldc.o
    0x0800541c   0x0800541c   0x000002d4   Data   RO           13    .rodata.lookUpTableAngle  main.o
    0x080056f0   0x080056f0   0x00000020   Data   RO          290    Region$$Table       anon$$obj.o


    Execution Region RW_IRAM1 (Exec base: 0x20000000, Load base: 0x08005710, Size: 0x00000978, Max: 0x00002000, ABSOLUTE)

    Exec Addr    Load Addr    Size         Type   Attr      Idx    E Section Name        Object

    0x20000000   0x08005710   0x00000004   Data   RW          114    .data.SystemCoreClock  system_gd32e23x.o
    0x20000004   0x08005714   0x00000004   Data   RW           22    .data.batteryVoltage  bldc.o
    0x20000008   0x08005718   0x00000001   Data   RW           10    .data.beepsBackwards  main.o
    0x20000009   0x08005719   0x00000003   PAD
    0x2000000c   0x0800571c   0x00000004   Data   RW           23    .data.currentDC     bldc.o
    0x20000010   0x08005720   0x00000002   Data   RW           74    .data.iReceivePos   commsmasterslave.o
    0x20000012   0x08005722   0x00000002   Data   RW           30    .data.offsetdc      bldc.o
    0x20000014   0x08005724   0x00000002   Data   RW            5    .data.speedLimit    main.o
    0x20000016   0x08005726   0x00000001   Data   RW            6    .data.wState        main.o
    0x20000017   0x08005727   0x00000001   Data   RW            7    .data.wStateSlave   main.o
    0x20000018        -       0x00000060   Zero   RW          183    .bss                c_p.l(libspace.o)
    0x20000078        -       0x00000009   Zero   RW           65    .bss.aReceiveBuffer  remoteuart.o
    0x20000081        -       0x00000010   Zero   RW           75    .bss.aReceiveBuffer  commsmasterslave.o
    0x20000091   0x08005728   0x00000001   PAD
    0x20000092        -       0x00000004   Zero   RW           35    .bss.adc_buffer     bldc.o
    0x20000096        -       0x00000001   Zero   RW           73    .bss.beepsBackwardsMaster  commsmasterslave.o
    0x20000097        -       0x00000001   Zero   RW           26    .bss.bldc_enable    bldc.o
    0x20000098        -       0x00000002   Zero   RW           25    .bss.bldc_inputFilterPwm  bldc.o
    0x2000009a        -       0x00000002   Zero   RW           27    .bss.bldc_outputFilterPwm  bldc.o
    0x2000009c        -       0x00000002   Zero   RW           28    .bss.buzzerTimer    bldc.o
    0x2000009e   0x08005728   0x00000002   PAD
    0x200000a0        -       0x0000001c   Zero   RW           49    .bss.dma_init_struct_adc  setup.o
    0x200000bc        -       0x0000001c   Zero   RW           50    .bss.dma_init_struct_usart  setup.o
    0x200000d8        -       0x00000001   Zero   RW           14    .bss.enable         main.o
    0x200000d9   0x08005728   0x00000003   PAD
    0x200000dc        -       0x00000004   Zero   RW           41    .bss.filter_reg     bldc.o
    0x200000e0        -       0x00000001   Zero   RW           39    .bss.hall           bldc.o
    0x200000e1        -       0x00000001   Zero   RW           36    .bss.hall_a         bldc.o
    0x200000e2        -       0x00000001   Zero   RW           37    .bss.hall_b         bldc.o
    0x200000e3        -       0x00000001   Zero   RW           38    .bss.hall_c         bldc.o
    0x200000e4        -       0x00000004   Zero   RW           32    .bss.iOdom          bldc.o
    0x200000e8        -       0x00000002   Zero   RW           64    .bss.iReceivePos    remoteuart.o
    0x200000ea   0x08005728   0x00000002   PAD
    0x200000ec        -       0x00000004   Zero   RW           62    .bss.iTimeLastRx    remoteuart.o
    0x200000f0        -       0x00000004   Zero   RW           16    .bss.iTimeNextLoop  main.o
    0x200000f4        -       0x00000004   Zero   RW           63    .bss.iTimeNextTx    remoteuart.o
    0x200000f8        -       0x00000004   Zero   RW           12    .bss.inactivity_timeout_counter  main.o
    0x200000fc        -       0x00000001   Zero   RW           42    .bss.lastPos        bldc.o
    0x200000fd   0x08005728   0x00000003   PAD
    0x20000100        -       0x00000004   Zero   RW           57    .bss.msTicks        it.o
    0x20000104        -       0x00000010   Zero   RW           17    .bss.oDataSlave     main.o
    0x20000114        -       0x00000002   Zero   RW           29    .bss.offsetcount    bldc.o
    0x20000116        -       0x00000001   Zero   RW           40    .bss.pos            bldc.o
    0x20000117   0x08005728   0x00000001   PAD
    0x20000118        -       0x00000002   Zero   RW           15    .bss.pwmSlave       main.o
    0x2000011a   0x08005728   0x00000002   PAD
    0x2000011c        -       0x00000004   Zero   RW           24    .bss.realSpeed      bldc.o
    0x20000120        -       0x00000004   Zero   RW            4    .bss.speed          main.o
    0x20000124        -       0x00000004   Zero   RW           31    .bss.speedCounter   bldc.o
    0x20000128        -       0x00000004   Zero   RW            8    .bss.steer          main.o
    0x2000012c        -       0x00000004   Zero   RW            3    .bss.steerCounter   main.o
    0x20000130        -       0x00000001   Zero   RW           56    .bss.timedOut       it.o
    0x20000131   0x08005728   0x00000003   PAD
    0x20000134        -       0x00000004   Zero   RW           55    .bss.timeoutCounter_ms  it.o
    0x20000138        -       0x00000010   Zero   RW           45    .bss.timeoutTimer_paramter_struct  setup.o
    0x20000148        -       0x0000000e   Zero   RW           48    .bss.timerBldc_break_parameter_struct  setup.o
    0x20000156        -       0x0000000c   Zero   RW           47    .bss.timerBldc_oc_parameter_struct  setup.o
    0x20000162   0x08005728   0x00000002   PAD
    0x20000164        -       0x00000010   Zero   RW           46    .bss.timerBldc_paramter_struct  setup.o
    0x20000174        -       0x00000001   Zero   RW           52    .bss.usart0_rx_buf  setup.o
    0x20000175        -       0x00000001   Zero   RW           51    .bss.usart1_rx_buf  setup.o
    0x20000176   0x08005728   0x00000002   PAD
    0x20000178        -       0x00000400   Zero   RW          109    HEAP                startup_gd32e23x.o
    0x20000578        -       0x00000400   Zero   RW          108    STACK               startup_gd32e23x.o


==============================================================================

Image component sizes


      Code (inc. data)   RO Data    RW Data    ZI Data      Debug   Object Name

      1104        180         20         10         35          0   bldc.o
       584         64          0          2         17          0   commsmasterslave.o
      1428        184          0          0          0          0   gd32e23x_adc.o
       732        104          0          0          0          0   gd32e23x_dma.o
       320         96          0          0          0          0   gd32e23x_fwdgt.o
       380          8         12          0          0          0   gd32e23x_gpio.o
       228         44          0          0          0          0   gd32e23x_misc.o
      1728        232          8          0          0          0   gd32e23x_rcu.o
      3556        120          0          0          0          0   gd32e23x_timer.o
      1688         40          0          0          0          0   gd32e23x_usart.o
       288         48          0          0          9          0   it.o
      1152        152        724          5         39          0   main.o
       372         76          0          0         19          0   remoteuart.o
      2052        104          0          0        116          0   setup.o
        56         26        204          0       2048          0   startup_gd32e23x.o
       368         64          0          4          0          0   system_gd32e23x.o

    ----------------------------------------------------------------------
     16036       1542       1000         24       2304          0   Object Totals
         0          0         32          0          0          0   (incl. Generated)
         0          0          0          3         21          0   (incl. Padding)

    ----------------------------------------------------------------------

      Code (inc. data)   RO Data    RW Data    ZI Data      Debug   Library Member Name

         8          0          0          0          0          0   __main.o
         0          0          0          0          0          0   __rtentry.o
        12          0          0          0          0          0   __rtentry2.o
         6          0          0          0          0          0   __rtentry4.o
        60          8          0          0          0          0   __scatter.o
        26          0          0          0          0          0   __scatter_copy.o
        28          0          0          0          0          0   __scatter_zi.o
        16          0          0          0          0          0   exit.o
         6          0          0          0          0          0   heapauxi.o
         0          0          0          0          0          0   indicate_semi.o
         2          0          0          0          0          0   libinit.o
         2          0          0          0          0          0   libinit2.o
         2          0          0          0          0          0   libshutdown.o
         2          0          0          0          0          0   libshutdown2.o
         8          4          0          0         96          0   libspace.o
         2          0          0          0          0          0   rtexit.o
        10          0          0          0          0          0   rtexit2.o
        12          4          0          0          0          0   sys_exit.o
        62          0          0          0          0          0   sys_stackheap_outer.o
         2          0          0          0          0          0   use_no_semi.o
        46          0          0          0          0          0   cmpret.o
       124          4          0          0          0          0   d2f.o
       856         20          0          0          0          0   daddsub.o
        48          0          0          0          0          0   dcmp.o
       160          6          0          0          0          0   dcmpin.o
      1096         26        128          0          0          0   ddiv.o
       108         10          0          0          0          0   dfixi.o
        88          0          0          0          0          0   dflti.o
       100          4          0          0          0          0   dlef.o
       584         26          0          0          0          0   dmul.o
        20          6          0          0          0          0   dnan2.o
        84          4          0          0          0          0   f2d.o
       348          8          0          0          0          0   faddsub.o
        44          0          0          0          0          0   fcmp.o
       100          4          0          0          0          0   fcmpin.o
       352         10         64          0          0          0   fdiv.o
        76          0          0          0          0          0   ffixi.o
        94          0          0          0          0          0   fflti.o
        84          4          0          0          0          0   fgef.o
        84          4          0          0          0          0   flef.o
       176          4          0          0          0          0   fmul.o
        16          6          0          0          0          0   fnan2.o
        94          0          0          0          0          0   retnan.o
         0          0          0          0          0          0   usenofp.o

    ----------------------------------------------------------------------
      5060        162        192          0         96          0   Library Totals
        12          0          0          0          0          0   (incl. Padding)

    ----------------------------------------------------------------------

      Code (inc. data)   RO Data    RW Data    ZI Data      Debug   Library Name

       266         16          0          0         96          0   c_p.l
      4782        146        192          0          0          0   fz_ps.l

    ----------------------------------------------------------------------
      5060        162        192          0         96          0   Library Totals

    ----------------------------------------------------------------------

==============================================================================


      Code (inc. data)   RO Data    RW Data    ZI Data      Debug   

     21096       1704       1192         24       2400          0   Grand Totals
     21096       1704       1192         24       2400          0   ELF Image Totals
     21096       1704       1192         24          0          0   ROM Totals

==============================================================================

    Total RO  Size (Code + RO Data)                22288 (  21.77kB)
    Total RW  Size (RW Data + ZI Data)              2424 (   2.37kB)
    Total ROM Size (Code + RO Data + RW Data)      22312 (  21.79kB)

==============================================================================

