Component: Arm Compiler for Embedded 6.23 Tool: armlink [5f102400]

==============================================================================

Section Cross References

    main.o(.text) refers to setup.o(.text) for ConfigRead
    main.o(.text) refers to system_gd32e23x.o(.text) for SystemCoreClockUpdate
    main.o(.text) refers to gd32e23x_gpio.o(.text) for gpio_bit_write
    main.o(.text) refers to bldcsine.o(.text) for InitBldc
    main.o(.text) refers to driver.o(.text) for DriverInit
    main.o(.text) refers to gd32e23x_fwdgt.o(.text) for fwdgt_counter_reload
    main.o(.text) refers to it.o(.text) for Delay
    main.o(.text) refers to remotedummy.o(.text) for RemoteUpdate
    main.o(.text) refers to dflti.o(.text) for __aeabi_i2d
    main.o(.text) refers to ddiv.o(.text) for __aeabi_ddiv
    main.o(.text) refers to daddsub.o(.text) for __aeabi_dsub
    main.o(.text) refers to dmul.o(.text) for __aeabi_dmul
    main.o(.text) refers to dfixi.o(.text) for __aeabi_d2iz
    main.o(.text) refers to fflti.o(.text) for __aeabi_ui2f
    main.o(.text) refers to f2d.o(.text) for __aeabi_f2d
    main.o(.text) refers to d2f.o(.text) for __aeabi_d2f
    main.o(.text) refers to fmul.o(x$fpl$fmul) for __aeabi_fmul
    main.o(.text) refers to ffixi.o(.text) for __aeabi_f2iz
    main.o(.text) refers to faddsub.o(x$fpl$fsub) for __aeabi_fsub
    main.o(.text) refers to fdiv.o(.text) for __aeabi_fdiv
    main.o(.text) refers to faddsub.o(x$fpl$fadd) for __aeabi_fadd
    main.o(.text) refers to fcmp.o(i._fls) for __aeabi_fcmplt
    main.o(.text) refers to bldc.o(.text) for SetBldcInput
    main.o(.text) refers to commsmasterslave.o(.text) for SendSlave
    main.o(.text) refers to fcmp.o(i._fleq) for __aeabi_fcmple
    main.o(.text) refers to main.o(.bss.iBug) for iBug
    main.o(.text) refers to system_gd32e23x.o(.data.SystemCoreClock) for SystemCoreClock
    main.o(.text) refers to main.o(.bss.iDrivingMode) for iDrivingMode
    main.o(.text) refers to bldc.o(.bss.buzzerFreq) for buzzerFreq
    main.o(.text) refers to main.o(.bss.iTimeNextLoop) for iTimeNextLoop
    main.o(.text) refers to main.o(.bss.speed) for speed
    main.o(.text) refers to main.o(.bss.steerCounter) for steerCounter
    main.o(.text) refers to main.o(.bss.speedShutoff) for speedShutoff
    main.o(.text) refers to main.o(.bss.steer) for steer
    main.o(.text) refers to main.o(.bss.pwmSlave) for pwmSlave
    main.o(.text) refers to main.o(.data.speedLimit) for speedLimit
    main.o(.text) refers to main.o(.rodata.lookUpTableAngle) for lookUpTableAngle
    main.o(.text) refers to main.o(.data.wStateSlave) for wStateSlave
    main.o(.text) refers to main.o(.bss.enable) for enable
    main.o(.text) refers to it.o(.bss.timedOut) for timedOut
    main.o(.text) refers to bldc.o(.data.batteryVoltage) for batteryVoltage
    main.o(.text) refers to main.o(.data.wState) for wState
    main.o(.text) refers to main.o(.data.beepsBackwards) for beepsBackwards
    main.o(.text) refers to bldc.o(.bss.buzzerPattern) for buzzerPattern
    main.o(.text) refers to main.o(.bss.inactivity_timeout_counter) for inactivity_timeout_counter
    main.o(.text) refers to main.o(.bss.bPilotTimeout) for bPilotTimeout
    main.o(.text) refers to main.o(.bss.bRemoteTimeout) for bRemoteTimeout
    main.o(.text) refers to gd32e23x_usart.o(.text) for usart_deinit
    main.o(.ARM.exidx) refers to main.o(.text) for [Anonymous Symbol]
    bldc.o(.text) refers to bldc.o(.rodata..L__const.up_or_down.up_down) for [Anonymous Symbol]
    bldc.o(.text) refers to bldc.o(.bss.bldc_enable) for bldc_enable
    bldc.o(.text) refers to dflti.o(.text) for __aeabi_i2d
    bldc.o(.text) refers to ddiv.o(.text) for __aeabi_ddiv
    bldc.o(.text) refers to dmul.o(.text) for __aeabi_dmul
    bldc.o(.text) refers to dfixi.o(.text) for __aeabi_d2iz
    bldc.o(.text) refers to main.o(.bss.iDrivingMode) for iDrivingMode
    bldc.o(.text) refers to bldc.o(.bss.iBldcInput) for iBldcInput
    bldc.o(.text) refers to bldc.o(.data.iFILTER_SHIFT) for iFILTER_SHIFT
    bldc.o(.text) refers to bldc.o(.bss.bldc_outputFilterPwm) for bldc_outputFilterPwm
    bldc.o(.text) refers to bldc.o(.bss.filter_reg) for filter_reg
    bldc.o(.text) refers to f2d.o(.text) for __aeabi_f2d
    bldc.o(.text) refers to daddsub.o(.text) for __aeabi_dadd
    bldc.o(.text) refers to d2f.o(.text) for __aeabi_d2f
    bldc.o(.text) refers to gd32e23x_gpio.o(.text) for gpio_bit_write
    bldc.o(.text) refers to fcmp.o(i._fgr) for __aeabi_fcmpgt
    bldc.o(.text) refers to gd32e23x_timer.o(.text) for timer_automatic_output_disable
    bldc.o(.text) refers to driver.o(.text) for Driver
    bldc.o(.text) refers to bldcsine.o(.text) for bldc_get_pwm
    bldc.o(.text) refers to fflti.o(.text) for __aeabi_ui2f
    bldc.o(.text) refers to fdiv.o(.text) for __aeabi_fdiv
    bldc.o(.text) refers to bldc.o(.data.offsetdc) for offsetdc
    bldc.o(.text) refers to bldc.o(.bss.offsetcount) for offsetcount
    bldc.o(.text) refers to bldc.o(.bss.buzzerTimer) for buzzerTimer
    bldc.o(.text) refers to bldc.o(.data.batteryVoltage) for batteryVoltage
    bldc.o(.text) refers to bldc.o(.bss.adc_buffer) for adc_buffer
    bldc.o(.text) refers to bldc.o(.bss.buzzerFreq) for buzzerFreq
    bldc.o(.text) refers to bldc.o(.bss.buzzerPattern) for buzzerPattern
    bldc.o(.text) refers to bldc.o(.bss.buzzerToggle) for buzzerToggle
    bldc.o(.text) refers to bldc.o(.data.currentDC) for currentDC
    bldc.o(.text) refers to it.o(.bss.timedOut) for timedOut
    bldc.o(.text) refers to bldc.o(.bss.iDrivingModeOverride) for iDrivingModeOverride
    bldc.o(.text) refers to bldc.o(.bss.bldc_inputFilterPwm) for bldc_inputFilterPwm
    bldc.o(.text) refers to bldc.o(.bss.hall_a) for hall_a
    bldc.o(.text) refers to bldc.o(.bss.hall_b) for hall_b
    bldc.o(.text) refers to bldc.o(.bss.hall_c) for hall_c
    bldc.o(.text) refers to bldc.o(.bss.hall) for hall
    bldc.o(.text) refers to bldc.o(.rodata.hall_to_pos) for hall_to_pos
    bldc.o(.text) refers to bldc.o(.bss.pos) for pos
    bldc.o(.text) refers to bldc.o(.bss.lastPos) for lastPos
    bldc.o(.text) refers to bldc.o(.bss.iOdom) for iOdom
    bldc.o(.text) refers to bldc.o(.bss.speedCounterSlow) for speedCounterSlow
    bldc.o(.text) refers to bldc.o(.bss.iOdomLast) for iOdomLast
    bldc.o(.text) refers to bldc.o(.bss.speedCounterSlowLog) for speedCounterSlowLog
    bldc.o(.text) refers to bldc.o(.data.revs32ScaleSlow) for revs32ScaleSlow
    bldc.o(.text) refers to bldc.o(.bss.revs32_reg) for revs32_reg
    bldc.o(.text) refers to bldc.o(.bss.revs32) for revs32
    bldc.o(.text) refers to bldc.o(.bss.torque32_reg) for torque32_reg
    bldc.o(.text) refers to bldc.o(.bss.torque32) for torque32
    bldc.o(.text) refers to bldc.o(.bss.speedCounter) for speedCounter
    bldc.o(.text) refers to bldc.o(.bss.realSpeed) for realSpeed
    bldc.o(.text) refers to bldc.o(.bss.revs32x) for revs32x
    bldc.o(.text) refers to bldc.o(.data.revs32Scale) for revs32Scale
    bldc.o(.text) refers to bldc.o(.bss.speedCounterLog) for speedCounterLog
    bldc.o(.ARM.exidx) refers to bldc.o(.text) for [Anonymous Symbol]
    driver.o(.text) refers to fmul.o(x$fpl$fmul) for __aeabi_fmul
    driver.o(.text) refers to ffixl.o(.text) for __aeabi_f2lz
    driver.o(.text) refers to ffixi.o(.text) for __aeabi_f2iz
    driver.o(.text) refers to fdiv.o(.text) for __aeabi_fdiv
    driver.o(.text) refers to llmul.o(.text) for __aeabi_lmul
    driver.o(.text) refers to main.o(.bss.iDrivingMode) for iDrivingMode
    driver.o(.text) refers to driver.o(.bss.pid) for pid
    driver.o(.text) refers to bldc.o(.bss.iOdom) for iOdom
    driver.o(.text) refers to bldc.o(.bss.torque32) for torque32
    driver.o(.text) refers to bldc.o(.bss.revs32) for revs32
    driver.o(.ARM.exidx) refers to driver.o(.text) for [Anonymous Symbol]
    bldcsine.o(.text) refers to gd32e23x_syscfg.o(.text) for syscfg_exti_line_config
    bldcsine.o(.text) refers to gd32e23x_exti.o(.text) for exti_init
    bldcsine.o(.text) refers to gd32e23x_misc.o(.text) for nvic_irq_enable
    bldcsine.o(.text) refers to gd32e23x_rcu.o(.text) for rcu_periph_clock_enable
    bldcsine.o(.text) refers to bldcsine.o(.bss.aHallEXTI) for aHallEXTI
    bldcsine.o(.text) refers to gd32e23x_gpio.o(.text) for gpio_input_bit_get
    bldcsine.o(.text) refers to bldcsine.o(.bss.bInterrupt) for bInterrupt
    bldcsine.o(.text) refers to bldcsine.o(.bss.hall_time_last) for hall_time_last
    bldcsine.o(.text) refers to bldc.o(.bss.buzzerTimer) for buzzerTimer
    bldcsine.o(.text) refers to bldcsine.o(.bss.hall_time_step) for hall_time_step
    bldcsine.o(.text) refers to bldc.o(.bss.hall) for hall
    bldcsine.o(.text) refers to bldcsine.o(.bss.hall_last) for hall_last
    bldcsine.o(.text) refers to bldcsine.o(.bss.pwmGo) for pwmGo
    bldcsine.o(.text) refers to bldcsine.o(.rodata.cst8) for [Anonymous Symbol]
    bldcsine.o(.text) refers to bldcsine.o(.bss.sector) for sector
    bldcsine.o(.text) refers to bldcsine.o(.bss.angle_deg_add) for angle_deg_add
    bldcsine.o(.text) refers to bldcsine.o(.bss.sector10x) for sector10x
    bldcsine.o(.text) refers to bldcsine.o(.bss.angle_deg) for angle_deg
    bldcsine.o(.text) refers to bldcsine.o(.bss.hall_time_step_LPR) for hall_time_step_LPR
    bldcsine.o(.text) refers to bldcsine.o(.bss.sectorChange) for sectorChange
    bldcsine.o(.text) refers to bldcsine.o(.bss.hall_time_step_LP) for hall_time_step_LP
    bldcsine.o(.text) refers to bldcsine.o(.bss.iDT) for iDT
    bldcsine.o(.text) refers to bldcsine.o(.bss.iAdd) for iAdd
    bldcsine.o(.text) refers to bldcsine.o(.rodata.sine_table) for [Anonymous Symbol]
    bldcsine.o(.text) refers to bldcsine.o(.bss.angle_deg_final) for angle_deg_final
    bldcsine.o(.text) refers to bldcsine.o(.bss.angle_idx) for angle_idx
    bldcsine.o(.ARM.exidx) refers to bldcsine.o(.text) for [Anonymous Symbol]
    setup.o(.text) refers to gd32e23x_gpio.o(.text) for gpio_mode_set
    setup.o(.text) refers to gd32e23x_rcu.o(.text) for rcu_flag_get
    setup.o(.text) refers to gd32e23x_fwdgt.o(.text) for fwdgt_config
    setup.o(.text) refers to gd32e23x_timer.o(.text) for timer_deinit
    setup.o(.text) refers to gd32e23x_misc.o(.text) for nvic_irq_enable
    setup.o(.text) refers to setup.o(.bss.timeoutTimer_paramter_struct) for timeoutTimer_paramter_struct
    setup.o(.text) refers to setup.o(.bss.timerBldc_paramter_struct) for timerBldc_paramter_struct
    setup.o(.text) refers to setup.o(.bss.timerBldc_oc_parameter_struct) for timerBldc_oc_parameter_struct
    setup.o(.text) refers to setup.o(.bss.timerBldc_break_parameter_struct) for timerBldc_break_parameter_struct
    setup.o(.text) refers to gd32e23x_dma.o(.text) for dma_deinit
    setup.o(.text) refers to gd32e23x_adc.o(.text) for adc_channel_length_config
    setup.o(.text) refers to setup.o(.bss.dma_init_struct_adc) for dma_init_struct_adc
    setup.o(.text) refers to bldc.o(.bss.adc_buffer) for adc_buffer
    setup.o(.text) refers to gd32e23x_usart.o(.text) for usart_baudrate_set
    setup.o(.text) refers to setup.o(.bss.dma_init_struct_usart) for dma_init_struct_usart
    setup.o(.text) refers to setup.o(.bss.usart1_rx_buf) for usart1_rx_buf
    setup.o(.text) refers to gd32e23x_fmc.o(.text) for fmc_unlock
    setup.o(.text) refers to setup.o(.bss.oConfig) for oConfig
    setup.o(.ARM.exidx) refers to setup.o(.text) for [Anonymous Symbol]
    it.o(.text) refers to it.o(.bss.msTicks) for msTicks
    it.o(.text) refers to it.o(.bss.timeoutCounter_ms) for timeoutCounter_ms
    it.o(.text) refers to gd32e23x_timer.o(.text) for timer_interrupt_flag_clear
    it.o(.text) refers to it.o(.bss.timedOut) for timedOut
    it.o(.text) refers to main.o(.bss.speed) for speed
    it.o(.text) refers to main.o(.bss.steer) for steer
    it.o(.text) refers to main.o(.data.beepsBackwards) for beepsBackwards
    it.o(.text) refers to gd32e23x_adc.o(.text) for adc_software_trigger_enable
    it.o(.text) refers to it.o(.bss.iPwmCounter) for iPwmCounter
    it.o(.text) refers to it.o(.bss.iPwmTicks0) for iPwmTicks0
    it.o(.text) refers to it.o(.bss.iPwmTicks) for iPwmTicks
    it.o(.text) refers to bldc.o(.text) for CalculateBLDC
    it.o(.text) refers to gd32e23x_dma.o(.text) for dma_interrupt_flag_get
    it.o(.text) refers to it.o(.bss.iAdcCounter) for iAdcCounter
    it.o(.text) refers to it.o(.bss.iAdcTicks0) for iAdcTicks0
    it.o(.text) refers to it.o(.bss.iAdcTicks) for iAdcTicks
    it.o(.text) refers to commsmasterslave.o(.text) for UpdateUSARTMasterSlaveInput
    it.o(.text) refers to it.o(.bss.iCounterUsart1) for iCounterUsart1
    it.o(.text) refers to it.o(.bss.iCounter2Usart1) for iCounter2Usart1
    it.o(.ARM.exidx) refers to it.o(.text) for [Anonymous Symbol]
    comms.o(.text) refers to gd32e23x_usart.o(.text) for usart_data_transmit
    comms.o(.ARM.exidx) refers to comms.o(.text) for [Anonymous Symbol]
    remotedummy.o(.text) refers to it.o(.text) for ResetTimeout
    remotedummy.o(.text) refers to main.o(.bss.iDrivingMode) for iDrivingMode
    remotedummy.o(.text) refers to main.o(.bss.steer) for steer
    remotedummy.o(.text) refers to it.o(.bss.msTicks) for msTicks
    remotedummy.o(.text) refers to main.o(.bss.speed) for speed
    remotedummy.o(.ARM.exidx) refers to remotedummy.o(.text) for [Anonymous Symbol]
    commsmasterslave.o(.text) refers to comms.o(.text) for CalcCRC
    commsmasterslave.o(.text) refers to setup.o(.bss.usart1_rx_buf) for usart1_rx_buf
    commsmasterslave.o(.text) refers to commsmasterslave.o(.data.iReceivePos) for [Anonymous Symbol]
    commsmasterslave.o(.text) refers to commsmasterslave.o(.bss.aReceiveBuffer) for [Anonymous Symbol]
    commsmasterslave.o(.text) refers to main.o(.bss.oDataSlave) for oDataSlave
    commsmasterslave.o(.text) refers to main.o(.data.wStateSlave) for wStateSlave
    commsmasterslave.o(.ARM.exidx) refers to commsmasterslave.o(.text) for [Anonymous Symbol]
    segger_rtt.o(.text) refers to rt_memclr.o(.text) for __aeabi_memclr4
    segger_rtt.o(.text) refers to rt_memcpy.o(.text) for __aeabi_memcpy
    segger_rtt.o(.text) refers to segger_rtt.o(.bss._SEGGER_RTT) for _SEGGER_RTT
    segger_rtt.o(.text) refers to segger_rtt.o(.rodata.str1.1) for [Anonymous Symbol]
    segger_rtt.o(.text) refers to segger_rtt.o(.bss._acUpBuffer) for [Anonymous Symbol]
    segger_rtt.o(.text) refers to segger_rtt.o(.bss._acDownBuffer) for [Anonymous Symbol]
    segger_rtt.o(.text) refers to segger_rtt.o(.rodata._DoInit._aInitStr) for [Anonymous Symbol]
    segger_rtt.o(.text) refers to strlen.o(.text) for strlen
    segger_rtt.o(.text) refers to segger_rtt.o(.rodata.cst16) for [Anonymous Symbol]
    segger_rtt.o(.text) refers to segger_rtt.o(.bss._ActiveTerminal) for [Anonymous Symbol]
    segger_rtt.o(.ARM.exidx) refers to segger_rtt.o(.text) for [Anonymous Symbol]
    gd32e23x_adc.o(.text) refers to gd32e23x_rcu.o(.text) for rcu_periph_reset_enable
    gd32e23x_adc.o(.ARM.exidx) refers to gd32e23x_adc.o(.text) for [Anonymous Symbol]
    gd32e23x_dma.o(.ARM.exidx) refers to gd32e23x_dma.o(.text) for [Anonymous Symbol]
    gd32e23x_exti.o(.ARM.exidx) refers to gd32e23x_exti.o(.text) for [Anonymous Symbol]
    gd32e23x_fmc.o(.ARM.exidx) refers to gd32e23x_fmc.o(.text) for [Anonymous Symbol]
    gd32e23x_fwdgt.o(.ARM.exidx) refers to gd32e23x_fwdgt.o(.text) for [Anonymous Symbol]
    gd32e23x_gpio.o(.text) refers to gd32e23x_rcu.o(.text) for rcu_periph_reset_enable
    gd32e23x_gpio.o(.text) refers to gd32e23x_gpio.o(.rodata..Lswitch.table.gpio_deinit.1) for [Anonymous Symbol]
    gd32e23x_gpio.o(.ARM.exidx) refers to gd32e23x_gpio.o(.text) for [Anonymous Symbol]
    gd32e23x_i2c.o(.text) refers to gd32e23x_rcu.o(.text) for rcu_periph_reset_enable
    gd32e23x_i2c.o(.ARM.exidx) refers to gd32e23x_i2c.o(.text) for [Anonymous Symbol]
    gd32e23x_misc.o(.ARM.exidx) refers to gd32e23x_misc.o(.text) for [Anonymous Symbol]
    gd32e23x_pmu.o(.text) refers to gd32e23x_rcu.o(.text) for rcu_periph_reset_enable
    gd32e23x_pmu.o(.text) refers to gd32e23x_pmu.o(.bss.pmu_to_deepsleepmode.reg_snap.0) for [Anonymous Symbol]
    gd32e23x_pmu.o(.text) refers to gd32e23x_pmu.o(.bss.pmu_to_deepsleepmode.reg_snap.1) for [Anonymous Symbol]
    gd32e23x_pmu.o(.text) refers to gd32e23x_pmu.o(.bss.pmu_to_deepsleepmode.reg_snap.2) for [Anonymous Symbol]
    gd32e23x_pmu.o(.ARM.exidx) refers to gd32e23x_pmu.o(.text) for [Anonymous Symbol]
    gd32e23x_rcu.o(.text) refers to gd32e23x_rcu.o(.rodata.cst8) for [Anonymous Symbol]
    gd32e23x_rcu.o(.ARM.exidx) refers to gd32e23x_rcu.o(.text) for [Anonymous Symbol]
    gd32e23x_syscfg.o(.text) refers to gd32e23x_rcu.o(.text) for rcu_periph_reset_enable
    gd32e23x_syscfg.o(.ARM.exidx) refers to gd32e23x_syscfg.o(.text) for [Anonymous Symbol]
    gd32e23x_timer.o(.text) refers to gd32e23x_rcu.o(.text) for rcu_periph_reset_enable
    gd32e23x_timer.o(.ARM.exidx) refers to gd32e23x_timer.o(.text) for [Anonymous Symbol]
    gd32e23x_usart.o(.text) refers to gd32e23x_rcu.o(.text) for rcu_periph_reset_enable
    gd32e23x_usart.o(.ARM.exidx) refers to gd32e23x_usart.o(.text) for [Anonymous Symbol]
    gd32e23x_wwdgt.o(.text) refers to gd32e23x_rcu.o(.text) for rcu_periph_reset_enable
    gd32e23x_wwdgt.o(.ARM.exidx) refers to gd32e23x_wwdgt.o(.text) for [Anonymous Symbol]
    startup_gd32e23x.o(STACK) refers (Special) to heapauxi.o(.text) for __use_two_region_memory
    startup_gd32e23x.o(HEAP) refers (Special) to heapauxi.o(.text) for __use_two_region_memory
    startup_gd32e23x.o(RESET) refers (Special) to heapauxi.o(.text) for __use_two_region_memory
    startup_gd32e23x.o(RESET) refers to startup_gd32e23x.o(STACK) for __initial_sp
    startup_gd32e23x.o(RESET) refers to startup_gd32e23x.o(.text) for Reset_Handler
    startup_gd32e23x.o(RESET) refers to it.o(.text) for NMI_Handler
    startup_gd32e23x.o(RESET) refers to bldcsine.o(.text) for EXTI0_1_IRQHandler
    startup_gd32e23x.o(.text) refers (Special) to heapauxi.o(.text) for __use_two_region_memory
    startup_gd32e23x.o(.text) refers to system_gd32e23x.o(.text) for SystemInit
    startup_gd32e23x.o(.text) refers to __main.o(!!!main) for __main
    startup_gd32e23x.o(.text) refers to startup_gd32e23x.o(HEAP) for Heap_Mem
    startup_gd32e23x.o(.text) refers to startup_gd32e23x.o(STACK) for Stack_Mem
    system_gd32e23x.o(.text) refers to gd32e23x_misc.o(.text) for nvic_vector_table_set
    system_gd32e23x.o(.text) refers to system_gd32e23x.o(.data.SystemCoreClock) for SystemCoreClock
    system_gd32e23x.o(.ARM.exidx) refers to system_gd32e23x.o(.text) for [Anonymous Symbol]
    rt_memcpy.o(.text) refers to rt_memcpy.o(.emb_text) for __aeabi_memcpy4
    __main.o(!!!main) refers to __rtentry.o(.ARM.Collect$$rtentry$$00000000) for __rt_entry
    d2f.o(.text) refers (Special) to usenofp.o(x$fpl$usenofp) for __I$use$fp
    daddsub.o(.text) refers (Special) to usenofp.o(x$fpl$usenofp) for __I$use$fp
    ddiv.o(.text) refers (Special) to usenofp.o(x$fpl$usenofp) for __I$use$fp
    ddiv.o(.text) refers to ddiv.o(.constdata) for .constdata
    ddiv.o(.constdata) refers (Special) to usenofp.o(x$fpl$usenofp) for __I$use$fp
    dfixi.o(.text) refers (Special) to usenofp.o(x$fpl$usenofp) for __I$use$fp
    dflti.o(.text) refers (Special) to usenofp.o(x$fpl$usenofp) for __I$use$fp
    dmul.o(.text) refers (Special) to usenofp.o(x$fpl$usenofp) for __I$use$fp
    f2d.o(.text) refers (Special) to usenofp.o(x$fpl$usenofp) for __I$use$fp
    faddsub.o(x$fpl$fadd) refers (Special) to usenofp.o(x$fpl$usenofp) for __I$use$fp
    faddsub.o(x$fpl$fadd) refers to faddsub.o(x$fpl$fsub) for _fsub1
    faddsub.o(x$fpl$frsb) refers (Special) to usenofp.o(x$fpl$usenofp) for __I$use$fp
    faddsub.o(x$fpl$frsb) refers to faddsub.o(x$fpl$fsub) for _fsub1
    faddsub.o(x$fpl$frsb) refers to faddsub.o(x$fpl$fadd) for _fadd1
    faddsub.o(x$fpl$fsub) refers (Special) to usenofp.o(x$fpl$usenofp) for __I$use$fp
    faddsub.o(x$fpl$fsub) refers to faddsub.o(x$fpl$fadd) for _fadd1
    fcmp.o(i.__eqsf2) refers (Special) to usenofp.o(x$fpl$usenofp) for __I$use$fp
    fcmp.o(i.__eqsf2) refers to feqf.o(x$fpl$feqf) for _fcmpeq
    fcmp.o(i.__gesf2) refers (Special) to usenofp.o(x$fpl$usenofp) for __I$use$fp
    fcmp.o(i.__gesf2) refers to fgef.o(x$fpl$fgeqf) for _fcmpge
    fcmp.o(i.__gtsf2) refers (Special) to usenofp.o(x$fpl$usenofp) for __I$use$fp
    fcmp.o(i.__gtsf2) refers to fgef.o(x$fpl$fgeqf) for _fcmpge
    fcmp.o(i.__lesf2) refers (Special) to usenofp.o(x$fpl$usenofp) for __I$use$fp
    fcmp.o(i.__lesf2) refers to flef.o(x$fpl$fleqf) for _fcmple
    fcmp.o(i.__ltsf2) refers (Special) to usenofp.o(x$fpl$usenofp) for __I$use$fp
    fcmp.o(i.__ltsf2) refers to flef.o(x$fpl$fleqf) for _fcmple
    fcmp.o(i.__nesf2) refers (Special) to usenofp.o(x$fpl$usenofp) for __I$use$fp
    fcmp.o(i.__nesf2) refers to feqf.o(x$fpl$feqf) for _fcmpeq
    fcmp.o(i._feq) refers (Special) to usenofp.o(x$fpl$usenofp) for __I$use$fp
    fcmp.o(i._feq) refers to feqf.o(x$fpl$feqf) for _fcmpeq
    fcmp.o(i._fgeq) refers (Special) to usenofp.o(x$fpl$usenofp) for __I$use$fp
    fcmp.o(i._fgeq) refers to fgef.o(x$fpl$fgeqf) for _fcmpge
    fcmp.o(i._fgr) refers (Special) to usenofp.o(x$fpl$usenofp) for __I$use$fp
    fcmp.o(i._fgr) refers to fgef.o(x$fpl$fgeqf) for _fcmpge
    fcmp.o(i._fleq) refers (Special) to usenofp.o(x$fpl$usenofp) for __I$use$fp
    fcmp.o(i._fleq) refers to flef.o(x$fpl$fleqf) for _fcmple
    fcmp.o(i._fls) refers (Special) to usenofp.o(x$fpl$usenofp) for __I$use$fp
    fcmp.o(i._fls) refers to flef.o(x$fpl$fleqf) for _fcmple
    fcmp.o(i._fneq) refers (Special) to usenofp.o(x$fpl$usenofp) for __I$use$fp
    fcmp.o(i._fneq) refers to feqf.o(x$fpl$feqf) for _fcmpeq
    fdiv.o(.text) refers (Special) to usenofp.o(x$fpl$usenofp) for __I$use$fp
    fdiv.o(.text) refers to fdiv.o(.constdata) for .constdata
    fdiv.o(.constdata) refers (Special) to usenofp.o(x$fpl$usenofp) for __I$use$fp
    ffixi.o(.text) refers (Special) to usenofp.o(x$fpl$usenofp) for __I$use$fp
    ffixl.o(.text) refers (Special) to usenofp.o(x$fpl$usenofp) for __I$use$fp
    fflti.o(.text) refers (Special) to usenofp.o(x$fpl$usenofp) for __I$use$fp
    fmul.o(x$fpl$fmul) refers (Special) to usenofp.o(x$fpl$usenofp) for __I$use$fp
    __rtentry.o(.ARM.Collect$$rtentry$$00000000) refers (Special) to __rtentry2.o(.ARM.Collect$$rtentry$$0000000A) for __rt_entry_li
    __rtentry.o(.ARM.Collect$$rtentry$$00000000) refers (Special) to __rtentry2.o(.ARM.Collect$$rtentry$$0000000D) for __rt_entry_main
    __rtentry.o(.ARM.Collect$$rtentry$$00000000) refers (Special) to __rtentry2.o(.ARM.Collect$$rtentry$$0000000C) for __rt_entry_postli_1
    __rtentry.o(.ARM.Collect$$rtentry$$00000000) refers (Special) to __rtentry2.o(.ARM.Collect$$rtentry$$00000009) for __rt_entry_postsh_1
    __rtentry.o(.ARM.Collect$$rtentry$$00000000) refers (Special) to __rtentry2.o(.ARM.Collect$$rtentry$$00000002) for __rt_entry_presh_1
    __rtentry.o(.ARM.Collect$$rtentry$$00000000) refers (Special) to __rtentry4.o(.ARM.Collect$$rtentry$$00000004) for __rt_entry_sh
    feqf.o(x$fpl$feqf) refers (Special) to usenofp.o(x$fpl$usenofp) for __I$use$fp
    feqf.o(x$fpl$feqf) refers to fcmpin.o(.text) for __fpl_fcmp_InfNaN
    fgef.o(x$fpl$fgeqf) refers (Special) to usenofp.o(x$fpl$usenofp) for __I$use$fp
    fgef.o(x$fpl$fgeqf) refers to fcmpin.o(.text) for __fpl_fcmp_InfNaN
    flef.o(x$fpl$fleqf) refers (Special) to usenofp.o(x$fpl$usenofp) for __I$use$fp
    flef.o(x$fpl$fleqf) refers to fcmpin.o(.text) for __fpl_fcmp_InfNaN
    __rtentry2.o(.ARM.Collect$$rtentry$$00000008) refers to boardinit2.o(.text) for _platform_post_stackheap_init
    __rtentry2.o(.ARM.Collect$$rtentry$$0000000A) refers to libinit.o(.ARM.Collect$$libinit$$00000000) for __rt_lib_init
    __rtentry2.o(.ARM.Collect$$rtentry$$0000000B) refers to boardinit3.o(.text) for _platform_post_lib_init
    __rtentry2.o(.ARM.Collect$$rtentry$$0000000D) refers to main.o(.text) for main
    __rtentry2.o(.ARM.Collect$$rtentry$$0000000D) refers to exit.o(.text) for exit
    __rtentry2.o(.ARM.exidx) refers to __rtentry2.o(.ARM.Collect$$rtentry$$00000001) for .ARM.Collect$$rtentry$$00000001
    __rtentry2.o(.ARM.exidx) refers to __rtentry2.o(.ARM.Collect$$rtentry$$00000008) for .ARM.Collect$$rtentry$$00000008
    __rtentry2.o(.ARM.exidx) refers to __rtentry2.o(.ARM.Collect$$rtentry$$0000000A) for .ARM.Collect$$rtentry$$0000000A
    __rtentry2.o(.ARM.exidx) refers to __rtentry2.o(.ARM.Collect$$rtentry$$0000000B) for .ARM.Collect$$rtentry$$0000000B
    __rtentry2.o(.ARM.exidx) refers to __rtentry2.o(.ARM.Collect$$rtentry$$0000000D) for .ARM.Collect$$rtentry$$0000000D
    __rtentry4.o(.ARM.Collect$$rtentry$$00000004) refers to sys_stackheap_outer.o(.text) for __user_setup_stackheap
    __rtentry4.o(.ARM.exidx) refers to __rtentry4.o(.ARM.Collect$$rtentry$$00000004) for .ARM.Collect$$rtentry$$00000004
    fcmpin.o(.text) refers (Special) to usenofp.o(x$fpl$usenofp) for __I$use$fp
    fcmpin.o(.text) refers to cmpret.o(.text) for __fpl_cmpreturn
    fcmpin.o(.text) refers to fnan2.o(.text) for __fpl_fcheck_NaN2
    sys_stackheap_outer.o(.text) refers to libspace.o(.text) for __user_perproc_libspace
    sys_stackheap_outer.o(.text) refers to startup_gd32e23x.o(.text) for __user_initial_stackheap
    sys_stackheap_outer.o(__vectab_stack_and_reset_area) refers to tempstk.o(.text) for __temporary_stack_top
    sys_stackheap_outer.o(__vectab_stack_and_reset_area) refers to __main.o(!!!main) for __main
    exit.o(.text) refers to rtexit.o(.ARM.Collect$$rtexit$$00000000) for __rt_exit
    libinit.o(.ARM.Collect$$libinit$$00000000) refers (Special) to libinit2.o(.ARM.Collect$$libinit$$00000030) for __rt_lib_init_alloca_1
    libinit.o(.ARM.Collect$$libinit$$00000000) refers (Special) to libinit2.o(.ARM.Collect$$libinit$$0000002E) for __rt_lib_init_argv_1
    libinit.o(.ARM.Collect$$libinit$$00000000) refers (Special) to libinit2.o(.ARM.Collect$$libinit$$0000001D) for __rt_lib_init_atexit_1
    libinit.o(.ARM.Collect$$libinit$$00000000) refers (Special) to libinit2.o(.ARM.Collect$$libinit$$00000023) for __rt_lib_init_clock_1
    libinit.o(.ARM.Collect$$libinit$$00000000) refers (Special) to libinit2.o(.ARM.Collect$$libinit$$00000034) for __rt_lib_init_cpp_1
    libinit.o(.ARM.Collect$$libinit$$00000000) refers (Special) to libinit2.o(.ARM.Collect$$libinit$$00000032) for __rt_lib_init_exceptions_1
    libinit.o(.ARM.Collect$$libinit$$00000000) refers (Special) to libinit2.o(.ARM.Collect$$libinit$$00000002) for __rt_lib_init_fp_1
    libinit.o(.ARM.Collect$$libinit$$00000000) refers (Special) to libinit2.o(.ARM.Collect$$libinit$$00000021) for __rt_lib_init_fp_trap_1
    libinit.o(.ARM.Collect$$libinit$$00000000) refers (Special) to libinit2.o(.ARM.Collect$$libinit$$00000025) for __rt_lib_init_getenv_1
    libinit.o(.ARM.Collect$$libinit$$00000000) refers (Special) to libinit2.o(.ARM.Collect$$libinit$$0000000C) for __rt_lib_init_heap_1
    libinit.o(.ARM.Collect$$libinit$$00000000) refers (Special) to libinit2.o(.ARM.Collect$$libinit$$00000013) for __rt_lib_init_lc_collate_1
    libinit.o(.ARM.Collect$$libinit$$00000000) refers (Special) to libinit2.o(.ARM.Collect$$libinit$$00000015) for __rt_lib_init_lc_ctype_1
    libinit.o(.ARM.Collect$$libinit$$00000000) refers (Special) to libinit2.o(.ARM.Collect$$libinit$$00000017) for __rt_lib_init_lc_monetary_1
    libinit.o(.ARM.Collect$$libinit$$00000000) refers (Special) to libinit2.o(.ARM.Collect$$libinit$$00000019) for __rt_lib_init_lc_numeric_1
    libinit.o(.ARM.Collect$$libinit$$00000000) refers (Special) to libinit2.o(.ARM.Collect$$libinit$$0000001B) for __rt_lib_init_lc_time_1
    libinit.o(.ARM.Collect$$libinit$$00000000) refers (Special) to libinit2.o(.ARM.Collect$$libinit$$00000006) for __rt_lib_init_preinit_1
    libinit.o(.ARM.Collect$$libinit$$00000000) refers (Special) to libinit2.o(.ARM.Collect$$libinit$$00000010) for __rt_lib_init_rand_1
    libinit.o(.ARM.Collect$$libinit$$00000000) refers (Special) to libinit2.o(.ARM.Collect$$libinit$$00000004) for __rt_lib_init_relocate_pie_1
    libinit.o(.ARM.Collect$$libinit$$00000000) refers (Special) to libinit2.o(.ARM.Collect$$libinit$$00000035) for __rt_lib_init_return
    libinit.o(.ARM.Collect$$libinit$$00000000) refers (Special) to libinit2.o(.ARM.Collect$$libinit$$0000001F) for __rt_lib_init_signal_1
    libinit.o(.ARM.Collect$$libinit$$00000000) refers (Special) to libinit2.o(.ARM.Collect$$libinit$$00000027) for __rt_lib_init_stdio_1
    libinit.o(.ARM.Collect$$libinit$$00000000) refers (Special) to libinit2.o(.ARM.Collect$$libinit$$0000000E) for __rt_lib_init_user_alloc_1
    cmpret.o(.text) refers (Special) to usenofp.o(x$fpl$usenofp) for __I$use$fp
    fnan2.o(.text) refers (Special) to usenofp.o(x$fpl$usenofp) for __I$use$fp
    fnan2.o(.text) refers to retnan.o(.text) for __fpl_return_NaN
    libspace.o(.text) refers to libspace.o(.bss) for __libspace_start
    rtexit.o(.ARM.Collect$$rtexit$$00000000) refers (Special) to rtexit2.o(.ARM.Collect$$rtexit$$00000004) for __rt_exit_exit
    rtexit.o(.ARM.Collect$$rtexit$$00000000) refers (Special) to rtexit2.o(.ARM.Collect$$rtexit$$00000003) for __rt_exit_ls
    rtexit.o(.ARM.Collect$$rtexit$$00000000) refers (Special) to rtexit2.o(.ARM.Collect$$rtexit$$00000002) for __rt_exit_prels_1
    rtexit.o(.ARM.exidx) refers (Special) to rtexit2.o(.ARM.Collect$$rtexit$$00000004) for __rt_exit_exit
    rtexit.o(.ARM.exidx) refers (Special) to rtexit2.o(.ARM.Collect$$rtexit$$00000003) for __rt_exit_ls
    rtexit.o(.ARM.exidx) refers (Special) to rtexit2.o(.ARM.Collect$$rtexit$$00000002) for __rt_exit_prels_1
    rtexit.o(.ARM.exidx) refers to rtexit.o(.ARM.Collect$$rtexit$$00000000) for .ARM.Collect$$rtexit$$00000000
    libinit2.o(.ARM.Collect$$libinit$$00000012) refers to libinit2.o(.ARM.Collect$$libinit$$00000011) for .ARM.Collect$$libinit$$00000011
    libinit2.o(.ARM.Collect$$libinit$$00000014) refers to libinit2.o(.ARM.Collect$$libinit$$00000011) for .ARM.Collect$$libinit$$00000011
    libinit2.o(.ARM.Collect$$libinit$$00000016) refers to libinit2.o(.ARM.Collect$$libinit$$00000011) for .ARM.Collect$$libinit$$00000011
    libinit2.o(.ARM.Collect$$libinit$$00000018) refers to libinit2.o(.ARM.Collect$$libinit$$00000011) for .ARM.Collect$$libinit$$00000011
    libinit2.o(.ARM.Collect$$libinit$$0000001A) refers to libinit2.o(.ARM.Collect$$libinit$$00000011) for .ARM.Collect$$libinit$$00000011
    libinit2.o(.ARM.Collect$$libinit$$00000028) refers to argv_veneer.o(.text) for __ARM_argv_veneer
    libinit2.o(.ARM.Collect$$libinit$$00000029) refers to argv_veneer.o(.text) for __ARM_argv_veneer
    retnan.o(.text) refers (Special) to usenofp.o(x$fpl$usenofp) for __I$use$fp
    retnan.o(.text) refers to cmpret.o(.text) for __fpl_cmpreturn
    rtexit2.o(.ARM.Collect$$rtexit$$00000003) refers to libshutdown.o(.ARM.Collect$$libshutdown$$00000000) for __rt_lib_shutdown
    rtexit2.o(.ARM.Collect$$rtexit$$00000004) refers to sys_exit.o(.text) for _sys_exit
    rtexit2.o(.ARM.exidx) refers to rtexit2.o(.ARM.Collect$$rtexit$$00000001) for .ARM.Collect$$rtexit$$00000001
    rtexit2.o(.ARM.exidx) refers to rtexit2.o(.ARM.Collect$$rtexit$$00000003) for .ARM.Collect$$rtexit$$00000003
    rtexit2.o(.ARM.exidx) refers to rtexit2.o(.ARM.Collect$$rtexit$$00000004) for .ARM.Collect$$rtexit$$00000004
    sys_exit.o(.text) refers (Special) to use_no_semi.o(.text) for __I$use$semihosting
    sys_exit.o(.text) refers (Special) to indicate_semi.o(.text) for __semihosting_library_function
    sys_exit_hlt.o(.text) refers (Special) to use_no_semi.o(.text) for __I$use$semihosting
    sys_exit_hlt.o(.text) refers (Special) to indicate_semi.o(.text) for __semihosting_library_function
    _get_argv_nomalloc.o(.text) refers (Special) to hrguard.o(.text) for __heap_region$guard
    _get_argv_nomalloc.o(.text) refers to defsig_rtmem_outer.o(.text) for __rt_SIGRTMEM
    _get_argv_nomalloc.o(.text) refers to sys_command.o(.text) for _sys_command_string
    libshutdown.o(.ARM.Collect$$libshutdown$$00000000) refers (Special) to libshutdown2.o(.ARM.Collect$$libshutdown$$00000002) for __rt_lib_shutdown_cpp_1
    libshutdown.o(.ARM.Collect$$libshutdown$$00000000) refers (Special) to libshutdown2.o(.ARM.Collect$$libshutdown$$00000007) for __rt_lib_shutdown_fp_trap_1
    libshutdown.o(.ARM.Collect$$libshutdown$$00000000) refers (Special) to libshutdown2.o(.ARM.Collect$$libshutdown$$0000000F) for __rt_lib_shutdown_heap_1
    libshutdown.o(.ARM.Collect$$libshutdown$$00000000) refers (Special) to libshutdown2.o(.ARM.Collect$$libshutdown$$00000010) for __rt_lib_shutdown_return
    libshutdown.o(.ARM.Collect$$libshutdown$$00000000) refers (Special) to libshutdown2.o(.ARM.Collect$$libshutdown$$0000000A) for __rt_lib_shutdown_signal_1
    libshutdown.o(.ARM.Collect$$libshutdown$$00000000) refers (Special) to libshutdown2.o(.ARM.Collect$$libshutdown$$00000004) for __rt_lib_shutdown_stdio_1
    libshutdown.o(.ARM.Collect$$libshutdown$$00000000) refers (Special) to libshutdown2.o(.ARM.Collect$$libshutdown$$0000000C) for __rt_lib_shutdown_user_alloc_1
    sys_command.o(.text) refers (Special) to use_no_semi.o(.text) for __I$use$semihosting
    sys_command.o(.text) refers (Special) to indicate_semi.o(.text) for __semihosting_library_function
    sys_command_hlt.o(.text) refers (Special) to use_no_semi.o(.text) for __I$use$semihosting
    sys_command_hlt.o(.text) refers (Special) to indicate_semi.o(.text) for __semihosting_library_function
    defsig_rtmem_outer.o(.text) refers to defsig_rtmem_inner.o(.text) for __rt_SIGRTMEM_inner
    defsig_rtmem_outer.o(.text) refers to defsig_exit.o(.text) for __sig_exit
    defsig_rtmem_formal.o(.text) refers to rt_raise.o(.text) for __rt_raise
    rt_raise.o(.text) refers to __raise.o(.text) for __raise
    rt_raise.o(.text) refers to sys_exit.o(.text) for _sys_exit
    defsig_exit.o(.text) refers to sys_exit.o(.text) for _sys_exit
    defsig_rtmem_inner.o(.text) refers to defsig_general.o(.text) for __default_signal_display
    __raise.o(.text) refers to defsig.o(CL$$defsig) for __default_signal_handler
    defsig_general.o(.text) refers to sys_wrch.o(.text) for _ttywrch
    sys_wrch.o(.text) refers (Special) to use_no_semi.o(.text) for __I$use$semihosting
    sys_wrch.o(.text) refers (Special) to indicate_semi.o(.text) for __semihosting_library_function
    sys_wrch_hlt.o(.text) refers (Special) to use_no_semi.o(.text) for __I$use$semihosting
    sys_wrch_hlt.o(.text) refers (Special) to indicate_semi.o(.text) for __semihosting_library_function
    defsig.o(CL$$defsig) refers to defsig_rtmem_inner.o(.text) for __rt_SIGRTMEM_inner
    defsig_abrt_inner.o(.text) refers to defsig_general.o(.text) for __default_signal_display
    defsig_fpe_inner.o(.text) refers to defsig_general.o(.text) for __default_signal_display
    defsig_rtred_inner.o(.text) refers to defsig_general.o(.text) for __default_signal_display
    defsig_stak_inner.o(.text) refers to defsig_general.o(.text) for __default_signal_display
    defsig_pvfn_inner.o(.text) refers to defsig_general.o(.text) for __default_signal_display
    defsig_cppl_inner.o(.text) refers to defsig_general.o(.text) for __default_signal_display
    defsig_segv_inner.o(.text) refers to defsig_general.o(.text) for __default_signal_display
    defsig_other.o(.text) refers to defsig_general.o(.text) for __default_signal_display


==============================================================================

Removing Unused input sections from the image.

    Removing main.o(.ARM.exidx), (24 bytes).
    Removing main.o(.data.iBug8), (1 bytes).
    Removing main.o(.bss.activateWeakening), (1 bytes).
    Removing main.o(.bss.slaveError), (1 bytes).
    Removing main.o(.ARM.use_no_argv), (4 bytes).
    Removing bldc.o(.ARM.exidx), (48 bytes).
    Removing bldc.o(.bss.realSpeed32_reg), (4 bytes).
    Removing driver.o(.ARM.exidx), (32 bytes).
    Removing bldcbc.o(.text), (0 bytes).
    Removing bldcsine.o(.ARM.exidx), (56 bytes).
    Removing bldcsine.o(.bss.fGradient), (4 bytes).
    Removing bldcsine.o(.bss.fGradientX), (4 bytes).
    Removing setup.o(.ARM.exidx), (152 bytes).
    Removing setup.o(.bss.usart0_rx_buf), (1 bytes).
    Removing setup.o(.bss.usart2_rx_buf), (1 bytes).
    Removing it.o(.ARM.exidx), (128 bytes).
    Removing it.o(.bss.iCounterUsart0), (4 bytes).
    Removing it.o(.bss.iCounter2Usart0), (4 bytes).
    Removing it.o(.bss.iCounterUsart2), (4 bytes).
    Removing it.o(.bss.iCounter2Usart2), (4 bytes).
    Removing led.o(.text), (0 bytes).
    Removing comms.o(.ARM.exidx), (16 bytes).
    Removing remoteuart.o(.text), (0 bytes).
    Removing remotecrsf.o(.text), (0 bytes).
    Removing remotedummy.o(.ARM.exidx), (24 bytes).
    Removing remotedummy.o(.bss.iTimeRTT), (4 bytes).
    Removing remoteuartbus.o(.text), (0 bytes).
    Removing commsmasterslave.o(.ARM.exidx), (24 bytes).
    Removing commsmasterslave.o(.bss.mosfetOutMaster), (1 bytes).
    Removing commsmasterslave.o(.bss.beepsBackwardsMaster), (1 bytes).
    Removing remoteadc.o(.text), (0 bytes).
    Removing remoteautodetect.o(.text), (0 bytes).
    Removing remoteautodetect.o(.bss.i), (2 bytes).
    Removing remoteros2.o(.text), (0 bytes).
    Removing i2c.o(.text), (0 bytes).
    Removing mpu6050.o(.text), (0 bytes).
    Removing pilothoverbike.o(.text), (0 bytes).
    Removing pilotuser.o(.text), (0 bytes).
    Removing segger_rtt.o(.text), (5584 bytes).
    Removing segger_rtt.o(.ARM.exidx), (256 bytes).
    Removing segger_rtt.o(.bss._SEGGER_RTT), (168 bytes).
    Removing segger_rtt.o(.rodata.cst16), (16 bytes).
    Removing segger_rtt.o(.bss._ActiveTerminal), (1 bytes).
    Removing segger_rtt.o(.rodata._DoInit._aInitStr), (17 bytes).
    Removing segger_rtt.o(.rodata.str1.1), (9 bytes).
    Removing segger_rtt.o(.bss._acUpBuffer), (1024 bytes).
    Removing segger_rtt.o(.bss._acDownBuffer), (16 bytes).
    Removing gd32e23x_adc.o(.ARM.exidx), (272 bytes).
    Removing gd32e23x_dma.o(.ARM.exidx), (216 bytes).
    Removing gd32e23x_exti.o(.ARM.exidx), (96 bytes).
    Removing gd32e23x_fmc.o(.ARM.exidx), (240 bytes).
    Removing gd32e23x_fwdgt.o(.ARM.exidx), (72 bytes).
    Removing gd32e23x_gpio.o(.ARM.exidx), (120 bytes).
    Removing gd32e23x_i2c.o(.text), (892 bytes).
    Removing gd32e23x_i2c.o(.ARM.exidx), (280 bytes).
    Removing gd32e23x_misc.o(.ARM.exidx), (56 bytes).
    Removing gd32e23x_pmu.o(.text), (456 bytes).
    Removing gd32e23x_pmu.o(.ARM.exidx), (104 bytes).
    Removing gd32e23x_pmu.o(.bss.pmu_to_deepsleepmode.reg_snap.0), (4 bytes).
    Removing gd32e23x_pmu.o(.bss.pmu_to_deepsleepmode.reg_snap.1), (4 bytes).
    Removing gd32e23x_pmu.o(.bss.pmu_to_deepsleepmode.reg_snap.2), (4 bytes).
    Removing gd32e23x_rcu.o(.ARM.exidx), (312 bytes).
    Removing gd32e23x_syscfg.o(.ARM.exidx), (80 bytes).
    Removing gd32e23x_timer.o(.ARM.exidx), (584 bytes).
    Removing gd32e23x_usart.o(.ARM.exidx), (592 bytes).
    Removing gd32e23x_wwdgt.o(.text), (156 bytes).
    Removing gd32e23x_wwdgt.o(.ARM.exidx), (56 bytes).
    Removing system_gd32e23x.o(.ARM.exidx), (16 bytes).

68 unused section(s) (total 12252 bytes) removed from the image.

==============================================================================

Image Symbol Table

    Local Symbols

    Symbol Name                              Value     Ov Type        Size  Object(Section)

    ../clib/angel/boardlib.s                 0x00000000   Number         0  boardinit1.o ABSOLUTE
    ../clib/angel/boardlib.s                 0x00000000   Number         0  boardinit2.o ABSOLUTE
    ../clib/angel/boardlib.s                 0x00000000   Number         0  boardinit3.o ABSOLUTE
    ../clib/angel/boardlib.s                 0x00000000   Number         0  boardshut.o ABSOLUTE
    ../clib/angel/handlers.s                 0x00000000   Number         0  __scatter_copy.o ABSOLUTE
    ../clib/angel/handlers.s                 0x00000000   Number         0  __scatter_zi.o ABSOLUTE
    ../clib/angel/kernel.s                   0x00000000   Number         0  __rtentry.o ABSOLUTE
    ../clib/angel/kernel.s                   0x00000000   Number         0  __rtentry2.o ABSOLUTE
    ../clib/angel/kernel.s                   0x00000000   Number         0  __rtentry4.o ABSOLUTE
    ../clib/angel/kernel.s                   0x00000000   Number         0  rtexit.o ABSOLUTE
    ../clib/angel/kernel.s                   0x00000000   Number         0  rtexit2.o ABSOLUTE
    ../clib/angel/rt.s                       0x00000000   Number         0  rt_raise.o ABSOLUTE
    ../clib/angel/scatterp.s                 0x00000000   Number         0  __scatter.o ABSOLUTE
    ../clib/angel/startup.s                  0x00000000   Number         0  __main.o ABSOLUTE
    ../clib/angel/sys.s                      0x00000000   Number         0  sys_stackheap_outer.o ABSOLUTE
    ../clib/angel/sys.s                      0x00000000   Number         0  libspace.o ABSOLUTE
    ../clib/angel/sys.s                      0x00000000   Number         0  tempstk.o ABSOLUTE
    ../clib/angel/sys.s                      0x00000000   Number         0  use_no_semi.o ABSOLUTE
    ../clib/angel/sys.s                      0x00000000   Number         0  indicate_semi.o ABSOLUTE
    ../clib/angel/sysapp.c                   0x00000000   Number         0  sys_exit.o ABSOLUTE
    ../clib/angel/sysapp.c                   0x00000000   Number         0  sys_exit_hlt.o ABSOLUTE
    ../clib/angel/sysapp.c                   0x00000000   Number         0  sys_command.o ABSOLUTE
    ../clib/angel/sysapp.c                   0x00000000   Number         0  sys_command_hlt.o ABSOLUTE
    ../clib/angel/sysapp.c                   0x00000000   Number         0  sys_wrch.o ABSOLUTE
    ../clib/angel/sysapp.c                   0x00000000   Number         0  sys_wrch_hlt.o ABSOLUTE
    ../clib/armsys.c                         0x00000000   Number         0  argv_veneer.o ABSOLUTE
    ../clib/armsys.c                         0x00000000   Number         0  _get_argv_nomalloc.o ABSOLUTE
    ../clib/armsys.c                         0x00000000   Number         0  no_argv.o ABSOLUTE
    ../clib/heapalloc.c                      0x00000000   Number         0  hrguard.o ABSOLUTE
    ../clib/heapaux.c                        0x00000000   Number         0  heapauxi.o ABSOLUTE
    ../clib/libinit.s                        0x00000000   Number         0  libinit.o ABSOLUTE
    ../clib/libinit.s                        0x00000000   Number         0  libinit2.o ABSOLUTE
    ../clib/libinit.s                        0x00000000   Number         0  libshutdown.o ABSOLUTE
    ../clib/libinit.s                        0x00000000   Number         0  libshutdown2.o ABSOLUTE
    ../clib/longlong.c                       0x00000000   Number         0  llmul.o ABSOLUTE
    ../clib/memcpset.c                       0x00000000   Number         0  rt_memcpy.o ABSOLUTE
    ../clib/memcpset.c                       0x00000000   Number         0  rt_memcpy.o ABSOLUTE
    ../clib/memcpset.c                       0x00000000   Number         0  rt_memclr.o ABSOLUTE
    ../clib/signal.c                         0x00000000   Number         0  defsig_rtmem_outer.o ABSOLUTE
    ../clib/signal.c                         0x00000000   Number         0  defsig_rtmem_formal.o ABSOLUTE
    ../clib/signal.c                         0x00000000   Number         0  defsig_exit.o ABSOLUTE
    ../clib/signal.c                         0x00000000   Number         0  defsig_rtmem_inner.o ABSOLUTE
    ../clib/signal.c                         0x00000000   Number         0  __raise.o ABSOLUTE
    ../clib/signal.c                         0x00000000   Number         0  defsig_general.o ABSOLUTE
    ../clib/signal.c                         0x00000000   Number         0  defsig_abrt_inner.o ABSOLUTE
    ../clib/signal.c                         0x00000000   Number         0  defsig_fpe_inner.o ABSOLUTE
    ../clib/signal.c                         0x00000000   Number         0  defsig_rtred_inner.o ABSOLUTE
    ../clib/signal.c                         0x00000000   Number         0  defsig_stak_inner.o ABSOLUTE
    ../clib/signal.c                         0x00000000   Number         0  defsig_pvfn_inner.o ABSOLUTE
    ../clib/signal.c                         0x00000000   Number         0  defsig_cppl_inner.o ABSOLUTE
    ../clib/signal.c                         0x00000000   Number         0  defsig_segv_inner.o ABSOLUTE
    ../clib/signal.c                         0x00000000   Number         0  defsig_other.o ABSOLUTE
    ../clib/signal.s                         0x00000000   Number         0  defsig.o ABSOLUTE
    ../clib/stdlib.c                         0x00000000   Number         0  exit.o ABSOLUTE
    ../clib/string.c                         0x00000000   Number         0  strlen.o ABSOLUTE
    ../fplib/cfplib/cmp.c                    0x00000000   Number         0  fcmp.o ABSOLUTE
    ../fplib/cfplib/cmpret.c                 0x00000000   Number         0  cmpret.o ABSOLUTE
    ../fplib/cfplib/d2f.c                    0x00000000   Number         0  d2f.o ABSOLUTE
    ../fplib/cfplib/daddsub.c                0x00000000   Number         0  daddsub.o ABSOLUTE
    ../fplib/cfplib/ddiv.c                   0x00000000   Number         0  ddiv.o ABSOLUTE
    ../fplib/cfplib/dmul.c                   0x00000000   Number         0  dmul.o ABSOLUTE
    ../fplib/cfplib/f2d.c                    0x00000000   Number         0  f2d.o ABSOLUTE
    ../fplib/cfplib/fcmpin.c                 0x00000000   Number         0  fcmpin.o ABSOLUTE
    ../fplib/cfplib/fdiv.c                   0x00000000   Number         0  fdiv.o ABSOLUTE
    ../fplib/cfplib/ffix.c                   0x00000000   Number         0  dfixi.o ABSOLUTE
    ../fplib/cfplib/ffix.c                   0x00000000   Number         0  ffixi.o ABSOLUTE
    ../fplib/cfplib/ffix.c                   0x00000000   Number         0  ffixl.o ABSOLUTE
    ../fplib/cfplib/fflt.c                   0x00000000   Number         0  dflti.o ABSOLUTE
    ../fplib/cfplib/fflt.c                   0x00000000   Number         0  fflti.o ABSOLUTE
    ../fplib/cfplib/fpinit.c                 0x00000000   Number         0  fpinit.o ABSOLUTE
    ../fplib/cfplib/nan2.c                   0x00000000   Number         0  fnan2.o ABSOLUTE
    ../fplib/cfplib/retnan.c                 0x00000000   Number         0  retnan.o ABSOLUTE
    ../fplib/faddsub6m.s                     0x00000000   Number         0  faddsub.o ABSOLUTE
    ../fplib/feqf6m.s                        0x00000000   Number         0  feqf.o ABSOLUTE
    ../fplib/fgeqf6m.s                       0x00000000   Number         0  fgef.o ABSOLUTE
    ../fplib/fleqf6m.s                       0x00000000   Number         0  flef.o ABSOLUTE
    ../fplib/fmul6m.s                        0x00000000   Number         0  fmul.o ABSOLUTE
    ../fplib/usenofp.s                       0x00000000   Number         0  usenofp.o ABSOLUTE
    PilotHoverbike.c                         0x00000000   Number         0  pilothoverbike.o ABSOLUTE
    PilotUser.c                              0x00000000   Number         0  pilotuser.o ABSOLUTE
    RTE/Device/GD32E230C8/startup_gd32e23x.s 0x00000000   Number         0  startup_gd32e23x.o ABSOLUTE
    RemoteAdc.c                              0x00000000   Number         0  remoteadc.o ABSOLUTE
    RemoteAutodetect.c                       0x00000000   Number         0  remoteautodetect.o ABSOLUTE
    RemoteROS2.c                             0x00000000   Number         0  remoteros2.o ABSOLUTE
    SEGGER_RTT.c                             0x00000000   Number         0  segger_rtt.o ABSOLUTE
    bldc.c                                   0x00000000   Number         0  bldc.o ABSOLUTE
    bldcBC.c                                 0x00000000   Number         0  bldcbc.o ABSOLUTE
    bldcSINE.c                               0x00000000   Number         0  bldcsine.o ABSOLUTE
    comms.c                                  0x00000000   Number         0  comms.o ABSOLUTE
    commsMasterSlave.c                       0x00000000   Number         0  commsmasterslave.o ABSOLUTE
    dc.s                                     0x00000000   Number         0  dc.o ABSOLUTE
    driver.c                                 0x00000000   Number         0  driver.o ABSOLUTE
    gd32e23x_adc.c                           0x00000000   Number         0  gd32e23x_adc.o ABSOLUTE
    gd32e23x_dma.c                           0x00000000   Number         0  gd32e23x_dma.o ABSOLUTE
    gd32e23x_exti.c                          0x00000000   Number         0  gd32e23x_exti.o ABSOLUTE
    gd32e23x_fmc.c                           0x00000000   Number         0  gd32e23x_fmc.o ABSOLUTE
    gd32e23x_fwdgt.c                         0x00000000   Number         0  gd32e23x_fwdgt.o ABSOLUTE
    gd32e23x_gpio.c                          0x00000000   Number         0  gd32e23x_gpio.o ABSOLUTE
    gd32e23x_i2c.c                           0x00000000   Number         0  gd32e23x_i2c.o ABSOLUTE
    gd32e23x_misc.c                          0x00000000   Number         0  gd32e23x_misc.o ABSOLUTE
    gd32e23x_pmu.c                           0x00000000   Number         0  gd32e23x_pmu.o ABSOLUTE
    gd32e23x_rcu.c                           0x00000000   Number         0  gd32e23x_rcu.o ABSOLUTE
    gd32e23x_syscfg.c                        0x00000000   Number         0  gd32e23x_syscfg.o ABSOLUTE
    gd32e23x_timer.c                         0x00000000   Number         0  gd32e23x_timer.o ABSOLUTE
    gd32e23x_usart.c                         0x00000000   Number         0  gd32e23x_usart.o ABSOLUTE
    gd32e23x_wwdgt.c                         0x00000000   Number         0  gd32e23x_wwdgt.o ABSOLUTE
    i2c.c                                    0x00000000   Number         0  i2c.o ABSOLUTE
    it.c                                     0x00000000   Number         0  it.o ABSOLUTE
    led.c                                    0x00000000   Number         0  led.o ABSOLUTE
    main.c                                   0x00000000   Number         0  main.o ABSOLUTE
    mpu6050.c                                0x00000000   Number         0  mpu6050.o ABSOLUTE
    remoteCrsf.c                             0x00000000   Number         0  remotecrsf.o ABSOLUTE
    remoteDummy.c                            0x00000000   Number         0  remotedummy.o ABSOLUTE
    remoteUart.c                             0x00000000   Number         0  remoteuart.o ABSOLUTE
    remoteUartBus.c                          0x00000000   Number         0  remoteuartbus.o ABSOLUTE
    setup.c                                  0x00000000   Number         0  setup.o ABSOLUTE
    system_gd32e23x.c                        0x00000000   Number         0  system_gd32e23x.o ABSOLUTE
    RESET                                    0x08000000   Section      204  startup_gd32e23x.o(RESET)
    !!!main                                  0x080000cc   Section        8  __main.o(!!!main)
    !!!scatter                               0x080000d4   Section       84  __scatter.o(!!!scatter)
    !!handler_copy                           0x08000128   Section       26  __scatter_copy.o(!!handler_copy)
    !!handler_null                           0x08000144   Section        2  __scatter.o(!!handler_null)
    !!handler_zi                             0x08000148   Section       28  __scatter_zi.o(!!handler_zi)
    .ARM.Collect$$libinit$$00000000          0x08000164   Section        2  libinit.o(.ARM.Collect$$libinit$$00000000)
    .ARM.Collect$$libinit$$00000002          0x08000166   Section        0  libinit2.o(.ARM.Collect$$libinit$$00000002)
    .ARM.Collect$$libinit$$00000004          0x08000166   Section        0  libinit2.o(.ARM.Collect$$libinit$$00000004)
    .ARM.Collect$$libinit$$00000006          0x08000166   Section        0  libinit2.o(.ARM.Collect$$libinit$$00000006)
    .ARM.Collect$$libinit$$0000000C          0x08000166   Section        0  libinit2.o(.ARM.Collect$$libinit$$0000000C)
    .ARM.Collect$$libinit$$0000000E          0x08000166   Section        0  libinit2.o(.ARM.Collect$$libinit$$0000000E)
    .ARM.Collect$$libinit$$00000010          0x08000166   Section        0  libinit2.o(.ARM.Collect$$libinit$$00000010)
    .ARM.Collect$$libinit$$00000013          0x08000166   Section        0  libinit2.o(.ARM.Collect$$libinit$$00000013)
    .ARM.Collect$$libinit$$00000015          0x08000166   Section        0  libinit2.o(.ARM.Collect$$libinit$$00000015)
    .ARM.Collect$$libinit$$00000017          0x08000166   Section        0  libinit2.o(.ARM.Collect$$libinit$$00000017)
    .ARM.Collect$$libinit$$00000019          0x08000166   Section        0  libinit2.o(.ARM.Collect$$libinit$$00000019)
    .ARM.Collect$$libinit$$0000001B          0x08000166   Section        0  libinit2.o(.ARM.Collect$$libinit$$0000001B)
    .ARM.Collect$$libinit$$0000001D          0x08000166   Section        0  libinit2.o(.ARM.Collect$$libinit$$0000001D)
    .ARM.Collect$$libinit$$0000001F          0x08000166   Section        0  libinit2.o(.ARM.Collect$$libinit$$0000001F)
    .ARM.Collect$$libinit$$00000021          0x08000166   Section        0  libinit2.o(.ARM.Collect$$libinit$$00000021)
    .ARM.Collect$$libinit$$00000023          0x08000166   Section        0  libinit2.o(.ARM.Collect$$libinit$$00000023)
    .ARM.Collect$$libinit$$00000025          0x08000166   Section        0  libinit2.o(.ARM.Collect$$libinit$$00000025)
    .ARM.Collect$$libinit$$00000027          0x08000166   Section        0  libinit2.o(.ARM.Collect$$libinit$$00000027)
    .ARM.Collect$$libinit$$0000002E          0x08000166   Section        0  libinit2.o(.ARM.Collect$$libinit$$0000002E)
    .ARM.Collect$$libinit$$00000030          0x08000166   Section        0  libinit2.o(.ARM.Collect$$libinit$$00000030)
    .ARM.Collect$$libinit$$00000032          0x08000166   Section        0  libinit2.o(.ARM.Collect$$libinit$$00000032)
    .ARM.Collect$$libinit$$00000034          0x08000166   Section        0  libinit2.o(.ARM.Collect$$libinit$$00000034)
    .ARM.Collect$$libinit$$00000035          0x08000166   Section        2  libinit2.o(.ARM.Collect$$libinit$$00000035)
    .ARM.Collect$$libshutdown$$00000000      0x08000168   Section        2  libshutdown.o(.ARM.Collect$$libshutdown$$00000000)
    .ARM.Collect$$libshutdown$$00000002      0x0800016a   Section        0  libshutdown2.o(.ARM.Collect$$libshutdown$$00000002)
    .ARM.Collect$$libshutdown$$00000004      0x0800016a   Section        0  libshutdown2.o(.ARM.Collect$$libshutdown$$00000004)
    .ARM.Collect$$libshutdown$$00000007      0x0800016a   Section        0  libshutdown2.o(.ARM.Collect$$libshutdown$$00000007)
    .ARM.Collect$$libshutdown$$0000000A      0x0800016a   Section        0  libshutdown2.o(.ARM.Collect$$libshutdown$$0000000A)
    .ARM.Collect$$libshutdown$$0000000C      0x0800016a   Section        0  libshutdown2.o(.ARM.Collect$$libshutdown$$0000000C)
    .ARM.Collect$$libshutdown$$0000000F      0x0800016a   Section        0  libshutdown2.o(.ARM.Collect$$libshutdown$$0000000F)
    .ARM.Collect$$libshutdown$$00000010      0x0800016a   Section        2  libshutdown2.o(.ARM.Collect$$libshutdown$$00000010)
    .ARM.Collect$$rtentry$$00000000          0x0800016c   Section        0  __rtentry.o(.ARM.Collect$$rtentry$$00000000)
    .ARM.Collect$$rtentry$$00000002          0x0800016c   Section        0  __rtentry2.o(.ARM.Collect$$rtentry$$00000002)
    .ARM.Collect$$rtentry$$00000004          0x0800016c   Section        6  __rtentry4.o(.ARM.Collect$$rtentry$$00000004)
    .ARM.Collect$$rtentry$$00000009          0x08000172   Section        0  __rtentry2.o(.ARM.Collect$$rtentry$$00000009)
    .ARM.Collect$$rtentry$$0000000A          0x08000172   Section        4  __rtentry2.o(.ARM.Collect$$rtentry$$0000000A)
    .ARM.Collect$$rtentry$$0000000C          0x08000176   Section        0  __rtentry2.o(.ARM.Collect$$rtentry$$0000000C)
    .ARM.Collect$$rtentry$$0000000D          0x08000176   Section        8  __rtentry2.o(.ARM.Collect$$rtentry$$0000000D)
    .ARM.Collect$$rtexit$$00000000           0x0800017e   Section        2  rtexit.o(.ARM.Collect$$rtexit$$00000000)
    .ARM.Collect$$rtexit$$00000002           0x08000180   Section        0  rtexit2.o(.ARM.Collect$$rtexit$$00000002)
    .ARM.Collect$$rtexit$$00000003           0x08000180   Section        4  rtexit2.o(.ARM.Collect$$rtexit$$00000003)
    .ARM.Collect$$rtexit$$00000004           0x08000184   Section        6  rtexit2.o(.ARM.Collect$$rtexit$$00000004)
    [Anonymous Symbol]                       0x0800018c   Section        0  main.o(.text)
    __arm_cp.0_40                            0x08000568   Number         4  main.o(.text)
    __arm_cp.0_41                            0x0800056c   Number         4  main.o(.text)
    __arm_cp.0_42                            0x08000570   Number         4  main.o(.text)
    __arm_cp.0_43                            0x08000574   Number         4  main.o(.text)
    __arm_cp.0_44                            0x08000578   Number         4  main.o(.text)
    __arm_cp.0_47                            0x08000584   Number         4  main.o(.text)
    __arm_cp.0_49                            0x0800058c   Number         4  main.o(.text)
    __arm_cp.0_52                            0x08000598   Number         4  main.o(.text)
    __arm_cp.0_5                             0x080006e8   Number         4  main.o(.text)
    __arm_cp.0_6                             0x080006ec   Number         4  main.o(.text)
    __arm_cp.0_8                             0x080006f0   Number         4  main.o(.text)
    __arm_cp.0_10                            0x080006f4   Number         4  main.o(.text)
    __arm_cp.0_12                            0x080006f8   Number         4  main.o(.text)
    __arm_cp.0_13                            0x080006fc   Number         4  main.o(.text)
    __arm_cp.0_14                            0x08000700   Number         4  main.o(.text)
    __arm_cp.0_15                            0x08000704   Number         4  main.o(.text)
    __arm_cp.0_16                            0x08000708   Number         4  main.o(.text)
    __arm_cp.0_17                            0x0800070c   Number         4  main.o(.text)
    __arm_cp.0_18                            0x08000710   Number         4  main.o(.text)
    __arm_cp.0_19                            0x08000714   Number         4  main.o(.text)
    __arm_cp.0_20                            0x08000718   Number         4  main.o(.text)
    __arm_cp.0_21                            0x0800071c   Number         4  main.o(.text)
    __arm_cp.0_22                            0x08000720   Number         4  main.o(.text)
    __arm_cp.0_23                            0x08000724   Number         4  main.o(.text)
    __arm_cp.0_24                            0x08000728   Number         4  main.o(.text)
    __arm_cp.0_25                            0x0800072c   Number         4  main.o(.text)
    __arm_cp.0_26                            0x08000730   Number         4  main.o(.text)
    __arm_cp.0_27                            0x08000734   Number         4  main.o(.text)
    __arm_cp.0_28                            0x08000738   Number         4  main.o(.text)
    __arm_cp.0_29                            0x0800073c   Number         4  main.o(.text)
    __arm_cp.0_30                            0x08000740   Number         4  main.o(.text)
    __arm_cp.0_31                            0x08000744   Number         4  main.o(.text)
    __arm_cp.0_32                            0x08000748   Number         4  main.o(.text)
    __arm_cp.0_33                            0x0800074c   Number         4  main.o(.text)
    __arm_cp.0_34                            0x08000750   Number         4  main.o(.text)
    __arm_cp.0_35                            0x08000754   Number         4  main.o(.text)
    __arm_cp.0_36                            0x08000758   Number         4  main.o(.text)
    __arm_cp.0_37                            0x0800075c   Number         4  main.o(.text)
    __arm_cp.0_38                            0x08000760   Number         4  main.o(.text)
    __arm_cp.0_39                            0x08000764   Number         4  main.o(.text)
    __arm_cp.1_0                             0x080007f0   Number         4  main.o(.text)
    __arm_cp.1_1                             0x080007f4   Number         4  main.o(.text)
    __arm_cp.1_2                             0x080007f8   Number         4  main.o(.text)
    __arm_cp.1_3                             0x080007fc   Number         4  main.o(.text)
    __arm_cp.1_4                             0x08000800   Number         4  main.o(.text)
    __arm_cp.1_5                             0x08000804   Number         4  main.o(.text)
    __arm_cp.1_6                             0x08000808   Number         4  main.o(.text)
    __arm_cp.2_0                             0x0800088c   Number         4  main.o(.text)
    __arm_cp.2_1                             0x08000890   Number         4  main.o(.text)
    __arm_cp.2_2                             0x08000894   Number         4  main.o(.text)
    __arm_cp.2_3                             0x08000898   Number         4  main.o(.text)
    [Anonymous Symbol]                       0x0800089c   Section        0  bldc.o(.text)
    __arm_cp.1_0                             0x080008d4   Number         4  bldc.o(.text)
    __arm_cp.2_0                             0x080008e0   Number         4  bldc.o(.text)
    __arm_cp.3_0                             0x0800091c   Number         4  bldc.o(.text)
    __arm_cp.3_1                             0x08000920   Number         4  bldc.o(.text)
    __arm_cp.3_2                             0x08000924   Number         4  bldc.o(.text)
    __arm_cp.3_3                             0x08000928   Number         4  bldc.o(.text)
    __arm_cp.3_4                             0x0800092c   Number         4  bldc.o(.text)
    __arm_cp.3_5                             0x08000930   Number         4  bldc.o(.text)
    __arm_cp.4_0                             0x0800094c   Number         4  bldc.o(.text)
    __arm_cp.4_1                             0x08000950   Number         4  bldc.o(.text)
    __arm_cp.4_2                             0x08000954   Number         4  bldc.o(.text)
    __arm_cp.5_0                             0x08000d44   Number         4  bldc.o(.text)
    __arm_cp.5_1                             0x08000d48   Number         4  bldc.o(.text)
    __arm_cp.5_2                             0x08000d4c   Number         4  bldc.o(.text)
    __arm_cp.5_3                             0x08000d50   Number         4  bldc.o(.text)
    __arm_cp.5_4                             0x08000d54   Number         4  bldc.o(.text)
    __arm_cp.5_5                             0x08000d58   Number         4  bldc.o(.text)
    __arm_cp.5_6                             0x08000d5c   Number         4  bldc.o(.text)
    __arm_cp.5_7                             0x08000d60   Number         4  bldc.o(.text)
    __arm_cp.5_8                             0x08000d64   Number         4  bldc.o(.text)
    __arm_cp.5_9                             0x08000d68   Number         4  bldc.o(.text)
    __arm_cp.5_10                            0x08000d6c   Number         4  bldc.o(.text)
    __arm_cp.5_11                            0x08000d70   Number         4  bldc.o(.text)
    __arm_cp.5_12                            0x08000d74   Number         4  bldc.o(.text)
    __arm_cp.5_13                            0x08000d78   Number         4  bldc.o(.text)
    __arm_cp.5_14                            0x08000d7c   Number         4  bldc.o(.text)
    __arm_cp.5_15                            0x08000d80   Number         4  bldc.o(.text)
    __arm_cp.5_16                            0x08000d84   Number         4  bldc.o(.text)
    __arm_cp.5_17                            0x08000d88   Number         4  bldc.o(.text)
    __arm_cp.5_18                            0x08000d8c   Number         4  bldc.o(.text)
    __arm_cp.5_19                            0x08000d90   Number         4  bldc.o(.text)
    __arm_cp.5_20                            0x08000d94   Number         4  bldc.o(.text)
    __arm_cp.5_21                            0x08000d98   Number         4  bldc.o(.text)
    __arm_cp.5_22                            0x08000d9c   Number         4  bldc.o(.text)
    __arm_cp.5_23                            0x08000da0   Number         4  bldc.o(.text)
    __arm_cp.5_24                            0x08000da4   Number         4  bldc.o(.text)
    __arm_cp.5_25                            0x08000da8   Number         4  bldc.o(.text)
    __arm_cp.5_26                            0x08000dac   Number         4  bldc.o(.text)
    __arm_cp.5_27                            0x08000db0   Number         4  bldc.o(.text)
    __arm_cp.5_28                            0x08000db4   Number         4  bldc.o(.text)
    __arm_cp.5_29                            0x08000db8   Number         4  bldc.o(.text)
    __arm_cp.5_30                            0x08000dbc   Number         4  bldc.o(.text)
    __arm_cp.5_31                            0x08000dc0   Number         4  bldc.o(.text)
    __arm_cp.5_32                            0x08000dc4   Number         4  bldc.o(.text)
    __arm_cp.5_33                            0x08000dc8   Number         4  bldc.o(.text)
    __arm_cp.5_34                            0x08000dcc   Number         4  bldc.o(.text)
    __arm_cp.5_35                            0x08000dd0   Number         4  bldc.o(.text)
    __arm_cp.5_36                            0x08000dd4   Number         4  bldc.o(.text)
    __arm_cp.5_37                            0x08000dd8   Number         4  bldc.o(.text)
    __arm_cp.5_38                            0x08000ddc   Number         4  bldc.o(.text)
    __arm_cp.5_39                            0x08000de0   Number         4  bldc.o(.text)
    __arm_cp.5_40                            0x08000de4   Number         4  bldc.o(.text)
    __arm_cp.5_41                            0x08000de8   Number         4  bldc.o(.text)
    __arm_cp.5_42                            0x08000dec   Number         4  bldc.o(.text)
    __arm_cp.5_43                            0x08000df0   Number         4  bldc.o(.text)
    __arm_cp.5_44                            0x08000df4   Number         4  bldc.o(.text)
    __arm_cp.5_45                            0x08000df8   Number         4  bldc.o(.text)
    __arm_cp.5_46                            0x08000dfc   Number         4  bldc.o(.text)
    __arm_cp.5_47                            0x08000e00   Number         4  bldc.o(.text)
    __arm_cp.5_48                            0x08000e04   Number         4  bldc.o(.text)
    __arm_cp.5_49                            0x08000e08   Number         4  bldc.o(.text)
    __arm_cp.5_50                            0x08000e0c   Number         4  bldc.o(.text)
    __arm_cp.5_51                            0x08000e10   Number         4  bldc.o(.text)
    __arm_cp.5_52                            0x08000e14   Number         4  bldc.o(.text)
    __arm_cp.5_53                            0x08000e18   Number         4  bldc.o(.text)
    __arm_cp.5_54                            0x08000e1c   Number         4  bldc.o(.text)
    __arm_cp.5_55                            0x08000e20   Number         4  bldc.o(.text)
    __arm_cp.5_56                            0x08000e24   Number         4  bldc.o(.text)
    __arm_cp.5_57                            0x08000e28   Number         4  bldc.o(.text)
    __arm_cp.5_58                            0x08000e2c   Number         4  bldc.o(.text)
    __arm_cp.5_59                            0x08000e30   Number         4  bldc.o(.text)
    __arm_cp.5_60                            0x08000e34   Number         4  bldc.o(.text)
    __arm_cp.5_61                            0x08000e38   Number         4  bldc.o(.text)
    [Anonymous Symbol]                       0x08000e3c   Section        0  driver.o(.text)
    __arm_cp.0_0                             0x08000ea8   Number         4  driver.o(.text)
    __arm_cp.2_0                             0x08000f78   Number         4  driver.o(.text)
    __arm_cp.2_1                             0x08000f7c   Number         4  driver.o(.text)
    __arm_cp.2_2                             0x08000f80   Number         4  driver.o(.text)
    __arm_cp.2_3                             0x08000f84   Number         4  driver.o(.text)
    __arm_cp.3_0                             0x0800109c   Number         4  driver.o(.text)
    __arm_cp.3_1                             0x080010a0   Number         4  driver.o(.text)
    __arm_cp.3_2                             0x080010a4   Number         4  driver.o(.text)
    __arm_cp.3_3                             0x080010a8   Number         4  driver.o(.text)
    [Anonymous Symbol]                       0x080010ac   Section        0  bldcsine.o(.text)
    __arm_cp.1_0                             0x08001184   Number         4  bldcsine.o(.text)
    __arm_cp.2_0                             0x080011fc   Number         4  bldcsine.o(.text)
    __arm_cp.2_1                             0x08001200   Number         4  bldcsine.o(.text)
    __arm_cp.2_2                             0x08001204   Number         4  bldcsine.o(.text)
    __arm_cp.2_3                             0x08001208   Number         4  bldcsine.o(.text)
    __arm_cp.2_4                             0x0800120c   Number         4  bldcsine.o(.text)
    __arm_cp.2_5                             0x08001210   Number         4  bldcsine.o(.text)
    __arm_cp.2_6                             0x08001214   Number         4  bldcsine.o(.text)
    __arm_cp.2_7                             0x08001218   Number         4  bldcsine.o(.text)
    __arm_cp.2_8                             0x0800121c   Number         4  bldcsine.o(.text)
    __arm_cp.6_0                             0x08001398   Number         4  bldcsine.o(.text)
    __arm_cp.6_1                             0x0800139c   Number         4  bldcsine.o(.text)
    __arm_cp.6_2                             0x080013a0   Number         4  bldcsine.o(.text)
    __arm_cp.6_3                             0x080013a4   Number         4  bldcsine.o(.text)
    __arm_cp.6_4                             0x080013a8   Number         4  bldcsine.o(.text)
    __arm_cp.6_5                             0x080013ac   Number         4  bldcsine.o(.text)
    __arm_cp.6_6                             0x080013b0   Number         4  bldcsine.o(.text)
    __arm_cp.6_7                             0x080013b4   Number         4  bldcsine.o(.text)
    __arm_cp.6_8                             0x080013b8   Number         4  bldcsine.o(.text)
    __arm_cp.6_9                             0x080013bc   Number         4  bldcsine.o(.text)
    __arm_cp.6_10                            0x080013c0   Number         4  bldcsine.o(.text)
    __arm_cp.6_11                            0x080013c4   Number         4  bldcsine.o(.text)
    __arm_cp.6_12                            0x080013c8   Number         4  bldcsine.o(.text)
    __arm_cp.6_13                            0x080013cc   Number         4  bldcsine.o(.text)
    __arm_cp.6_14                            0x080013d0   Number         4  bldcsine.o(.text)
    __arm_cp.6_15                            0x080013d4   Number         4  bldcsine.o(.text)
    __arm_cp.6_16                            0x080013d8   Number         4  bldcsine.o(.text)
    __arm_cp.6_17                            0x080013dc   Number         4  bldcsine.o(.text)
    __arm_cp.6_18                            0x080013e0   Number         4  bldcsine.o(.text)
    __arm_cp.6_19                            0x080013e4   Number         4  bldcsine.o(.text)
    __arm_cp.6_20                            0x080013e8   Number         4  bldcsine.o(.text)
    __arm_cp.6_21                            0x080013ec   Number         4  bldcsine.o(.text)
    __arm_cp.6_22                            0x080013f0   Number         4  bldcsine.o(.text)
    __arm_cp.6_23                            0x080013f4   Number         4  bldcsine.o(.text)
    [Anonymous Symbol]                       0x080013f8   Section        0  setup.o(.text)
    __arm_cp.3_0                             0x08001494   Number         4  setup.o(.text)
    __arm_cp.3_1                             0x08001498   Number         4  setup.o(.text)
    __arm_cp.4_0                             0x080014ec   Number         4  setup.o(.text)
    __arm_cp.4_1                             0x080014f0   Number         4  setup.o(.text)
    __arm_cp.4_2                             0x080014f4   Number         4  setup.o(.text)
    __arm_cp.5_0                             0x0800178c   Number         4  setup.o(.text)
    __arm_cp.5_1                             0x08001790   Number         4  setup.o(.text)
    __arm_cp.5_2                             0x08001794   Number         4  setup.o(.text)
    __arm_cp.5_3                             0x08001798   Number         4  setup.o(.text)
    __arm_cp.6_0                             0x08001904   Number         4  setup.o(.text)
    __arm_cp.6_1                             0x08001908   Number         4  setup.o(.text)
    __arm_cp.6_2                             0x0800190c   Number         4  setup.o(.text)
    __arm_cp.6_3                             0x08001910   Number         4  setup.o(.text)
    __arm_cp.6_4                             0x08001914   Number         4  setup.o(.text)
    __arm_cp.6_5                             0x08001918   Number         4  setup.o(.text)
    __arm_cp.7_0                             0x080019f0   Number         4  setup.o(.text)
    __arm_cp.7_1                             0x080019f4   Number         4  setup.o(.text)
    __arm_cp.7_2                             0x080019f8   Number         4  setup.o(.text)
    __arm_cp.7_3                             0x080019fc   Number         4  setup.o(.text)
    __arm_cp.9_0                             0x08001b1c   Number         4  setup.o(.text)
    __arm_cp.9_1                             0x08001b20   Number         4  setup.o(.text)
    __arm_cp.9_2                             0x08001b24   Number         4  setup.o(.text)
    __arm_cp.9_3                             0x08001b28   Number         4  setup.o(.text)
    __arm_cp.16_0                            0x08001be0   Number         4  setup.o(.text)
    __arm_cp.16_1                            0x08001be4   Number         4  setup.o(.text)
    __arm_cp.17_0                            0x08001c48   Number         4  setup.o(.text)
    __arm_cp.17_1                            0x08001c4c   Number         4  setup.o(.text)
    __arm_cp.17_2                            0x08001c50   Number         4  setup.o(.text)
    __arm_cp.17_3                            0x08001c54   Number         4  setup.o(.text)
    __arm_cp.18_0                            0x08001cb0   Number         4  setup.o(.text)
    __arm_cp.18_1                            0x08001cb4   Number         4  setup.o(.text)
    __arm_cp.18_2                            0x08001cb8   Number         4  setup.o(.text)
    __arm_cp.18_3                            0x08001cbc   Number         4  setup.o(.text)
    __arm_cp.18_4                            0x08001cc0   Number         4  setup.o(.text)
    [Anonymous Symbol]                       0x08001cc4   Section        0  it.o(.text)
    __arm_cp.0_0                             0x08001cd0   Number         4  it.o(.text)
    __arm_cp.1_0                             0x08001cdc   Number         4  it.o(.text)
    __arm_cp.2_0                             0x08001d18   Number         4  it.o(.text)
    __arm_cp.2_1                             0x08001d1c   Number         4  it.o(.text)
    __arm_cp.2_2                             0x08001d20   Number         4  it.o(.text)
    __arm_cp.2_3                             0x08001d24   Number         4  it.o(.text)
    __arm_cp.2_4                             0x08001d28   Number         4  it.o(.text)
    __arm_cp.2_5                             0x08001d2c   Number         4  it.o(.text)
    __arm_cp.2_6                             0x08001d30   Number         4  it.o(.text)
    __arm_cp.3_0                             0x08001d70   Number         4  it.o(.text)
    __arm_cp.3_1                             0x08001d74   Number         4  it.o(.text)
    __arm_cp.3_2                             0x08001d78   Number         4  it.o(.text)
    __arm_cp.3_3                             0x08001d7c   Number         4  it.o(.text)
    __arm_cp.3_4                             0x08001d80   Number         4  it.o(.text)
    __arm_cp.4_0                             0x08001dc8   Number         4  it.o(.text)
    __arm_cp.4_1                             0x08001dcc   Number         4  it.o(.text)
    __arm_cp.4_2                             0x08001dd0   Number         4  it.o(.text)
    __arm_cp.4_3                             0x08001dd4   Number         4  it.o(.text)
    __arm_cp.5_0                             0x08001e08   Number         4  it.o(.text)
    __arm_cp.5_1                             0x08001e0c   Number         4  it.o(.text)
    __arm_cp.6_0                             0x08001e18   Number         4  it.o(.text)
    __arm_cp.7_0                             0x08001e30   Number         4  it.o(.text)
    [Anonymous Symbol]                       0x08001e44   Section        0  comms.o(.text)
    __arm_cp.0_0                             0x08001e74   Number         4  comms.o(.text)
    __arm_cp.1_0                             0x08001ebc   Number         4  comms.o(.text)
    [Anonymous Symbol]                       0x08001ec0   Section        0  remotedummy.o(.text)
    __arm_cp.0_0                             0x08001f20   Number         4  remotedummy.o(.text)
    __arm_cp.0_2                             0x08001f34   Number         4  remotedummy.o(.text)
    __arm_cp.0_3                             0x08001f38   Number         4  remotedummy.o(.text)
    __arm_cp.0_4                             0x08001f3c   Number         4  remotedummy.o(.text)
    [Anonymous Symbol]                       0x08001f44   Section        0  commsmasterslave.o(.text)
    __arm_cp.0_0                             0x08001fd0   Number         4  commsmasterslave.o(.text)
    __arm_cp.0_1                             0x08001fd4   Number         4  commsmasterslave.o(.text)
    __arm_cp.0_2                             0x08001fd8   Number         4  commsmasterslave.o(.text)
    __arm_cp.0_3                             0x08001fdc   Number         4  commsmasterslave.o(.text)
    __arm_cp.0_4                             0x08001fe0   Number         4  commsmasterslave.o(.text)
    __arm_cp.1_0                             0x08002030   Number         4  commsmasterslave.o(.text)
    __arm_cp.2_0                             0x0800207c   Number         4  commsmasterslave.o(.text)
    __arm_cp.2_1                             0x08002080   Number         4  commsmasterslave.o(.text)
    __arm_cp.2_2                             0x08002084   Number         4  commsmasterslave.o(.text)
    [Anonymous Symbol]                       0x08002088   Section        0  gd32e23x_adc.o(.text)
    __arm_cp.0_0                             0x080020a0   Number         4  gd32e23x_adc.o(.text)
    __arm_cp.1_0                             0x080020b8   Number         4  gd32e23x_adc.o(.text)
    __arm_cp.2_0                             0x080020c8   Number         4  gd32e23x_adc.o(.text)
    __arm_cp.3_0                             0x080020ec   Number         4  gd32e23x_adc.o(.text)
    __arm_cp.4_0                             0x08002100   Number         4  gd32e23x_adc.o(.text)
    __arm_cp.5_0                             0x08002114   Number         4  gd32e23x_adc.o(.text)
    __arm_cp.6_0                             0x08002128   Number         4  gd32e23x_adc.o(.text)
    __arm_cp.7_0                             0x0800213c   Number         4  gd32e23x_adc.o(.text)
    __arm_cp.8_0                             0x08002180   Number         4  gd32e23x_adc.o(.text)
    __arm_cp.9_0                             0x080021ec   Number         4  gd32e23x_adc.o(.text)
    __arm_cp.10_0                            0x08002208   Number         4  gd32e23x_adc.o(.text)
    __arm_cp.11_0                            0x08002248   Number         4  gd32e23x_adc.o(.text)
    __arm_cp.12_0                            0x080022d4   Number         4  gd32e23x_adc.o(.text)
    __arm_cp.13_0                            0x0800232c   Number         4  gd32e23x_adc.o(.text)
    __arm_cp.14_0                            0x0800234c   Number         4  gd32e23x_adc.o(.text)
    __arm_cp.14_1                            0x08002350   Number         4  gd32e23x_adc.o(.text)
    __arm_cp.15_0                            0x08002394   Number         4  gd32e23x_adc.o(.text)
    __arm_cp.16_0                            0x080023b8   Number         4  gd32e23x_adc.o(.text)
    __arm_cp.16_1                            0x080023bc   Number         4  gd32e23x_adc.o(.text)
    __arm_cp.16_2                            0x080023c0   Number         4  gd32e23x_adc.o(.text)
    __arm_cp.17_0                            0x080023ec   Number         4  gd32e23x_adc.o(.text)
    __arm_cp.18_0                            0x080023f8   Number         4  gd32e23x_adc.o(.text)
    __arm_cp.19_0                            0x08002440   Number         4  gd32e23x_adc.o(.text)
    __arm_cp.20_0                            0x08002450   Number         4  gd32e23x_adc.o(.text)
    __arm_cp.21_0                            0x08002460   Number         4  gd32e23x_adc.o(.text)
    __arm_cp.22_0                            0x08002494   Number         4  gd32e23x_adc.o(.text)
    __arm_cp.23_0                            0x080024a4   Number         4  gd32e23x_adc.o(.text)
    __arm_cp.24_0                            0x080024dc   Number         4  gd32e23x_adc.o(.text)
    __arm_cp.25_0                            0x08002514   Number         4  gd32e23x_adc.o(.text)
    __arm_cp.26_0                            0x08002534   Number         4  gd32e23x_adc.o(.text)
    __arm_cp.26_1                            0x08002538   Number         4  gd32e23x_adc.o(.text)
    __arm_cp.26_2                            0x0800253c   Number         4  gd32e23x_adc.o(.text)
    __arm_cp.27_0                            0x08002560   Number         4  gd32e23x_adc.o(.text)
    __arm_cp.27_1                            0x08002564   Number         4  gd32e23x_adc.o(.text)
    __arm_cp.28_0                            0x08002580   Number         4  gd32e23x_adc.o(.text)
    __arm_cp.28_1                            0x08002584   Number         4  gd32e23x_adc.o(.text)
    __arm_cp.29_0                            0x08002598   Number         4  gd32e23x_adc.o(.text)
    __arm_cp.29_1                            0x0800259c   Number         4  gd32e23x_adc.o(.text)
    __arm_cp.30_0                            0x080025b4   Number         4  gd32e23x_adc.o(.text)
    __arm_cp.31_0                            0x080025e0   Number         4  gd32e23x_adc.o(.text)
    __arm_cp.31_1                            0x080025e4   Number         4  gd32e23x_adc.o(.text)
    __arm_cp.32_0                            0x080025f4   Number         4  gd32e23x_adc.o(.text)
    __arm_cp.33_0                            0x08002604   Number         4  gd32e23x_adc.o(.text)
    [Anonymous Symbol]                       0x08002608   Section        0  gd32e23x_dma.o(.text)
    __arm_cp.0_0                             0x08002634   Number         4  gd32e23x_dma.o(.text)
    __arm_cp.2_0                             0x080026bc   Number         4  gd32e23x_dma.o(.text)
    __arm_cp.3_0                             0x080026d0   Number         4  gd32e23x_dma.o(.text)
    __arm_cp.4_0                             0x080026e4   Number         4  gd32e23x_dma.o(.text)
    __arm_cp.5_0                             0x080026f8   Number         4  gd32e23x_dma.o(.text)
    __arm_cp.6_0                             0x08002710   Number         4  gd32e23x_dma.o(.text)
    __arm_cp.7_0                             0x08002728   Number         4  gd32e23x_dma.o(.text)
    __arm_cp.8_0                             0x0800273c   Number         4  gd32e23x_dma.o(.text)
    __arm_cp.9_0                             0x0800274c   Number         4  gd32e23x_dma.o(.text)
    __arm_cp.10_0                            0x0800275c   Number         4  gd32e23x_dma.o(.text)
    __arm_cp.11_0                            0x0800276c   Number         4  gd32e23x_dma.o(.text)
    __arm_cp.12_0                            0x0800277c   Number         4  gd32e23x_dma.o(.text)
    __arm_cp.13_0                            0x08002798   Number         4  gd32e23x_dma.o(.text)
    __arm_cp.14_0                            0x080027b4   Number         4  gd32e23x_dma.o(.text)
    __arm_cp.15_0                            0x080027d0   Number         4  gd32e23x_dma.o(.text)
    __arm_cp.16_0                            0x080027e4   Number         4  gd32e23x_dma.o(.text)
    __arm_cp.17_0                            0x080027f8   Number         4  gd32e23x_dma.o(.text)
    __arm_cp.18_0                            0x0800280c   Number         4  gd32e23x_dma.o(.text)
    __arm_cp.19_0                            0x08002820   Number         4  gd32e23x_dma.o(.text)
    __arm_cp.20_0                            0x08002840   Number         4  gd32e23x_dma.o(.text)
    __arm_cp.21_0                            0x08002854   Number         4  gd32e23x_dma.o(.text)
    __arm_cp.22_0                            0x08002868   Number         4  gd32e23x_dma.o(.text)
    __arm_cp.23_0                            0x080028a4   Number         4  gd32e23x_dma.o(.text)
    __arm_cp.24_0                            0x080028b8   Number         4  gd32e23x_dma.o(.text)
    __arm_cp.25_0                            0x080028cc   Number         4  gd32e23x_dma.o(.text)
    __arm_cp.26_0                            0x080028e0   Number         4  gd32e23x_dma.o(.text)
    [Anonymous Symbol]                       0x080028e4   Section        0  gd32e23x_exti.o(.text)
    __arm_cp.0_0                             0x080028f8   Number         4  gd32e23x_exti.o(.text)
    __arm_cp.0_1                             0x080028fc   Number         4  gd32e23x_exti.o(.text)
    __arm_cp.1_0                             0x08002968   Number         4  gd32e23x_exti.o(.text)
    __arm_cp.2_0                             0x08002978   Number         4  gd32e23x_exti.o(.text)
    __arm_cp.3_0                             0x08002988   Number         4  gd32e23x_exti.o(.text)
    __arm_cp.4_0                             0x08002998   Number         4  gd32e23x_exti.o(.text)
    __arm_cp.5_0                             0x080029a8   Number         4  gd32e23x_exti.o(.text)
    __arm_cp.6_0                             0x080029b8   Number         4  gd32e23x_exti.o(.text)
    __arm_cp.7_0                             0x080029c4   Number         4  gd32e23x_exti.o(.text)
    __arm_cp.8_0                             0x080029e0   Number         4  gd32e23x_exti.o(.text)
    __arm_cp.9_0                             0x080029ec   Number         4  gd32e23x_exti.o(.text)
    __arm_cp.10_0                            0x080029fc   Number         4  gd32e23x_exti.o(.text)
    __arm_cp.11_0                            0x08002a0c   Number         4  gd32e23x_exti.o(.text)
    [Anonymous Symbol]                       0x08002a10   Section        0  gd32e23x_fmc.o(.text)
    __arm_cp.0_0                             0x08002a24   Number         4  gd32e23x_fmc.o(.text)
    __arm_cp.0_1                             0x08002a28   Number         4  gd32e23x_fmc.o(.text)
    __arm_cp.0_2                             0x08002a2c   Number         4  gd32e23x_fmc.o(.text)
    __arm_cp.1_0                             0x08002a3c   Number         4  gd32e23x_fmc.o(.text)
    __arm_cp.2_0                             0x08002a50   Number         4  gd32e23x_fmc.o(.text)
    __arm_cp.3_0                             0x08002a60   Number         4  gd32e23x_fmc.o(.text)
    __arm_cp.4_0                             0x08002a70   Number         4  gd32e23x_fmc.o(.text)
    __arm_cp.5_0                             0x08002afc   Number         4  gd32e23x_fmc.o(.text)
    __arm_cp.5_1                             0x08002b00   Number         4  gd32e23x_fmc.o(.text)
    __arm_cp.6_0                             0x08002b40   Number         4  gd32e23x_fmc.o(.text)
    __arm_cp.7_0                             0x08002bc4   Number         4  gd32e23x_fmc.o(.text)
    __arm_cp.7_1                             0x08002bc8   Number         4  gd32e23x_fmc.o(.text)
    __arm_cp.8_0                             0x08002c6c   Number         4  gd32e23x_fmc.o(.text)
    __arm_cp.8_1                             0x08002c70   Number         4  gd32e23x_fmc.o(.text)
    __arm_cp.9_0                             0x08002cfc   Number         4  gd32e23x_fmc.o(.text)
    __arm_cp.9_1                             0x08002d00   Number         4  gd32e23x_fmc.o(.text)
    __arm_cp.10_0                            0x08002d20   Number         4  gd32e23x_fmc.o(.text)
    __arm_cp.10_1                            0x08002d24   Number         4  gd32e23x_fmc.o(.text)
    __arm_cp.10_2                            0x08002d28   Number         4  gd32e23x_fmc.o(.text)
    __arm_cp.11_0                            0x08002d3c   Number         4  gd32e23x_fmc.o(.text)
    __arm_cp.12_0                            0x08002d50   Number         4  gd32e23x_fmc.o(.text)
    __arm_cp.14_0                            0x08002e60   Number         4  gd32e23x_fmc.o(.text)
    __arm_cp.14_1                            0x08002e64   Number         4  gd32e23x_fmc.o(.text)
    __arm_cp.14_2                            0x08002e68   Number         4  gd32e23x_fmc.o(.text)
    __arm_cp.14_3                            0x08002e6c   Number         4  gd32e23x_fmc.o(.text)
    __arm_cp.14_4                            0x08002e70   Number         4  gd32e23x_fmc.o(.text)
    __arm_cp.15_0                            0x08002e80   Number         4  gd32e23x_fmc.o(.text)
    __arm_cp.16_0                            0x08002f20   Number         4  gd32e23x_fmc.o(.text)
    __arm_cp.16_1                            0x08002f24   Number         4  gd32e23x_fmc.o(.text)
    __arm_cp.16_2                            0x08002f28   Number         4  gd32e23x_fmc.o(.text)
    __arm_cp.16_3                            0x08002f2c   Number         4  gd32e23x_fmc.o(.text)
    __arm_cp.16_4                            0x08002f30   Number         4  gd32e23x_fmc.o(.text)
    __arm_cp.17_0                            0x08003030   Number         4  gd32e23x_fmc.o(.text)
    __arm_cp.17_1                            0x08003034   Number         4  gd32e23x_fmc.o(.text)
    __arm_cp.17_2                            0x08003038   Number         4  gd32e23x_fmc.o(.text)
    __arm_cp.17_3                            0x0800303c   Number         4  gd32e23x_fmc.o(.text)
    __arm_cp.18_0                            0x08003138   Number         4  gd32e23x_fmc.o(.text)
    __arm_cp.18_1                            0x0800313c   Number         4  gd32e23x_fmc.o(.text)
    __arm_cp.18_2                            0x08003140   Number         4  gd32e23x_fmc.o(.text)
    __arm_cp.19_0                            0x080031dc   Number         4  gd32e23x_fmc.o(.text)
    __arm_cp.19_1                            0x080031e0   Number         4  gd32e23x_fmc.o(.text)
    __arm_cp.19_2                            0x080031e4   Number         4  gd32e23x_fmc.o(.text)
    __arm_cp.19_3                            0x080031e8   Number         4  gd32e23x_fmc.o(.text)
    __arm_cp.20_0                            0x080031f8   Number         4  gd32e23x_fmc.o(.text)
    __arm_cp.21_0                            0x08003204   Number         4  gd32e23x_fmc.o(.text)
    __arm_cp.22_0                            0x08003210   Number         4  gd32e23x_fmc.o(.text)
    __arm_cp.23_0                            0x08003220   Number         4  gd32e23x_fmc.o(.text)
    __arm_cp.24_0                            0x08003230   Number         4  gd32e23x_fmc.o(.text)
    __arm_cp.25_0                            0x08003240   Number         4  gd32e23x_fmc.o(.text)
    __arm_cp.26_0                            0x0800324c   Number         4  gd32e23x_fmc.o(.text)
    __arm_cp.27_0                            0x08003274   Number         4  gd32e23x_fmc.o(.text)
    __arm_cp.28_0                            0x08003280   Number         4  gd32e23x_fmc.o(.text)
    __arm_cp.29_0                            0x080032a4   Number         4  gd32e23x_fmc.o(.text)
    [Anonymous Symbol]                       0x080032a8   Section        0  gd32e23x_fwdgt.o(.text)
    __arm_cp.0_0                             0x080032b0   Number         4  gd32e23x_fwdgt.o(.text)
    __arm_cp.0_1                             0x080032b4   Number         4  gd32e23x_fwdgt.o(.text)
    __arm_cp.1_0                             0x080032c0   Number         4  gd32e23x_fwdgt.o(.text)
    __arm_cp.2_0                             0x080032cc   Number         4  gd32e23x_fwdgt.o(.text)
    __arm_cp.2_1                             0x080032d0   Number         4  gd32e23x_fwdgt.o(.text)
    __arm_cp.3_0                             0x080032f8   Number         4  gd32e23x_fwdgt.o(.text)
    __arm_cp.3_1                             0x080032fc   Number         4  gd32e23x_fwdgt.o(.text)
    __arm_cp.3_2                             0x08003300   Number         4  gd32e23x_fwdgt.o(.text)
    __arm_cp.4_0                             0x0800332c   Number         4  gd32e23x_fwdgt.o(.text)
    __arm_cp.4_1                             0x08003330   Number         4  gd32e23x_fwdgt.o(.text)
    __arm_cp.4_2                             0x08003334   Number         4  gd32e23x_fwdgt.o(.text)
    __arm_cp.4_3                             0x08003338   Number         4  gd32e23x_fwdgt.o(.text)
    __arm_cp.5_0                             0x08003364   Number         4  gd32e23x_fwdgt.o(.text)
    __arm_cp.5_1                             0x08003368   Number         4  gd32e23x_fwdgt.o(.text)
    __arm_cp.5_2                             0x0800336c   Number         4  gd32e23x_fwdgt.o(.text)
    __arm_cp.5_3                             0x08003370   Number         4  gd32e23x_fwdgt.o(.text)
    __arm_cp.6_0                             0x0800337c   Number         4  gd32e23x_fwdgt.o(.text)
    __arm_cp.6_1                             0x08003380   Number         4  gd32e23x_fwdgt.o(.text)
    __arm_cp.7_0                             0x080033c4   Number         4  gd32e23x_fwdgt.o(.text)
    __arm_cp.7_1                             0x080033c8   Number         4  gd32e23x_fwdgt.o(.text)
    __arm_cp.7_2                             0x080033cc   Number         4  gd32e23x_fwdgt.o(.text)
    __arm_cp.7_3                             0x080033d0   Number         4  gd32e23x_fwdgt.o(.text)
    __arm_cp.7_4                             0x080033d4   Number         4  gd32e23x_fwdgt.o(.text)
    __arm_cp.8_0                             0x080033e4   Number         4  gd32e23x_fwdgt.o(.text)
    [Anonymous Symbol]                       0x080033e8   Section        0  gd32e23x_gpio.o(.text)
    __arm_cp.0_0                             0x0800341c   Number         4  gd32e23x_gpio.o(.text)
    __arm_cp.14_0                            0x08003560   Number         4  gd32e23x_gpio.o(.text)
    [Anonymous Symbol]                       0x08003564   Section        0  gd32e23x_misc.o(.text)
    __arm_cp.0_0                             0x080035b0   Number         4  gd32e23x_misc.o(.text)
    __arm_cp.0_1                             0x080035b4   Number         4  gd32e23x_misc.o(.text)
    __arm_cp.0_2                             0x080035b8   Number         4  gd32e23x_misc.o(.text)
    __arm_cp.1_0                             0x080035e0   Number         4  gd32e23x_misc.o(.text)
    __arm_cp.2_0                             0x080035f8   Number         4  gd32e23x_misc.o(.text)
    __arm_cp.2_1                             0x080035fc   Number         4  gd32e23x_misc.o(.text)
    __arm_cp.3_0                             0x0800360c   Number         4  gd32e23x_misc.o(.text)
    __arm_cp.3_1                             0x08003610   Number         4  gd32e23x_misc.o(.text)
    __arm_cp.4_0                             0x08003620   Number         4  gd32e23x_misc.o(.text)
    __arm_cp.5_0                             0x08003630   Number         4  gd32e23x_misc.o(.text)
    __arm_cp.6_0                             0x0800364c   Number         4  gd32e23x_misc.o(.text)
    [Anonymous Symbol]                       0x08003650   Section        0  gd32e23x_rcu.o(.text)
    __arm_cp.0_0                             0x080036b4   Number         4  gd32e23x_rcu.o(.text)
    __arm_cp.0_1                             0x080036b8   Number         4  gd32e23x_rcu.o(.text)
    __arm_cp.0_2                             0x080036bc   Number         4  gd32e23x_rcu.o(.text)
    __arm_cp.0_3                             0x080036c0   Number         4  gd32e23x_rcu.o(.text)
    __arm_cp.1_0                             0x080036d8   Number         4  gd32e23x_rcu.o(.text)
    __arm_cp.2_0                             0x080036f0   Number         4  gd32e23x_rcu.o(.text)
    __arm_cp.3_0                             0x08003708   Number         4  gd32e23x_rcu.o(.text)
    __arm_cp.4_0                             0x08003720   Number         4  gd32e23x_rcu.o(.text)
    __arm_cp.5_0                             0x08003738   Number         4  gd32e23x_rcu.o(.text)
    __arm_cp.6_0                             0x08003750   Number         4  gd32e23x_rcu.o(.text)
    __arm_cp.7_0                             0x08003764   Number         4  gd32e23x_rcu.o(.text)
    __arm_cp.8_0                             0x08003778   Number         4  gd32e23x_rcu.o(.text)
    __arm_cp.9_0                             0x0800378c   Number         4  gd32e23x_rcu.o(.text)
    __arm_cp.10_0                            0x0800379c   Number         4  gd32e23x_rcu.o(.text)
    __arm_cp.11_0                            0x080037b0   Number         4  gd32e23x_rcu.o(.text)
    __arm_cp.12_0                            0x080037c4   Number         4  gd32e23x_rcu.o(.text)
    __arm_cp.13_0                            0x080037d8   Number         4  gd32e23x_rcu.o(.text)
    __arm_cp.14_0                            0x080038a4   Number         4  gd32e23x_rcu.o(.text)
    __arm_cp.14_1                            0x080038a8   Number         4  gd32e23x_rcu.o(.text)
    __arm_cp.15_0                            0x080038c0   Number         4  gd32e23x_rcu.o(.text)
    __arm_cp.16_0                            0x080038dc   Number         4  gd32e23x_rcu.o(.text)
    __arm_cp.16_1                            0x080038e0   Number         4  gd32e23x_rcu.o(.text)
    __arm_cp.17_0                            0x080038f8   Number         4  gd32e23x_rcu.o(.text)
    __arm_cp.18_0                            0x08003910   Number         4  gd32e23x_rcu.o(.text)
    __arm_cp.19_0                            0x08003924   Number         4  gd32e23x_rcu.o(.text)
    __arm_cp.20_0                            0x0800393c   Number         4  gd32e23x_rcu.o(.text)
    __arm_cp.21_0                            0x08003954   Number         4  gd32e23x_rcu.o(.text)
    __arm_cp.22_0                            0x08003968   Number         4  gd32e23x_rcu.o(.text)
    __arm_cp.23_0                            0x08003980   Number         4  gd32e23x_rcu.o(.text)
    __arm_cp.24_0                            0x08003998   Number         4  gd32e23x_rcu.o(.text)
    __arm_cp.25_0                            0x080039b0   Number         4  gd32e23x_rcu.o(.text)
    __arm_cp.26_0                            0x080039c8   Number         4  gd32e23x_rcu.o(.text)
    __arm_cp.27_0                            0x08003a9c   Number         4  gd32e23x_rcu.o(.text)
    __arm_cp.27_1                            0x08003aa0   Number         4  gd32e23x_rcu.o(.text)
    __arm_cp.27_2                            0x08003aa4   Number         4  gd32e23x_rcu.o(.text)
    __arm_cp.27_3                            0x08003aa8   Number         4  gd32e23x_rcu.o(.text)
    __arm_cp.27_4                            0x08003aac   Number         4  gd32e23x_rcu.o(.text)
    __arm_cp.28_0                            0x08003ac4   Number         4  gd32e23x_rcu.o(.text)
    __arm_cp.29_0                            0x08003adc   Number         4  gd32e23x_rcu.o(.text)
    __arm_cp.30_0                            0x08003b18   Number         4  gd32e23x_rcu.o(.text)
    __arm_cp.31_0                            0x08003b54   Number         4  gd32e23x_rcu.o(.text)
    __arm_cp.32_0                            0x08003b68   Number         4  gd32e23x_rcu.o(.text)
    __arm_cp.33_0                            0x08003b7c   Number         4  gd32e23x_rcu.o(.text)
    __arm_cp.34_0                            0x08003b90   Number         4  gd32e23x_rcu.o(.text)
    __arm_cp.35_0                            0x08003ba4   Number         4  gd32e23x_rcu.o(.text)
    __arm_cp.36_0                            0x08003bbc   Number         4  gd32e23x_rcu.o(.text)
    __arm_cp.36_1                            0x08003bc0   Number         4  gd32e23x_rcu.o(.text)
    __arm_cp.37_0                            0x08003bd8   Number         4  gd32e23x_rcu.o(.text)
    __arm_cp.38_0                            0x08003cd8   Number         4  gd32e23x_rcu.o(.text)
    __arm_cp.38_1                            0x08003cdc   Number         4  gd32e23x_rcu.o(.text)
    __arm_cp.38_2                            0x08003ce0   Number         4  gd32e23x_rcu.o(.text)
    __arm_cp.38_4                            0x08003cf4   Number         4  gd32e23x_rcu.o(.text)
    __arm_cp.38_5                            0x08003cf8   Number         4  gd32e23x_rcu.o(.text)
    __arm_cp.38_6                            0x08003cfc   Number         4  gd32e23x_rcu.o(.text)
    [Anonymous Symbol]                       0x08003d00   Section        0  gd32e23x_syscfg.o(.text)
    __arm_cp.1_0                             0x08003d24   Number         4  gd32e23x_syscfg.o(.text)
    __arm_cp.2_0                             0x08003d34   Number         4  gd32e23x_syscfg.o(.text)
    __arm_cp.3_0                             0x08003d48   Number         4  gd32e23x_syscfg.o(.text)
    __arm_cp.4_0                             0x08003d5c   Number         4  gd32e23x_syscfg.o(.text)
    __arm_cp.5_0                             0x08003dcc   Number         4  gd32e23x_syscfg.o(.text)
    __arm_cp.6_0                             0x08003ddc   Number         4  gd32e23x_syscfg.o(.text)
    __arm_cp.7_0                             0x08003df0   Number         4  gd32e23x_syscfg.o(.text)
    __arm_cp.8_0                             0x08003e00   Number         4  gd32e23x_syscfg.o(.text)
    __arm_cp.9_0                             0x08003e10   Number         4  gd32e23x_syscfg.o(.text)
    [Anonymous Symbol]                       0x08003e14   Section        0  gd32e23x_timer.o(.text)
    __arm_cp.0_0                             0x08003e78   Number         4  gd32e23x_timer.o(.text)
    __arm_cp.0_1                             0x08003e7c   Number         4  gd32e23x_timer.o(.text)
    __arm_cp.0_2                             0x08003e80   Number         4  gd32e23x_timer.o(.text)
    __arm_cp.0_3                             0x08003e84   Number         4  gd32e23x_timer.o(.text)
    __arm_cp.0_4                             0x08003e88   Number         4  gd32e23x_timer.o(.text)
    __arm_cp.0_5                             0x08003e8c   Number         4  gd32e23x_timer.o(.text)
    __arm_cp.0_6                             0x08003e90   Number         4  gd32e23x_timer.o(.text)
    __arm_cp.0_7                             0x08003e94   Number         4  gd32e23x_timer.o(.text)
    __arm_cp.0_8                             0x08003e98   Number         4  gd32e23x_timer.o(.text)
    __arm_cp.0_9                             0x08003e9c   Number         4  gd32e23x_timer.o(.text)
    __arm_cp.1_0                             0x08003eb0   Number         4  gd32e23x_timer.o(.text)
    __arm_cp.2_0                             0x08003f48   Number         4  gd32e23x_timer.o(.text)
    __arm_cp.2_1                             0x08003f4c   Number         4  gd32e23x_timer.o(.text)
    __arm_cp.2_2                             0x08003f50   Number         4  gd32e23x_timer.o(.text)
    __arm_cp.2_3                             0x08003f54   Number         4  gd32e23x_timer.o(.text)
    __arm_cp.2_4                             0x08003f58   Number         4  gd32e23x_timer.o(.text)
    __arm_cp.2_5                             0x08003f5c   Number         4  gd32e23x_timer.o(.text)
    __arm_cp.2_6                             0x08003f60   Number         4  gd32e23x_timer.o(.text)
    __arm_cp.2_7                             0x08003f64   Number         4  gd32e23x_timer.o(.text)
    __arm_cp.30_0                            0x080040b8   Number         4  gd32e23x_timer.o(.text)
    __arm_cp.42_0                            0x08004390   Number         4  gd32e23x_timer.o(.text)
    __arm_cp.42_1                            0x08004394   Number         4  gd32e23x_timer.o(.text)
    __arm_cp.42_2                            0x08004398   Number         4  gd32e23x_timer.o(.text)
    __arm_cp.42_3                            0x0800439c   Number         4  gd32e23x_timer.o(.text)
    __arm_cp.42_4                            0x080043a0   Number         4  gd32e23x_timer.o(.text)
    __arm_cp.53_0                            0x08004808   Number         4  gd32e23x_timer.o(.text)
    __arm_cp.56_0                            0x080049d0   Number         4  gd32e23x_timer.o(.text)
    __arm_cp.56_1                            0x080049d4   Number         4  gd32e23x_timer.o(.text)
    __arm_cp.56_2                            0x080049d8   Number         4  gd32e23x_timer.o(.text)
    __arm_cp.63_0                            0x08004aa0   Number         4  gd32e23x_timer.o(.text)
    [Anonymous Symbol]                       0x08004c00   Section        0  gd32e23x_usart.o(.text)
    __arm_cp.0_0                             0x08004c28   Number         4  gd32e23x_usart.o(.text)
    __arm_cp.0_1                             0x08004c2c   Number         4  gd32e23x_usart.o(.text)
    __arm_cp.0_2                             0x08004c30   Number         4  gd32e23x_usart.o(.text)
    __arm_cp.0_3                             0x08004c34   Number         4  gd32e23x_usart.o(.text)
    __arm_cp.1_0                             0x08004c84   Number         4  gd32e23x_usart.o(.text)
    __arm_cp.1_1                             0x08004c88   Number         4  gd32e23x_usart.o(.text)
    __arm_cp.1_2                             0x08004c8c   Number         4  gd32e23x_usart.o(.text)
    __arm_cp.18_0                            0x08004e2c   Number         4  gd32e23x_usart.o(.text)
    __arm_cp.19_0                            0x08004e38   Number         4  gd32e23x_usart.o(.text)
    __arm_cp.73_0                            0x08005298   Number         4  gd32e23x_usart.o(.text)
    .text                                    0x0800529c   Section       56  startup_gd32e23x.o(.text)
    [Anonymous Symbol]                       0x080052d4   Section        0  system_gd32e23x.o(.text)
    __arm_cp.0_0                             0x080053a8   Number         4  system_gd32e23x.o(.text)
    __arm_cp.0_1                             0x080053ac   Number         4  system_gd32e23x.o(.text)
    __arm_cp.0_2                             0x080053b0   Number         4  system_gd32e23x.o(.text)
    __arm_cp.0_3                             0x080053b4   Number         4  system_gd32e23x.o(.text)
    __arm_cp.0_4                             0x080053b8   Number         4  system_gd32e23x.o(.text)
    __arm_cp.0_5                             0x080053bc   Number         4  system_gd32e23x.o(.text)
    __arm_cp.1_0                             0x0800541c   Number         4  system_gd32e23x.o(.text)
    __arm_cp.1_1                             0x08005420   Number         4  system_gd32e23x.o(.text)
    __arm_cp.1_2                             0x08005424   Number         4  system_gd32e23x.o(.text)
    __arm_cp.1_3                             0x08005428   Number         4  system_gd32e23x.o(.text)
    .text                                    0x0800543c   Section        0  llmul.o(.text)
    .text                                    0x0800546c   Section        0  heapauxi.o(.text)
    .text                                    0x08005474   Section        0  d2f.o(.text)
    _dadd1                                   0x080054f1   Thumb Code   290  daddsub.o(.text)
    .text                                    0x080054f0   Section        0  daddsub.o(.text)
    _dsub1                                   0x08005613   Thumb Code   470  daddsub.o(.text)
    .text                                    0x08005848   Section        0  ddiv.o(.text)
    .text                                    0x08005c90   Section        0  dfixi.o(.text)
    .text                                    0x08005cfc   Section        0  dflti.o(.text)
    .text                                    0x08005d54   Section        0  dmul.o(.text)
    .text                                    0x08005f9c   Section        0  f2d.o(.text)
    .text                                    0x08005ff0   Section        0  fdiv.o(.text)
    .text                                    0x08006150   Section        0  ffixi.o(.text)
    .text                                    0x0800619c   Section        0  ffixl.o(.text)
    .text                                    0x0800621e   Section        0  fflti.o(.text)
    .text                                    0x0800627c   Section        0  fcmpin.o(.text)
    .text                                    0x080062e0   Section       62  sys_stackheap_outer.o(.text)
    .text                                    0x0800631e   Section        0  exit.o(.text)
    .text                                    0x0800632e   Section        0  cmpret.o(.text)
    .text                                    0x0800635c   Section        0  fnan2.o(.text)
    .text                                    0x0800636c   Section        8  libspace.o(.text)
    .text                                    0x08006374   Section        0  retnan.o(.text)
    .text                                    0x080063d4   Section        0  sys_exit.o(.text)
    .text                                    0x080063e0   Section        2  use_no_semi.o(.text)
    .text                                    0x080063e2   Section        0  indicate_semi.o(.text)
    i._fgr                                   0x080063e2   Section        0  fcmp.o(i._fgr)
    i._fleq                                  0x080063f8   Section        0  fcmp.o(i._fleq)
    i._fls                                   0x08006412   Section        0  fcmp.o(i._fls)
    x$fpl$fadd                               0x08006428   Section      140  faddsub.o(x$fpl$fadd)
    _fadd1                                   0x08006435   Thumb Code     0  faddsub.o(x$fpl$fadd)
    x$fpl$fgeqf                              0x080064b4   Section       84  fgef.o(x$fpl$fgeqf)
    x$fpl$fleqf                              0x08006508   Section       84  flef.o(x$fpl$fleqf)
    x$fpl$fmul                               0x0800655c   Section      176  fmul.o(x$fpl$fmul)
    x$fpl$fsub                               0x0800660c   Section      208  faddsub.o(x$fpl$fsub)
    _fsub1                                   0x08006619   Thumb Code     0  faddsub.o(x$fpl$fsub)
    ddiv_reciptbl                            0x080066dc   Data         128  ddiv.o(.constdata)
    .constdata                               0x080066dc   Section      128  ddiv.o(.constdata)
    x$fpl$usenofp                            0x080066dc   Section        0  usenofp.o(x$fpl$usenofp)
    fdiv_tab                                 0x0800675c   Data          64  fdiv.o(.constdata)
    .constdata                               0x0800675c   Section       64  fdiv.o(.constdata)
    [Anonymous Symbol]                       0x0800679c   Section        0  bldc.o(.rodata..L__const.up_or_down.up_down)
    [Anonymous Symbol]                       0x080067a8   Section        0  gd32e23x_gpio.o(.rodata..Lswitch.table.gpio_deinit.1)
    hall_to_sector                           0x080067b4   Data           8  bldcsine.o(.rodata.cst8)
    [Anonymous Symbol]                       0x080067b4   Section        0  bldcsine.o(.rodata.cst8)
    [Anonymous Symbol]                       0x080067bc   Section        0  gd32e23x_rcu.o(.rodata.cst8)
    sine_table                               0x08006aa0   Data         720  bldcsine.o(.rodata.sine_table)
    [Anonymous Symbol]                       0x08006aa0   Section        0  bldcsine.o(.rodata.sine_table)
    iReceivePos                              0x20000012   Data           2  commsmasterslave.o(.data.iReceivePos)
    [Anonymous Symbol]                       0x20000012   Section        0  commsmasterslave.o(.data.iReceivePos)
    .bss                                     0x20000028   Section       96  libspace.o(.bss)
    aReceiveBuffer                           0x20000094   Data          16  commsmasterslave.o(.bss.aReceiveBuffer)
    [Anonymous Symbol]                       0x20000094   Section        0  commsmasterslave.o(.bss.aReceiveBuffer)
    Heap_Mem                                 0x20000240   Data        1024  startup_gd32e23x.o(HEAP)
    HEAP                                     0x20000240   Section     1024  startup_gd32e23x.o(HEAP)
    Stack_Mem                                0x20000640   Data        1024  startup_gd32e23x.o(STACK)
    STACK                                    0x20000640   Section     1024  startup_gd32e23x.o(STACK)
    __initial_sp                             0x20000a40   Data           0  startup_gd32e23x.o(STACK)

    Global Symbols

    Symbol Name                              Value     Ov Type        Size  Object(Section)

    BuildAttributes$$THM_ISAv3M$S$8M$PE$A:L22$X:L11$S22$IEEE1$IW$~IW$USESV6$~STKCKD$USESV7$~SHL$OTIME$ROPI$EBA8$UX$STANDARDLIB$REQ8$PRES8$EABIv2 0x00000000   Number         0  anon$$obj.o ABSOLUTE
    __ARM_exceptions_init                     - Undefined Weak Reference
    __alloca_initialize                       - Undefined Weak Reference
    __arm_preinit_                            - Undefined Weak Reference
    __arm_relocate_pie_                       - Undefined Weak Reference
    __cpp_initialize__aeabi_                  - Undefined Weak Reference
    __cxa_finalize                            - Undefined Weak Reference
    __rt_locale                               - Undefined Weak Reference
    __sigvec_lookup                           - Undefined Weak Reference
    _atexit_init                              - Undefined Weak Reference
    _call_atexit_fns                          - Undefined Weak Reference
    _clock_init                               - Undefined Weak Reference
    _fp_trap_init                             - Undefined Weak Reference
    _fp_trap_shutdown                         - Undefined Weak Reference
    _get_lc_collate                           - Undefined Weak Reference
    _get_lc_ctype                             - Undefined Weak Reference
    _get_lc_monetary                          - Undefined Weak Reference
    _get_lc_numeric                           - Undefined Weak Reference
    _get_lc_time                              - Undefined Weak Reference
    _getenv_init                              - Undefined Weak Reference
    _handle_redirection                       - Undefined Weak Reference
    _init_alloc                               - Undefined Weak Reference
    _init_user_alloc                          - Undefined Weak Reference
    _initio                                   - Undefined Weak Reference
    _rand_init                                - Undefined Weak Reference
    _signal_finish                            - Undefined Weak Reference
    _signal_init                              - Undefined Weak Reference
    _terminate_alloc                          - Undefined Weak Reference
    _terminate_user_alloc                     - Undefined Weak Reference
    _terminateio                              - Undefined Weak Reference
    __Vectors_Size                           0x000000cc   Number         0  startup_gd32e23x.o ABSOLUTE
    __Vectors                                0x08000000   Data           4  startup_gd32e23x.o(RESET)
    __Vectors_End                            0x080000cc   Data           0  startup_gd32e23x.o(RESET)
    __main                                   0x080000cd   Thumb Code     8  __main.o(!!!main)
    __scatterload                            0x080000d5   Thumb Code     0  __scatter.o(!!!scatter)
    __scatterload_rt2                        0x080000d5   Thumb Code    74  __scatter.o(!!!scatter)
    __scatterload_rt2_thumb_only             0x080000d5   Thumb Code     0  __scatter.o(!!!scatter)
    __scatterload_loop                       0x080000df   Thumb Code     0  __scatter.o(!!!scatter)
    __scatterload_copy                       0x08000129   Thumb Code    26  __scatter_copy.o(!!handler_copy)
    __scatterload_null                       0x08000145   Thumb Code     2  __scatter.o(!!handler_null)
    __scatterload_zeroinit                   0x08000149   Thumb Code    28  __scatter_zi.o(!!handler_zi)
    __rt_lib_init                            0x08000165   Thumb Code     0  libinit.o(.ARM.Collect$$libinit$$00000000)
    __rt_lib_init_alloca_1                   0x08000167   Thumb Code     0  libinit2.o(.ARM.Collect$$libinit$$00000030)
    __rt_lib_init_argv_1                     0x08000167   Thumb Code     0  libinit2.o(.ARM.Collect$$libinit$$0000002E)
    __rt_lib_init_atexit_1                   0x08000167   Thumb Code     0  libinit2.o(.ARM.Collect$$libinit$$0000001D)
    __rt_lib_init_clock_1                    0x08000167   Thumb Code     0  libinit2.o(.ARM.Collect$$libinit$$00000023)
    __rt_lib_init_cpp_1                      0x08000167   Thumb Code     0  libinit2.o(.ARM.Collect$$libinit$$00000034)
    __rt_lib_init_exceptions_1               0x08000167   Thumb Code     0  libinit2.o(.ARM.Collect$$libinit$$00000032)
    __rt_lib_init_fp_1                       0x08000167   Thumb Code     0  libinit2.o(.ARM.Collect$$libinit$$00000002)
    __rt_lib_init_fp_trap_1                  0x08000167   Thumb Code     0  libinit2.o(.ARM.Collect$$libinit$$00000021)
    __rt_lib_init_getenv_1                   0x08000167   Thumb Code     0  libinit2.o(.ARM.Collect$$libinit$$00000025)
    __rt_lib_init_heap_1                     0x08000167   Thumb Code     0  libinit2.o(.ARM.Collect$$libinit$$0000000C)
    __rt_lib_init_lc_collate_1               0x08000167   Thumb Code     0  libinit2.o(.ARM.Collect$$libinit$$00000013)
    __rt_lib_init_lc_ctype_1                 0x08000167   Thumb Code     0  libinit2.o(.ARM.Collect$$libinit$$00000015)
    __rt_lib_init_lc_monetary_1              0x08000167   Thumb Code     0  libinit2.o(.ARM.Collect$$libinit$$00000017)
    __rt_lib_init_lc_numeric_1               0x08000167   Thumb Code     0  libinit2.o(.ARM.Collect$$libinit$$00000019)
    __rt_lib_init_lc_time_1                  0x08000167   Thumb Code     0  libinit2.o(.ARM.Collect$$libinit$$0000001B)
    __rt_lib_init_preinit_1                  0x08000167   Thumb Code     0  libinit2.o(.ARM.Collect$$libinit$$00000006)
    __rt_lib_init_rand_1                     0x08000167   Thumb Code     0  libinit2.o(.ARM.Collect$$libinit$$00000010)
    __rt_lib_init_relocate_pie_1             0x08000167   Thumb Code     0  libinit2.o(.ARM.Collect$$libinit$$00000004)
    __rt_lib_init_return                     0x08000167   Thumb Code     0  libinit2.o(.ARM.Collect$$libinit$$00000035)
    __rt_lib_init_signal_1                   0x08000167   Thumb Code     0  libinit2.o(.ARM.Collect$$libinit$$0000001F)
    __rt_lib_init_stdio_1                    0x08000167   Thumb Code     0  libinit2.o(.ARM.Collect$$libinit$$00000027)
    __rt_lib_init_user_alloc_1               0x08000167   Thumb Code     0  libinit2.o(.ARM.Collect$$libinit$$0000000E)
    __rt_lib_shutdown                        0x08000169   Thumb Code     0  libshutdown.o(.ARM.Collect$$libshutdown$$00000000)
    __rt_lib_shutdown_cpp_1                  0x0800016b   Thumb Code     0  libshutdown2.o(.ARM.Collect$$libshutdown$$00000002)
    __rt_lib_shutdown_fp_trap_1              0x0800016b   Thumb Code     0  libshutdown2.o(.ARM.Collect$$libshutdown$$00000007)
    __rt_lib_shutdown_heap_1                 0x0800016b   Thumb Code     0  libshutdown2.o(.ARM.Collect$$libshutdown$$0000000F)
    __rt_lib_shutdown_return                 0x0800016b   Thumb Code     0  libshutdown2.o(.ARM.Collect$$libshutdown$$00000010)
    __rt_lib_shutdown_signal_1               0x0800016b   Thumb Code     0  libshutdown2.o(.ARM.Collect$$libshutdown$$0000000A)
    __rt_lib_shutdown_stdio_1                0x0800016b   Thumb Code     0  libshutdown2.o(.ARM.Collect$$libshutdown$$00000004)
    __rt_lib_shutdown_user_alloc_1           0x0800016b   Thumb Code     0  libshutdown2.o(.ARM.Collect$$libshutdown$$0000000C)
    __rt_entry                               0x0800016d   Thumb Code     0  __rtentry.o(.ARM.Collect$$rtentry$$00000000)
    __rt_entry_presh_1                       0x0800016d   Thumb Code     0  __rtentry2.o(.ARM.Collect$$rtentry$$00000002)
    __rt_entry_sh                            0x0800016d   Thumb Code     0  __rtentry4.o(.ARM.Collect$$rtentry$$00000004)
    __rt_entry_li                            0x08000173   Thumb Code     0  __rtentry2.o(.ARM.Collect$$rtentry$$0000000A)
    __rt_entry_postsh_1                      0x08000173   Thumb Code     0  __rtentry2.o(.ARM.Collect$$rtentry$$00000009)
    __rt_entry_main                          0x08000177   Thumb Code     0  __rtentry2.o(.ARM.Collect$$rtentry$$0000000D)
    __rt_entry_postli_1                      0x08000177   Thumb Code     0  __rtentry2.o(.ARM.Collect$$rtentry$$0000000C)
    __rt_exit                                0x0800017f   Thumb Code     0  rtexit.o(.ARM.Collect$$rtexit$$00000000)
    __rt_exit_ls                             0x08000181   Thumb Code     0  rtexit2.o(.ARM.Collect$$rtexit$$00000003)
    __rt_exit_prels_1                        0x08000181   Thumb Code     0  rtexit2.o(.ARM.Collect$$rtexit$$00000002)
    __rt_exit_exit                           0x08000185   Thumb Code     0  rtexit2.o(.ARM.Collect$$rtexit$$00000004)
    main                                     0x0800018d   Thumb Code  1372  main.o(.text)
    ShutOff                                  0x08000769   Thumb Code   136  main.o(.text)
    ShowBatteryState                         0x0800080d   Thumb Code   128  main.o(.text)
    modulo                                   0x0800089d   Thumb Code    22  bldc.o(.text)
    up_or_down                               0x080008b5   Thumb Code    32  bldc.o(.text)
    SetEnable                                0x080008d9   Thumb Code     8  bldc.o(.text)
    SetBldcInput                             0x080008e5   Thumb Code    56  bldc.o(.text)
    SetFilter                                0x08000935   Thumb Code    24  bldc.o(.text)
    CalculateBLDC                            0x08000959   Thumb Code  1000  bldc.o(.text)
    PID_Init                                 0x08000e3d   Thumb Code   108  driver.o(.text)
    PID_Update                               0x08000ead   Thumb Code   150  driver.o(.text)
    DriverInit                               0x08000f45   Thumb Code    52  driver.o(.text)
    Driver                                   0x08000fa1   Thumb Code   252  driver.o(.text)
    InitEXTI                                 0x080010ad   Thumb Code    66  bldcsine.o(.text)
    InitBldc                                 0x080010f1   Thumb Code   148  bldcsine.o(.text)
    _HandleEXTI                              0x08001189   Thumb Code   116  bldcsine.o(.text)
    EXTI0_1_IRQHandler                       0x08001221   Thumb Code     4  bldcsine.o(.text)
    EXTI2_3_IRQHandler                       0x08001225   Thumb Code     4  bldcsine.o(.text)
    EXTI4_15_IRQHandler                      0x08001229   Thumb Code     4  bldcsine.o(.text)
    bldc_get_pwm                             0x0800122d   Thumb Code   364  bldcsine.o(.text)
    pinMode                                  0x080013f9   Thumb Code    54  setup.o(.text)
    pinModePull                              0x0800142f   Thumb Code    46  setup.o(.text)
    Interrupt_init                           0x0800145d   Thumb Code     2  setup.o(.text)
    Watchdog_init                            0x08001461   Thumb Code    52  setup.o(.text)
    TimeoutTimer_init                        0x0800149d   Thumb Code    80  setup.o(.text)
    GPIO_init                                0x080014f9   Thumb Code   660  setup.o(.text)
    PWM_init                                 0x0800179d   Thumb Code   360  setup.o(.text)
    ADC_init                                 0x0800191d   Thumb Code   212  setup.o(.text)
    USART0_Init                              0x08001a01   Thumb Code     2  setup.o(.text)
    USART1_Init                              0x08001a05   Thumb Code   280  setup.o(.text)
    USART2_Init                              0x08001b2d   Thumb Code     2  setup.o(.text)
    flashErase                               0x08001b2f   Thumb Code    30  setup.o(.text)
    flashRead                                0x08001b4d   Thumb Code     4  setup.o(.text)
    flashWrite                               0x08001b51   Thumb Code    38  setup.o(.text)
    flashWriteBuffer                         0x08001b77   Thumb Code    56  setup.o(.text)
    flashReadBuffer                          0x08001baf   Thumb Code    20  setup.o(.text)
    ConfigReset                              0x08001bc5   Thumb Code    28  setup.o(.text)
    ConfigWrite                              0x08001be9   Thumb Code    96  setup.o(.text)
    ConfigRead                               0x08001c59   Thumb Code    88  setup.o(.text)
    SysTick_Handler                          0x08001cc5   Thumb Code    12  it.o(.text)
    ResetTimeout                             0x08001cd5   Thumb Code     8  it.o(.text)
    TIMER13_IRQHandler                       0x08001ce1   Thumb Code    56  it.o(.text)
    TIMER0_BRK_UP_TRG_COM_IRQHandler         0x08001d35   Thumb Code    60  it.o(.text)
    DMA_Channel0_IRQHandler                  0x08001d85   Thumb Code    68  it.o(.text)
    DMA_Channel3_4_IRQHandler                0x08001dd9   Thumb Code    48  it.o(.text)
    millis                                   0x08001e11   Thumb Code     8  it.o(.text)
    Delay                                    0x08001e1d   Thumb Code    20  it.o(.text)
    NMI_Handler                              0x08001e35   Thumb Code     2  it.o(.text)
    HardFault_Handler                        0x08001e37   Thumb Code     2  it.o(.text)
    MemManage_Handler                        0x08001e39   Thumb Code     2  it.o(.text)
    BusFault_Handler                         0x08001e3b   Thumb Code     2  it.o(.text)
    UsageFault_Handler                       0x08001e3d   Thumb Code     2  it.o(.text)
    SVC_Handler                              0x08001e3f   Thumb Code     2  it.o(.text)
    DebugMon_Handler                         0x08001e41   Thumb Code     2  it.o(.text)
    PendSV_Handler                           0x08001e43   Thumb Code     2  it.o(.text)
    SendBuffer                               0x08001e45   Thumb Code    48  comms.o(.text)
    CalcCRC                                  0x08001e79   Thumb Code    68  comms.o(.text)
    RemoteUpdate                             0x08001ec1   Thumb Code    96  remotedummy.o(.text)
    RemoteCallback                           0x08001f41   Thumb Code     2  remotedummy.o(.text)
    RemoteCalculate                          0x08001f43   Thumb Code     2  remotedummy.o(.text)
    UpdateUSARTMasterSlaveInput              0x08001f45   Thumb Code   140  commsmasterslave.o(.text)
    ProessReceived                           0x08001fe5   Thumb Code    76  commsmasterslave.o(.text)
    SendSlave                                0x08002035   Thumb Code    72  commsmasterslave.o(.text)
    adc_deinit                               0x08002089   Thumb Code    24  gd32e23x_adc.o(.text)
    adc_enable                               0x080020a5   Thumb Code    20  gd32e23x_adc.o(.text)
    adc_disable                              0x080020bd   Thumb Code    12  gd32e23x_adc.o(.text)
    adc_calibration_enable                   0x080020cd   Thumb Code    32  gd32e23x_adc.o(.text)
    adc_dma_mode_enable                      0x080020f1   Thumb Code    16  gd32e23x_adc.o(.text)
    adc_dma_mode_disable                     0x08002105   Thumb Code    16  gd32e23x_adc.o(.text)
    adc_tempsensor_vrefint_enable            0x08002119   Thumb Code    16  gd32e23x_adc.o(.text)
    adc_tempsensor_vrefint_disable           0x0800212d   Thumb Code    16  gd32e23x_adc.o(.text)
    adc_discontinuous_mode_config            0x08002141   Thumb Code    64  gd32e23x_adc.o(.text)
    adc_special_function_config              0x08002185   Thumb Code   104  gd32e23x_adc.o(.text)
    adc_data_alignment_config                0x080021f1   Thumb Code    24  gd32e23x_adc.o(.text)
    adc_channel_length_config                0x0800220d   Thumb Code    60  gd32e23x_adc.o(.text)
    adc_regular_channel_config               0x0800224d   Thumb Code   136  gd32e23x_adc.o(.text)
    adc_inserted_channel_config              0x080022d9   Thumb Code    84  gd32e23x_adc.o(.text)
    adc_inserted_channel_offset_config       0x08002331   Thumb Code    28  gd32e23x_adc.o(.text)
    adc_external_trigger_config              0x08002355   Thumb Code    64  gd32e23x_adc.o(.text)
    adc_external_trigger_source_config       0x08002399   Thumb Code    32  gd32e23x_adc.o(.text)
    adc_software_trigger_enable              0x080023c5   Thumb Code    40  gd32e23x_adc.o(.text)
    adc_regular_data_read                    0x080023f1   Thumb Code     8  gd32e23x_adc.o(.text)
    adc_inserted_data_read                   0x080023fd   Thumb Code    68  gd32e23x_adc.o(.text)
    adc_flag_get                             0x08002445   Thumb Code    12  gd32e23x_adc.o(.text)
    adc_flag_clear                           0x08002455   Thumb Code    12  gd32e23x_adc.o(.text)
    adc_interrupt_flag_get                   0x08002465   Thumb Code    48  gd32e23x_adc.o(.text)
    adc_interrupt_flag_clear                 0x08002499   Thumb Code    12  gd32e23x_adc.o(.text)
    adc_interrupt_enable                     0x080024a9   Thumb Code    52  gd32e23x_adc.o(.text)
    adc_interrupt_disable                    0x080024e1   Thumb Code    52  gd32e23x_adc.o(.text)
    adc_watchdog_single_channel_enable       0x08002519   Thumb Code    28  gd32e23x_adc.o(.text)
    adc_watchdog_group_channel_enable        0x08002541   Thumb Code    32  gd32e23x_adc.o(.text)
    adc_watchdog_disable                     0x08002575   Thumb Code    12  gd32e23x_adc.o(.text)
    adc_watchdog_threshold_config            0x08002589   Thumb Code    16  gd32e23x_adc.o(.text)
    adc_resolution_config                    0x080025a1   Thumb Code    20  gd32e23x_adc.o(.text)
    adc_oversample_mode_config               0x080025b9   Thumb Code    40  gd32e23x_adc.o(.text)
    adc_oversample_mode_enable               0x080025e9   Thumb Code    12  gd32e23x_adc.o(.text)
    adc_oversample_mode_disable              0x080025f9   Thumb Code    12  gd32e23x_adc.o(.text)
    dma_deinit                               0x08002609   Thumb Code    44  gd32e23x_dma.o(.text)
    dma_struct_para_init                     0x08002639   Thumb Code    20  gd32e23x_dma.o(.text)
    dma_init                                 0x0800264d   Thumb Code   112  gd32e23x_dma.o(.text)
    dma_channel_disable                      0x080026c1   Thumb Code    16  gd32e23x_dma.o(.text)
    dma_circulation_enable                   0x080026d5   Thumb Code    16  gd32e23x_dma.o(.text)
    dma_circulation_disable                  0x080026e9   Thumb Code    16  gd32e23x_dma.o(.text)
    dma_memory_to_memory_enable              0x080026fd   Thumb Code    20  gd32e23x_dma.o(.text)
    dma_memory_to_memory_disable             0x08002715   Thumb Code    20  gd32e23x_dma.o(.text)
    dma_channel_enable                       0x0800272d   Thumb Code    16  gd32e23x_dma.o(.text)
    dma_periph_address_config                0x08002741   Thumb Code    12  gd32e23x_dma.o(.text)
    dma_memory_address_config                0x08002751   Thumb Code    12  gd32e23x_dma.o(.text)
    dma_transfer_number_config               0x08002761   Thumb Code    12  gd32e23x_dma.o(.text)
    dma_transfer_number_get                  0x08002771   Thumb Code    12  gd32e23x_dma.o(.text)
    dma_priority_config                      0x08002781   Thumb Code    24  gd32e23x_dma.o(.text)
    dma_memory_width_config                  0x0800279d   Thumb Code    24  gd32e23x_dma.o(.text)
    dma_periph_width_config                  0x080027b9   Thumb Code    24  gd32e23x_dma.o(.text)
    dma_memory_increase_enable               0x080027d5   Thumb Code    16  gd32e23x_dma.o(.text)
    dma_memory_increase_disable              0x080027e9   Thumb Code    16  gd32e23x_dma.o(.text)
    dma_periph_increase_enable               0x080027fd   Thumb Code    16  gd32e23x_dma.o(.text)
    dma_periph_increase_disable              0x08002811   Thumb Code    16  gd32e23x_dma.o(.text)
    dma_transfer_direction_config            0x08002825   Thumb Code    28  gd32e23x_dma.o(.text)
    dma_flag_get                             0x08002845   Thumb Code    16  gd32e23x_dma.o(.text)
    dma_flag_clear                           0x08002859   Thumb Code    16  gd32e23x_dma.o(.text)
    dma_interrupt_flag_get                   0x0800286d   Thumb Code    56  gd32e23x_dma.o(.text)
    dma_interrupt_flag_clear                 0x080028a9   Thumb Code    16  gd32e23x_dma.o(.text)
    dma_interrupt_enable                     0x080028bd   Thumb Code    16  gd32e23x_dma.o(.text)
    dma_interrupt_disable                    0x080028d1   Thumb Code    16  gd32e23x_dma.o(.text)
    exti_deinit                              0x080028e5   Thumb Code    20  gd32e23x_exti.o(.text)
    exti_init                                0x08002901   Thumb Code   104  gd32e23x_exti.o(.text)
    exti_interrupt_enable                    0x0800296d   Thumb Code    12  gd32e23x_exti.o(.text)
    exti_event_enable                        0x0800297d   Thumb Code    12  gd32e23x_exti.o(.text)
    exti_interrupt_disable                   0x0800298d   Thumb Code    12  gd32e23x_exti.o(.text)
    exti_event_disable                       0x0800299d   Thumb Code    12  gd32e23x_exti.o(.text)
    exti_flag_get                            0x080029ad   Thumb Code    12  gd32e23x_exti.o(.text)
    exti_flag_clear                          0x080029bd   Thumb Code     8  gd32e23x_exti.o(.text)
    exti_interrupt_flag_get                  0x080029c9   Thumb Code    24  gd32e23x_exti.o(.text)
    exti_interrupt_flag_clear                0x080029e5   Thumb Code     8  gd32e23x_exti.o(.text)
    exti_software_interrupt_enable           0x080029f1   Thumb Code    12  gd32e23x_exti.o(.text)
    exti_software_interrupt_disable          0x08002a01   Thumb Code    12  gd32e23x_exti.o(.text)
    fmc_unlock                               0x08002a11   Thumb Code    20  gd32e23x_fmc.o(.text)
    fmc_lock                                 0x08002a31   Thumb Code    12  gd32e23x_fmc.o(.text)
    fmc_wscnt_set                            0x08002a41   Thumb Code    16  gd32e23x_fmc.o(.text)
    fmc_prefetch_enable                      0x08002a55   Thumb Code    12  gd32e23x_fmc.o(.text)
    fmc_prefetch_disable                     0x08002a65   Thumb Code    12  gd32e23x_fmc.o(.text)
    fmc_page_erase                           0x08002a75   Thumb Code   136  gd32e23x_fmc.o(.text)
    fmc_ready_wait                           0x08002b05   Thumb Code    60  gd32e23x_fmc.o(.text)
    fmc_mass_erase                           0x08002b45   Thumb Code   128  gd32e23x_fmc.o(.text)
    fmc_doubleword_program                   0x08002bcd   Thumb Code   160  gd32e23x_fmc.o(.text)
    fmc_word_program                         0x08002c75   Thumb Code   136  gd32e23x_fmc.o(.text)
    ob_unlock                                0x08002d05   Thumb Code    28  gd32e23x_fmc.o(.text)
    ob_lock                                  0x08002d2d   Thumb Code    16  gd32e23x_fmc.o(.text)
    ob_reset                                 0x08002d41   Thumb Code    16  gd32e23x_fmc.o(.text)
    option_byte_value_get                    0x08002d55   Thumb Code     4  gd32e23x_fmc.o(.text)
    ob_erase                                 0x08002d59   Thumb Code   264  gd32e23x_fmc.o(.text)
    ob_obstat_plevel_get                     0x08002e75   Thumb Code    12  gd32e23x_fmc.o(.text)
    ob_write_protection_enable               0x08002e85   Thumb Code   156  gd32e23x_fmc.o(.text)
    ob_security_protection_config            0x08002f35   Thumb Code   252  gd32e23x_fmc.o(.text)
    ob_user_write                            0x08003041   Thumb Code   248  gd32e23x_fmc.o(.text)
    ob_data_program                          0x08003145   Thumb Code   152  gd32e23x_fmc.o(.text)
    ob_user_get                              0x080031ed   Thumb Code    12  gd32e23x_fmc.o(.text)
    ob_data_get                              0x080031fd   Thumb Code     8  gd32e23x_fmc.o(.text)
    ob_write_protection_get                  0x08003209   Thumb Code     8  gd32e23x_fmc.o(.text)
    fmc_interrupt_enable                     0x08003215   Thumb Code    12  gd32e23x_fmc.o(.text)
    fmc_interrupt_disable                    0x08003225   Thumb Code    12  gd32e23x_fmc.o(.text)
    fmc_flag_get                             0x08003235   Thumb Code    12  gd32e23x_fmc.o(.text)
    fmc_flag_clear                           0x08003245   Thumb Code     8  gd32e23x_fmc.o(.text)
    fmc_interrupt_flag_get                   0x08003251   Thumb Code    36  gd32e23x_fmc.o(.text)
    fmc_interrupt_flag_clear                 0x08003279   Thumb Code     8  gd32e23x_fmc.o(.text)
    fmc_state_get                            0x08003285   Thumb Code    32  gd32e23x_fmc.o(.text)
    fwdgt_write_enable                       0x080032a9   Thumb Code     8  gd32e23x_fwdgt.o(.text)
    fwdgt_write_disable                      0x080032b9   Thumb Code     8  gd32e23x_fwdgt.o(.text)
    fwdgt_enable                             0x080032c5   Thumb Code     8  gd32e23x_fwdgt.o(.text)
    fwdgt_prescaler_value_config             0x080032d5   Thumb Code    36  gd32e23x_fwdgt.o(.text)
    fwdgt_reload_value_config                0x08003305   Thumb Code    40  gd32e23x_fwdgt.o(.text)
    fwdgt_window_value_config                0x0800333d   Thumb Code    40  gd32e23x_fwdgt.o(.text)
    fwdgt_counter_reload                     0x08003375   Thumb Code     8  gd32e23x_fwdgt.o(.text)
    fwdgt_config                             0x08003385   Thumb Code    64  gd32e23x_fwdgt.o(.text)
    fwdgt_flag_get                           0x080033d9   Thumb Code    12  gd32e23x_fwdgt.o(.text)
    gpio_deinit                              0x080033e9   Thumb Code    52  gd32e23x_gpio.o(.text)
    gpio_mode_set                            0x08003421   Thumb Code    66  gd32e23x_gpio.o(.text)
    gpio_output_options_set                  0x08003463   Thumb Code    70  gd32e23x_gpio.o(.text)
    gpio_bit_set                             0x080034a9   Thumb Code     4  gd32e23x_gpio.o(.text)
    gpio_bit_reset                           0x080034ad   Thumb Code     4  gd32e23x_gpio.o(.text)
    gpio_bit_write                           0x080034b1   Thumb Code    14  gd32e23x_gpio.o(.text)
    gpio_port_write                          0x080034bf   Thumb Code     4  gd32e23x_gpio.o(.text)
    gpio_input_bit_get                       0x080034c3   Thumb Code    10  gd32e23x_gpio.o(.text)
    gpio_input_port_get                      0x080034cd   Thumb Code     6  gd32e23x_gpio.o(.text)
    gpio_output_bit_get                      0x080034d3   Thumb Code    10  gd32e23x_gpio.o(.text)
    gpio_output_port_get                     0x080034dd   Thumb Code     6  gd32e23x_gpio.o(.text)
    gpio_af_set                              0x080034e3   Thumb Code    94  gd32e23x_gpio.o(.text)
    gpio_pin_lock                            0x08003541   Thumb Code    18  gd32e23x_gpio.o(.text)
    gpio_bit_toggle                          0x08003553   Thumb Code     4  gd32e23x_gpio.o(.text)
    gpio_port_toggle                         0x08003559   Thumb Code     8  gd32e23x_gpio.o(.text)
    nvic_irq_enable                          0x08003565   Thumb Code    76  gd32e23x_misc.o(.text)
    nvic_irq_disable                         0x080035bd   Thumb Code    36  gd32e23x_misc.o(.text)
    nvic_system_reset                        0x080035e5   Thumb Code    20  gd32e23x_misc.o(.text)
    nvic_vector_table_set                    0x08003601   Thumb Code    12  gd32e23x_misc.o(.text)
    system_lowpower_set                      0x08003615   Thumb Code    12  gd32e23x_misc.o(.text)
    system_lowpower_reset                    0x08003625   Thumb Code    12  gd32e23x_misc.o(.text)
    systick_clksource_set                    0x08003635   Thumb Code    24  gd32e23x_misc.o(.text)
    rcu_deinit                               0x08003651   Thumb Code   100  gd32e23x_rcu.o(.text)
    rcu_periph_clock_enable                  0x080036c5   Thumb Code    20  gd32e23x_rcu.o(.text)
    rcu_periph_clock_disable                 0x080036dd   Thumb Code    20  gd32e23x_rcu.o(.text)
    rcu_periph_clock_sleep_enable            0x080036f5   Thumb Code    20  gd32e23x_rcu.o(.text)
    rcu_periph_clock_sleep_disable           0x0800370d   Thumb Code    20  gd32e23x_rcu.o(.text)
    rcu_periph_reset_enable                  0x08003725   Thumb Code    20  gd32e23x_rcu.o(.text)
    rcu_periph_reset_disable                 0x0800373d   Thumb Code    20  gd32e23x_rcu.o(.text)
    rcu_bkp_reset_enable                     0x08003755   Thumb Code    16  gd32e23x_rcu.o(.text)
    rcu_bkp_reset_disable                    0x08003769   Thumb Code    16  gd32e23x_rcu.o(.text)
    rcu_system_clock_source_config           0x0800377d   Thumb Code    16  gd32e23x_rcu.o(.text)
    rcu_system_clock_source_get              0x08003791   Thumb Code    12  gd32e23x_rcu.o(.text)
    rcu_ahb_clock_config                     0x080037a1   Thumb Code    16  gd32e23x_rcu.o(.text)
    rcu_apb1_clock_config                    0x080037b5   Thumb Code    16  gd32e23x_rcu.o(.text)
    rcu_apb2_clock_config                    0x080037c9   Thumb Code    16  gd32e23x_rcu.o(.text)
    rcu_adc_clock_config                     0x080037dd   Thumb Code   200  gd32e23x_rcu.o(.text)
    rcu_ckout_config                         0x080038ad   Thumb Code    20  gd32e23x_rcu.o(.text)
    rcu_pll_config                           0x080038c5   Thumb Code    24  gd32e23x_rcu.o(.text)
    rcu_usart_clock_config                   0x080038e5   Thumb Code    20  gd32e23x_rcu.o(.text)
    rcu_rtc_clock_config                     0x080038fd   Thumb Code    20  gd32e23x_rcu.o(.text)
    rcu_hxtal_prediv_config                  0x08003915   Thumb Code    16  gd32e23x_rcu.o(.text)
    rcu_lxtal_drive_capability_config        0x08003929   Thumb Code    20  gd32e23x_rcu.o(.text)
    rcu_flag_get                             0x08003941   Thumb Code    20  gd32e23x_rcu.o(.text)
    rcu_all_reset_flag_clear                 0x08003959   Thumb Code    16  gd32e23x_rcu.o(.text)
    rcu_interrupt_flag_get                   0x0800396d   Thumb Code    20  gd32e23x_rcu.o(.text)
    rcu_interrupt_flag_clear                 0x08003985   Thumb Code    20  gd32e23x_rcu.o(.text)
    rcu_interrupt_enable                     0x0800399d   Thumb Code    20  gd32e23x_rcu.o(.text)
    rcu_interrupt_disable                    0x080039b5   Thumb Code    20  gd32e23x_rcu.o(.text)
    rcu_osci_stab_wait                       0x080039cd   Thumb Code   208  gd32e23x_rcu.o(.text)
    rcu_osci_on                              0x08003ab1   Thumb Code    20  gd32e23x_rcu.o(.text)
    rcu_osci_off                             0x08003ac9   Thumb Code    20  gd32e23x_rcu.o(.text)
    rcu_osci_bypass_mode_enable              0x08003ae1   Thumb Code    56  gd32e23x_rcu.o(.text)
    rcu_osci_bypass_mode_disable             0x08003b1d   Thumb Code    56  gd32e23x_rcu.o(.text)
    rcu_hxtal_clock_monitor_enable           0x08003b59   Thumb Code    16  gd32e23x_rcu.o(.text)
    rcu_hxtal_clock_monitor_disable          0x08003b6d   Thumb Code    16  gd32e23x_rcu.o(.text)
    rcu_irc8m_adjust_value_set               0x08003b81   Thumb Code    16  gd32e23x_rcu.o(.text)
    rcu_irc28m_adjust_value_set              0x08003b95   Thumb Code    16  gd32e23x_rcu.o(.text)
    rcu_voltage_key_unlock                   0x08003ba9   Thumb Code    20  gd32e23x_rcu.o(.text)
    rcu_deepsleep_voltage_set                0x08003bc5   Thumb Code    20  gd32e23x_rcu.o(.text)
    rcu_clock_freq_get                       0x08003bdd   Thumb Code   252  gd32e23x_rcu.o(.text)
    syscfg_deinit                            0x08003d01   Thumb Code    24  gd32e23x_syscfg.o(.text)
    syscfg_dma_remap_enable                  0x08003d19   Thumb Code    12  gd32e23x_syscfg.o(.text)
    syscfg_dma_remap_disable                 0x08003d29   Thumb Code    12  gd32e23x_syscfg.o(.text)
    syscfg_high_current_enable               0x08003d39   Thumb Code    16  gd32e23x_syscfg.o(.text)
    syscfg_high_current_disable              0x08003d4d   Thumb Code    16  gd32e23x_syscfg.o(.text)
    syscfg_exti_line_config                  0x08003d61   Thumb Code   108  gd32e23x_syscfg.o(.text)
    syscfg_lock_config                       0x08003dd1   Thumb Code    12  gd32e23x_syscfg.o(.text)
    irq_latency_set                          0x08003de1   Thumb Code    16  gd32e23x_syscfg.o(.text)
    syscfg_flag_get                          0x08003df5   Thumb Code    12  gd32e23x_syscfg.o(.text)
    syscfg_flag_clear                        0x08003e05   Thumb Code    12  gd32e23x_syscfg.o(.text)
    timer_deinit                             0x08003e15   Thumb Code   100  gd32e23x_timer.o(.text)
    timer_struct_para_init                   0x08003ea1   Thumb Code    16  gd32e23x_timer.o(.text)
    timer_init                               0x08003eb5   Thumb Code   148  gd32e23x_timer.o(.text)
    timer_enable                             0x08003f69   Thumb Code    10  gd32e23x_timer.o(.text)
    timer_disable                            0x08003f73   Thumb Code    10  gd32e23x_timer.o(.text)
    timer_auto_reload_shadow_enable          0x08003f7d   Thumb Code    10  gd32e23x_timer.o(.text)
    timer_auto_reload_shadow_disable         0x08003f87   Thumb Code    10  gd32e23x_timer.o(.text)
    timer_update_event_enable                0x08003f91   Thumb Code    10  gd32e23x_timer.o(.text)
    timer_update_event_disable               0x08003f9b   Thumb Code    10  gd32e23x_timer.o(.text)
    timer_counter_alignment                  0x08003fa5   Thumb Code    16  gd32e23x_timer.o(.text)
    timer_counter_up_direction               0x08003fb5   Thumb Code    10  gd32e23x_timer.o(.text)
    timer_counter_down_direction             0x08003fbf   Thumb Code    10  gd32e23x_timer.o(.text)
    timer_prescaler_config                   0x08003fc9   Thumb Code    16  gd32e23x_timer.o(.text)
    timer_repetition_value_config            0x08003fd9   Thumb Code     4  gd32e23x_timer.o(.text)
    timer_autoreload_value_config            0x08003fdd   Thumb Code     4  gd32e23x_timer.o(.text)
    timer_counter_value_config               0x08003fe1   Thumb Code     4  gd32e23x_timer.o(.text)
    timer_counter_read                       0x08003fe5   Thumb Code     4  gd32e23x_timer.o(.text)
    timer_prescaler_read                     0x08003fe9   Thumb Code     6  gd32e23x_timer.o(.text)
    timer_single_pulse_mode_config           0x08003fef   Thumb Code    26  gd32e23x_timer.o(.text)
    timer_update_source_config               0x08004009   Thumb Code    26  gd32e23x_timer.o(.text)
    timer_ocpre_clear_source_config          0x08004023   Thumb Code    26  gd32e23x_timer.o(.text)
    timer_interrupt_enable                   0x0800403d   Thumb Code     8  gd32e23x_timer.o(.text)
    timer_interrupt_disable                  0x08004045   Thumb Code     8  gd32e23x_timer.o(.text)
    timer_interrupt_flag_get                 0x0800404d   Thumb Code    20  gd32e23x_timer.o(.text)
    timer_interrupt_flag_clear               0x08004061   Thumb Code     8  gd32e23x_timer.o(.text)
    timer_flag_get                           0x08004069   Thumb Code    10  gd32e23x_timer.o(.text)
    timer_flag_clear                         0x08004073   Thumb Code     8  gd32e23x_timer.o(.text)
    timer_dma_enable                         0x0800407b   Thumb Code     8  gd32e23x_timer.o(.text)
    timer_dma_disable                        0x08004083   Thumb Code     8  gd32e23x_timer.o(.text)
    timer_channel_dma_request_source_select  0x0800408b   Thumb Code    26  gd32e23x_timer.o(.text)
    timer_dma_transfer_config                0x080040a5   Thumb Code    20  gd32e23x_timer.o(.text)
    timer_event_software_generate            0x080040bd   Thumb Code     8  gd32e23x_timer.o(.text)
    timer_break_struct_para_init             0x080040c5   Thumb Code    18  gd32e23x_timer.o(.text)
    timer_break_config                       0x080040d7   Thumb Code    30  gd32e23x_timer.o(.text)
    timer_break_enable                       0x080040f5   Thumb Code    12  gd32e23x_timer.o(.text)
    timer_break_disable                      0x08004101   Thumb Code    12  gd32e23x_timer.o(.text)
    timer_automatic_output_enable            0x0800410d   Thumb Code    12  gd32e23x_timer.o(.text)
    timer_automatic_output_disable           0x08004119   Thumb Code    12  gd32e23x_timer.o(.text)
    timer_primary_output_config              0x08004125   Thumb Code    22  gd32e23x_timer.o(.text)
    timer_channel_control_shadow_config      0x0800413b   Thumb Code    18  gd32e23x_timer.o(.text)
    timer_channel_control_shadow_update_config 0x0800414d   Thumb Code    26  gd32e23x_timer.o(.text)
    timer_channel_output_struct_para_init    0x08004167   Thumb Code    16  gd32e23x_timer.o(.text)
    timer_channel_output_config              0x08004179   Thumb Code   536  gd32e23x_timer.o(.text)
    timer_channel_output_mode_config         0x080043a5   Thumb Code    90  gd32e23x_timer.o(.text)
    timer_channel_output_pulse_value_config  0x080043ff   Thumb Code    14  gd32e23x_timer.o(.text)
    timer_channel_output_shadow_config       0x0800440d   Thumb Code    90  gd32e23x_timer.o(.text)
    timer_channel_output_fast_config         0x08004469   Thumb Code    90  gd32e23x_timer.o(.text)
    timer_channel_output_clear_config        0x080044c5   Thumb Code    90  gd32e23x_timer.o(.text)
    timer_channel_output_polarity_config     0x08004521   Thumb Code    90  gd32e23x_timer.o(.text)
    timer_channel_complementary_output_polarity_config 0x0800457d   Thumb Code    90  gd32e23x_timer.o(.text)
    timer_channel_output_state_config        0x080045d9   Thumb Code    90  gd32e23x_timer.o(.text)
    timer_channel_complementary_output_state_config 0x08004633   Thumb Code    54  gd32e23x_timer.o(.text)
    timer_channel_input_struct_para_init     0x08004669   Thumb Code    14  gd32e23x_timer.o(.text)
    timer_input_capture_config               0x08004679   Thumb Code   400  gd32e23x_timer.o(.text)
    timer_channel_input_capture_prescaler_config 0x0800480d   Thumb Code    90  gd32e23x_timer.o(.text)
    timer_channel_capture_value_register_read 0x08004867   Thumb Code    18  gd32e23x_timer.o(.text)
    timer_input_pwm_capture_config           0x08004879   Thumb Code   344  gd32e23x_timer.o(.text)
    timer_hall_mode_config                   0x080049dd   Thumb Code    26  gd32e23x_timer.o(.text)
    timer_input_trigger_source_select        0x080049f7   Thumb Code    16  gd32e23x_timer.o(.text)
    timer_master_output_trigger_source_select 0x08004a07   Thumb Code    16  gd32e23x_timer.o(.text)
    timer_slave_mode_select                  0x08004a17   Thumb Code    16  gd32e23x_timer.o(.text)
    timer_master_slave_mode_config           0x08004a27   Thumb Code    26  gd32e23x_timer.o(.text)
    timer_external_trigger_config            0x08004a41   Thumb Code    30  gd32e23x_timer.o(.text)
    timer_quadrature_decoder_mode_config     0x08004a61   Thumb Code    64  gd32e23x_timer.o(.text)
    timer_internal_clock_config              0x08004aa5   Thumb Code    10  gd32e23x_timer.o(.text)
    timer_internal_trigger_as_external_clock_config 0x08004aaf   Thumb Code    30  gd32e23x_timer.o(.text)
    timer_external_trigger_as_external_clock_config 0x08004acd   Thumb Code   148  gd32e23x_timer.o(.text)
    timer_external_clock_mode0_config        0x08004b61   Thumb Code    44  gd32e23x_timer.o(.text)
    timer_external_clock_mode1_config        0x08004b8d   Thumb Code    40  gd32e23x_timer.o(.text)
    timer_external_clock_mode1_disable       0x08004bb5   Thumb Code    12  gd32e23x_timer.o(.text)
    timer_channel_remap_config               0x08004bc1   Thumb Code     4  gd32e23x_timer.o(.text)
    timer_write_chxval_register_config       0x08004bc5   Thumb Code    30  gd32e23x_timer.o(.text)
    timer_output_value_selection_config      0x08004be3   Thumb Code    30  gd32e23x_timer.o(.text)
    usart_deinit                             0x08004c01   Thumb Code    40  gd32e23x_usart.o(.text)
    usart_baudrate_set                       0x08004c39   Thumb Code    76  gd32e23x_usart.o(.text)
    usart_parity_config                      0x08004c91   Thumb Code    26  gd32e23x_usart.o(.text)
    usart_word_length_set                    0x08004cab   Thumb Code    26  gd32e23x_usart.o(.text)
    usart_stop_bit_set                       0x08004cc5   Thumb Code    26  gd32e23x_usart.o(.text)
    usart_enable                             0x08004cdf   Thumb Code    10  gd32e23x_usart.o(.text)
    usart_disable                            0x08004ce9   Thumb Code    10  gd32e23x_usart.o(.text)
    usart_transmit_config                    0x08004cf3   Thumb Code    16  gd32e23x_usart.o(.text)
    usart_receive_config                     0x08004d03   Thumb Code    16  gd32e23x_usart.o(.text)
    usart_data_first_config                  0x08004d13   Thumb Code    26  gd32e23x_usart.o(.text)
    usart_invert_config                      0x08004d2d   Thumb Code   112  gd32e23x_usart.o(.text)
    usart_overrun_enable                     0x08004d9d   Thumb Code    20  gd32e23x_usart.o(.text)
    usart_overrun_disable                    0x08004db1   Thumb Code    20  gd32e23x_usart.o(.text)
    usart_oversample_config                  0x08004dc5   Thumb Code    26  gd32e23x_usart.o(.text)
    usart_sample_bit_config                  0x08004ddf   Thumb Code    26  gd32e23x_usart.o(.text)
    usart_receiver_timeout_enable            0x08004df9   Thumb Code    12  gd32e23x_usart.o(.text)
    usart_receiver_timeout_disable           0x08004e05   Thumb Code    12  gd32e23x_usart.o(.text)
    usart_receiver_timeout_threshold_config  0x08004e11   Thumb Code    18  gd32e23x_usart.o(.text)
    usart_data_transmit                      0x08004e25   Thumb Code     8  gd32e23x_usart.o(.text)
    usart_data_receive                       0x08004e31   Thumb Code     8  gd32e23x_usart.o(.text)
    usart_autobaud_detection_enable          0x08004e3d   Thumb Code    12  gd32e23x_usart.o(.text)
    usart_autobaud_detection_disable         0x08004e49   Thumb Code    12  gd32e23x_usart.o(.text)
    usart_autobaud_detection_mode_config     0x08004e55   Thumb Code    18  gd32e23x_usart.o(.text)
    usart_address_config                     0x08004e67   Thumb Code    28  gd32e23x_usart.o(.text)
    usart_address_detection_mode_config      0x08004e83   Thumb Code    26  gd32e23x_usart.o(.text)
    usart_mute_mode_enable                   0x08004e9d   Thumb Code    12  gd32e23x_usart.o(.text)
    usart_mute_mode_disable                  0x08004ea9   Thumb Code    12  gd32e23x_usart.o(.text)
    usart_mute_mode_wakeup_config            0x08004eb5   Thumb Code    26  gd32e23x_usart.o(.text)
    usart_lin_mode_enable                    0x08004ecf   Thumb Code    20  gd32e23x_usart.o(.text)
    usart_lin_mode_disable                   0x08004ee3   Thumb Code    20  gd32e23x_usart.o(.text)
    usart_lin_break_detection_length_config  0x08004ef7   Thumb Code    26  gd32e23x_usart.o(.text)
    usart_halfduplex_enable                  0x08004f11   Thumb Code    18  gd32e23x_usart.o(.text)
    usart_halfduplex_disable                 0x08004f23   Thumb Code    18  gd32e23x_usart.o(.text)
    usart_clock_enable                       0x08004f35   Thumb Code    20  gd32e23x_usart.o(.text)
    usart_clock_disable                      0x08004f49   Thumb Code    20  gd32e23x_usart.o(.text)
    usart_synchronous_clock_config           0x08004f5d   Thumb Code    58  gd32e23x_usart.o(.text)
    usart_guard_time_config                  0x08004f97   Thumb Code    30  gd32e23x_usart.o(.text)
    usart_smartcard_mode_enable              0x08004fb5   Thumb Code    18  gd32e23x_usart.o(.text)
    usart_smartcard_mode_disable             0x08004fc7   Thumb Code    18  gd32e23x_usart.o(.text)
    usart_smartcard_mode_nack_enable         0x08004fd9   Thumb Code    18  gd32e23x_usart.o(.text)
    usart_smartcard_mode_nack_disable        0x08004feb   Thumb Code    18  gd32e23x_usart.o(.text)
    usart_smartcard_mode_early_nack_enable   0x08004ffd   Thumb Code    12  gd32e23x_usart.o(.text)
    usart_smartcard_mode_early_nack_disable  0x08005009   Thumb Code    12  gd32e23x_usart.o(.text)
    usart_smartcard_autoretry_config         0x08005015   Thumb Code    30  gd32e23x_usart.o(.text)
    usart_block_length_config                0x08005033   Thumb Code    20  gd32e23x_usart.o(.text)
    usart_irda_mode_enable                   0x08005047   Thumb Code    18  gd32e23x_usart.o(.text)
    usart_irda_mode_disable                  0x08005059   Thumb Code    18  gd32e23x_usart.o(.text)
    usart_prescaler_config                   0x0800506b   Thumb Code    24  gd32e23x_usart.o(.text)
    usart_irda_lowpower_config               0x08005083   Thumb Code    26  gd32e23x_usart.o(.text)
    usart_hardware_flow_rts_config           0x0800509d   Thumb Code    26  gd32e23x_usart.o(.text)
    usart_hardware_flow_cts_config           0x080050b7   Thumb Code    26  gd32e23x_usart.o(.text)
    usart_hardware_flow_coherence_config     0x080050d1   Thumb Code    22  gd32e23x_usart.o(.text)
    usart_rs485_driver_enable                0x080050e7   Thumb Code    20  gd32e23x_usart.o(.text)
    usart_rs485_driver_disable               0x080050fb   Thumb Code    20  gd32e23x_usart.o(.text)
    usart_driver_assertime_config            0x0800510f   Thumb Code    30  gd32e23x_usart.o(.text)
    usart_driver_deassertime_config          0x0800512d   Thumb Code    30  gd32e23x_usart.o(.text)
    usart_depolarity_config                  0x0800514b   Thumb Code    28  gd32e23x_usart.o(.text)
    usart_dma_receive_config                 0x08005167   Thumb Code    16  gd32e23x_usart.o(.text)
    usart_dma_transmit_config                0x08005177   Thumb Code    16  gd32e23x_usart.o(.text)
    usart_reception_error_dma_disable        0x08005187   Thumb Code    20  gd32e23x_usart.o(.text)
    usart_reception_error_dma_enable         0x0800519b   Thumb Code    20  gd32e23x_usart.o(.text)
    usart_wakeup_enable                      0x080051af   Thumb Code    10  gd32e23x_usart.o(.text)
    usart_wakeup_disable                     0x080051b9   Thumb Code    10  gd32e23x_usart.o(.text)
    usart_wakeup_mode_config                 0x080051c3   Thumb Code    28  gd32e23x_usart.o(.text)
    usart_receive_fifo_enable                0x080051df   Thumb Code    14  gd32e23x_usart.o(.text)
    usart_receive_fifo_disable               0x080051ed   Thumb Code    14  gd32e23x_usart.o(.text)
    usart_receive_fifo_counter_number        0x080051fb   Thumb Code    10  gd32e23x_usart.o(.text)
    usart_flag_get                           0x08005205   Thumb Code    16  gd32e23x_usart.o(.text)
    usart_flag_clear                         0x08005215   Thumb Code    16  gd32e23x_usart.o(.text)
    usart_interrupt_enable                   0x08005225   Thumb Code    18  gd32e23x_usart.o(.text)
    usart_interrupt_disable                  0x08005237   Thumb Code    18  gd32e23x_usart.o(.text)
    usart_command_enable                     0x08005249   Thumb Code     8  gd32e23x_usart.o(.text)
    usart_interrupt_flag_get                 0x08005251   Thumb Code    34  gd32e23x_usart.o(.text)
    usart_interrupt_flag_clear               0x08005275   Thumb Code    36  gd32e23x_usart.o(.text)
    Reset_Handler                            0x0800529d   Thumb Code     8  startup_gd32e23x.o(.text)
    ADC_CMP_IRQHandler                       0x080052af   Thumb Code     0  startup_gd32e23x.o(.text)
    DMA_Channel1_2_IRQHandler                0x080052af   Thumb Code     0  startup_gd32e23x.o(.text)
    FMC_IRQHandler                           0x080052af   Thumb Code     0  startup_gd32e23x.o(.text)
    I2C0_ER_IRQHandler                       0x080052af   Thumb Code     0  startup_gd32e23x.o(.text)
    I2C0_EV_IRQHandler                       0x080052af   Thumb Code     0  startup_gd32e23x.o(.text)
    I2C1_ER_IRQHandler                       0x080052af   Thumb Code     0  startup_gd32e23x.o(.text)
    I2C1_EV_IRQHandler                       0x080052af   Thumb Code     0  startup_gd32e23x.o(.text)
    LVD_IRQHandler                           0x080052af   Thumb Code     0  startup_gd32e23x.o(.text)
    RCU_IRQHandler                           0x080052af   Thumb Code     0  startup_gd32e23x.o(.text)
    RTC_IRQHandler                           0x080052af   Thumb Code     0  startup_gd32e23x.o(.text)
    SPI0_IRQHandler                          0x080052af   Thumb Code     0  startup_gd32e23x.o(.text)
    SPI1_IRQHandler                          0x080052af   Thumb Code     0  startup_gd32e23x.o(.text)
    TIMER0_Channel_IRQHandler                0x080052af   Thumb Code     0  startup_gd32e23x.o(.text)
    TIMER14_IRQHandler                       0x080052af   Thumb Code     0  startup_gd32e23x.o(.text)
    TIMER15_IRQHandler                       0x080052af   Thumb Code     0  startup_gd32e23x.o(.text)
    TIMER16_IRQHandler                       0x080052af   Thumb Code     0  startup_gd32e23x.o(.text)
    TIMER2_IRQHandler                        0x080052af   Thumb Code     0  startup_gd32e23x.o(.text)
    TIMER5_IRQHandler                        0x080052af   Thumb Code     0  startup_gd32e23x.o(.text)
    USART0_IRQHandler                        0x080052af   Thumb Code     0  startup_gd32e23x.o(.text)
    USART1_IRQHandler                        0x080052af   Thumb Code     0  startup_gd32e23x.o(.text)
    WWDGT_IRQHandler                         0x080052af   Thumb Code     0  startup_gd32e23x.o(.text)
    __user_initial_stackheap                 0x080052b1   Thumb Code    10  startup_gd32e23x.o(.text)
    SystemInit                               0x080052d5   Thumb Code   212  system_gd32e23x.o(.text)
    SystemCoreClockUpdate                    0x080053c1   Thumb Code    92  system_gd32e23x.o(.text)
    __aeabi_lmul                             0x0800543d   Thumb Code    48  llmul.o(.text)
    _ll_mul                                  0x0800543d   Thumb Code     0  llmul.o(.text)
    __use_two_region_memory                  0x0800546d   Thumb Code     2  heapauxi.o(.text)
    __rt_heap_escrow$2region                 0x0800546f   Thumb Code     2  heapauxi.o(.text)
    __rt_heap_expand$2region                 0x08005471   Thumb Code     2  heapauxi.o(.text)
    __aeabi_d2f                              0x08005475   Thumb Code     0  d2f.o(.text)
    __truncdfsf2                             0x08005475   Thumb Code     0  d2f.o(.text)
    _d2f                                     0x08005475   Thumb Code   120  d2f.o(.text)
    __adddf3                                 0x080057e9   Thumb Code     0  daddsub.o(.text)
    __aeabi_dadd                             0x080057e9   Thumb Code     0  daddsub.o(.text)
    _dadd                                    0x080057e9   Thumb Code    26  daddsub.o(.text)
    __aeabi_dsub                             0x08005803   Thumb Code     0  daddsub.o(.text)
    __subdf3                                 0x08005803   Thumb Code     0  daddsub.o(.text)
    _dsub                                    0x08005803   Thumb Code    22  daddsub.o(.text)
    __aeabi_drsub                            0x08005819   Thumb Code     0  daddsub.o(.text)
    _drsb                                    0x08005819   Thumb Code    28  daddsub.o(.text)
    __aeabi_ddiv                             0x08005849   Thumb Code     0  ddiv.o(.text)
    __divdf3                                 0x08005849   Thumb Code     0  ddiv.o(.text)
    _ddiv                                    0x08005849   Thumb Code  1072  ddiv.o(.text)
    _drdiv                                   0x08005c79   Thumb Code    20  ddiv.o(.text)
    __aeabi_d2iz                             0x08005c91   Thumb Code     0  dfixi.o(.text)
    _dfix                                    0x08005c91   Thumb Code    98  dfixi.o(.text)
    __aeabi_i2d_normalise                    0x08005cfd   Thumb Code    66  dflti.o(.text)
    __aeabi_i2d                              0x08005d3f   Thumb Code    16  dflti.o(.text)
    _dflt                                    0x08005d3f   Thumb Code     0  dflti.o(.text)
    __aeabi_ui2d                             0x08005d4f   Thumb Code     6  dflti.o(.text)
    _dfltu                                   0x08005d4f   Thumb Code     0  dflti.o(.text)
    __aeabi_dmul                             0x08005d55   Thumb Code     0  dmul.o(.text)
    __muldf3                                 0x08005d55   Thumb Code     0  dmul.o(.text)
    _dmul                                    0x08005d55   Thumb Code   558  dmul.o(.text)
    __aeabi_f2d                              0x08005f9d   Thumb Code     0  f2d.o(.text)
    __extendsfdf2                            0x08005f9d   Thumb Code     0  f2d.o(.text)
    _f2d                                     0x08005f9d   Thumb Code    80  f2d.o(.text)
    __aeabi_fdiv                             0x08005ff1   Thumb Code     0  fdiv.o(.text)
    __divsf3                                 0x08005ff1   Thumb Code     0  fdiv.o(.text)
    _fdiv                                    0x08005ff1   Thumb Code   334  fdiv.o(.text)
    _frdiv                                   0x0800613f   Thumb Code     8  fdiv.o(.text)
    __aeabi_f2iz                             0x08006151   Thumb Code     0  ffixi.o(.text)
    _ffix                                    0x08006151   Thumb Code    76  ffixi.o(.text)
    __aeabi_f2lz                             0x0800619d   Thumb Code     0  ffixl.o(.text)
    _ll_sfrom_f                              0x0800619d   Thumb Code   130  ffixl.o(.text)
    __aeabi_i2f_normalise                    0x0800621f   Thumb Code    72  fflti.o(.text)
    __aeabi_i2f                              0x08006267   Thumb Code    16  fflti.o(.text)
    _fflt                                    0x08006267   Thumb Code     0  fflti.o(.text)
    __aeabi_ui2f                             0x08006277   Thumb Code     6  fflti.o(.text)
    _ffltu                                   0x08006277   Thumb Code     0  fflti.o(.text)
    __fpl_fcmp_InfNaN                        0x0800627d   Thumb Code    96  fcmpin.o(.text)
    __user_setup_stackheap                   0x080062e1   Thumb Code    62  sys_stackheap_outer.o(.text)
    exit                                     0x0800631f   Thumb Code    16  exit.o(.text)
    __fpl_cmpreturn                          0x0800632f   Thumb Code    46  cmpret.o(.text)
    __fpl_fcheck_NaN2                        0x0800635d   Thumb Code    10  fnan2.o(.text)
    __user_libspace                          0x0800636d   Thumb Code     8  libspace.o(.text)
    __user_perproc_libspace                  0x0800636d   Thumb Code     0  libspace.o(.text)
    __user_perthread_libspace                0x0800636d   Thumb Code     0  libspace.o(.text)
    __fpl_return_NaN                         0x08006375   Thumb Code    94  retnan.o(.text)
    _sys_exit                                0x080063d5   Thumb Code     8  sys_exit.o(.text)
    __I$use$semihosting                      0x080063e1   Thumb Code     0  use_no_semi.o(.text)
    __use_no_semihosting_swi                 0x080063e1   Thumb Code     2  use_no_semi.o(.text)
    __aeabi_fcmpgt                           0x080063e3   Thumb Code     0  fcmp.o(i._fgr)
    __semihosting_library_function           0x080063e3   Thumb Code     0  indicate_semi.o(.text)
    _fgr                                     0x080063e3   Thumb Code    22  fcmp.o(i._fgr)
    __aeabi_fcmple                           0x080063f9   Thumb Code     0  fcmp.o(i._fleq)
    _fleq                                    0x080063f9   Thumb Code    26  fcmp.o(i._fleq)
    __aeabi_fcmplt                           0x08006413   Thumb Code     0  fcmp.o(i._fls)
    _fls                                     0x08006413   Thumb Code    22  fcmp.o(i._fls)
    __aeabi_fadd                             0x08006429   Thumb Code     0  faddsub.o(x$fpl$fadd)
    _fadd                                    0x08006429   Thumb Code   134  faddsub.o(x$fpl$fadd)
    _fcmpge                                  0x080064b5   Thumb Code    78  fgef.o(x$fpl$fgeqf)
    __aeabi_cfcmple                          0x08006509   Thumb Code     0  flef.o(x$fpl$fleqf)
    _fcmple                                  0x08006509   Thumb Code    78  flef.o(x$fpl$fleqf)
    __aeabi_fmul                             0x0800655d   Thumb Code     0  fmul.o(x$fpl$fmul)
    _fmul                                    0x0800655d   Thumb Code   172  fmul.o(x$fpl$fmul)
    __aeabi_fsub                             0x0800660d   Thumb Code     0  faddsub.o(x$fpl$fsub)
    _fsub                                    0x0800660d   Thumb Code   204  faddsub.o(x$fpl$fsub)
    __I$use$fp                               0x080066dc   Number         0  usenofp.o(x$fpl$usenofp)
    hall_to_pos                              0x080067c4   Data           8  bldc.o(.rodata.hall_to_pos)
    lookUpTableAngle                         0x080067cc   Data         724  main.o(.rodata.lookUpTableAngle)
    Region$$Table$$Base                      0x08006d70   Number         0  anon$$obj.o(Region$$Table)
    Region$$Table$$Limit                     0x08006d90   Number         0  anon$$obj.o(Region$$Table)
    SystemCoreClock                          0x20000000   Data           4  system_gd32e23x.o(.data.SystemCoreClock)
    batteryVoltage                           0x20000004   Data           4  bldc.o(.data.batteryVoltage)
    beepsBackwards                           0x20000008   Data           1  main.o(.data.beepsBackwards)
    currentDC                                0x2000000c   Data           4  bldc.o(.data.currentDC)
    iFILTER_SHIFT                            0x20000010   Data           1  bldc.o(.data.iFILTER_SHIFT)
    offsetdc                                 0x20000014   Data           2  bldc.o(.data.offsetdc)
    revs32Scale                              0x20000018   Data           4  bldc.o(.data.revs32Scale)
    revs32ScaleSlow                          0x2000001c   Data           4  bldc.o(.data.revs32ScaleSlow)
    speedLimit                               0x20000020   Data           2  main.o(.data.speedLimit)
    wState                                   0x20000022   Data           1  main.o(.data.wState)
    wStateSlave                              0x20000023   Data           1  main.o(.data.wStateSlave)
    __libspace_start                         0x20000028   Data          96  libspace.o(.bss)
    __temporary_stack_top$libspace           0x20000088   Data           0  libspace.o(.bss)
    aHallEXTI                                0x20000088   Data          12  bldcsine.o(.bss.aHallEXTI)
    adc_buffer                               0x200000a4   Data           4  bldc.o(.bss.adc_buffer)
    angle_deg                                0x200000a8   Data           2  bldcsine.o(.bss.angle_deg)
    angle_deg_add                            0x200000aa   Data           2  bldcsine.o(.bss.angle_deg_add)
    angle_deg_final                          0x200000ac   Data           2  bldcsine.o(.bss.angle_deg_final)
    angle_idx                                0x200000ae   Data           2  bldcsine.o(.bss.angle_idx)
    bInterrupt                               0x200000b0   Data           1  bldcsine.o(.bss.bInterrupt)
    bPilotTimeout                            0x200000b1   Data           1  main.o(.bss.bPilotTimeout)
    bRemoteTimeout                           0x200000b2   Data           1  main.o(.bss.bRemoteTimeout)
    bldc_enable                              0x200000b3   Data           1  bldc.o(.bss.bldc_enable)
    bldc_inputFilterPwm                      0x200000b4   Data           4  bldc.o(.bss.bldc_inputFilterPwm)
    bldc_outputFilterPwm                     0x200000b8   Data           4  bldc.o(.bss.bldc_outputFilterPwm)
    buzzerFreq                               0x200000bc   Data           1  bldc.o(.bss.buzzerFreq)
    buzzerPattern                            0x200000bd   Data           1  bldc.o(.bss.buzzerPattern)
    buzzerTimer                              0x200000be   Data           2  bldc.o(.bss.buzzerTimer)
    buzzerToggle                             0x200000c0   Data           1  bldc.o(.bss.buzzerToggle)
    dma_init_struct_adc                      0x200000c4   Data          28  setup.o(.bss.dma_init_struct_adc)
    dma_init_struct_usart                    0x200000e0   Data          28  setup.o(.bss.dma_init_struct_usart)
    enable                                   0x200000fc   Data           1  main.o(.bss.enable)
    filter_reg                               0x20000100   Data           4  bldc.o(.bss.filter_reg)
    hall                                     0x20000104   Data           1  bldc.o(.bss.hall)
    hall_a                                   0x20000105   Data           1  bldc.o(.bss.hall_a)
    hall_b                                   0x20000106   Data           1  bldc.o(.bss.hall_b)
    hall_c                                   0x20000107   Data           1  bldc.o(.bss.hall_c)
    hall_last                                0x20000108   Data           1  bldcsine.o(.bss.hall_last)
    hall_time_last                           0x2000010a   Data           2  bldcsine.o(.bss.hall_time_last)
    hall_time_step                           0x2000010c   Data           2  bldcsine.o(.bss.hall_time_step)
    hall_time_step_LP                        0x20000110   Data           4  bldcsine.o(.bss.hall_time_step_LP)
    hall_time_step_LPR                       0x20000114   Data           4  bldcsine.o(.bss.hall_time_step_LPR)
    iAdcCounter                              0x20000118   Data           4  it.o(.bss.iAdcCounter)
    iAdcTicks                                0x2000011c   Data           4  it.o(.bss.iAdcTicks)
    iAdcTicks0                               0x20000120   Data           4  it.o(.bss.iAdcTicks0)
    iAdd                                     0x20000124   Data           2  bldcsine.o(.bss.iAdd)
    iBldcInput                               0x20000128   Data           4  bldc.o(.bss.iBldcInput)
    iBug                                     0x2000012c   Data           4  main.o(.bss.iBug)
    iCounter2Usart1                          0x20000130   Data           4  it.o(.bss.iCounter2Usart1)
    iCounterUsart1                           0x20000134   Data           4  it.o(.bss.iCounterUsart1)
    iDT                                      0x20000138   Data           2  bldcsine.o(.bss.iDT)
    iDrivingMode                             0x2000013a   Data           1  main.o(.bss.iDrivingMode)
    iDrivingModeOverride                     0x2000013b   Data           1  bldc.o(.bss.iDrivingModeOverride)
    iOdom                                    0x2000013c   Data           4  bldc.o(.bss.iOdom)
    iOdomLast                                0x20000140   Data           4  bldc.o(.bss.iOdomLast)
    iPwmCounter                              0x20000144   Data           4  it.o(.bss.iPwmCounter)
    iPwmTicks                                0x20000148   Data           4  it.o(.bss.iPwmTicks)
    iPwmTicks0                               0x2000014c   Data           4  it.o(.bss.iPwmTicks0)
    iTimeNextLoop                            0x20000150   Data           4  main.o(.bss.iTimeNextLoop)
    inactivity_timeout_counter               0x20000154   Data           4  main.o(.bss.inactivity_timeout_counter)
    lastPos                                  0x20000158   Data           1  bldc.o(.bss.lastPos)
    msTicks                                  0x2000015c   Data           4  it.o(.bss.msTicks)
    oConfig                                  0x20000160   Data          20  setup.o(.bss.oConfig)
    oDataSlave                               0x20000174   Data          16  main.o(.bss.oDataSlave)
    offsetcount                              0x20000184   Data           2  bldc.o(.bss.offsetcount)
    pid                                      0x20000188   Data          40  driver.o(.bss.pid)
    pos                                      0x200001b0   Data           1  bldc.o(.bss.pos)
    pwmGo                                    0x200001b4   Data           4  bldcsine.o(.bss.pwmGo)
    pwmSlave                                 0x200001b8   Data           2  main.o(.bss.pwmSlave)
    realSpeed                                0x200001bc   Data           4  bldc.o(.bss.realSpeed)
    revs32                                   0x200001c0   Data           4  bldc.o(.bss.revs32)
    revs32_reg                               0x200001c4   Data           4  bldc.o(.bss.revs32_reg)
    revs32x                                  0x200001c8   Data           4  bldc.o(.bss.revs32x)
    sector                                   0x200001cc   Data           1  bldcsine.o(.bss.sector)
    sector10x                                0x200001cd   Data           1  bldcsine.o(.bss.sector10x)
    sectorChange                             0x200001ce   Data           1  bldcsine.o(.bss.sectorChange)
    speed                                    0x200001d0   Data           4  main.o(.bss.speed)
    speedCounter                             0x200001d4   Data           4  bldc.o(.bss.speedCounter)
    speedCounterLog                          0x200001d8   Data           4  bldc.o(.bss.speedCounterLog)
    speedCounterSlow                         0x200001dc   Data           4  bldc.o(.bss.speedCounterSlow)
    speedCounterSlowLog                      0x200001e0   Data           4  bldc.o(.bss.speedCounterSlowLog)
    speedShutoff                             0x200001e4   Data           4  main.o(.bss.speedShutoff)
    steer                                    0x200001e8   Data           4  main.o(.bss.steer)
    steerCounter                             0x200001ec   Data           4  main.o(.bss.steerCounter)
    timedOut                                 0x200001f0   Data           1  it.o(.bss.timedOut)
    timeoutCounter_ms                        0x200001f4   Data           4  it.o(.bss.timeoutCounter_ms)
    timeoutTimer_paramter_struct             0x200001f8   Data          16  setup.o(.bss.timeoutTimer_paramter_struct)
    timerBldc_break_parameter_struct         0x20000208   Data          14  setup.o(.bss.timerBldc_break_parameter_struct)
    timerBldc_oc_parameter_struct            0x20000216   Data          12  setup.o(.bss.timerBldc_oc_parameter_struct)
    timerBldc_paramter_struct                0x20000224   Data          16  setup.o(.bss.timerBldc_paramter_struct)
    torque32                                 0x20000234   Data           4  bldc.o(.bss.torque32)
    torque32_reg                             0x20000238   Data           4  bldc.o(.bss.torque32_reg)
    usart1_rx_buf                            0x2000023c   Data           1  setup.o(.bss.usart1_rx_buf)



==============================================================================

Memory Map of the image

  Image Entry point : 0x080000cd

  Load Region LR_IROM1 (Base: 0x08000000, Size: 0x00006db8, Max: 0x00010000, ABSOLUTE)

    Execution Region ER_IROM1 (Exec base: 0x08000000, Load base: 0x08000000, Size: 0x00006d90, Max: 0x00010000, ABSOLUTE)

    Exec Addr    Load Addr    Size         Type   Attr      Idx    E Section Name        Object

    0x08000000   0x08000000   0x000000cc   Data   RO          344    RESET               startup_gd32e23x.o
    0x080000cc   0x080000cc   0x00000008   Code   RO          374  * !!!main             c_p.l(__main.o)
    0x080000d4   0x080000d4   0x00000054   Code   RO          612    !!!scatter          c_p.l(__scatter.o)
    0x08000128   0x08000128   0x0000001a   Code   RO          616    !!handler_copy      c_p.l(__scatter_copy.o)
    0x08000142   0x08000142   0x00000002   PAD
    0x08000144   0x08000144   0x00000002   Code   RO          613    !!handler_null      c_p.l(__scatter.o)
    0x08000146   0x08000146   0x00000002   PAD
    0x08000148   0x08000148   0x0000001c   Code   RO          618    !!handler_zi        c_p.l(__scatter_zi.o)
    0x08000164   0x08000164   0x00000002   Code   RO          467    .ARM.Collect$$libinit$$00000000  c_p.l(libinit.o)
    0x08000166   0x08000166   0x00000000   Code   RO          479    .ARM.Collect$$libinit$$00000002  c_p.l(libinit2.o)
    0x08000166   0x08000166   0x00000000   Code   RO          481    .ARM.Collect$$libinit$$00000004  c_p.l(libinit2.o)
    0x08000166   0x08000166   0x00000000   Code   RO          483    .ARM.Collect$$libinit$$00000006  c_p.l(libinit2.o)
    0x08000166   0x08000166   0x00000000   Code   RO          486    .ARM.Collect$$libinit$$0000000C  c_p.l(libinit2.o)
    0x08000166   0x08000166   0x00000000   Code   RO          488    .ARM.Collect$$libinit$$0000000E  c_p.l(libinit2.o)
    0x08000166   0x08000166   0x00000000   Code   RO          490    .ARM.Collect$$libinit$$00000010  c_p.l(libinit2.o)
    0x08000166   0x08000166   0x00000000   Code   RO          493    .ARM.Collect$$libinit$$00000013  c_p.l(libinit2.o)
    0x08000166   0x08000166   0x00000000   Code   RO          495    .ARM.Collect$$libinit$$00000015  c_p.l(libinit2.o)
    0x08000166   0x08000166   0x00000000   Code   RO          497    .ARM.Collect$$libinit$$00000017  c_p.l(libinit2.o)
    0x08000166   0x08000166   0x00000000   Code   RO          499    .ARM.Collect$$libinit$$00000019  c_p.l(libinit2.o)
    0x08000166   0x08000166   0x00000000   Code   RO          501    .ARM.Collect$$libinit$$0000001B  c_p.l(libinit2.o)
    0x08000166   0x08000166   0x00000000   Code   RO          503    .ARM.Collect$$libinit$$0000001D  c_p.l(libinit2.o)
    0x08000166   0x08000166   0x00000000   Code   RO          505    .ARM.Collect$$libinit$$0000001F  c_p.l(libinit2.o)
    0x08000166   0x08000166   0x00000000   Code   RO          507    .ARM.Collect$$libinit$$00000021  c_p.l(libinit2.o)
    0x08000166   0x08000166   0x00000000   Code   RO          509    .ARM.Collect$$libinit$$00000023  c_p.l(libinit2.o)
    0x08000166   0x08000166   0x00000000   Code   RO          511    .ARM.Collect$$libinit$$00000025  c_p.l(libinit2.o)
    0x08000166   0x08000166   0x00000000   Code   RO          513    .ARM.Collect$$libinit$$00000027  c_p.l(libinit2.o)
    0x08000166   0x08000166   0x00000000   Code   RO          517    .ARM.Collect$$libinit$$0000002E  c_p.l(libinit2.o)
    0x08000166   0x08000166   0x00000000   Code   RO          519    .ARM.Collect$$libinit$$00000030  c_p.l(libinit2.o)
    0x08000166   0x08000166   0x00000000   Code   RO          521    .ARM.Collect$$libinit$$00000032  c_p.l(libinit2.o)
    0x08000166   0x08000166   0x00000000   Code   RO          523    .ARM.Collect$$libinit$$00000034  c_p.l(libinit2.o)
    0x08000166   0x08000166   0x00000002   Code   RO          524    .ARM.Collect$$libinit$$00000035  c_p.l(libinit2.o)
    0x08000168   0x08000168   0x00000002   Code   RO          548    .ARM.Collect$$libshutdown$$00000000  c_p.l(libshutdown.o)
    0x0800016a   0x0800016a   0x00000000   Code   RO          563    .ARM.Collect$$libshutdown$$00000002  c_p.l(libshutdown2.o)
    0x0800016a   0x0800016a   0x00000000   Code   RO          565    .ARM.Collect$$libshutdown$$00000004  c_p.l(libshutdown2.o)
    0x0800016a   0x0800016a   0x00000000   Code   RO          568    .ARM.Collect$$libshutdown$$00000007  c_p.l(libshutdown2.o)
    0x0800016a   0x0800016a   0x00000000   Code   RO          571    .ARM.Collect$$libshutdown$$0000000A  c_p.l(libshutdown2.o)
    0x0800016a   0x0800016a   0x00000000   Code   RO          573    .ARM.Collect$$libshutdown$$0000000C  c_p.l(libshutdown2.o)
    0x0800016a   0x0800016a   0x00000000   Code   RO          576    .ARM.Collect$$libshutdown$$0000000F  c_p.l(libshutdown2.o)
    0x0800016a   0x0800016a   0x00000002   Code   RO          577    .ARM.Collect$$libshutdown$$00000010  c_p.l(libshutdown2.o)
    0x0800016c   0x0800016c   0x00000000   Code   RO          432    .ARM.Collect$$rtentry$$00000000  c_p.l(__rtentry.o)
    0x0800016c   0x0800016c   0x00000000   Code   RO          441    .ARM.Collect$$rtentry$$00000002  c_p.l(__rtentry2.o)
    0x0800016c   0x0800016c   0x00000006   Code   RO          453    .ARM.Collect$$rtentry$$00000004  c_p.l(__rtentry4.o)
    0x08000172   0x08000172   0x00000000   Code   RO          443    .ARM.Collect$$rtentry$$00000009  c_p.l(__rtentry2.o)
    0x08000172   0x08000172   0x00000004   Code   RO          444    .ARM.Collect$$rtentry$$0000000A  c_p.l(__rtentry2.o)
    0x08000176   0x08000176   0x00000000   Code   RO          446    .ARM.Collect$$rtentry$$0000000C  c_p.l(__rtentry2.o)
    0x08000176   0x08000176   0x00000008   Code   RO          447    .ARM.Collect$$rtentry$$0000000D  c_p.l(__rtentry2.o)
    0x0800017e   0x0800017e   0x00000002   Code   RO          476    .ARM.Collect$$rtexit$$00000000  c_p.l(rtexit.o)
    0x08000180   0x08000180   0x00000000   Code   RO          528    .ARM.Collect$$rtexit$$00000002  c_p.l(rtexit2.o)
    0x08000180   0x08000180   0x00000004   Code   RO          529    .ARM.Collect$$rtexit$$00000003  c_p.l(rtexit2.o)
    0x08000184   0x08000184   0x00000006   Code   RO          530    .ARM.Collect$$rtexit$$00000004  c_p.l(rtexit2.o)
    0x0800018a   0x0800018a   0x00000002   PAD
    0x0800018c   0x0800018c   0x00000710   Code   RO            1    .text               main.o
    0x0800089c   0x0800089c   0x000005a0   Code   RO           32    .text               bldc.o
    0x08000e3c   0x08000e3c   0x00000270   Code   RO           80    .text               driver.o
    0x080010ac   0x080010ac   0x0000034c   Code   RO           91    .text               bldcsine.o
    0x080013f8   0x080013f8   0x000008cc   Code   RO          120    .text               setup.o
    0x08001cc4   0x08001cc4   0x00000180   Code   RO          139    .text               it.o
    0x08001e44   0x08001e44   0x0000007c   Code   RO          163    .text               comms.o
    0x08001ec0   0x08001ec0   0x00000084   Code   RO          173    .text               remotedummy.o
    0x08001f44   0x08001f44   0x00000144   Code   RO          183    .text               commsmasterslave.o
    0x08002088   0x08002088   0x00000580   Code   RO          223    .text               gd32e23x_adc.o
    0x08002608   0x08002608   0x000002dc   Code   RO          231    .text               gd32e23x_dma.o
    0x080028e4   0x080028e4   0x0000012c   Code   RO          239    .text               gd32e23x_exti.o
    0x08002a10   0x08002a10   0x00000898   Code   RO          247    .text               gd32e23x_fmc.o
    0x080032a8   0x080032a8   0x00000140   Code   RO          256    .text               gd32e23x_fwdgt.o
    0x080033e8   0x080033e8   0x0000017c   Code   RO          264    .text               gd32e23x_gpio.o
    0x08003564   0x08003564   0x000000ec   Code   RO          281    .text               gd32e23x_misc.o
    0x08003650   0x08003650   0x000006b0   Code   RO          300    .text               gd32e23x_rcu.o
    0x08003d00   0x08003d00   0x00000114   Code   RO          309    .text               gd32e23x_syscfg.o
    0x08003e14   0x08003e14   0x00000dec   Code   RO          317    .text               gd32e23x_timer.o
    0x08004c00   0x08004c00   0x0000069c   Code   RO          326    .text               gd32e23x_usart.o
    0x0800529c   0x0800529c   0x00000038   Code   RO          345    .text               startup_gd32e23x.o
    0x080052d4   0x080052d4   0x00000168   Code   RO          351    .text               system_gd32e23x.o
    0x0800543c   0x0800543c   0x00000030   Code   RO          362    .text               c_p.l(llmul.o)
    0x0800546c   0x0800546c   0x00000006   Code   RO          372    .text               c_p.l(heapauxi.o)
    0x08005472   0x08005472   0x00000002   PAD
    0x08005474   0x08005474   0x0000007c   Code   RO          376    .text               fz_ps.l(d2f.o)
    0x080054f0   0x080054f0   0x00000358   Code   RO          378    .text               fz_ps.l(daddsub.o)
    0x08005848   0x08005848   0x00000448   Code   RO          380    .text               fz_ps.l(ddiv.o)
    0x08005c90   0x08005c90   0x0000006c   Code   RO          383    .text               fz_ps.l(dfixi.o)
    0x08005cfc   0x08005cfc   0x00000058   Code   RO          385    .text               fz_ps.l(dflti.o)
    0x08005d54   0x08005d54   0x00000248   Code   RO          387    .text               fz_ps.l(dmul.o)
    0x08005f9c   0x08005f9c   0x00000054   Code   RO          389    .text               fz_ps.l(f2d.o)
    0x08005ff0   0x08005ff0   0x00000160   Code   RO          421    .text               fz_ps.l(fdiv.o)
    0x08006150   0x08006150   0x0000004c   Code   RO          424    .text               fz_ps.l(ffixi.o)
    0x0800619c   0x0800619c   0x00000082   Code   RO          426    .text               fz_ps.l(ffixl.o)
    0x0800621e   0x0800621e   0x0000005e   Code   RO          428    .text               fz_ps.l(fflti.o)
    0x0800627c   0x0800627c   0x00000064   Code   RO          455    .text               fz_ps.l(fcmpin.o)
    0x080062e0   0x080062e0   0x0000003e   Code   RO          457    .text               c_p.l(sys_stackheap_outer.o)
    0x0800631e   0x0800631e   0x00000010   Code   RO          460    .text               c_p.l(exit.o)
    0x0800632e   0x0800632e   0x0000002e   Code   RO          468    .text               fz_ps.l(cmpret.o)
    0x0800635c   0x0800635c   0x00000010   Code   RO          470    .text               fz_ps.l(fnan2.o)
    0x0800636c   0x0800636c   0x00000008   Code   RO          472    .text               c_p.l(libspace.o)
    0x08006374   0x08006374   0x0000005e   Code   RO          525    .text               fz_ps.l(retnan.o)
    0x080063d2   0x080063d2   0x00000002   PAD
    0x080063d4   0x080063d4   0x0000000c   Code   RO          538    .text               c_p.l(sys_exit.o)
    0x080063e0   0x080063e0   0x00000002   Code   RO          553    .text               c_p.l(use_no_semi.o)
    0x080063e2   0x080063e2   0x00000000   Code   RO          555    .text               c_p.l(indicate_semi.o)
    0x080063e2   0x080063e2   0x00000016   Code   RO          405    i._fgr              fz_ps.l(fcmp.o)
    0x080063f8   0x080063f8   0x0000001a   Code   RO          406    i._fleq             fz_ps.l(fcmp.o)
    0x08006412   0x08006412   0x00000016   Code   RO          407    i._fls              fz_ps.l(fcmp.o)
    0x08006428   0x08006428   0x0000008c   Code   RO          391    x$fpl$fadd          fz_ps.l(faddsub.o)
    0x080064b4   0x080064b4   0x00000054   Code   RO          435    x$fpl$fgeqf         fz_ps.l(fgef.o)
    0x08006508   0x08006508   0x00000054   Code   RO          437    x$fpl$fleqf         fz_ps.l(flef.o)
    0x0800655c   0x0800655c   0x000000b0   Code   RO          430    x$fpl$fmul          fz_ps.l(fmul.o)
    0x0800660c   0x0800660c   0x000000d0   Code   RO          393    x$fpl$fsub          fz_ps.l(faddsub.o)
    0x080066dc   0x080066dc   0x00000000   Code   RO          439    x$fpl$usenofp       fz_ps.l(usenofp.o)
    0x080066dc   0x080066dc   0x00000080   Data   RO          381    .constdata          fz_ps.l(ddiv.o)
    0x0800675c   0x0800675c   0x00000040   Data   RO          422    .constdata          fz_ps.l(fdiv.o)
    0x0800679c   0x0800679c   0x0000000c   Data   RO           64    .rodata..L__const.up_or_down.up_down  bldc.o
    0x080067a8   0x080067a8   0x0000000c   Data   RO          266    .rodata..Lswitch.table.gpio_deinit.1  gd32e23x_gpio.o
    0x080067b4   0x080067b4   0x00000008   Data   RO          110    .rodata.cst8        bldcsine.o
    0x080067bc   0x080067bc   0x00000008   Data   RO          302    .rodata.cst8        gd32e23x_rcu.o
    0x080067c4   0x080067c4   0x00000008   Data   RO           65    .rodata.hall_to_pos  bldc.o
    0x080067cc   0x080067cc   0x000002d4   Data   RO           19    .rodata.lookUpTableAngle  main.o
    0x08006aa0   0x08006aa0   0x000002d0   Data   RO          113    .rodata.sine_table  bldcsine.o
    0x08006d70   0x08006d70   0x00000020   Data   RO          611    Region$$Table       anon$$obj.o


    Execution Region RW_IRAM1 (Exec base: 0x20000000, Load base: 0x08006d90, Size: 0x00000a40, Max: 0x00002000, ABSOLUTE)

    Exec Addr    Load Addr    Size         Type   Attr      Idx    E Section Name        Object

    0x20000000   0x08006d90   0x00000004   Data   RW          353    .data.SystemCoreClock  system_gd32e23x.o
    0x20000004   0x08006d94   0x00000004   Data   RW           34    .data.batteryVoltage  bldc.o
    0x20000008   0x08006d98   0x00000001   Data   RW           16    .data.beepsBackwards  main.o
    0x20000009   0x08006d99   0x00000003   PAD
    0x2000000c   0x08006d9c   0x00000004   Data   RW           35    .data.currentDC     bldc.o
    0x20000010   0x08006da0   0x00000001   Data   RW           51    .data.iFILTER_SHIFT  bldc.o
    0x20000011   0x08006da1   0x00000001   PAD
    0x20000012   0x08006da2   0x00000002   Data   RW          187    .data.iReceivePos   commsmasterslave.o
    0x20000014   0x08006da4   0x00000002   Data   RW           54    .data.offsetdc      bldc.o
    0x20000016   0x08006da6   0x00000002   PAD
    0x20000018   0x08006da8   0x00000004   Data   RW           43    .data.revs32Scale   bldc.o
    0x2000001c   0x08006dac   0x00000004   Data   RW           44    .data.revs32ScaleSlow  bldc.o
    0x20000020   0x08006db0   0x00000002   Data   RW           11    .data.speedLimit    main.o
    0x20000022   0x08006db2   0x00000001   Data   RW           12    .data.wState        main.o
    0x20000023   0x08006db3   0x00000001   Data   RW           13    .data.wStateSlave   main.o
    0x20000024   0x08006db4   0x00000004   PAD
    0x20000028        -       0x00000060   Zero   RW          473    .bss                c_p.l(libspace.o)
    0x20000088        -       0x0000000c   Zero   RW          101    .bss.aHallEXTI      bldcsine.o
    0x20000094        -       0x00000010   Zero   RW          188    .bss.aReceiveBuffer  commsmasterslave.o
    0x200000a4        -       0x00000004   Zero   RW           67    .bss.adc_buffer     bldc.o
    0x200000a8        -       0x00000002   Zero   RW           96    .bss.angle_deg      bldcsine.o
    0x200000aa        -       0x00000002   Zero   RW           97    .bss.angle_deg_add  bldcsine.o
    0x200000ac        -       0x00000002   Zero   RW           98    .bss.angle_deg_final  bldcsine.o
    0x200000ae        -       0x00000002   Zero   RW           99    .bss.angle_idx      bldcsine.o
    0x200000b0        -       0x00000001   Zero   RW          102    .bss.bInterrupt     bldcsine.o
    0x200000b1        -       0x00000001   Zero   RW            5    .bss.bPilotTimeout  main.o
    0x200000b2        -       0x00000001   Zero   RW            4    .bss.bRemoteTimeout  main.o
    0x200000b3        -       0x00000001   Zero   RW           46    .bss.bldc_enable    bldc.o
    0x200000b4        -       0x00000004   Zero   RW           48    .bss.bldc_inputFilterPwm  bldc.o
    0x200000b8        -       0x00000004   Zero   RW           49    .bss.bldc_outputFilterPwm  bldc.o
    0x200000bc        -       0x00000001   Zero   RW           60    .bss.buzzerFreq     bldc.o
    0x200000bd        -       0x00000001   Zero   RW           61    .bss.buzzerPattern  bldc.o
    0x200000be        -       0x00000002   Zero   RW           52    .bss.buzzerTimer    bldc.o
    0x200000c0        -       0x00000001   Zero   RW           59    .bss.buzzerToggle   bldc.o
    0x200000c1   0x08006db4   0x00000003   PAD
    0x200000c4        -       0x0000001c   Zero   RW          126    .bss.dma_init_struct_adc  setup.o
    0x200000e0        -       0x0000001c   Zero   RW          127    .bss.dma_init_struct_usart  setup.o
    0x200000fc        -       0x00000001   Zero   RW           20    .bss.enable         main.o
    0x200000fd   0x08006db4   0x00000003   PAD
    0x20000100        -       0x00000004   Zero   RW           66    .bss.filter_reg     bldc.o
    0x20000104        -       0x00000001   Zero   RW           47    .bss.hall           bldc.o
    0x20000105        -       0x00000001   Zero   RW           68    .bss.hall_a         bldc.o
    0x20000106        -       0x00000001   Zero   RW           69    .bss.hall_b         bldc.o
    0x20000107        -       0x00000001   Zero   RW           70    .bss.hall_c         bldc.o
    0x20000108        -       0x00000001   Zero   RW          105    .bss.hall_last      bldcsine.o
    0x20000109   0x08006db4   0x00000001   PAD
    0x2000010a        -       0x00000002   Zero   RW          103    .bss.hall_time_last  bldcsine.o
    0x2000010c        -       0x00000002   Zero   RW          104    .bss.hall_time_step  bldcsine.o
    0x2000010e   0x08006db4   0x00000002   PAD
    0x20000110        -       0x00000004   Zero   RW          112    .bss.hall_time_step_LP  bldcsine.o
    0x20000114        -       0x00000004   Zero   RW          111    .bss.hall_time_step_LPR  bldcsine.o
    0x20000118        -       0x00000004   Zero   RW          149    .bss.iAdcCounter    it.o
    0x2000011c        -       0x00000004   Zero   RW          147    .bss.iAdcTicks      it.o
    0x20000120        -       0x00000004   Zero   RW          148    .bss.iAdcTicks0     it.o
    0x20000124        -       0x00000002   Zero   RW          109    .bss.iAdd           bldcsine.o
    0x20000126   0x08006db4   0x00000002   PAD
    0x20000128        -       0x00000004   Zero   RW           45    .bss.iBldcInput     bldc.o
    0x2000012c        -       0x00000004   Zero   RW            6    .bss.iBug           main.o
    0x20000130        -       0x00000004   Zero   RW          153    .bss.iCounter2Usart1  it.o
    0x20000134        -       0x00000004   Zero   RW          152    .bss.iCounterUsart1  it.o
    0x20000138        -       0x00000002   Zero   RW          108    .bss.iDT            bldcsine.o
    0x2000013a        -       0x00000001   Zero   RW            3    .bss.iDrivingMode   main.o
    0x2000013b        -       0x00000001   Zero   RW           50    .bss.iDrivingModeOverride  bldc.o
    0x2000013c        -       0x00000004   Zero   RW           62    .bss.iOdom          bldc.o
    0x20000140        -       0x00000004   Zero   RW           63    .bss.iOdomLast      bldc.o
    0x20000144        -       0x00000004   Zero   RW          146    .bss.iPwmCounter    it.o
    0x20000148        -       0x00000004   Zero   RW          144    .bss.iPwmTicks      it.o
    0x2000014c        -       0x00000004   Zero   RW          145    .bss.iPwmTicks0     it.o
    0x20000150        -       0x00000004   Zero   RW           22    .bss.iTimeNextLoop  main.o
    0x20000154        -       0x00000004   Zero   RW           18    .bss.inactivity_timeout_counter  main.o
    0x20000158        -       0x00000001   Zero   RW           72    .bss.lastPos        bldc.o
    0x20000159   0x08006db4   0x00000003   PAD
    0x2000015c        -       0x00000004   Zero   RW          143    .bss.msTicks        it.o
    0x20000160        -       0x00000014   Zero   RW          129    .bss.oConfig        setup.o
    0x20000174        -       0x00000010   Zero   RW           23    .bss.oDataSlave     main.o
    0x20000184        -       0x00000002   Zero   RW           53    .bss.offsetcount    bldc.o
    0x20000186   0x08006db4   0x00000002   PAD
    0x20000188        -       0x00000028   Zero   RW           82    .bss.pid            driver.o
    0x200001b0        -       0x00000001   Zero   RW           71    .bss.pos            bldc.o
    0x200001b1   0x08006db4   0x00000003   PAD
    0x200001b4        -       0x00000004   Zero   RW          100    .bss.pwmGo          bldcsine.o
    0x200001b8        -       0x00000002   Zero   RW           21    .bss.pwmSlave       main.o
    0x200001ba   0x08006db4   0x00000002   PAD
    0x200001bc        -       0x00000004   Zero   RW           36    .bss.realSpeed      bldc.o
    0x200001c0        -       0x00000004   Zero   RW           37    .bss.revs32         bldc.o
    0x200001c4        -       0x00000004   Zero   RW           39    .bss.revs32_reg     bldc.o
    0x200001c8        -       0x00000004   Zero   RW           42    .bss.revs32x        bldc.o
    0x200001cc        -       0x00000001   Zero   RW           94    .bss.sector         bldcsine.o
    0x200001cd        -       0x00000001   Zero   RW           95    .bss.sector10x      bldcsine.o
    0x200001ce        -       0x00000001   Zero   RW           93    .bss.sectorChange   bldcsine.o
    0x200001cf   0x08006db4   0x00000001   PAD
    0x200001d0        -       0x00000004   Zero   RW            9    .bss.speed          main.o
    0x200001d4        -       0x00000004   Zero   RW           55    .bss.speedCounter   bldc.o
    0x200001d8        -       0x00000004   Zero   RW           57    .bss.speedCounterLog  bldc.o
    0x200001dc        -       0x00000004   Zero   RW           56    .bss.speedCounterSlow  bldc.o
    0x200001e0        -       0x00000004   Zero   RW           58    .bss.speedCounterSlowLog  bldc.o
    0x200001e4        -       0x00000004   Zero   RW           10    .bss.speedShutoff   main.o
    0x200001e8        -       0x00000004   Zero   RW           14    .bss.steer          main.o
    0x200001ec        -       0x00000004   Zero   RW            8    .bss.steerCounter   main.o
    0x200001f0        -       0x00000001   Zero   RW          142    .bss.timedOut       it.o
    0x200001f1   0x08006db4   0x00000003   PAD
    0x200001f4        -       0x00000004   Zero   RW          141    .bss.timeoutCounter_ms  it.o
    0x200001f8        -       0x00000010   Zero   RW          122    .bss.timeoutTimer_paramter_struct  setup.o
    0x20000208        -       0x0000000e   Zero   RW          125    .bss.timerBldc_break_parameter_struct  setup.o
    0x20000216        -       0x0000000c   Zero   RW          124    .bss.timerBldc_oc_parameter_struct  setup.o
    0x20000222   0x08006db4   0x00000002   PAD
    0x20000224        -       0x00000010   Zero   RW          123    .bss.timerBldc_paramter_struct  setup.o
    0x20000234        -       0x00000004   Zero   RW           38    .bss.torque32       bldc.o
    0x20000238        -       0x00000004   Zero   RW           40    .bss.torque32_reg   bldc.o
    0x2000023c        -       0x00000001   Zero   RW          128    .bss.usart1_rx_buf  setup.o
    0x2000023d   0x08006db4   0x00000003   PAD
    0x20000240        -       0x00000400   Zero   RW          343    HEAP                startup_gd32e23x.o
    0x20000640        -       0x00000400   Zero   RW          342    STACK               startup_gd32e23x.o


==============================================================================

Image component sizes


      Code (inc. data)   RO Data    RW Data    ZI Data      Debug   Object Name

      1440        296         20         19         83       4537   bldc.o
       844        136        728          0         45       5785   bldcsine.o
       124          8          0          0          0       2247   comms.o
       324         36          0          2         16       2089   commsmasterslave.o
       624         60          0          0         40       3364   driver.o
      1408        184          0          0          0       8237   gd32e23x_adc.o
       732        104          0          0          0       6045   gd32e23x_dma.o
       300         52          0          0          0       2993   gd32e23x_exti.o
      2200        212          0          0          0      10972   gd32e23x_fmc.o
       320         96          0          0          0       2827   gd32e23x_fwdgt.o
       380          8         12          0          0       4587   gd32e23x_gpio.o
       236         44          0          0          0       3747   gd32e23x_misc.o
      1712        232          8          0          0      12869   gd32e23x_rcu.o
       276         36          0          0          0       2986   gd32e23x_syscfg.o
      3564        120          0          0          0      19001   gd32e23x_timer.o
      1692         40          0          0          0      12739   gd32e23x_usart.o
       384         88          0          0         41       2926   it.o
      1808        240        724          5         50       6986   main.o
       132         32          0          0          0       1004   remotedummy.o
      2252        136          0          0        135      10331   setup.o
        56         26        204          0       2048        728   startup_gd32e23x.o
       360         56          0          4          0       2070   system_gd32e23x.o

    ----------------------------------------------------------------------
     21168       2242       1728         36       2492     129070   Object Totals
         0          0         32          0          0          0   (incl. Generated)
         0          0          0          6         34          0   (incl. Padding)

    ----------------------------------------------------------------------

      Code (inc. data)   RO Data    RW Data    ZI Data      Debug   Library Member Name

         8          0          0          0          0         68   __main.o
         0          0          0          0          0          0   __rtentry.o
        12          0          0          0          0          0   __rtentry2.o
         6          0          0          0          0          0   __rtentry4.o
        86         10          0          0          0          0   __scatter.o
        26          0          0          0          0          0   __scatter_copy.o
        28          0          0          0          0          0   __scatter_zi.o
        16          0          0          0          0         68   exit.o
         6          0          0          0          0        136   heapauxi.o
         0          0          0          0          0          0   indicate_semi.o
         2          0          0          0          0          0   libinit.o
         2          0          0          0          0          0   libinit2.o
         2          0          0          0          0          0   libshutdown.o
         2          0          0          0          0          0   libshutdown2.o
         8          4          0          0         96         68   libspace.o
        48          0          0          0          0         72   llmul.o
         2          0          0          0          0          0   rtexit.o
        10          0          0          0          0          0   rtexit2.o
        12          4          0          0          0         60   sys_exit.o
        62          0          0          0          0         80   sys_stackheap_outer.o
         2          0          0          0          0         68   use_no_semi.o
        46          0          0          0          0         60   cmpret.o
       124          4          0          0          0         72   d2f.o
       856         20          0          0          0        208   daddsub.o
      1096         26        128          0          0        112   ddiv.o
       108         10          0          0          0         72   dfixi.o
        88          0          0          0          0         92   dflti.o
       584         26          0          0          0         84   dmul.o
        84          4          0          0          0         60   f2d.o
       348          8          0          0          0        160   faddsub.o
        70          0          0          0          0        204   fcmp.o
       100          4          0          0          0         68   fcmpin.o
       352         10         64          0          0         92   fdiv.o
        76          0          0          0          0         68   ffixi.o
       130          0          0          0          0         72   ffixl.o
        94          0          0          0          0         92   fflti.o
        84          4          0          0          0         76   fgef.o
        84          4          0          0          0         76   flef.o
       176          4          0          0          0         80   fmul.o
        16          6          0          0          0         68   fnan2.o
        94          0          0          0          0         68   retnan.o
         0          0          0          0          0          0   usenofp.o

    ----------------------------------------------------------------------
      4960        148        192          0         96       2504   Library Totals
        10          0          0          0          0          0   (incl. Padding)

    ----------------------------------------------------------------------

      Code (inc. data)   RO Data    RW Data    ZI Data      Debug   Library Name

       340         18          0          0         96        620   c_p.l
      4610        130        192          0          0       1884   fz_ps.l

    ----------------------------------------------------------------------
      4960        148        192          0         96       2504   Library Totals

    ----------------------------------------------------------------------

==============================================================================


      Code (inc. data)   RO Data    RW Data    ZI Data      Debug   

     26128       2390       1920         36       2588     130054   Grand Totals
     26128       2390       1920         36       2588     130054   ELF Image Totals
     26128       2390       1920         36          0          0   ROM Totals

==============================================================================

    Total RO  Size (Code + RO Data)                28048 (  27.39kB)
    Total RW  Size (RW Data + ZI Data)              2624 (   2.56kB)
    Total ROM Size (Code + RO Data + RW Data)      28084 (  27.43kB)

==============================================================================

