Component: Arm Compiler for Embedded 6.23 Tool: armlink [5f102400]

==============================================================================

Section Cross References

    main.o(.text) refers to setup.o(.text) for ConfigRead
    main.o(.text) refers to gd32f1x0_gpio.o(.text) for gpio_bit_write
    main.o(.text) refers to bldcsine.o(.text) for InitBldc
    main.o(.text) refers to driver.o(.text) for DriverInit
    main.o(.text) refers to gd32f1x0_fwdgt.o(.text) for fwdgt_counter_reload
    main.o(.text) refers to it.o(.text) for Delay
    main.o(.text) refers to remotedummy.o(.text) for RemoteUpdate
    main.o(.text) refers to dflti.o(.text) for __aeabi_i2d
    main.o(.text) refers to ddiv.o(.text) for __aeabi_ddiv
    main.o(.text) refers to dadd.o(.text) for __aeabi_dsub
    main.o(.text) refers to dmul.o(.text) for __aeabi_dmul
    main.o(.text) refers to dfixi.o(.text) for __aeabi_d2iz
    main.o(.text) refers to ffltui.o(.text) for __aeabi_ui2f
    main.o(.text) refers to f2d.o(.text) for __aeabi_f2d
    main.o(.text) refers to d2f.o(.text) for __aeabi_d2f
    main.o(.text) refers to fflti.o(.text) for __aeabi_i2f
    main.o(.text) refers to fmul.o(.text) for __aeabi_fmul
    main.o(.text) refers to ffixi.o(.text) for __aeabi_f2iz
    main.o(.text) refers to fadd.o(.text) for __aeabi_fsub
    main.o(.text) refers to fdiv.o(.text) for __aeabi_fdiv
    main.o(.text) refers to fcmplt.o(.text) for __aeabi_fcmplt
    main.o(.text) refers to bldc.o(.text) for SetBldcInput
    main.o(.text) refers to fcmple.o(.text) for __aeabi_fcmple
    main.o(.text) refers to main.o(.bss..L_MergedGlobals.1) for [Anonymous Symbol]
    main.o(.text) refers to system_gd32f1x0.o(.data.SystemCoreClock) for SystemCoreClock
    main.o(.text) refers to bldc.o(.bss..L_MergedGlobals.1) for buzzerFreq
    main.o(.text) refers to main.o(.data..L_MergedGlobals) for [Anonymous Symbol]
    main.o(.text) refers to main.o(.rodata.lookUpTableAngle) for lookUpTableAngle
    main.o(.text) refers to bldc.o(.data..L_MergedGlobals) for batteryVoltage
    main.o(.ARM.exidx) refers to main.o(.text) for [Anonymous Symbol]
    bldc.o(.text) refers to bldc.o(.rodata..L__const.up_or_down.up_down) for [Anonymous Symbol]
    bldc.o(.text) refers to bldc.o(.bss..L_MergedGlobals.1) for [Anonymous Symbol]
    bldc.o(.text) refers to dflti.o(.text) for __aeabi_i2d
    bldc.o(.text) refers to ddiv.o(.text) for __aeabi_ddiv
    bldc.o(.text) refers to dmul.o(.text) for __aeabi_dmul
    bldc.o(.text) refers to dfixi.o(.text) for __aeabi_d2iz
    bldc.o(.text) refers to main.o(.bss..L_MergedGlobals.1) for iDrivingMode
    bldc.o(.text) refers to system_gd32f1x0.o(.data.SystemCoreClock) for SystemCoreClock
    bldc.o(.text) refers to bldc.o(.data..L_MergedGlobals) for [Anonymous Symbol]
    bldc.o(.text) refers to f2d.o(.text) for __aeabi_f2d
    bldc.o(.text) refers to dfltui.o(.text) for __aeabi_ui2d
    bldc.o(.text) refers to dadd.o(.text) for __aeabi_dadd
    bldc.o(.text) refers to d2f.o(.text) for __aeabi_d2f
    bldc.o(.text) refers to gd32f1x0_gpio.o(.text) for gpio_bit_write
    bldc.o(.text) refers to fcmpgt.o(.text) for __aeabi_fcmpgt
    bldc.o(.text) refers to gd32f1x0_timer.o(.text) for timer_automatic_output_disable
    bldc.o(.text) refers to driver.o(.text) for Driver
    bldc.o(.text) refers to bldcsine.o(.text) for bldc_get_pwm
    bldc.o(.text) refers to it.o(.bss..L_MergedGlobals) for msTicks
    bldc.o(.text) refers to bldc.o(.rodata.hall_to_pos) for hall_to_pos
    bldc.o(.text) refers to driver.o(.data..L_MergedGlobals) for iDriverDoEvery
    bldc.o(.ARM.exidx) refers to bldc.o(.text) for [Anonymous Symbol]
    driver.o(.text) refers to ffixl.o(.text) for __aeabi_f2lz
    driver.o(.text) refers to ffixi.o(.text) for __aeabi_f2iz
    driver.o(.text) refers to fmul.o(.text) for __aeabi_fmul
    driver.o(.text) refers to fdiv.o(.text) for __aeabi_fdiv
    driver.o(.text) refers to driver.o(.bss..L_MergedGlobals.1) for [Anonymous Symbol]
    driver.o(.text) refers to fflti.o(.text) for __aeabi_i2f
    driver.o(.text) refers to main.o(.bss..L_MergedGlobals.1) for iDrivingMode
    driver.o(.text) refers to system_gd32f1x0.o(.data.SystemCoreClock) for SystemCoreClock
    driver.o(.text) refers to driver.o(.data..L_MergedGlobals) for [Anonymous Symbol]
    driver.o(.text) refers to driver.o(.bss.pid) for pid
    driver.o(.text) refers to bldc.o(.bss..L_MergedGlobals.1) for iOdom
    driver.o(.ARM.exidx) refers to driver.o(.text) for [Anonymous Symbol]
    bldcsine.o(.text) refers to gd32f1x0_syscfg.o(.text) for syscfg_exti_line_config
    bldcsine.o(.text) refers to gd32f1x0_exti.o(.text) for exti_init
    bldcsine.o(.text) refers to gd32f1x0_misc.o(.text) for nvic_irq_enable
    bldcsine.o(.text) refers to gd32f1x0_rcu.o(.text) for rcu_periph_clock_enable
    bldcsine.o(.text) refers to bldcsine.o(.bss..L_MergedGlobals) for [Anonymous Symbol]
    bldcsine.o(.text) refers to bldc.o(.bss..L_MergedGlobals.1) for buzzerTimer
    bldcsine.o(.text) refers to gd32f1x0_gpio.o(.text) for gpio_input_bit_get
    bldcsine.o(.text) refers to bldcsine.o(.rodata.cst8) for [Anonymous Symbol]
    bldcsine.o(.text) refers to bldcsine.o(.rodata.sine_table) for [Anonymous Symbol]
    bldcsine.o(.ARM.exidx) refers to bldcsine.o(.text) for [Anonymous Symbol]
    setup.o(.text) refers to gd32f1x0_gpio.o(.text) for gpio_mode_set
    setup.o(.text) refers to gd32f1x0_misc.o(.text) for nvic_priority_group_set
    setup.o(.text) refers to gd32f1x0_rcu.o(.text) for rcu_flag_get
    setup.o(.text) refers to gd32f1x0_fwdgt.o(.text) for fwdgt_config
    setup.o(.text) refers to gd32f1x0_timer.o(.text) for timer_deinit
    setup.o(.text) refers to setup.o(.bss.timeoutTimer_paramter_struct) for timeoutTimer_paramter_struct
    setup.o(.text) refers to system_gd32f1x0.o(.data.SystemCoreClock) for SystemCoreClock
    setup.o(.text) refers to setup.o(.bss..L_MergedGlobals) for [Anonymous Symbol]
    setup.o(.text) refers to gd32f1x0_dma.o(.text) for dma_deinit
    setup.o(.text) refers to gd32f1x0_adc.o(.text) for adc_channel_length_config
    setup.o(.text) refers to setup.o(.bss.dma_init_struct_adc) for dma_init_struct_adc
    setup.o(.text) refers to bldc.o(.bss..L_MergedGlobals.1) for adc_buffer
    setup.o(.text) refers to gd32f1x0_fmc.o(.text) for fmc_unlock
    setup.o(.text) refers to setup.o(.bss.oConfig) for oConfig
    setup.o(.text) refers to system_gd32f1x0.o(.text) for SystemCoreClockUpdate
    setup.o(.text) refers to it.o(.text) for millis
    setup.o(.text) refers to setup.o(.bss.iTestClock) for iTestClock
    setup.o(.ARM.exidx) refers to setup.o(.text) for [Anonymous Symbol]
    it.o(.text) refers to it.o(.bss..L_MergedGlobals) for [Anonymous Symbol]
    it.o(.text) refers to gd32f1x0_timer.o(.text) for timer_interrupt_flag_clear
    it.o(.text) refers to main.o(.bss..L_MergedGlobals.1) for speed
    it.o(.text) refers to gd32f1x0_adc.o(.text) for adc_software_trigger_enable
    it.o(.text) refers to gd32f1x0_dma.o(.text) for dma_interrupt_flag_get
    it.o(.text) refers to bldc.o(.text) for CalculateBLDC
    it.o(.ARM.exidx) refers to it.o(.text) for [Anonymous Symbol]
    comms.o(.text) refers to gd32f1x0_usart.o(.text) for usart_data_transmit
    comms.o(.ARM.exidx) refers to comms.o(.text) for [Anonymous Symbol]
    remotedummy.o(.text) refers to memcmp.o(.text) for memcmp
    remotedummy.o(.text) refers to driver.o(.text) for DriverInit
    remotedummy.o(.text) refers to memcpya.o(.text) for __aeabi_memcpy4
    remotedummy.o(.text) refers to dfltui.o(.text) for __aeabi_ui2d
    remotedummy.o(.text) refers to ddiv.o(.text) for __aeabi_ddiv
    remotedummy.o(.text) refers to dmul.o(.text) for __aeabi_dmul
    remotedummy.o(.text) refers to d2f.o(.text) for __aeabi_d2f
    remotedummy.o(.text) refers to fflti.o(.text) for __aeabi_i2f
    remotedummy.o(.text) refers to fmul.o(.text) for __aeabi_fmul
    remotedummy.o(.text) refers to fdiv.o(.text) for __aeabi_fdiv
    remotedummy.o(.text) refers to fcmpgt.o(.text) for __aeabi_fcmpgt
    remotedummy.o(.text) refers to fcmplt.o(.text) for __aeabi_fcmplt
    remotedummy.o(.text) refers to ffixi.o(.text) for __aeabi_f2iz
    remotedummy.o(.text) refers to it.o(.text) for ResetTimeout
    remotedummy.o(.text) refers to main.o(.bss..L_MergedGlobals.1) for iDrivingMode
    remotedummy.o(.text) refers to remotedummy.o(.bss..L_MergedGlobals.1) for [Anonymous Symbol]
    remotedummy.o(.text) refers to driver.o(.data..L_MergedGlobals) for aoPIDInit
    remotedummy.o(.text) refers to remotedummy.o(.data..L_MergedGlobals) for [Anonymous Symbol]
    remotedummy.o(.text) refers to it.o(.bss..L_MergedGlobals) for msTicks
    remotedummy.o(.ARM.exidx) refers to remotedummy.o(.text) for [Anonymous Symbol]
    segger_rtt.o(.text) refers to segger_rtt.o(.bss._SEGGER_RTT) for _SEGGER_RTT
    segger_rtt.o(.text) refers to memseta.o(.text) for __aeabi_memclr4
    segger_rtt.o(.text) refers to segger_rtt.o(.rodata.str1.1) for [Anonymous Symbol]
    segger_rtt.o(.text) refers to segger_rtt.o(.bss._acUpBuffer) for [Anonymous Symbol]
    segger_rtt.o(.text) refers to segger_rtt.o(.bss._acDownBuffer) for [Anonymous Symbol]
    segger_rtt.o(.text) refers to memcpya.o(.text) for __aeabi_memcpy
    segger_rtt.o(.text) refers to strlen.o(.text) for strlen
    segger_rtt.o(.text) refers to segger_rtt.o(.rodata.cst16) for [Anonymous Symbol]
    segger_rtt.o(.text) refers to segger_rtt.o(.bss._ActiveTerminal) for [Anonymous Symbol]
    segger_rtt.o(.ARM.exidx) refers to segger_rtt.o(.text) for [Anonymous Symbol]
    gd32f1x0_adc.o(.text) refers to gd32f1x0_rcu.o(.text) for rcu_periph_reset_enable
    gd32f1x0_adc.o(.ARM.exidx) refers to gd32f1x0_adc.o(.text) for [Anonymous Symbol]
    gd32f1x0_dbg.o(.ARM.exidx) refers to gd32f1x0_dbg.o(.text) for [Anonymous Symbol]
    gd32f1x0_dma.o(.ARM.exidx) refers to gd32f1x0_dma.o(.text) for [Anonymous Symbol]
    gd32f1x0_exti.o(.ARM.exidx) refers to gd32f1x0_exti.o(.text) for [Anonymous Symbol]
    gd32f1x0_fmc.o(.ARM.exidx) refers to gd32f1x0_fmc.o(.text) for [Anonymous Symbol]
    gd32f1x0_fwdgt.o(.ARM.exidx) refers to gd32f1x0_fwdgt.o(.text) for [Anonymous Symbol]
    gd32f1x0_gpio.o(.text) refers to gd32f1x0_rcu.o(.text) for rcu_periph_reset_enable
    gd32f1x0_gpio.o(.ARM.exidx) refers to gd32f1x0_gpio.o(.text) for [Anonymous Symbol]
    gd32f1x0_i2c.o(.text) refers to gd32f1x0_rcu.o(.text) for rcu_periph_reset_enable
    gd32f1x0_i2c.o(.ARM.exidx) refers to gd32f1x0_i2c.o(.text) for [Anonymous Symbol]
    gd32f1x0_misc.o(.ARM.exidx) refers to gd32f1x0_misc.o(.text) for [Anonymous Symbol]
    gd32f1x0_pmu.o(.text) refers to gd32f1x0_rcu.o(.text) for rcu_periph_reset_enable
    gd32f1x0_pmu.o(.text) refers to gd32f1x0_pmu.o(.bss..L_MergedGlobals) for [Anonymous Symbol]
    gd32f1x0_pmu.o(.ARM.exidx) refers to gd32f1x0_pmu.o(.text) for [Anonymous Symbol]
    gd32f1x0_rcu.o(.text) refers to gd32f1x0_rcu.o(.rodata.cst8) for [Anonymous Symbol]
    gd32f1x0_rcu.o(.ARM.exidx) refers to gd32f1x0_rcu.o(.text) for [Anonymous Symbol]
    gd32f1x0_syscfg.o(.text) refers to gd32f1x0_rcu.o(.text) for rcu_periph_reset_enable
    gd32f1x0_syscfg.o(.ARM.exidx) refers to gd32f1x0_syscfg.o(.text) for [Anonymous Symbol]
    gd32f1x0_timer.o(.text) refers to gd32f1x0_rcu.o(.text) for rcu_periph_reset_enable
    gd32f1x0_timer.o(.text) refers to memseta.o(.text) for __aeabi_memclr4
    gd32f1x0_timer.o(.ARM.exidx) refers to gd32f1x0_timer.o(.text) for [Anonymous Symbol]
    gd32f1x0_usart.o(.text) refers to gd32f1x0_rcu.o(.text) for rcu_periph_reset_enable
    gd32f1x0_usart.o(.ARM.exidx) refers to gd32f1x0_usart.o(.text) for [Anonymous Symbol]
    gd32f1x0_wwdgt.o(.text) refers to gd32f1x0_rcu.o(.text) for rcu_periph_reset_enable
    gd32f1x0_wwdgt.o(.ARM.exidx) refers to gd32f1x0_wwdgt.o(.text) for [Anonymous Symbol]
    startup_gd32f1x0.o(RESET) refers to startup_gd32f1x0.o(STACK) for __initial_sp
    startup_gd32f1x0.o(RESET) refers to startup_gd32f1x0.o(.text) for Reset_Handler
    startup_gd32f1x0.o(RESET) refers to it.o(.text) for NMI_Handler
    startup_gd32f1x0.o(RESET) refers to bldcsine.o(.text) for EXTI0_1_IRQHandler
    startup_gd32f1x0.o(.text) refers to system_gd32f1x0.o(.text) for SystemInit
    startup_gd32f1x0.o(.text) refers to entry.o(.ARM.Collect$$$$00000000) for __main
    system_gd32f1x0.o(.text) refers to system_gd32f1x0.o(.data.SystemCoreClock) for SystemCoreClock
    system_gd32f1x0.o(.ARM.exidx) refers to system_gd32f1x0.o(.text) for [Anonymous Symbol]
    entry.o(.ARM.Collect$$$$00000000) refers (Special) to entry10a.o(.ARM.Collect$$$$0000000D) for __rt_final_cpp
    entry.o(.ARM.Collect$$$$00000000) refers (Special) to entry11a.o(.ARM.Collect$$$$0000000F) for __rt_final_exit
    entry.o(.ARM.Collect$$$$00000000) refers (Special) to entry7b.o(.ARM.Collect$$$$00000008) for _main_clock
    entry.o(.ARM.Collect$$$$00000000) refers (Special) to entry8b.o(.ARM.Collect$$$$0000000A) for _main_cpp_init
    entry.o(.ARM.Collect$$$$00000000) refers (Special) to entry9a.o(.ARM.Collect$$$$0000000B) for _main_init
    entry.o(.ARM.Collect$$$$00000000) refers (Special) to entry5.o(.ARM.Collect$$$$00000004) for _main_scatterload
    entry.o(.ARM.Collect$$$$00000000) refers (Special) to entry2.o(.ARM.Collect$$$$00000001) for _main_stk
    fadd.o(.text) refers (Special) to iusefp.o(.text) for __I$use$fp
    fadd.o(.text) refers to fepilogue.o(.text) for _float_epilogue
    fmul.o(.text) refers (Special) to iusefp.o(.text) for __I$use$fp
    fdiv.o(.text) refers (Special) to iusefp.o(.text) for __I$use$fp
    fdiv.o(.text) refers to fepilogue.o(.text) for _float_round
    dadd.o(.text) refers (Special) to iusefp.o(.text) for __I$use$fp
    dadd.o(.text) refers to llshl.o(.text) for __aeabi_llsl
    dadd.o(.text) refers to llsshr.o(.text) for __aeabi_lasr
    dadd.o(.text) refers to depilogue.o(.text) for _double_epilogue
    dmul.o(.text) refers (Special) to iusefp.o(.text) for __I$use$fp
    dmul.o(.text) refers to depilogue.o(.text) for _double_epilogue
    ddiv.o(.text) refers (Special) to iusefp.o(.text) for __I$use$fp
    ddiv.o(.text) refers to depilogue.o(.text) for _double_round
    fcmple.o(.text) refers (Special) to iusefp.o(.text) for __I$use$fp
    fcmplt.o(.text) refers (Special) to iusefp.o(.text) for __I$use$fp
    fcmpgt.o(.text) refers (Special) to iusefp.o(.text) for __I$use$fp
    fflti.o(.text) refers (Special) to iusefp.o(.text) for __I$use$fp
    fflti.o(.text) refers to fepilogue.o(.text) for _float_epilogue
    ffltui.o(.text) refers (Special) to iusefp.o(.text) for __I$use$fp
    ffltui.o(.text) refers to fepilogue.o(.text) for _float_epilogue
    dflti.o(.text) refers (Special) to iusefp.o(.text) for __I$use$fp
    dflti.o(.text) refers to depilogue.o(.text) for _double_epilogue
    dfltui.o(.text) refers (Special) to iusefp.o(.text) for __I$use$fp
    dfltui.o(.text) refers to depilogue.o(.text) for _double_epilogue
    ffixi.o(.text) refers (Special) to iusefp.o(.text) for __I$use$fp
    ffixl.o(.text) refers (Special) to iusefp.o(.text) for __I$use$fp
    ffixl.o(.text) refers to llshl.o(.text) for __aeabi_llsl
    dfixi.o(.text) refers (Special) to iusefp.o(.text) for __I$use$fp
    dfixi.o(.text) refers to llushr.o(.text) for __aeabi_llsr
    f2d.o(.text) refers (Special) to iusefp.o(.text) for __I$use$fp
    d2f.o(.text) refers (Special) to iusefp.o(.text) for __I$use$fp
    d2f.o(.text) refers to fepilogue.o(.text) for _float_round
    entry2.o(.ARM.Collect$$$$00000001) refers to entry2.o(.ARM.Collect$$$$00002712) for __lit__00000000
    entry2.o(.ARM.Collect$$$$00002712) refers to startup_gd32f1x0.o(STACK) for __initial_sp
    entry2.o(__vectab_stack_and_reset_area) refers to startup_gd32f1x0.o(STACK) for __initial_sp
    entry2.o(__vectab_stack_and_reset_area) refers to entry.o(.ARM.Collect$$$$00000000) for __main
    entry5.o(.ARM.Collect$$$$00000004) refers to init.o(.text) for __scatterload
    entry9a.o(.ARM.Collect$$$$0000000B) refers to main.o(.text) for main
    entry9b.o(.ARM.Collect$$$$0000000C) refers to main.o(.text) for main
    fepilogue.o(.text) refers (Special) to iusefp.o(.text) for __I$use$fp
    depilogue.o(.text) refers (Special) to iusefp.o(.text) for __I$use$fp
    depilogue.o(.text) refers to llshl.o(.text) for __aeabi_llsl
    depilogue.o(.text) refers to llushr.o(.text) for __aeabi_llsr
    init.o(.text) refers to entry5.o(.ARM.Collect$$$$00000004) for __main_after_scatterload


==============================================================================

Removing Unused input sections from the image.

    Removing main.o(.ARM.exidx), (32 bytes).
    Removing main.o(.data.iBug8), (1 bytes).
    Removing main.o(.data.wStateSlave), (1 bytes).
    Removing main.o(.bss.activateWeakening), (1 bytes).
    Removing main.o(.data.beepsBackwards), (1 bytes).
    Removing main.o(.bss.slaveError), (1 bytes).
    Removing main.o(.ARM.use_no_argv), (4 bytes).
    Removing bldc.o(.ARM.exidx), (56 bytes).
    Removing bldc.o(.bss.revs32x), (4 bytes).
    Removing bldc.o(.data.revs32Scale), (4 bytes).
    Removing bldc.o(.bss.speedCounterLog), (4 bytes).
    Removing bldc.o(.data.iDriverDo), (2 bytes).
    Removing driver.o(.ARM.exidx), (40 bytes).
    Removing driver.o(.data.iPID_DoI), (2 bytes).
    Removing driver.o(.bss.bErr), (2 bytes).
    Removing bldcbc.o(.text), (0 bytes).
    Removing bldcsine.o(.ARM.exidx), (56 bytes).
    Removing bldcsine.o(.bss.fGradient), (4 bytes).
    Removing bldcsine.o(.bss.fGradientX), (4 bytes).
    Removing setup.o(.ARM.exidx), (208 bytes).
    Removing setup.o(.bss.dma_init_struct_usart), (36 bytes).
    Removing setup.o(.bss.usart0_rx_buf), (1 bytes).
    Removing setup.o(.bss.usart1_rx_buf), (1 bytes).
    Removing setup.o(.bss.usart2_rx_buf), (1 bytes).
    Removing it.o(.ARM.exidx), (128 bytes).
    Removing it.o(.bss.iPwmTicks), (4 bytes).
    Removing it.o(.bss.iPwmTicks0), (4 bytes).
    Removing it.o(.bss.iAdcTicks), (4 bytes).
    Removing it.o(.bss.iAdcTicks0), (4 bytes).
    Removing it.o(.bss.iCounterUsart0), (4 bytes).
    Removing it.o(.bss.iCounter2Usart0), (4 bytes).
    Removing it.o(.bss.iCounterUsart1), (4 bytes).
    Removing it.o(.bss.iCounter2Usart1), (4 bytes).
    Removing it.o(.bss.iCounterUsart2), (4 bytes).
    Removing it.o(.bss.iCounter2Usart2), (4 bytes).
    Removing led.o(.text), (0 bytes).
    Removing comms.o(.text), (92 bytes).
    Removing comms.o(.ARM.exidx), (16 bytes).
    Removing remoteuart.o(.text), (0 bytes).
    Removing remotecrsf.o(.text), (0 bytes).
    Removing remotedummy.o(.ARM.exidx), (24 bytes).
    Removing remoteuartbus.o(.text), (0 bytes).
    Removing remoteoptimizepid.o(.text), (0 bytes).
    Removing commsmasterslave.o(.text), (0 bytes).
    Removing commsmasterslave.o(.bss.mosfetOutMaster), (1 bytes).
    Removing commsmasterslave.o(.bss.beepsBackwardsMaster), (1 bytes).
    Removing remoteadc.o(.text), (0 bytes).
    Removing remoteautodetect.o(.text), (0 bytes).
    Removing remoteautodetect.o(.bss.i), (2 bytes).
    Removing remoteros2.o(.text), (0 bytes).
    Removing i2c.o(.text), (0 bytes).
    Removing mpu6050.o(.text), (0 bytes).
    Removing imumpu6050.o(.text), (0 bytes).
    Removing bmi160.o(.text), (0 bytes).
    Removing pilothoverbike.o(.text), (0 bytes).
    Removing pilotuser.o(.text), (0 bytes).
    Removing segger_rtt.o(.text), (2390 bytes).
    Removing segger_rtt.o(.ARM.exidx), (352 bytes).
    Removing segger_rtt.o(.bss._SEGGER_RTT), (168 bytes).
    Removing segger_rtt.o(.rodata.cst16), (16 bytes).
    Removing segger_rtt.o(.bss._ActiveTerminal), (1 bytes).
    Removing segger_rtt.o(.rodata.str1.1), (9 bytes).
    Removing segger_rtt.o(.bss._acUpBuffer), (1024 bytes).
    Removing segger_rtt.o(.bss._acDownBuffer), (16 bytes).
    Removing gd32f1x0_adc.o(.ARM.exidx), (272 bytes).
    Removing gd32f1x0_dbg.o(.text), (116 bytes).
    Removing gd32f1x0_dbg.o(.ARM.exidx), (48 bytes).
    Removing gd32f1x0_dma.o(.ARM.exidx), (240 bytes).
    Removing gd32f1x0_exti.o(.ARM.exidx), (112 bytes).
    Removing gd32f1x0_fmc.o(.ARM.exidx), (296 bytes).
    Removing gd32f1x0_fwdgt.o(.ARM.exidx), (48 bytes).
    Removing gd32f1x0_gpio.o(.ARM.exidx), (104 bytes).
    Removing gd32f1x0_i2c.o(.text), (684 bytes).
    Removing gd32f1x0_i2c.o(.ARM.exidx), (264 bytes).
    Removing gd32f1x0_misc.o(.ARM.exidx), (56 bytes).
    Removing gd32f1x0_opa.o(.text), (0 bytes).
    Removing gd32f1x0_pmu.o(.text), (412 bytes).
    Removing gd32f1x0_pmu.o(.ARM.exidx), (96 bytes).
    Removing gd32f1x0_pmu.o(.bss..L_MergedGlobals), (16 bytes).
    Removing gd32f1x0_rcu.o(.ARM.exidx), (392 bytes).
    Removing gd32f1x0_syscfg.o(.ARM.exidx), (80 bytes).
    Removing gd32f1x0_timer.o(.ARM.exidx), (592 bytes).
    Removing gd32f1x0_usart.o(.text), (1346 bytes).
    Removing gd32f1x0_usart.o(.ARM.exidx), (592 bytes).
    Removing gd32f1x0_wwdgt.o(.text), (140 bytes).
    Removing gd32f1x0_wwdgt.o(.ARM.exidx), (56 bytes).
    Removing startup_gd32f1x0.o(HEAP), (1024 bytes).
    Removing system_gd32f1x0.o(.ARM.exidx), (16 bytes).

88 unused section(s) (total 11748 bytes) removed from the image.

==============================================================================

Image Symbol Table

    Local Symbols

    Symbol Name                              Value     Ov Type        Size  Object(Section)

    ../clib/microlib/init/entry.s            0x00000000   Number         0  entry.o ABSOLUTE
    ../clib/microlib/init/entry.s            0x00000000   Number         0  entry2.o ABSOLUTE
    ../clib/microlib/init/entry.s            0x00000000   Number         0  entry5.o ABSOLUTE
    ../clib/microlib/init/entry.s            0x00000000   Number         0  entry7a.o ABSOLUTE
    ../clib/microlib/init/entry.s            0x00000000   Number         0  entry7b.o ABSOLUTE
    ../clib/microlib/init/entry.s            0x00000000   Number         0  entry8a.o ABSOLUTE
    ../clib/microlib/init/entry.s            0x00000000   Number         0  entry8b.o ABSOLUTE
    ../clib/microlib/init/entry.s            0x00000000   Number         0  entry9a.o ABSOLUTE
    ../clib/microlib/init/entry.s            0x00000000   Number         0  entry9b.o ABSOLUTE
    ../clib/microlib/init/entry.s            0x00000000   Number         0  entry10a.o ABSOLUTE
    ../clib/microlib/init/entry.s            0x00000000   Number         0  entry10b.o ABSOLUTE
    ../clib/microlib/init/entry.s            0x00000000   Number         0  entry11a.o ABSOLUTE
    ../clib/microlib/init/entry.s            0x00000000   Number         0  entry11b.o ABSOLUTE
    ../clib/microlib/longlong.c              0x00000000   Number         0  llshl.o ABSOLUTE
    ../clib/microlib/longlong.c              0x00000000   Number         0  llushr.o ABSOLUTE
    ../clib/microlib/longlong.c              0x00000000   Number         0  llsshr.o ABSOLUTE
    ../clib/microlib/string/memcmp.c         0x00000000   Number         0  memcmp.o ABSOLUTE
    ../clib/microlib/string/memcpy.c         0x00000000   Number         0  memcpya.o ABSOLUTE
    ../clib/microlib/string/memcpy.c         0x00000000   Number         0  memcpyb.o ABSOLUTE
    ../clib/microlib/string/memset.c         0x00000000   Number         0  memseta.o ABSOLUTE
    ../clib/microlib/string/strlen.c         0x00000000   Number         0  strlen.o ABSOLUTE
    ../clib/microlib/stubs.s                 0x00000000   Number         0  iusefp.o ABSOLUTE
    ../fplib/microlib/d2f.c                  0x00000000   Number         0  d2f.o ABSOLUTE
    ../fplib/microlib/f2d.c                  0x00000000   Number         0  f2d.o ABSOLUTE
    ../fplib/microlib/fpadd.c                0x00000000   Number         0  fadd.o ABSOLUTE
    ../fplib/microlib/fpadd.c                0x00000000   Number         0  dadd.o ABSOLUTE
    ../fplib/microlib/fpcmp.c                0x00000000   Number         0  fcmple.o ABSOLUTE
    ../fplib/microlib/fpcmp.c                0x00000000   Number         0  fcmplt.o ABSOLUTE
    ../fplib/microlib/fpcmp.c                0x00000000   Number         0  fcmpgt.o ABSOLUTE
    ../fplib/microlib/fpdiv.c                0x00000000   Number         0  fdiv.o ABSOLUTE
    ../fplib/microlib/fpdiv.c                0x00000000   Number         0  ddiv.o ABSOLUTE
    ../fplib/microlib/fpepilogue.c           0x00000000   Number         0  fepilogue.o ABSOLUTE
    ../fplib/microlib/fpepilogue.c           0x00000000   Number         0  depilogue.o ABSOLUTE
    ../fplib/microlib/fpfix.c                0x00000000   Number         0  ffixi.o ABSOLUTE
    ../fplib/microlib/fpfix.c                0x00000000   Number         0  ffixl.o ABSOLUTE
    ../fplib/microlib/fpfix.c                0x00000000   Number         0  dfixi.o ABSOLUTE
    ../fplib/microlib/fpflt.c                0x00000000   Number         0  fflti.o ABSOLUTE
    ../fplib/microlib/fpflt.c                0x00000000   Number         0  ffltui.o ABSOLUTE
    ../fplib/microlib/fpflt.c                0x00000000   Number         0  dflti.o ABSOLUTE
    ../fplib/microlib/fpflt.c                0x00000000   Number         0  dfltui.o ABSOLUTE
    ../fplib/microlib/fpmul.c                0x00000000   Number         0  fmul.o ABSOLUTE
    ../fplib/microlib/fpmul.c                0x00000000   Number         0  dmul.o ABSOLUTE
    PilotHoverbike.c                         0x00000000   Number         0  pilothoverbike.o ABSOLUTE
    PilotUser.c                              0x00000000   Number         0  pilotuser.o ABSOLUTE
    RTE/Device/GD32F130C8/startup_gd32f1x0.s 0x00000000   Number         0  startup_gd32f1x0.o ABSOLUTE
    RemoteAdc.c                              0x00000000   Number         0  remoteadc.o ABSOLUTE
    RemoteAutodetect.c                       0x00000000   Number         0  remoteautodetect.o ABSOLUTE
    RemoteROS2.c                             0x00000000   Number         0  remoteros2.o ABSOLUTE
    SEGGER_RTT.c                             0x00000000   Number         0  segger_rtt.o ABSOLUTE
    bldc.c                                   0x00000000   Number         0  bldc.o ABSOLUTE
    bldcBC.c                                 0x00000000   Number         0  bldcbc.o ABSOLUTE
    bldcSINE.c                               0x00000000   Number         0  bldcsine.o ABSOLUTE
    bmi160.c                                 0x00000000   Number         0  bmi160.o ABSOLUTE
    comms.c                                  0x00000000   Number         0  comms.o ABSOLUTE
    commsMasterSlave.c                       0x00000000   Number         0  commsmasterslave.o ABSOLUTE
    dc.s                                     0x00000000   Number         0  dc.o ABSOLUTE
    driver.c                                 0x00000000   Number         0  driver.o ABSOLUTE
    gd32f1x0_adc.c                           0x00000000   Number         0  gd32f1x0_adc.o ABSOLUTE
    gd32f1x0_dbg.c                           0x00000000   Number         0  gd32f1x0_dbg.o ABSOLUTE
    gd32f1x0_dma.c                           0x00000000   Number         0  gd32f1x0_dma.o ABSOLUTE
    gd32f1x0_exti.c                          0x00000000   Number         0  gd32f1x0_exti.o ABSOLUTE
    gd32f1x0_fmc.c                           0x00000000   Number         0  gd32f1x0_fmc.o ABSOLUTE
    gd32f1x0_fwdgt.c                         0x00000000   Number         0  gd32f1x0_fwdgt.o ABSOLUTE
    gd32f1x0_gpio.c                          0x00000000   Number         0  gd32f1x0_gpio.o ABSOLUTE
    gd32f1x0_i2c.c                           0x00000000   Number         0  gd32f1x0_i2c.o ABSOLUTE
    gd32f1x0_misc.c                          0x00000000   Number         0  gd32f1x0_misc.o ABSOLUTE
    gd32f1x0_opa.c                           0x00000000   Number         0  gd32f1x0_opa.o ABSOLUTE
    gd32f1x0_pmu.c                           0x00000000   Number         0  gd32f1x0_pmu.o ABSOLUTE
    gd32f1x0_rcu.c                           0x00000000   Number         0  gd32f1x0_rcu.o ABSOLUTE
    gd32f1x0_syscfg.c                        0x00000000   Number         0  gd32f1x0_syscfg.o ABSOLUTE
    gd32f1x0_timer.c                         0x00000000   Number         0  gd32f1x0_timer.o ABSOLUTE
    gd32f1x0_usart.c                         0x00000000   Number         0  gd32f1x0_usart.o ABSOLUTE
    gd32f1x0_wwdgt.c                         0x00000000   Number         0  gd32f1x0_wwdgt.o ABSOLUTE
    handlers.s                               0x00000000   Number         0  handlers.o ABSOLUTE
    i2c.c                                    0x00000000   Number         0  i2c.o ABSOLUTE
    imuMPU6050.c                             0x00000000   Number         0  imumpu6050.o ABSOLUTE
    init.s                                   0x00000000   Number         0  init.o ABSOLUTE
    it.c                                     0x00000000   Number         0  it.o ABSOLUTE
    led.c                                    0x00000000   Number         0  led.o ABSOLUTE
    main.c                                   0x00000000   Number         0  main.o ABSOLUTE
    mpu6050.c                                0x00000000   Number         0  mpu6050.o ABSOLUTE
    remoteCrsf.c                             0x00000000   Number         0  remotecrsf.o ABSOLUTE
    remoteDummy.c                            0x00000000   Number         0  remotedummy.o ABSOLUTE
    remoteOptimizePID.c                      0x00000000   Number         0  remoteoptimizepid.o ABSOLUTE
    remoteUart.c                             0x00000000   Number         0  remoteuart.o ABSOLUTE
    remoteUartBus.c                          0x00000000   Number         0  remoteuartbus.o ABSOLUTE
    setup.c                                  0x00000000   Number         0  setup.o ABSOLUTE
    system_gd32f1x0.c                        0x00000000   Number         0  system_gd32f1x0.o ABSOLUTE
    RESET                                    0x08000000   Section      360  startup_gd32f1x0.o(RESET)
    .ARM.Collect$$$$00000000                 0x08000168   Section        0  entry.o(.ARM.Collect$$$$00000000)
    .ARM.Collect$$$$00000001                 0x08000168   Section        4  entry2.o(.ARM.Collect$$$$00000001)
    .ARM.Collect$$$$00000004                 0x0800016c   Section        4  entry5.o(.ARM.Collect$$$$00000004)
    .ARM.Collect$$$$00000008                 0x08000170   Section        0  entry7b.o(.ARM.Collect$$$$00000008)
    .ARM.Collect$$$$0000000A                 0x08000170   Section        0  entry8b.o(.ARM.Collect$$$$0000000A)
    .ARM.Collect$$$$0000000B                 0x08000170   Section        8  entry9a.o(.ARM.Collect$$$$0000000B)
    __lit__00000000                          0x08000178   Data           4  entry2.o(.ARM.Collect$$$$00002712)
    .ARM.Collect$$$$0000000D                 0x08000178   Section        0  entry10a.o(.ARM.Collect$$$$0000000D)
    .ARM.Collect$$$$0000000F                 0x08000178   Section        0  entry11a.o(.ARM.Collect$$$$0000000F)
    .ARM.Collect$$$$00002712                 0x08000178   Section        4  entry2.o(.ARM.Collect$$$$00002712)
    [Anonymous Symbol]                       0x0800017c   Section        0  main.o(.text)
    __arm_cp.0_0                             0x08000524   Number         4  main.o(.text)
    __arm_cp.0_1                             0x08000528   Number         4  main.o(.text)
    __arm_cp.0_2                             0x0800052c   Number         4  main.o(.text)
    __arm_cp.0_3                             0x08000530   Number         4  main.o(.text)
    __arm_cp.0_4                             0x08000534   Number         4  main.o(.text)
    __arm_cp.0_5                             0x08000538   Number         4  main.o(.text)
    __arm_cp.0_6                             0x0800053c   Number         4  main.o(.text)
    __arm_cp.0_7                             0x08000540   Number         4  main.o(.text)
    __arm_cp.0_8                             0x08000544   Number         4  main.o(.text)
    __arm_cp.0_9                             0x08000548   Number         4  main.o(.text)
    __arm_cp.0_10                            0x0800054c   Number         4  main.o(.text)
    __arm_cp.0_11                            0x08000550   Number         4  main.o(.text)
    __arm_cp.0_12                            0x08000554   Number         4  main.o(.text)
    __arm_cp.0_13                            0x08000558   Number         4  main.o(.text)
    __arm_cp.0_14                            0x0800055c   Number         4  main.o(.text)
    __arm_cp.0_15                            0x08000560   Number         4  main.o(.text)
    __arm_cp.0_16                            0x08000564   Number         4  main.o(.text)
    __arm_cp.0_17                            0x08000568   Number         4  main.o(.text)
    __arm_cp.0_18                            0x0800056c   Number         4  main.o(.text)
    __arm_cp.0_19                            0x08000570   Number         4  main.o(.text)
    __arm_cp.0_20                            0x08000574   Number         4  main.o(.text)
    __arm_cp.0_21                            0x08000578   Number         4  main.o(.text)
    __arm_cp.0_22                            0x0800057c   Number         4  main.o(.text)
    __arm_cp.1_0                             0x080005ec   Number         4  main.o(.text)
    __arm_cp.1_1                             0x080005f0   Number         4  main.o(.text)
    __arm_cp.1_2                             0x080005f4   Number         4  main.o(.text)
    __arm_cp.2_0                             0x0800066c   Number         4  main.o(.text)
    __arm_cp.2_1                             0x08000670   Number         4  main.o(.text)
    __arm_cp.2_2                             0x08000674   Number         4  main.o(.text)
    __arm_cp.2_3                             0x08000678   Number         4  main.o(.text)
    OUTLINED_FUNCTION_0                      0x0800067d   Thumb Code    10  main.o(.text)
    [Anonymous Symbol]                       0x08000688   Section        0  bldc.o(.text)
    __arm_cp.1_0                             0x080006c4   Number         4  bldc.o(.text)
    __arm_cp.2_0                             0x080006d0   Number         4  bldc.o(.text)
    __arm_cp.3_0                             0x0800072c   Number         4  bldc.o(.text)
    __arm_cp.3_1                             0x08000730   Number         4  bldc.o(.text)
    __arm_cp.3_2                             0x08000734   Number         4  bldc.o(.text)
    __arm_cp.3_3                             0x08000738   Number         4  bldc.o(.text)
    __arm_cp.4_0                             0x08000754   Number         4  bldc.o(.text)
    __arm_cp.4_1                             0x08000758   Number         4  bldc.o(.text)
    __arm_cp.5_0                             0x08000af0   Number         4  bldc.o(.text)
    __arm_cp.5_1                             0x08000af4   Number         4  bldc.o(.text)
    __arm_cp.5_2                             0x08000af8   Number         4  bldc.o(.text)
    __arm_cp.5_3                             0x08000afc   Number         4  bldc.o(.text)
    __arm_cp.5_4                             0x08000b00   Number         4  bldc.o(.text)
    __arm_cp.5_5                             0x08000b04   Number         4  bldc.o(.text)
    __arm_cp.5_6                             0x08000b08   Number         4  bldc.o(.text)
    __arm_cp.5_7                             0x08000b0c   Number         4  bldc.o(.text)
    __arm_cp.5_8                             0x08000b10   Number         4  bldc.o(.text)
    __arm_cp.5_9                             0x08000b14   Number         4  bldc.o(.text)
    __arm_cp.5_10                            0x08000b18   Number         4  bldc.o(.text)
    __arm_cp.5_11                            0x08000b1c   Number         4  bldc.o(.text)
    __arm_cp.5_12                            0x08000b20   Number         4  bldc.o(.text)
    __arm_cp.5_13                            0x08000b24   Number         4  bldc.o(.text)
    __arm_cp.5_14                            0x08000b28   Number         4  bldc.o(.text)
    __arm_cp.5_15                            0x08000b2c   Number         4  bldc.o(.text)
    __arm_cp.5_16                            0x08000b30   Number         4  bldc.o(.text)
    __arm_cp.5_17                            0x08000b34   Number         4  bldc.o(.text)
    __arm_cp.5_18                            0x08000b38   Number         4  bldc.o(.text)
    __arm_cp.5_19                            0x08000b3c   Number         4  bldc.o(.text)
    __arm_cp.5_20                            0x08000b40   Number         4  bldc.o(.text)
    __arm_cp.5_21                            0x08000b44   Number         4  bldc.o(.text)
    __arm_cp.5_22                            0x08000b48   Number         4  bldc.o(.text)
    __arm_cp.5_23                            0x08000b4c   Number         4  bldc.o(.text)
    __arm_cp.5_24                            0x08000b50   Number         4  bldc.o(.text)
    __arm_cp.5_25                            0x08000b54   Number         4  bldc.o(.text)
    OUTLINED_FUNCTION_0                      0x08000b59   Thumb Code    14  bldc.o(.text)
    [Anonymous Symbol]                       0x08000b68   Section        0  driver.o(.text)
    __arm_cp.0_0                             0x08000bc8   Number         4  driver.o(.text)
    __arm_cp.1_0                             0x08000cbc   Number         4  driver.o(.text)
    __arm_cp.2_0                             0x08000d48   Number         4  driver.o(.text)
    __arm_cp.2_1                             0x08000d4c   Number         4  driver.o(.text)
    __arm_cp.2_2                             0x08000d50   Number         4  driver.o(.text)
    __arm_cp.2_3                             0x08000d54   Number         4  driver.o(.text)
    __arm_cp.3_0                             0x08000d7c   Number         4  driver.o(.text)
    __arm_cp.3_1                             0x08000d80   Number         4  driver.o(.text)
    __arm_cp.3_2                             0x08000d84   Number         4  driver.o(.text)
    __arm_cp.3_3                             0x08000d88   Number         4  driver.o(.text)
    OUTLINED_FUNCTION_0                      0x08000d8d   Thumb Code     8  driver.o(.text)
    [Anonymous Symbol]                       0x08000d94   Section        0  bldcsine.o(.text)
    __arm_cp.1_0                             0x08000df8   Number         4  bldcsine.o(.text)
    __arm_cp.1_1                             0x08000dfc   Number         4  bldcsine.o(.text)
    __arm_cp.1_2                             0x08000e00   Number         4  bldcsine.o(.text)
    __arm_cp.1_3                             0x08000e04   Number         4  bldcsine.o(.text)
    __arm_cp.1_4                             0x08000e08   Number         4  bldcsine.o(.text)
    __arm_cp.2_0                             0x08000e8c   Number         4  bldcsine.o(.text)
    __arm_cp.2_1                             0x08000e90   Number         4  bldcsine.o(.text)
    __arm_cp.2_2                             0x08000e94   Number         4  bldcsine.o(.text)
    __arm_cp.2_3                             0x08000e98   Number         4  bldcsine.o(.text)
    __arm_cp.2_4                             0x08000e9c   Number         4  bldcsine.o(.text)
    __arm_cp.6_0                             0x08001020   Number         4  bldcsine.o(.text)
    __arm_cp.6_1                             0x08001024   Number         4  bldcsine.o(.text)
    __arm_cp.6_2                             0x08001028   Number         4  bldcsine.o(.text)
    __arm_cp.6_3                             0x0800102c   Number         4  bldcsine.o(.text)
    __arm_cp.6_4                             0x08001030   Number         4  bldcsine.o(.text)
    __arm_cp.6_5                             0x08001034   Number         4  bldcsine.o(.text)
    [Anonymous Symbol]                       0x08001038   Section        0  setup.o(.text)
    __arm_cp.4_0                             0x08001120   Number         4  setup.o(.text)
    __arm_cp.4_1                             0x08001124   Number         4  setup.o(.text)
    __arm_cp.4_2                             0x08001128   Number         4  setup.o(.text)
    __arm_cp.5_0                             0x08001290   Number         4  setup.o(.text)
    __arm_cp.5_1                             0x08001294   Number         4  setup.o(.text)
    __arm_cp.5_2                             0x08001298   Number         4  setup.o(.text)
    __arm_cp.5_3                             0x0800129c   Number         4  setup.o(.text)
    __arm_cp.5_4                             0x080012a0   Number         4  setup.o(.text)
    __arm_cp.5_5                             0x080012a4   Number         4  setup.o(.text)
    __arm_cp.5_6                             0x080012a8   Number         4  setup.o(.text)
    __arm_cp.5_7                             0x080012ac   Number         4  setup.o(.text)
    __arm_cp.5_8                             0x080012b0   Number         4  setup.o(.text)
    __arm_cp.6_0                             0x080013e4   Number         4  setup.o(.text)
    __arm_cp.6_1                             0x080013e8   Number         4  setup.o(.text)
    __arm_cp.6_2                             0x080013ec   Number         4  setup.o(.text)
    __arm_cp.6_3                             0x080013f0   Number         4  setup.o(.text)
    __arm_cp.6_4                             0x080013f4   Number         4  setup.o(.text)
    __arm_cp.6_5                             0x080013f8   Number         4  setup.o(.text)
    __arm_cp.6_6                             0x080013fc   Number         4  setup.o(.text)
    __arm_cp.6_7                             0x08001400   Number         4  setup.o(.text)
    __arm_cp.6_8                             0x08001404   Number         4  setup.o(.text)
    __arm_cp.6_9                             0x08001408   Number         4  setup.o(.text)
    __arm_cp.7_0                             0x080014e0   Number         4  setup.o(.text)
    __arm_cp.7_1                             0x080014e4   Number         4  setup.o(.text)
    __arm_cp.7_2                             0x080014e8   Number         4  setup.o(.text)
    __arm_cp.16_0                            0x0800158c   Number         4  setup.o(.text)
    __arm_cp.16_1                            0x08001590   Number         4  setup.o(.text)
    __arm_cp.17_0                            0x080015c0   Number         4  setup.o(.text)
    __arm_cp.17_1                            0x080015c4   Number         4  setup.o(.text)
    __arm_cp.17_2                            0x080015c8   Number         4  setup.o(.text)
    __arm_cp.18_0                            0x0800160c   Number         4  setup.o(.text)
    __arm_cp.18_1                            0x08001610   Number         4  setup.o(.text)
    __arm_cp.18_2                            0x08001614   Number         4  setup.o(.text)
    __arm_cp.19_0                            0x0800163c   Number         4  setup.o(.text)
    __arm_cp.19_1                            0x08001640   Number         4  setup.o(.text)
    __arm_cp.19_2                            0x08001644   Number         4  setup.o(.text)
    __arm_cp.20_0                            0x0800166c   Number         4  setup.o(.text)
    __arm_cp.20_1                            0x08001670   Number         4  setup.o(.text)
    OUTLINED_FUNCTION_0                      0x08001675   Thumb Code     8  setup.o(.text)
    OUTLINED_FUNCTION_1                      0x0800167d   Thumb Code     8  setup.o(.text)
    OUTLINED_FUNCTION_2                      0x08001685   Thumb Code     8  setup.o(.text)
    OUTLINED_FUNCTION_3                      0x0800168d   Thumb Code     8  setup.o(.text)
    OUTLINED_FUNCTION_4                      0x08001695   Thumb Code    10  setup.o(.text)
    [Anonymous Symbol]                       0x080016a0   Section        0  it.o(.text)
    __arm_cp.0_0                             0x080016ac   Number         4  it.o(.text)
    __arm_cp.1_0                             0x080016b8   Number         4  it.o(.text)
    __arm_cp.2_0                             0x080016e8   Number         4  it.o(.text)
    __arm_cp.2_1                             0x080016ec   Number         4  it.o(.text)
    __arm_cp.2_2                             0x080016f0   Number         4  it.o(.text)
    __arm_cp.3_0                             0x08001740   Number         4  it.o(.text)
    __arm_cp.3_1                             0x08001744   Number         4  it.o(.text)
    __arm_cp.4_0                             0x08001784   Number         4  it.o(.text)
    __arm_cp.5_0                             0x08001790   Number         4  it.o(.text)
    __arm_cp.6_0                             0x080017a8   Number         4  it.o(.text)
    __arm_cp.15_0                            0x080017d8   Number         4  it.o(.text)
    __arm_cp.15_1                            0x080017dc   Number         4  it.o(.text)
    [Anonymous Symbol]                       0x080017e0   Section        0  remotedummy.o(.text)
    __arm_cp.0_0                             0x08001914   Number         4  remotedummy.o(.text)
    __arm_cp.0_1                             0x08001918   Number         4  remotedummy.o(.text)
    __arm_cp.0_2                             0x0800191c   Number         4  remotedummy.o(.text)
    __arm_cp.0_3                             0x08001920   Number         4  remotedummy.o(.text)
    __arm_cp.0_4                             0x08001924   Number         4  remotedummy.o(.text)
    __arm_cp.0_6                             0x08001938   Number         4  remotedummy.o(.text)
    __arm_cp.0_7                             0x0800193c   Number         4  remotedummy.o(.text)
    __arm_cp.0_8                             0x08001940   Number         4  remotedummy.o(.text)
    __arm_cp.0_9                             0x08001944   Number         4  remotedummy.o(.text)
    __arm_cp.0_10                            0x08001948   Number         4  remotedummy.o(.text)
    __arm_cp.0_11                            0x0800194c   Number         4  remotedummy.o(.text)
    [Anonymous Symbol]                       0x08001954   Section        0  gd32f1x0_adc.o(.text)
    __arm_cp.1_0                             0x08001980   Number         4  gd32f1x0_adc.o(.text)
    __arm_cp.2_0                             0x08001990   Number         4  gd32f1x0_adc.o(.text)
    __arm_cp.3_0                             0x080019b4   Number         4  gd32f1x0_adc.o(.text)
    __arm_cp.4_0                             0x080019c4   Number         4  gd32f1x0_adc.o(.text)
    __arm_cp.5_0                             0x080019d4   Number         4  gd32f1x0_adc.o(.text)
    __arm_cp.6_0                             0x080019e4   Number         4  gd32f1x0_adc.o(.text)
    __arm_cp.7_0                             0x080019f4   Number         4  gd32f1x0_adc.o(.text)
    __arm_cp.8_0                             0x08001a04   Number         4  gd32f1x0_adc.o(.text)
    __arm_cp.9_0                             0x08001a14   Number         4  gd32f1x0_adc.o(.text)
    __arm_cp.10_0                            0x08001a54   Number         4  gd32f1x0_adc.o(.text)
    __arm_cp.11_0                            0x08001aa8   Number         4  gd32f1x0_adc.o(.text)
    __arm_cp.12_0                            0x08001ac0   Number         4  gd32f1x0_adc.o(.text)
    __arm_cp.13_0                            0x08001afc   Number         4  gd32f1x0_adc.o(.text)
    __arm_cp.14_0                            0x08001b88   Number         4  gd32f1x0_adc.o(.text)
    __arm_cp.15_0                            0x08001be0   Number         4  gd32f1x0_adc.o(.text)
    __arm_cp.16_0                            0x08001c00   Number         4  gd32f1x0_adc.o(.text)
    __arm_cp.17_0                            0x08001c3c   Number         4  gd32f1x0_adc.o(.text)
    __arm_cp.18_0                            0x08001c64   Number         4  gd32f1x0_adc.o(.text)
    __arm_cp.19_0                            0x08001c84   Number         4  gd32f1x0_adc.o(.text)
    __arm_cp.20_0                            0x08001c90   Number         4  gd32f1x0_adc.o(.text)
    __arm_cp.21_0                            0x08001cb8   Number         4  gd32f1x0_adc.o(.text)
    __arm_cp.22_0                            0x08001cc8   Number         4  gd32f1x0_adc.o(.text)
    __arm_cp.23_0                            0x08001cd0   Number         4  gd32f1x0_adc.o(.text)
    __arm_cp.24_0                            0x08001d04   Number         4  gd32f1x0_adc.o(.text)
    __arm_cp.25_0                            0x08001d0c   Number         4  gd32f1x0_adc.o(.text)
    __arm_cp.26_0                            0x08001d38   Number         4  gd32f1x0_adc.o(.text)
    __arm_cp.27_0                            0x08001d64   Number         4  gd32f1x0_adc.o(.text)
    __arm_cp.28_0                            0x08001d84   Number         4  gd32f1x0_adc.o(.text)
    __arm_cp.28_1                            0x08001d88   Number         4  gd32f1x0_adc.o(.text)
    __arm_cp.28_2                            0x08001d8c   Number         4  gd32f1x0_adc.o(.text)
    __arm_cp.29_0                            0x08001db0   Number         4  gd32f1x0_adc.o(.text)
    __arm_cp.29_1                            0x08001db4   Number         4  gd32f1x0_adc.o(.text)
    __arm_cp.30_0                            0x08001dd0   Number         4  gd32f1x0_adc.o(.text)
    __arm_cp.30_1                            0x08001dd4   Number         4  gd32f1x0_adc.o(.text)
    __arm_cp.31_0                            0x08001de8   Number         4  gd32f1x0_adc.o(.text)
    OUTLINED_FUNCTION_0                      0x08001ded   Thumb Code    10  gd32f1x0_adc.o(.text)
    OUTLINED_FUNCTION_1                      0x08001df7   Thumb Code    10  gd32f1x0_adc.o(.text)
    [Anonymous Symbol]                       0x08001e00   Section        0  gd32f1x0_dma.o(.text)
    __arm_cp.0_0                             0x08001e2c   Number         4  gd32f1x0_dma.o(.text)
    __arm_cp.2_0                             0x08001eb8   Number         4  gd32f1x0_dma.o(.text)
    __arm_cp.3_0                             0x08001ecc   Number         4  gd32f1x0_dma.o(.text)
    __arm_cp.4_0                             0x08001ee0   Number         4  gd32f1x0_dma.o(.text)
    __arm_cp.5_0                             0x08001ef4   Number         4  gd32f1x0_dma.o(.text)
    __arm_cp.6_0                             0x08001f08   Number         4  gd32f1x0_dma.o(.text)
    __arm_cp.7_0                             0x08001f1c   Number         4  gd32f1x0_dma.o(.text)
    __arm_cp.8_0                             0x08001f30   Number         4  gd32f1x0_dma.o(.text)
    __arm_cp.9_0                             0x08001f38   Number         4  gd32f1x0_dma.o(.text)
    __arm_cp.10_0                            0x08001f40   Number         4  gd32f1x0_dma.o(.text)
    __arm_cp.11_0                            0x08001f48   Number         4  gd32f1x0_dma.o(.text)
    __arm_cp.12_0                            0x08001f58   Number         4  gd32f1x0_dma.o(.text)
    __arm_cp.13_0                            0x08001f6c   Number         4  gd32f1x0_dma.o(.text)
    __arm_cp.14_0                            0x08001f80   Number         4  gd32f1x0_dma.o(.text)
    __arm_cp.15_0                            0x08001f94   Number         4  gd32f1x0_dma.o(.text)
    __arm_cp.16_0                            0x08001fa8   Number         4  gd32f1x0_dma.o(.text)
    __arm_cp.17_0                            0x08001fbc   Number         4  gd32f1x0_dma.o(.text)
    __arm_cp.18_0                            0x08001fd0   Number         4  gd32f1x0_dma.o(.text)
    __arm_cp.19_0                            0x08001fe4   Number         4  gd32f1x0_dma.o(.text)
    __arm_cp.20_0                            0x08002004   Number         4  gd32f1x0_dma.o(.text)
    __arm_cp.21_1                            0x08002070   Number         4  gd32f1x0_dma.o(.text)
    __arm_cp.22_0                            0x080020a4   Number         4  gd32f1x0_dma.o(.text)
    __arm_cp.23_0                            0x080020b4   Number         4  gd32f1x0_dma.o(.text)
    __arm_cp.24_0                            0x080020cc   Number         4  gd32f1x0_dma.o(.text)
    __arm_cp.25_0                            0x080020e4   Number         4  gd32f1x0_dma.o(.text)
    __arm_cp.26_0                            0x080020f8   Number         4  gd32f1x0_dma.o(.text)
    OUTLINED_FUNCTION_0                      0x080020fd   Thumb Code    10  gd32f1x0_dma.o(.text)
    OUTLINED_FUNCTION_1                      0x08002107   Thumb Code     8  gd32f1x0_dma.o(.text)
    OUTLINED_FUNCTION_2                      0x0800210f   Thumb Code     6  gd32f1x0_dma.o(.text)
    [Anonymous Symbol]                       0x08002114   Section        0  gd32f1x0_exti.o(.text)
    __arm_cp.0_0                             0x08002128   Number         4  gd32f1x0_exti.o(.text)
    __arm_cp.1_0                             0x08002188   Number         4  gd32f1x0_exti.o(.text)
    __arm_cp.2_0                             0x08002190   Number         4  gd32f1x0_exti.o(.text)
    __arm_cp.3_0                             0x08002198   Number         4  gd32f1x0_exti.o(.text)
    __arm_cp.4_0                             0x080021a0   Number         4  gd32f1x0_exti.o(.text)
    __arm_cp.5_0                             0x080021a8   Number         4  gd32f1x0_exti.o(.text)
    __arm_cp.6_0                             0x080021b8   Number         4  gd32f1x0_exti.o(.text)
    __arm_cp.7_0                             0x080021c4   Number         4  gd32f1x0_exti.o(.text)
    __arm_cp.8_0                             0x080021e0   Number         4  gd32f1x0_exti.o(.text)
    __arm_cp.9_0                             0x080021ec   Number         4  gd32f1x0_exti.o(.text)
    __arm_cp.10_0                            0x080021f4   Number         4  gd32f1x0_exti.o(.text)
    __arm_cp.11_0                            0x080021fc   Number         4  gd32f1x0_exti.o(.text)
    OUTLINED_FUNCTION_0                      0x08002201   Thumb Code    10  gd32f1x0_exti.o(.text)
    OUTLINED_FUNCTION_1                      0x0800220b   Thumb Code     8  gd32f1x0_exti.o(.text)
    [Anonymous Symbol]                       0x08002214   Section        0  gd32f1x0_fmc.o(.text)
    __arm_cp.0_0                             0x08002228   Number         4  gd32f1x0_fmc.o(.text)
    __arm_cp.0_1                             0x0800222c   Number         4  gd32f1x0_fmc.o(.text)
    __arm_cp.0_2                             0x08002230   Number         4  gd32f1x0_fmc.o(.text)
    __arm_cp.1_0                             0x08002240   Number         4  gd32f1x0_fmc.o(.text)
    __arm_cp.2_0                             0x08002254   Number         4  gd32f1x0_fmc.o(.text)
    __arm_cp.3_0                             0x08002264   Number         4  gd32f1x0_fmc.o(.text)
    __arm_cp.4_0                             0x08002274   Number         4  gd32f1x0_fmc.o(.text)
    __arm_cp.5_0                             0x080022a8   Number         4  gd32f1x0_fmc.o(.text)
    fmc_ready_wait                           0x080022ad   Thumb Code    52  gd32f1x0_fmc.o(.text)
    __arm_cp.6_0                             0x080022e0   Number         4  gd32f1x0_fmc.o(.text)
    __arm_cp.6_1                             0x080022e4   Number         4  gd32f1x0_fmc.o(.text)
    __arm_cp.7_0                             0x08002314   Number         4  gd32f1x0_fmc.o(.text)
    __arm_cp.8_0                             0x08002338   Number         4  gd32f1x0_fmc.o(.text)
    __arm_cp.9_0                             0x0800235c   Number         4  gd32f1x0_fmc.o(.text)
    __arm_cp.10_0                            0x08002374   Number         4  gd32f1x0_fmc.o(.text)
    __arm_cp.10_1                            0x08002378   Number         4  gd32f1x0_fmc.o(.text)
    __arm_cp.10_2                            0x0800237c   Number         4  gd32f1x0_fmc.o(.text)
    __arm_cp.11_0                            0x0800238c   Number         4  gd32f1x0_fmc.o(.text)
    __arm_cp.12_0                            0x0800239c   Number         4  gd32f1x0_fmc.o(.text)
    __arm_cp.13_0                            0x080023f8   Number         4  gd32f1x0_fmc.o(.text)
    __arm_cp.13_1                            0x080023fc   Number         4  gd32f1x0_fmc.o(.text)
    __arm_cp.14_0                            0x0800240c   Number         4  gd32f1x0_fmc.o(.text)
    __arm_cp.15_0                            0x0800245c   Number         4  gd32f1x0_fmc.o(.text)
    __arm_cp.15_1                            0x08002460   Number         4  gd32f1x0_fmc.o(.text)
    __arm_cp.16_0                            0x080024a8   Number         4  gd32f1x0_fmc.o(.text)
    __arm_cp.16_1                            0x080024ac   Number         4  gd32f1x0_fmc.o(.text)
    __arm_cp.17_0                            0x080024f8   Number         4  gd32f1x0_fmc.o(.text)
    __arm_cp.17_1                            0x080024fc   Number         4  gd32f1x0_fmc.o(.text)
    __arm_cp.18_0                            0x08002544   Number         4  gd32f1x0_fmc.o(.text)
    __arm_cp.18_1                            0x08002548   Number         4  gd32f1x0_fmc.o(.text)
    __arm_cp.19_0                            0x08002558   Number         4  gd32f1x0_fmc.o(.text)
    __arm_cp.20_0                            0x08002564   Number         4  gd32f1x0_fmc.o(.text)
    __arm_cp.21_0                            0x08002570   Number         4  gd32f1x0_fmc.o(.text)
    __arm_cp.22_0                            0x08002578   Number         4  gd32f1x0_fmc.o(.text)
    __arm_cp.23_0                            0x08002588   Number         4  gd32f1x0_fmc.o(.text)
    __arm_cp.24_0                            0x08002598   Number         4  gd32f1x0_fmc.o(.text)
    __arm_cp.25_0                            0x080025a0   Number         4  gd32f1x0_fmc.o(.text)
    __arm_cp.26_0                            0x080025b0   Number         4  gd32f1x0_fmc.o(.text)
    __arm_cp.27_0                            0x080025b8   Number         4  gd32f1x0_fmc.o(.text)
    OUTLINED_FUNCTION_0                      0x080025bd   Thumb Code    18  gd32f1x0_fmc.o(.text)
    OUTLINED_FUNCTION_1                      0x080025cf   Thumb Code    10  gd32f1x0_fmc.o(.text)
    OUTLINED_FUNCTION_2                      0x080025d9   Thumb Code    10  gd32f1x0_fmc.o(.text)
    OUTLINED_FUNCTION_3                      0x080025e3   Thumb Code    12  gd32f1x0_fmc.o(.text)
    OUTLINED_FUNCTION_4                      0x080025ef   Thumb Code    12  gd32f1x0_fmc.o(.text)
    OUTLINED_FUNCTION_5                      0x080025fb   Thumb Code     6  gd32f1x0_fmc.o(.text)
    OUTLINED_FUNCTION_6                      0x08002601   Thumb Code    10  gd32f1x0_fmc.o(.text)
    OUTLINED_FUNCTION_7                      0x0800260b   Thumb Code     8  gd32f1x0_fmc.o(.text)
    OUTLINED_FUNCTION_8                      0x08002613   Thumb Code    10  gd32f1x0_fmc.o(.text)
    [Anonymous Symbol]                       0x0800261c   Section        0  gd32f1x0_fwdgt.o(.text)
    __arm_cp.0_0                             0x08002624   Number         4  gd32f1x0_fwdgt.o(.text)
    __arm_cp.1_0                             0x08002634   Number         4  gd32f1x0_fwdgt.o(.text)
    __arm_cp.2_0                             0x08002644   Number         4  gd32f1x0_fwdgt.o(.text)
    __arm_cp.3_0                             0x08002670   Number         4  gd32f1x0_fwdgt.o(.text)
    __arm_cp.3_1                             0x08002674   Number         4  gd32f1x0_fwdgt.o(.text)
    __arm_cp.4_0                             0x080026bc   Number         4  gd32f1x0_fwdgt.o(.text)
    __arm_cp.4_1                             0x080026c0   Number         4  gd32f1x0_fwdgt.o(.text)
    __arm_cp.5_0                             0x080026d0   Number         4  gd32f1x0_fwdgt.o(.text)
    [Anonymous Symbol]                       0x080026d4   Section        0  gd32f1x0_gpio.o(.text)
    [Anonymous Symbol]                       0x08002844   Section        0  gd32f1x0_misc.o(.text)
    __arm_cp.0_0                             0x08002850   Number         4  gd32f1x0_misc.o(.text)
    __arm_cp.0_1                             0x08002854   Number         4  gd32f1x0_misc.o(.text)
    __arm_cp.1_0                             0x080028e4   Number         4  gd32f1x0_misc.o(.text)
    __arm_cp.1_1                             0x080028e8   Number         4  gd32f1x0_misc.o(.text)
    __arm_cp.2_0                             0x08002904   Number         4  gd32f1x0_misc.o(.text)
    __arm_cp.3_0                             0x08002914   Number         4  gd32f1x0_misc.o(.text)
    __arm_cp.3_1                             0x08002918   Number         4  gd32f1x0_misc.o(.text)
    __arm_cp.4_0                             0x08002928   Number         4  gd32f1x0_misc.o(.text)
    __arm_cp.5_0                             0x08002938   Number         4  gd32f1x0_misc.o(.text)
    __arm_cp.6_0                             0x08002950   Number         4  gd32f1x0_misc.o(.text)
    [Anonymous Symbol]                       0x08002954   Section        0  gd32f1x0_rcu.o(.text)
    __arm_cp.0_0                             0x080029a4   Number         4  gd32f1x0_rcu.o(.text)
    __arm_cp.0_1                             0x080029a8   Number         4  gd32f1x0_rcu.o(.text)
    __arm_cp.0_2                             0x080029ac   Number         4  gd32f1x0_rcu.o(.text)
    __arm_cp.0_3                             0x080029b0   Number         4  gd32f1x0_rcu.o(.text)
    __arm_cp.1_0                             0x080029c0   Number         4  gd32f1x0_rcu.o(.text)
    __arm_cp.2_0                             0x080029d0   Number         4  gd32f1x0_rcu.o(.text)
    __arm_cp.3_0                             0x080029e0   Number         4  gd32f1x0_rcu.o(.text)
    __arm_cp.4_0                             0x080029f0   Number         4  gd32f1x0_rcu.o(.text)
    __arm_cp.5_0                             0x08002a00   Number         4  gd32f1x0_rcu.o(.text)
    __arm_cp.6_0                             0x08002a10   Number         4  gd32f1x0_rcu.o(.text)
    __arm_cp.7_0                             0x08002a20   Number         4  gd32f1x0_rcu.o(.text)
    __arm_cp.8_0                             0x08002a30   Number         4  gd32f1x0_rcu.o(.text)
    __arm_cp.9_0                             0x08002a40   Number         4  gd32f1x0_rcu.o(.text)
    __arm_cp.10_0                            0x08002a50   Number         4  gd32f1x0_rcu.o(.text)
    __arm_cp.11_0                            0x08002a60   Number         4  gd32f1x0_rcu.o(.text)
    __arm_cp.12_0                            0x08002a70   Number         4  gd32f1x0_rcu.o(.text)
    __arm_cp.13_0                            0x08002a80   Number         4  gd32f1x0_rcu.o(.text)
    __arm_cp.14_0                            0x08002ad4   Number         4  gd32f1x0_rcu.o(.text)
    __arm_cp.15_0                            0x08002ae4   Number         4  gd32f1x0_rcu.o(.text)
    __arm_cp.16_0                            0x08002af4   Number         4  gd32f1x0_rcu.o(.text)
    __arm_cp.17_0                            0x08002b10   Number         4  gd32f1x0_rcu.o(.text)
    __arm_cp.17_1                            0x08002b14   Number         4  gd32f1x0_rcu.o(.text)
    __arm_cp.18_0                            0x08002b24   Number         4  gd32f1x0_rcu.o(.text)
    __arm_cp.19_0                            0x08002b34   Number         4  gd32f1x0_rcu.o(.text)
    __arm_cp.20_0                            0x08002b44   Number         4  gd32f1x0_rcu.o(.text)
    __arm_cp.21_0                            0x08002b54   Number         4  gd32f1x0_rcu.o(.text)
    __arm_cp.22_0                            0x08002b64   Number         4  gd32f1x0_rcu.o(.text)
    __arm_cp.23_0                            0x08002b7c   Number         4  gd32f1x0_rcu.o(.text)
    __arm_cp.24_0                            0x08002b8c   Number         4  gd32f1x0_rcu.o(.text)
    __arm_cp.25_0                            0x08002b9c   Number         4  gd32f1x0_rcu.o(.text)
    __arm_cp.26_0                            0x08002ba8   Number         4  gd32f1x0_rcu.o(.text)
    __arm_cp.27_0                            0x08002bb4   Number         4  gd32f1x0_rcu.o(.text)
    __arm_cp.28_0                            0x08002bc4   Number         4  gd32f1x0_rcu.o(.text)
    __arm_cp.29_0                            0x08002c88   Number         4  gd32f1x0_rcu.o(.text)
    __arm_cp.29_1                            0x08002c8c   Number         4  gd32f1x0_rcu.o(.text)
    __arm_cp.30_0                            0x08002c9c   Number         4  gd32f1x0_rcu.o(.text)
    __arm_cp.31_0                            0x08002cac   Number         4  gd32f1x0_rcu.o(.text)
    __arm_cp.32_0                            0x08002ce4   Number         4  gd32f1x0_rcu.o(.text)
    __arm_cp.33_0                            0x08002d1c   Number         4  gd32f1x0_rcu.o(.text)
    __arm_cp.34_0                            0x08002d2c   Number         4  gd32f1x0_rcu.o(.text)
    __arm_cp.35_0                            0x08002d3c   Number         4  gd32f1x0_rcu.o(.text)
    __arm_cp.36_0                            0x08002d44   Number         4  gd32f1x0_rcu.o(.text)
    __arm_cp.37_0                            0x08002d4c   Number         4  gd32f1x0_rcu.o(.text)
    __arm_cp.38_0                            0x08002d64   Number         4  gd32f1x0_rcu.o(.text)
    __arm_cp.38_1                            0x08002d68   Number         4  gd32f1x0_rcu.o(.text)
    __arm_cp.39_0                            0x08002d78   Number         4  gd32f1x0_rcu.o(.text)
    __arm_cp.40_0                            0x08002d88   Number         4  gd32f1x0_rcu.o(.text)
    __arm_cp.41_0                            0x08002e84   Number         4  gd32f1x0_rcu.o(.text)
    __arm_cp.41_1                            0x08002e88   Number         4  gd32f1x0_rcu.o(.text)
    __arm_cp.41_2                            0x08002e8c   Number         4  gd32f1x0_rcu.o(.text)
    __arm_cp.41_4                            0x08002ea0   Number         4  gd32f1x0_rcu.o(.text)
    __arm_cp.41_5                            0x08002ea4   Number         4  gd32f1x0_rcu.o(.text)
    OUTLINED_FUNCTION_0                      0x08002ea9   Thumb Code    10  gd32f1x0_rcu.o(.text)
    OUTLINED_FUNCTION_1                      0x08002eb3   Thumb Code    14  gd32f1x0_rcu.o(.text)
    OUTLINED_FUNCTION_2                      0x08002ec1   Thumb Code    10  gd32f1x0_rcu.o(.text)
    OUTLINED_FUNCTION_3                      0x08002ecb   Thumb Code     6  gd32f1x0_rcu.o(.text)
    OUTLINED_FUNCTION_4                      0x08002ed1   Thumb Code     8  gd32f1x0_rcu.o(.text)
    OUTLINED_FUNCTION_5                      0x08002ed9   Thumb Code    14  gd32f1x0_rcu.o(.text)
    OUTLINED_FUNCTION_6                      0x08002ee7   Thumb Code    14  gd32f1x0_rcu.o(.text)
    [Anonymous Symbol]                       0x08002ef4   Section        0  gd32f1x0_syscfg.o(.text)
    __arm_cp.1_0                             0x08002f10   Number         4  gd32f1x0_syscfg.o(.text)
    __arm_cp.2_0                             0x08002f20   Number         4  gd32f1x0_syscfg.o(.text)
    __arm_cp.3_0                             0x08002f30   Number         4  gd32f1x0_syscfg.o(.text)
    __arm_cp.4_0                             0x08002f40   Number         4  gd32f1x0_syscfg.o(.text)
    __arm_cp.5_0                             0x08002f84   Number         4  gd32f1x0_syscfg.o(.text)
    __arm_cp.6_0                             0x08002f8c   Number         4  gd32f1x0_syscfg.o(.text)
    __arm_cp.7_0                             0x08002f9c   Number         4  gd32f1x0_syscfg.o(.text)
    __arm_cp.8_0                             0x08002fa4   Number         4  gd32f1x0_syscfg.o(.text)
    OUTLINED_FUNCTION_0                      0x08002fa9   Thumb Code     8  gd32f1x0_syscfg.o(.text)
    [Anonymous Symbol]                       0x08002fb0   Section        0  gd32f1x0_timer.o(.text)
    __arm_cp.0_0                             0x08003024   Number         4  gd32f1x0_timer.o(.text)
    __arm_cp.0_1                             0x08003028   Number         4  gd32f1x0_timer.o(.text)
    __arm_cp.0_2                             0x0800302c   Number         4  gd32f1x0_timer.o(.text)
    __arm_cp.0_3                             0x08003030   Number         4  gd32f1x0_timer.o(.text)
    __arm_cp.0_4                             0x08003034   Number         4  gd32f1x0_timer.o(.text)
    __arm_cp.0_5                             0x08003038   Number         4  gd32f1x0_timer.o(.text)
    __arm_cp.0_6                             0x0800303c   Number         4  gd32f1x0_timer.o(.text)
    __arm_cp.2_0                             0x080030f8   Number         4  gd32f1x0_timer.o(.text)
    __arm_cp.2_1                             0x080030fc   Number         4  gd32f1x0_timer.o(.text)
    __arm_cp.2_2                             0x08003100   Number         4  gd32f1x0_timer.o(.text)
    __arm_cp.2_3                             0x08003104   Number         4  gd32f1x0_timer.o(.text)
    __arm_cp.2_4                             0x08003108   Number         4  gd32f1x0_timer.o(.text)
    __arm_cp.2_5                             0x0800310c   Number         4  gd32f1x0_timer.o(.text)
    __arm_cp.42_0                            0x080034e4   Number         4  gd32f1x0_timer.o(.text)
    __arm_cp.42_1                            0x080034e8   Number         4  gd32f1x0_timer.o(.text)
    __arm_cp.42_2                            0x080034ec   Number         4  gd32f1x0_timer.o(.text)
    __arm_cp.42_3                            0x080034f0   Number         4  gd32f1x0_timer.o(.text)
    __arm_cp.42_4                            0x080034f4   Number         4  gd32f1x0_timer.o(.text)
    OUTLINED_FUNCTION_0                      0x08003b05   Thumb Code    32  gd32f1x0_timer.o(.text)
    OUTLINED_FUNCTION_1                      0x08003b25   Thumb Code    10  gd32f1x0_timer.o(.text)
    OUTLINED_FUNCTION_2                      0x08003b2f   Thumb Code    10  gd32f1x0_timer.o(.text)
    .text                                    0x08003b38   Section       36  startup_gd32f1x0.o(.text)
    [Anonymous Symbol]                       0x08003b5c   Section        0  system_gd32f1x0.o(.text)
    __arm_cp.0_0                             0x08003c00   Number         4  system_gd32f1x0.o(.text)
    __arm_cp.0_1                             0x08003c04   Number         4  system_gd32f1x0.o(.text)
    __arm_cp.0_2                             0x08003c08   Number         4  system_gd32f1x0.o(.text)
    __arm_cp.0_3                             0x08003c0c   Number         4  system_gd32f1x0.o(.text)
    __arm_cp.0_4                             0x08003c10   Number         4  system_gd32f1x0.o(.text)
    __arm_cp.1_0                             0x08003c64   Number         4  system_gd32f1x0.o(.text)
    __arm_cp.1_1                             0x08003c68   Number         4  system_gd32f1x0.o(.text)
    __arm_cp.1_2                             0x08003c6c   Number         4  system_gd32f1x0.o(.text)
    __arm_cp.1_3                             0x08003c70   Number         4  system_gd32f1x0.o(.text)
    .text                                    0x08003c84   Section        0  memcpya.o(.text)
    .text                                    0x08003ca8   Section        0  memseta.o(.text)
    .text                                    0x08003ccc   Section        0  memcmp.o(.text)
    .text                                    0x08003ce6   Section        0  fadd.o(.text)
    .text                                    0x08003d96   Section        0  fmul.o(.text)
    .text                                    0x08003dfa   Section        0  fdiv.o(.text)
    .text                                    0x08003e76   Section        0  dadd.o(.text)
    .text                                    0x08003fc4   Section        0  dmul.o(.text)
    .text                                    0x080040a8   Section        0  ddiv.o(.text)
    .text                                    0x08004186   Section        0  fcmple.o(.text)
    .text                                    0x080041a2   Section        0  fcmplt.o(.text)
    .text                                    0x080041be   Section        0  fcmpgt.o(.text)
    .text                                    0x080041da   Section        0  fflti.o(.text)
    .text                                    0x080041ec   Section        0  ffltui.o(.text)
    .text                                    0x080041f6   Section        0  dflti.o(.text)
    .text                                    0x08004218   Section        0  dfltui.o(.text)
    .text                                    0x08004232   Section        0  ffixi.o(.text)
    .text                                    0x08004264   Section        0  ffixl.o(.text)
    .text                                    0x080042a6   Section        0  dfixi.o(.text)
    .text                                    0x080042e4   Section        0  f2d.o(.text)
    .text                                    0x0800430a   Section        0  d2f.o(.text)
    .text                                    0x08004342   Section        0  llshl.o(.text)
    .text                                    0x08004360   Section        0  llushr.o(.text)
    .text                                    0x08004380   Section        0  llsshr.o(.text)
    .text                                    0x080043a4   Section        0  iusefp.o(.text)
    .text                                    0x080043a4   Section        0  fepilogue.o(.text)
    .text                                    0x08004412   Section        0  depilogue.o(.text)
    .text                                    0x080044cc   Section       48  init.o(.text)
    i.__scatterload_copy                     0x080044fc   Section       14  handlers.o(i.__scatterload_copy)
    i.__scatterload_null                     0x0800450a   Section        2  handlers.o(i.__scatterload_null)
    i.__scatterload_zeroinit                 0x0800450c   Section       14  handlers.o(i.__scatterload_zeroinit)
    [Anonymous Symbol]                       0x0800451a   Section        0  bldc.o(.rodata..L__const.up_or_down.up_down)
    hall_to_sector                           0x08004526   Data           8  bldcsine.o(.rodata.cst8)
    [Anonymous Symbol]                       0x08004526   Section        0  bldcsine.o(.rodata.cst8)
    [Anonymous Symbol]                       0x0800452e   Section        0  gd32f1x0_rcu.o(.rodata.cst8)
    sine_table                               0x08004814   Data         720  bldcsine.o(.rodata.sine_table)
    [Anonymous Symbol]                       0x08004814   Section        0  bldcsine.o(.rodata.sine_table)
    [Anonymous Symbol]                       0x20000000   Section        0  main.o(.data..L_MergedGlobals)
    [Anonymous Symbol]                       0x20000004   Section        0  bldc.o(.data..L_MergedGlobals)
    [Anonymous Symbol]                       0x20000014   Section        0  driver.o(.data..L_MergedGlobals)
    [Anonymous Symbol]                       0x2000006c   Section        0  remotedummy.o(.data..L_MergedGlobals)
    [Anonymous Symbol]                       0x20000078   Section        0  bldcsine.o(.bss..L_MergedGlobals)
    [Anonymous Symbol]                       0x200000a8   Section        0  setup.o(.bss..L_MergedGlobals)
    [Anonymous Symbol]                       0x200000e8   Section        0  it.o(.bss..L_MergedGlobals)
    TIMER0_BRK_UP_TRG_COM_IRQHandler.interrupt_toggle 0x200000e9   Data           1  it.o(.bss..L_MergedGlobals)
    [Anonymous Symbol]                       0x2000010c   Section        0  main.o(.bss..L_MergedGlobals.1)
    [Anonymous Symbol]                       0x20000130   Section        0  bldc.o(.bss..L_MergedGlobals.1)
    [Anonymous Symbol]                       0x20000190   Section        0  driver.o(.bss..L_MergedGlobals.1)
    [Anonymous Symbol]                       0x200001c4   Section        0  remotedummy.o(.bss..L_MergedGlobals.1)
    STACK                                    0x200002a0   Section     1024  startup_gd32f1x0.o(STACK)

    Global Symbols

    Symbol Name                              Value     Ov Type        Size  Object(Section)

    BuildAttributes$$THM_ISAv4$P$D$K$B$S$PE$A:L22UL41UL21$X:L11$S22US41US21$IEEE1$IW$~IW$USESV6$~STKCKD$USESV7$~SHL$OTIME$ROPI$EBA8$MICROLIB$REQ8$PRES8$EABIv2 0x00000000   Number         0  anon$$obj.o ABSOLUTE
    __cpp_initialize__aeabi_                  - Undefined Weak Reference
    __cxa_finalize                            - Undefined Weak Reference
    __decompress                              - Undefined Weak Reference
    _clock_init                               - Undefined Weak Reference
    _microlib_exit                            - Undefined Weak Reference
    __Vectors_Size                           0x00000168   Number         0  startup_gd32f1x0.o ABSOLUTE
    __Vectors                                0x08000000   Data           4  startup_gd32f1x0.o(RESET)
    __Vectors_End                            0x08000168   Data           0  startup_gd32f1x0.o(RESET)
    __main                                   0x08000169   Thumb Code     0  entry.o(.ARM.Collect$$$$00000000)
    _main_stk                                0x08000169   Thumb Code     0  entry2.o(.ARM.Collect$$$$00000001)
    _main_scatterload                        0x0800016d   Thumb Code     0  entry5.o(.ARM.Collect$$$$00000004)
    __main_after_scatterload                 0x08000171   Thumb Code     0  entry5.o(.ARM.Collect$$$$00000004)
    _main_clock                              0x08000171   Thumb Code     0  entry7b.o(.ARM.Collect$$$$00000008)
    _main_cpp_init                           0x08000171   Thumb Code     0  entry8b.o(.ARM.Collect$$$$0000000A)
    _main_init                               0x08000171   Thumb Code     0  entry9a.o(.ARM.Collect$$$$0000000B)
    __rt_final_cpp                           0x08000179   Thumb Code     0  entry10a.o(.ARM.Collect$$$$0000000D)
    __rt_final_exit                          0x08000179   Thumb Code     0  entry11a.o(.ARM.Collect$$$$0000000F)
    main                                     0x0800017d   Thumb Code   936  main.o(.text)
    ShutOff                                  0x08000581   Thumb Code   108  main.o(.text)
    ShowBatteryState                         0x080005f9   Thumb Code   116  main.o(.text)
    modulo                                   0x08000689   Thumb Code    22  bldc.o(.text)
    up_or_down                               0x080006a1   Thumb Code    36  bldc.o(.text)
    SetEnable                                0x080006c9   Thumb Code     8  bldc.o(.text)
    SetBldcInput                             0x080006d5   Thumb Code    88  bldc.o(.text)
    SetFilter                                0x0800073d   Thumb Code    24  bldc.o(.text)
    CalculateBLDC                            0x0800075d   Thumb Code   916  bldc.o(.text)
    PID_Init                                 0x08000b69   Thumb Code    96  driver.o(.text)
    PID_Update                               0x08000bcd   Thumb Code   240  driver.o(.text)
    DriverInit                               0x08000cc1   Thumb Code   136  driver.o(.text)
    Driver                                   0x08000d59   Thumb Code    36  driver.o(.text)
    InitEXTI                                 0x08000d95   Thumb Code    64  bldcsine.o(.text)
    InitBldc                                 0x08000dd5   Thumb Code    36  bldcsine.o(.text)
    _HandleEXTI                              0x08000e0d   Thumb Code   128  bldcsine.o(.text)
    EXTI0_1_IRQHandler                       0x08000ea1   Thumb Code     4  bldcsine.o(.text)
    EXTI2_3_IRQHandler                       0x08000ea5   Thumb Code     4  bldcsine.o(.text)
    EXTI4_15_IRQHandler                      0x08000ea9   Thumb Code     4  bldcsine.o(.text)
    bldc_get_pwm                             0x08000ead   Thumb Code   372  bldcsine.o(.text)
    pinMode                                  0x08001039   Thumb Code    42  setup.o(.text)
    pinModePull                              0x08001063   Thumb Code    38  setup.o(.text)
    Interrupt_init                           0x08001089   Thumb Code     8  setup.o(.text)
    Watchdog_init                            0x08001091   Thumb Code    54  setup.o(.text)
    TimeoutTimer_init                        0x080010c9   Thumb Code    88  setup.o(.text)
    GPIO_init                                0x0800112d   Thumb Code   356  setup.o(.text)
    PWM_init                                 0x080012b5   Thumb Code   304  setup.o(.text)
    ADC_init                                 0x0800140d   Thumb Code   212  setup.o(.text)
    USART0_Init                              0x080014ed   Thumb Code     2  setup.o(.text)
    USART1_Init                              0x080014ef   Thumb Code     2  setup.o(.text)
    USART2_Init                              0x080014f1   Thumb Code     2  setup.o(.text)
    flashErase                               0x080014f3   Thumb Code    28  setup.o(.text)
    flashRead                                0x0800150f   Thumb Code     4  setup.o(.text)
    flashWrite                               0x08001513   Thumb Code    38  setup.o(.text)
    flashWriteBuffer                         0x08001539   Thumb Code    30  setup.o(.text)
    flashReadBuffer                          0x08001557   Thumb Code    20  setup.o(.text)
    ConfigReset                              0x0800156d   Thumb Code    32  setup.o(.text)
    ConfigWrite                              0x08001595   Thumb Code    44  setup.o(.text)
    ConfigRead                               0x080015cd   Thumb Code    64  setup.o(.text)
    Clock_init                               0x08001619   Thumb Code    36  setup.o(.text)
    Clock_test                               0x08001649   Thumb Code    36  setup.o(.text)
    SysTick_Handler                          0x080016a1   Thumb Code    12  it.o(.text)
    ResetTimeout                             0x080016b1   Thumb Code     8  it.o(.text)
    TIMER13_IRQHandler                       0x080016bd   Thumb Code    44  it.o(.text)
    TIMER0_BRK_UP_TRG_COM_IRQHandler         0x080016f5   Thumb Code    76  it.o(.text)
    DMA_Channel0_IRQHandler                  0x08001749   Thumb Code    60  it.o(.text)
    millis                                   0x08001789   Thumb Code     8  it.o(.text)
    Delay                                    0x08001795   Thumb Code    20  it.o(.text)
    NMI_Handler                              0x080017ad   Thumb Code     2  it.o(.text)
    HardFault_Handler                        0x080017af   Thumb Code     2  it.o(.text)
    MemManage_Handler                        0x080017b1   Thumb Code     2  it.o(.text)
    BusFault_Handler                         0x080017b3   Thumb Code     2  it.o(.text)
    UsageFault_Handler                       0x080017b5   Thumb Code     2  it.o(.text)
    SVC_Handler                              0x080017b7   Thumb Code     2  it.o(.text)
    DebugMon_Handler                         0x080017b9   Thumb Code     2  it.o(.text)
    PendSV_Handler                           0x080017bb   Thumb Code     2  it.o(.text)
    debug_timer_init                         0x080017bd   Thumb Code    28  it.o(.text)
    RemoteUpdate                             0x080017e1   Thumb Code   308  remotedummy.o(.text)
    RemoteCallback                           0x08001951   Thumb Code     2  remotedummy.o(.text)
    RemoteCalculate                          0x08001953   Thumb Code     2  remotedummy.o(.text)
    adc_deinit                               0x08001955   Thumb Code    22  gd32f1x0_adc.o(.text)
    adc_enable                               0x0800196d   Thumb Code    20  gd32f1x0_adc.o(.text)
    adc_disable                              0x08001985   Thumb Code    12  gd32f1x0_adc.o(.text)
    adc_calibration_enable                   0x08001995   Thumb Code    32  gd32f1x0_adc.o(.text)
    adc_dma_mode_enable                      0x080019b9   Thumb Code    12  gd32f1x0_adc.o(.text)
    adc_dma_mode_disable                     0x080019c9   Thumb Code    12  gd32f1x0_adc.o(.text)
    adc_tempsensor_vrefint_enable            0x080019d9   Thumb Code    12  gd32f1x0_adc.o(.text)
    adc_tempsensor_vrefint_disable           0x080019e9   Thumb Code    12  gd32f1x0_adc.o(.text)
    adc_vbat_enable                          0x080019f9   Thumb Code    12  gd32f1x0_adc.o(.text)
    adc_vbat_disable                         0x08001a09   Thumb Code    12  gd32f1x0_adc.o(.text)
    adc_discontinuous_mode_config            0x08001a19   Thumb Code    60  gd32f1x0_adc.o(.text)
    adc_special_function_config              0x08001a59   Thumb Code    80  gd32f1x0_adc.o(.text)
    adc_data_alignment_config                0x08001aad   Thumb Code    20  gd32f1x0_adc.o(.text)
    adc_channel_length_config                0x08001ac5   Thumb Code    56  gd32f1x0_adc.o(.text)
    adc_regular_channel_config               0x08001b01   Thumb Code   136  gd32f1x0_adc.o(.text)
    adc_inserted_channel_config              0x08001b8d   Thumb Code    84  gd32f1x0_adc.o(.text)
    adc_inserted_channel_offset_config       0x08001be5   Thumb Code    28  gd32f1x0_adc.o(.text)
    adc_external_trigger_config              0x08001c05   Thumb Code    56  gd32f1x0_adc.o(.text)
    adc_external_trigger_source_config       0x08001c41   Thumb Code    36  gd32f1x0_adc.o(.text)
    adc_software_trigger_enable              0x08001c69   Thumb Code    28  gd32f1x0_adc.o(.text)
    adc_regular_data_read                    0x08001c89   Thumb Code     8  gd32f1x0_adc.o(.text)
    adc_inserted_data_read                   0x08001c95   Thumb Code    36  gd32f1x0_adc.o(.text)
    adc_flag_get                             0x08001cbd   Thumb Code    12  gd32f1x0_adc.o(.text)
    adc_flag_clear                           0x08001ccd   Thumb Code     4  gd32f1x0_adc.o(.text)
    adc_interrupt_flag_get                   0x08001cd5   Thumb Code    48  gd32f1x0_adc.o(.text)
    adc_interrupt_flag_clear                 0x08001d09   Thumb Code     4  gd32f1x0_adc.o(.text)
    adc_interrupt_enable                     0x08001d11   Thumb Code    40  gd32f1x0_adc.o(.text)
    adc_interrupt_disable                    0x08001d3d   Thumb Code    40  gd32f1x0_adc.o(.text)
    adc_watchdog_single_channel_enable       0x08001d69   Thumb Code    28  gd32f1x0_adc.o(.text)
    adc_watchdog_group_channel_enable        0x08001d91   Thumb Code    32  gd32f1x0_adc.o(.text)
    adc_watchdog_disable                     0x08001dc5   Thumb Code    12  gd32f1x0_adc.o(.text)
    adc_watchdog_threshold_config            0x08001dd9   Thumb Code    16  gd32f1x0_adc.o(.text)
    dma_deinit                               0x08001e01   Thumb Code    44  gd32f1x0_dma.o(.text)
    dma_struct_para_init                     0x08001e31   Thumb Code    24  gd32f1x0_dma.o(.text)
    dma_init                                 0x08001e49   Thumb Code   112  gd32f1x0_dma.o(.text)
    dma_circulation_enable                   0x08001ebd   Thumb Code    16  gd32f1x0_dma.o(.text)
    dma_circulation_disable                  0x08001ed1   Thumb Code    16  gd32f1x0_dma.o(.text)
    dma_memory_to_memory_enable              0x08001ee5   Thumb Code    16  gd32f1x0_dma.o(.text)
    dma_memory_to_memory_disable             0x08001ef9   Thumb Code    16  gd32f1x0_dma.o(.text)
    dma_channel_enable                       0x08001f0d   Thumb Code    16  gd32f1x0_dma.o(.text)
    dma_channel_disable                      0x08001f21   Thumb Code    16  gd32f1x0_dma.o(.text)
    dma_periph_address_config                0x08001f35   Thumb Code     4  gd32f1x0_dma.o(.text)
    dma_memory_address_config                0x08001f3d   Thumb Code     4  gd32f1x0_dma.o(.text)
    dma_transfer_number_config               0x08001f45   Thumb Code     4  gd32f1x0_dma.o(.text)
    dma_transfer_number_get                  0x08001f4d   Thumb Code    12  gd32f1x0_dma.o(.text)
    dma_priority_config                      0x08001f5d   Thumb Code    16  gd32f1x0_dma.o(.text)
    dma_memory_width_config                  0x08001f71   Thumb Code    16  gd32f1x0_dma.o(.text)
    dma_periph_width_config                  0x08001f85   Thumb Code    16  gd32f1x0_dma.o(.text)
    dma_memory_increase_enable               0x08001f99   Thumb Code    16  gd32f1x0_dma.o(.text)
    dma_memory_increase_disable              0x08001fad   Thumb Code    16  gd32f1x0_dma.o(.text)
    dma_periph_increase_enable               0x08001fc1   Thumb Code    16  gd32f1x0_dma.o(.text)
    dma_periph_increase_disable              0x08001fd5   Thumb Code    16  gd32f1x0_dma.o(.text)
    dma_transfer_direction_config            0x08001fe9   Thumb Code    28  gd32f1x0_dma.o(.text)
    dma_interrupt_flag_get                   0x08002009   Thumb Code    72  gd32f1x0_dma.o(.text)
    dma_interrupt_flag_clear                 0x08002095   Thumb Code    16  gd32f1x0_dma.o(.text)
    dma_interrupt_enable                     0x080020a9   Thumb Code    12  gd32f1x0_dma.o(.text)
    dma_interrupt_disable                    0x080020b9   Thumb Code    20  gd32f1x0_dma.o(.text)
    dma_flag_get                             0x080020d1   Thumb Code    20  gd32f1x0_dma.o(.text)
    dma_flag_clear                           0x080020e9   Thumb Code    16  gd32f1x0_dma.o(.text)
    exti_deinit                              0x08002115   Thumb Code    20  gd32f1x0_exti.o(.text)
    exti_init                                0x0800212d   Thumb Code    92  gd32f1x0_exti.o(.text)
    exti_interrupt_enable                    0x0800218d   Thumb Code     4  gd32f1x0_exti.o(.text)
    exti_event_enable                        0x08002195   Thumb Code     4  gd32f1x0_exti.o(.text)
    exti_interrupt_disable                   0x0800219d   Thumb Code     4  gd32f1x0_exti.o(.text)
    exti_event_disable                       0x080021a5   Thumb Code     4  gd32f1x0_exti.o(.text)
    exti_flag_get                            0x080021ad   Thumb Code    12  gd32f1x0_exti.o(.text)
    exti_flag_clear                          0x080021bd   Thumb Code     8  gd32f1x0_exti.o(.text)
    exti_interrupt_flag_get                  0x080021c9   Thumb Code    24  gd32f1x0_exti.o(.text)
    exti_interrupt_flag_clear                0x080021e5   Thumb Code     8  gd32f1x0_exti.o(.text)
    exti_software_interrupt_enable           0x080021f1   Thumb Code     4  gd32f1x0_exti.o(.text)
    exti_software_interrupt_disable          0x080021f9   Thumb Code     4  gd32f1x0_exti.o(.text)
    fmc_unlock                               0x08002215   Thumb Code    20  gd32f1x0_fmc.o(.text)
    fmc_lock                                 0x08002235   Thumb Code    12  gd32f1x0_fmc.o(.text)
    fmc_wscnt_set                            0x08002245   Thumb Code    16  gd32f1x0_fmc.o(.text)
    fmc_wait_state_enable                    0x08002259   Thumb Code    12  gd32f1x0_fmc.o(.text)
    fmc_wait_state_disable                   0x08002269   Thumb Code    12  gd32f1x0_fmc.o(.text)
    fmc_page_erase                           0x08002279   Thumb Code    48  gd32f1x0_fmc.o(.text)
    fmc_mass_erase                           0x080022e9   Thumb Code    44  gd32f1x0_fmc.o(.text)
    fmc_word_program                         0x08002319   Thumb Code    32  gd32f1x0_fmc.o(.text)
    fmc_halfword_program                     0x0800233d   Thumb Code    32  gd32f1x0_fmc.o(.text)
    ob_unlock                                0x08002361   Thumb Code    20  gd32f1x0_fmc.o(.text)
    ob_lock                                  0x08002381   Thumb Code    12  gd32f1x0_fmc.o(.text)
    ob_reset                                 0x08002391   Thumb Code    12  gd32f1x0_fmc.o(.text)
    ob_erase                                 0x080023a1   Thumb Code    88  gd32f1x0_fmc.o(.text)
    ob_obstat_plevel_get                     0x08002401   Thumb Code    12  gd32f1x0_fmc.o(.text)
    ob_write_protection_enable               0x08002411   Thumb Code    76  gd32f1x0_fmc.o(.text)
    ob_security_protection_config            0x08002465   Thumb Code    68  gd32f1x0_fmc.o(.text)
    ob_user_write                            0x080024b1   Thumb Code    72  gd32f1x0_fmc.o(.text)
    ob_data_program                          0x08002501   Thumb Code    68  gd32f1x0_fmc.o(.text)
    ob_user_get                              0x0800254d   Thumb Code    12  gd32f1x0_fmc.o(.text)
    ob_data_get                              0x0800255d   Thumb Code     8  gd32f1x0_fmc.o(.text)
    ob_write_protection_get                  0x08002569   Thumb Code     8  gd32f1x0_fmc.o(.text)
    fmc_interrupt_enable                     0x08002575   Thumb Code     4  gd32f1x0_fmc.o(.text)
    fmc_interrupt_disable                    0x0800257d   Thumb Code    12  gd32f1x0_fmc.o(.text)
    fmc_flag_get                             0x0800258d   Thumb Code    12  gd32f1x0_fmc.o(.text)
    fmc_flag_clear                           0x0800259d   Thumb Code     4  gd32f1x0_fmc.o(.text)
    fmc_interrupt_flag_get                   0x080025a5   Thumb Code    12  gd32f1x0_fmc.o(.text)
    fmc_interrupt_flag_clear                 0x080025b5   Thumb Code     4  gd32f1x0_fmc.o(.text)
    fwdgt_write_disable                      0x0800261d   Thumb Code     8  gd32f1x0_fwdgt.o(.text)
    fwdgt_counter_reload                     0x08002629   Thumb Code    12  gd32f1x0_fwdgt.o(.text)
    fwdgt_enable                             0x08002639   Thumb Code    12  gd32f1x0_fwdgt.o(.text)
    fwdgt_window_value_config                0x08002649   Thumb Code    40  gd32f1x0_fwdgt.o(.text)
    fwdgt_config                             0x08002679   Thumb Code    68  gd32f1x0_fwdgt.o(.text)
    fwdgt_flag_get                           0x080026c5   Thumb Code    12  gd32f1x0_fwdgt.o(.text)
    gpio_deinit                              0x080026d5   Thumb Code    52  gd32f1x0_gpio.o(.text)
    gpio_mode_set                            0x08002715   Thumb Code    78  gd32f1x0_gpio.o(.text)
    gpio_output_options_set                  0x08002763   Thumb Code    58  gd32f1x0_gpio.o(.text)
    gpio_bit_set                             0x0800279d   Thumb Code     4  gd32f1x0_gpio.o(.text)
    gpio_bit_reset                           0x080027a1   Thumb Code     4  gd32f1x0_gpio.o(.text)
    gpio_bit_write                           0x080027a5   Thumb Code    12  gd32f1x0_gpio.o(.text)
    gpio_port_write                          0x080027b1   Thumb Code     4  gd32f1x0_gpio.o(.text)
    gpio_input_bit_get                       0x080027b5   Thumb Code    10  gd32f1x0_gpio.o(.text)
    gpio_input_port_get                      0x080027bf   Thumb Code     6  gd32f1x0_gpio.o(.text)
    gpio_output_bit_get                      0x080027c5   Thumb Code    10  gd32f1x0_gpio.o(.text)
    gpio_output_port_get                     0x080027cf   Thumb Code     6  gd32f1x0_gpio.o(.text)
    gpio_af_set                              0x080027d5   Thumb Code    96  gd32f1x0_gpio.o(.text)
    gpio_pin_lock                            0x08002835   Thumb Code    16  gd32f1x0_gpio.o(.text)
    nvic_priority_group_set                  0x08002845   Thumb Code    12  gd32f1x0_misc.o(.text)
    nvic_irq_enable                          0x08002859   Thumb Code   140  gd32f1x0_misc.o(.text)
    nvic_irq_disable                         0x080028ed   Thumb Code    24  gd32f1x0_misc.o(.text)
    nvic_vector_table_set                    0x08002909   Thumb Code    12  gd32f1x0_misc.o(.text)
    system_lowpower_set                      0x0800291d   Thumb Code    12  gd32f1x0_misc.o(.text)
    system_lowpower_reset                    0x0800292d   Thumb Code    12  gd32f1x0_misc.o(.text)
    systick_clksource_set                    0x0800293d   Thumb Code    20  gd32f1x0_misc.o(.text)
    rcu_deinit                               0x08002955   Thumb Code    80  gd32f1x0_rcu.o(.text)
    rcu_periph_clock_enable                  0x080029b5   Thumb Code    12  gd32f1x0_rcu.o(.text)
    rcu_periph_clock_disable                 0x080029c5   Thumb Code    12  gd32f1x0_rcu.o(.text)
    rcu_periph_clock_sleep_enable            0x080029d5   Thumb Code    12  gd32f1x0_rcu.o(.text)
    rcu_periph_clock_sleep_disable           0x080029e5   Thumb Code    12  gd32f1x0_rcu.o(.text)
    rcu_periph_reset_enable                  0x080029f5   Thumb Code    12  gd32f1x0_rcu.o(.text)
    rcu_periph_reset_disable                 0x08002a05   Thumb Code    12  gd32f1x0_rcu.o(.text)
    rcu_bkp_reset_enable                     0x08002a15   Thumb Code    12  gd32f1x0_rcu.o(.text)
    rcu_bkp_reset_disable                    0x08002a25   Thumb Code    12  gd32f1x0_rcu.o(.text)
    rcu_system_clock_source_config           0x08002a35   Thumb Code    12  gd32f1x0_rcu.o(.text)
    rcu_system_clock_source_get              0x08002a45   Thumb Code    12  gd32f1x0_rcu.o(.text)
    rcu_ahb_clock_config                     0x08002a55   Thumb Code    12  gd32f1x0_rcu.o(.text)
    rcu_apb1_clock_config                    0x08002a65   Thumb Code    12  gd32f1x0_rcu.o(.text)
    rcu_apb2_clock_config                    0x08002a75   Thumb Code    12  gd32f1x0_rcu.o(.text)
    rcu_adc_clock_config                     0x08002a85   Thumb Code    80  gd32f1x0_rcu.o(.text)
    rcu_usbd_clock_config                    0x08002ad9   Thumb Code    12  gd32f1x0_rcu.o(.text)
    rcu_ckout_config                         0x08002ae9   Thumb Code    12  gd32f1x0_rcu.o(.text)
    rcu_pll_config                           0x08002af9   Thumb Code    24  gd32f1x0_rcu.o(.text)
    rcu_usart_clock_config                   0x08002b19   Thumb Code    12  gd32f1x0_rcu.o(.text)
    rcu_cec_clock_config                     0x08002b29   Thumb Code    12  gd32f1x0_rcu.o(.text)
    rcu_rtc_clock_config                     0x08002b39   Thumb Code    12  gd32f1x0_rcu.o(.text)
    rcu_hxtal_prediv_config                  0x08002b49   Thumb Code    12  gd32f1x0_rcu.o(.text)
    rcu_lxtal_drive_capability_config        0x08002b59   Thumb Code    12  gd32f1x0_rcu.o(.text)
    rcu_flag_get                             0x08002b69   Thumb Code    20  gd32f1x0_rcu.o(.text)
    rcu_all_reset_flag_clear                 0x08002b81   Thumb Code    12  gd32f1x0_rcu.o(.text)
    rcu_interrupt_flag_get                   0x08002b91   Thumb Code    12  gd32f1x0_rcu.o(.text)
    rcu_interrupt_flag_clear                 0x08002ba1   Thumb Code     8  gd32f1x0_rcu.o(.text)
    rcu_interrupt_enable                     0x08002bad   Thumb Code     8  gd32f1x0_rcu.o(.text)
    rcu_interrupt_disable                    0x08002bb9   Thumb Code    12  gd32f1x0_rcu.o(.text)
    rcu_osci_stab_wait                       0x08002bc9   Thumb Code   192  gd32f1x0_rcu.o(.text)
    rcu_osci_on                              0x08002c91   Thumb Code    12  gd32f1x0_rcu.o(.text)
    rcu_osci_off                             0x08002ca1   Thumb Code    12  gd32f1x0_rcu.o(.text)
    rcu_osci_bypass_mode_enable              0x08002cb1   Thumb Code    52  gd32f1x0_rcu.o(.text)
    rcu_osci_bypass_mode_disable             0x08002ce9   Thumb Code    52  gd32f1x0_rcu.o(.text)
    rcu_hxtal_clock_monitor_enable           0x08002d21   Thumb Code    12  gd32f1x0_rcu.o(.text)
    rcu_hxtal_clock_monitor_disable          0x08002d31   Thumb Code    12  gd32f1x0_rcu.o(.text)
    rcu_irc8m_adjust_value_set               0x08002d41   Thumb Code     4  gd32f1x0_rcu.o(.text)
    rcu_irc14m_adjust_value_set              0x08002d49   Thumb Code     4  gd32f1x0_rcu.o(.text)
    rcu_voltage_key_unlock                   0x08002d51   Thumb Code    20  gd32f1x0_rcu.o(.text)
    rcu_deepsleep_voltage_set                0x08002d6d   Thumb Code    12  gd32f1x0_rcu.o(.text)
    rcu_power_down_voltage_set               0x08002d7d   Thumb Code    12  gd32f1x0_rcu.o(.text)
    rcu_clock_freq_get                       0x08002d8d   Thumb Code   248  gd32f1x0_rcu.o(.text)
    syscfg_deinit                            0x08002ef5   Thumb Code    22  gd32f1x0_syscfg.o(.text)
    syscfg_dma_remap_enable                  0x08002f0d   Thumb Code     4  gd32f1x0_syscfg.o(.text)
    syscfg_dma_remap_disable                 0x08002f15   Thumb Code    12  gd32f1x0_syscfg.o(.text)
    syscfg_high_current_enable               0x08002f25   Thumb Code    12  gd32f1x0_syscfg.o(.text)
    syscfg_high_current_disable              0x08002f35   Thumb Code    12  gd32f1x0_syscfg.o(.text)
    syscfg_exti_line_config                  0x08002f45   Thumb Code    64  gd32f1x0_syscfg.o(.text)
    syscfg_lock_config                       0x08002f89   Thumb Code     4  gd32f1x0_syscfg.o(.text)
    syscfg_flag_get                          0x08002f91   Thumb Code    12  gd32f1x0_syscfg.o(.text)
    syscfg_flag_clear                        0x08002fa1   Thumb Code     4  gd32f1x0_syscfg.o(.text)
    timer_deinit                             0x08002fb1   Thumb Code   116  gd32f1x0_timer.o(.text)
    timer_struct_para_init                   0x08003041   Thumb Code    16  gd32f1x0_timer.o(.text)
    timer_init                               0x08003051   Thumb Code   168  gd32f1x0_timer.o(.text)
    timer_enable                             0x08003111   Thumb Code    10  gd32f1x0_timer.o(.text)
    timer_disable                            0x0800311b   Thumb Code    10  gd32f1x0_timer.o(.text)
    timer_auto_reload_shadow_enable          0x08003125   Thumb Code    10  gd32f1x0_timer.o(.text)
    timer_auto_reload_shadow_disable         0x0800312f   Thumb Code    10  gd32f1x0_timer.o(.text)
    timer_update_event_enable                0x08003139   Thumb Code    10  gd32f1x0_timer.o(.text)
    timer_update_event_disable               0x08003143   Thumb Code    10  gd32f1x0_timer.o(.text)
    timer_counter_alignment                  0x0800314d   Thumb Code    16  gd32f1x0_timer.o(.text)
    timer_counter_up_direction               0x0800315d   Thumb Code    10  gd32f1x0_timer.o(.text)
    timer_counter_down_direction             0x08003167   Thumb Code    10  gd32f1x0_timer.o(.text)
    timer_prescaler_config                   0x08003171   Thumb Code    16  gd32f1x0_timer.o(.text)
    timer_repetition_value_config            0x08003181   Thumb Code     4  gd32f1x0_timer.o(.text)
    timer_autoreload_value_config            0x08003185   Thumb Code     4  gd32f1x0_timer.o(.text)
    timer_counter_value_config               0x08003189   Thumb Code     4  gd32f1x0_timer.o(.text)
    timer_counter_read                       0x0800318d   Thumb Code     4  gd32f1x0_timer.o(.text)
    timer_prescaler_read                     0x08003191   Thumb Code     6  gd32f1x0_timer.o(.text)
    timer_single_pulse_mode_config           0x08003197   Thumb Code    24  gd32f1x0_timer.o(.text)
    timer_update_source_config               0x080031af   Thumb Code    24  gd32f1x0_timer.o(.text)
    timer_ocpre_clear_source_config          0x080031c7   Thumb Code    24  gd32f1x0_timer.o(.text)
    timer_interrupt_enable                   0x080031df   Thumb Code     8  gd32f1x0_timer.o(.text)
    timer_interrupt_disable                  0x080031e7   Thumb Code     4  gd32f1x0_timer.o(.text)
    timer_interrupt_flag_get                 0x080031eb   Thumb Code    20  gd32f1x0_timer.o(.text)
    timer_interrupt_flag_clear               0x080031ff   Thumb Code     6  gd32f1x0_timer.o(.text)
    timer_flag_get                           0x08003205   Thumb Code    10  gd32f1x0_timer.o(.text)
    timer_flag_clear                         0x0800320f   Thumb Code     6  gd32f1x0_timer.o(.text)
    timer_dma_enable                         0x08003215   Thumb Code     8  gd32f1x0_timer.o(.text)
    timer_dma_disable                        0x0800321d   Thumb Code     4  gd32f1x0_timer.o(.text)
    timer_channel_dma_request_source_select  0x08003221   Thumb Code    24  gd32f1x0_timer.o(.text)
    timer_dma_transfer_config                0x08003239   Thumb Code    22  gd32f1x0_timer.o(.text)
    timer_event_software_generate            0x0800324f   Thumb Code     8  gd32f1x0_timer.o(.text)
    timer_break_struct_para_init             0x08003257   Thumb Code    10  gd32f1x0_timer.o(.text)
    timer_break_config                       0x08003261   Thumb Code    32  gd32f1x0_timer.o(.text)
    timer_break_enable                       0x08003281   Thumb Code    10  gd32f1x0_timer.o(.text)
    timer_break_disable                      0x0800328b   Thumb Code    10  gd32f1x0_timer.o(.text)
    timer_automatic_output_enable            0x08003295   Thumb Code    10  gd32f1x0_timer.o(.text)
    timer_automatic_output_disable           0x0800329f   Thumb Code    10  gd32f1x0_timer.o(.text)
    timer_primary_output_config              0x080032a9   Thumb Code    18  gd32f1x0_timer.o(.text)
    timer_channel_control_shadow_config      0x080032bb   Thumb Code    16  gd32f1x0_timer.o(.text)
    timer_channel_control_shadow_update_config 0x080032cb   Thumb Code    24  gd32f1x0_timer.o(.text)
    timer_channel_output_struct_para_init    0x080032e3   Thumb Code    12  gd32f1x0_timer.o(.text)
    timer_channel_output_config              0x080032f1   Thumb Code   500  gd32f1x0_timer.o(.text)
    timer_channel_output_mode_config         0x080034f9   Thumb Code    54  gd32f1x0_timer.o(.text)
    timer_channel_output_pulse_value_config  0x0800352f   Thumb Code    14  gd32f1x0_timer.o(.text)
    timer_channel_output_shadow_config       0x0800353d   Thumb Code    54  gd32f1x0_timer.o(.text)
    timer_channel_output_fast_config         0x08003575   Thumb Code    54  gd32f1x0_timer.o(.text)
    timer_channel_output_clear_config        0x080035ad   Thumb Code    54  gd32f1x0_timer.o(.text)
    timer_channel_output_polarity_config     0x080035e5   Thumb Code    66  gd32f1x0_timer.o(.text)
    timer_channel_complementary_output_polarity_config 0x08003629   Thumb Code    66  gd32f1x0_timer.o(.text)
    timer_channel_output_state_config        0x0800366d   Thumb Code    66  gd32f1x0_timer.o(.text)
    timer_channel_complementary_output_state_config 0x080036af   Thumb Code    52  gd32f1x0_timer.o(.text)
    timer_channel_input_struct_para_init     0x080036e3   Thumb Code    12  gd32f1x0_timer.o(.text)
    timer_input_capture_config               0x080036f1   Thumb Code   256  gd32f1x0_timer.o(.text)
    timer_channel_input_capture_prescaler_config 0x080037f1   Thumb Code    54  gd32f1x0_timer.o(.text)
    timer_channel_capture_value_register_read 0x08003827   Thumb Code    18  gd32f1x0_timer.o(.text)
    timer_input_pwm_capture_config           0x08003839   Thumb Code   344  gd32f1x0_timer.o(.text)
    timer_hall_mode_config                   0x08003991   Thumb Code    24  gd32f1x0_timer.o(.text)
    timer_input_trigger_source_select        0x080039a9   Thumb Code     8  gd32f1x0_timer.o(.text)
    timer_master_output_trigger_source_select 0x080039b1   Thumb Code    16  gd32f1x0_timer.o(.text)
    timer_slave_mode_select                  0x080039c1   Thumb Code     8  gd32f1x0_timer.o(.text)
    timer_master_slave_mode_config           0x080039c9   Thumb Code    24  gd32f1x0_timer.o(.text)
    timer_external_trigger_config            0x080039e1   Thumb Code    28  gd32f1x0_timer.o(.text)
    timer_quadrature_decoder_mode_config     0x080039fd   Thumb Code    64  gd32f1x0_timer.o(.text)
    timer_internal_clock_config              0x08003a3d   Thumb Code    10  gd32f1x0_timer.o(.text)
    timer_internal_trigger_as_external_clock_config 0x08003a47   Thumb Code    10  gd32f1x0_timer.o(.text)
    timer_external_trigger_as_external_clock_config 0x08003a51   Thumb Code   122  gd32f1x0_timer.o(.text)
    timer_external_clock_mode0_config        0x08003acb   Thumb Code    26  gd32f1x0_timer.o(.text)
    timer_external_clock_mode1_config        0x08003ae5   Thumb Code    18  gd32f1x0_timer.o(.text)
    timer_external_clock_mode1_disable       0x08003af7   Thumb Code    10  gd32f1x0_timer.o(.text)
    timer_channel_remap_config               0x08003b01   Thumb Code     4  gd32f1x0_timer.o(.text)
    Reset_Handler                            0x08003b39   Thumb Code     8  startup_gd32f1x0.o(.text)
    ADC_CMP_IRQHandler                       0x08003b53   Thumb Code     0  startup_gd32f1x0.o(.text)
    CAN0_RX0_IRQHandler                      0x08003b53   Thumb Code     0  startup_gd32f1x0.o(.text)
    CAN0_RX1_IRQHandler                      0x08003b53   Thumb Code     0  startup_gd32f1x0.o(.text)
    CAN0_SCE_IRQHandler                      0x08003b53   Thumb Code     0  startup_gd32f1x0.o(.text)
    CAN0_TX_IRQHandler                       0x08003b53   Thumb Code     0  startup_gd32f1x0.o(.text)
    CAN1_RX0_IRQHandler                      0x08003b53   Thumb Code     0  startup_gd32f1x0.o(.text)
    CAN1_RX1_IRQHandler                      0x08003b53   Thumb Code     0  startup_gd32f1x0.o(.text)
    CAN1_SCE_IRQHandler                      0x08003b53   Thumb Code     0  startup_gd32f1x0.o(.text)
    CAN1_TX_IRQHandler                       0x08003b53   Thumb Code     0  startup_gd32f1x0.o(.text)
    CEC_IRQHandler                           0x08003b53   Thumb Code     0  startup_gd32f1x0.o(.text)
    DMA_Channel1_2_IRQHandler                0x08003b53   Thumb Code     0  startup_gd32f1x0.o(.text)
    DMA_Channel3_4_IRQHandler                0x08003b53   Thumb Code     0  startup_gd32f1x0.o(.text)
    DMA_Channel5_6_IRQHandler                0x08003b53   Thumb Code     0  startup_gd32f1x0.o(.text)
    FMC_IRQHandler                           0x08003b53   Thumb Code     0  startup_gd32f1x0.o(.text)
    I2C0_ER_IRQHandler                       0x08003b53   Thumb Code     0  startup_gd32f1x0.o(.text)
    I2C0_EV_IRQHandler                       0x08003b53   Thumb Code     0  startup_gd32f1x0.o(.text)
    I2C1_ER_IRQHandler                       0x08003b53   Thumb Code     0  startup_gd32f1x0.o(.text)
    I2C1_EV_IRQHandler                       0x08003b53   Thumb Code     0  startup_gd32f1x0.o(.text)
    I2C2_ER_IRQHandler                       0x08003b53   Thumb Code     0  startup_gd32f1x0.o(.text)
    I2C2_EV_IRQHandler                       0x08003b53   Thumb Code     0  startup_gd32f1x0.o(.text)
    LVD_IRQHandler                           0x08003b53   Thumb Code     0  startup_gd32f1x0.o(.text)
    RCU_IRQHandler                           0x08003b53   Thumb Code     0  startup_gd32f1x0.o(.text)
    RTC_IRQHandler                           0x08003b53   Thumb Code     0  startup_gd32f1x0.o(.text)
    SLCD_IRQHandler                          0x08003b53   Thumb Code     0  startup_gd32f1x0.o(.text)
    SPI0_IRQHandler                          0x08003b53   Thumb Code     0  startup_gd32f1x0.o(.text)
    SPI1_IRQHandler                          0x08003b53   Thumb Code     0  startup_gd32f1x0.o(.text)
    SPI2_IRQHandler                          0x08003b53   Thumb Code     0  startup_gd32f1x0.o(.text)
    TIMER0_Channel_IRQHandler                0x08003b53   Thumb Code     0  startup_gd32f1x0.o(.text)
    TIMER14_IRQHandler                       0x08003b53   Thumb Code     0  startup_gd32f1x0.o(.text)
    TIMER15_IRQHandler                       0x08003b53   Thumb Code     0  startup_gd32f1x0.o(.text)
    TIMER16_IRQHandler                       0x08003b53   Thumb Code     0  startup_gd32f1x0.o(.text)
    TIMER1_IRQHandler                        0x08003b53   Thumb Code     0  startup_gd32f1x0.o(.text)
    TIMER2_IRQHandler                        0x08003b53   Thumb Code     0  startup_gd32f1x0.o(.text)
    TIMER5_DAC_IRQHandler                    0x08003b53   Thumb Code     0  startup_gd32f1x0.o(.text)
    TSI_IRQHandler                           0x08003b53   Thumb Code     0  startup_gd32f1x0.o(.text)
    USART0_IRQHandler                        0x08003b53   Thumb Code     0  startup_gd32f1x0.o(.text)
    USART1_IRQHandler                        0x08003b53   Thumb Code     0  startup_gd32f1x0.o(.text)
    USBDWakeUp_IRQHandler                    0x08003b53   Thumb Code     0  startup_gd32f1x0.o(.text)
    USBD_HP_IRQHandler                       0x08003b53   Thumb Code     0  startup_gd32f1x0.o(.text)
    USBD_LP_IRQHandler                       0x08003b53   Thumb Code     0  startup_gd32f1x0.o(.text)
    WWDGT_IRQHandler                         0x08003b53   Thumb Code     0  startup_gd32f1x0.o(.text)
    SystemInit                               0x08003b5d   Thumb Code   164  system_gd32f1x0.o(.text)
    SystemCoreClockUpdate                    0x08003c15   Thumb Code    80  system_gd32f1x0.o(.text)
    __aeabi_memcpy                           0x08003c85   Thumb Code    36  memcpya.o(.text)
    __aeabi_memcpy4                          0x08003c85   Thumb Code     0  memcpya.o(.text)
    __aeabi_memcpy8                          0x08003c85   Thumb Code     0  memcpya.o(.text)
    __aeabi_memset                           0x08003ca9   Thumb Code    14  memseta.o(.text)
    __aeabi_memset4                          0x08003ca9   Thumb Code     0  memseta.o(.text)
    __aeabi_memset8                          0x08003ca9   Thumb Code     0  memseta.o(.text)
    __aeabi_memclr                           0x08003cb7   Thumb Code     4  memseta.o(.text)
    __aeabi_memclr4                          0x08003cb7   Thumb Code     0  memseta.o(.text)
    __aeabi_memclr8                          0x08003cb7   Thumb Code     0  memseta.o(.text)
    _memset$wrapper                          0x08003cbb   Thumb Code    18  memseta.o(.text)
    memcmp                                   0x08003ccd   Thumb Code    26  memcmp.o(.text)
    __aeabi_fadd                             0x08003ce7   Thumb Code   164  fadd.o(.text)
    __aeabi_fsub                             0x08003d8b   Thumb Code     6  fadd.o(.text)
    __aeabi_frsub                            0x08003d91   Thumb Code     6  fadd.o(.text)
    __aeabi_fmul                             0x08003d97   Thumb Code   100  fmul.o(.text)
    __aeabi_fdiv                             0x08003dfb   Thumb Code   124  fdiv.o(.text)
    __aeabi_dadd                             0x08003e77   Thumb Code   322  dadd.o(.text)
    __aeabi_dsub                             0x08003fb9   Thumb Code     6  dadd.o(.text)
    __aeabi_drsub                            0x08003fbf   Thumb Code     6  dadd.o(.text)
    __aeabi_dmul                             0x08003fc5   Thumb Code   228  dmul.o(.text)
    __aeabi_ddiv                             0x080040a9   Thumb Code   222  ddiv.o(.text)
    __aeabi_fcmple                           0x08004187   Thumb Code    28  fcmple.o(.text)
    __aeabi_fcmplt                           0x080041a3   Thumb Code    28  fcmplt.o(.text)
    __aeabi_fcmpgt                           0x080041bf   Thumb Code    28  fcmpgt.o(.text)
    __aeabi_i2f                              0x080041db   Thumb Code    18  fflti.o(.text)
    __aeabi_ui2f                             0x080041ed   Thumb Code    10  ffltui.o(.text)
    __aeabi_i2d                              0x080041f7   Thumb Code    34  dflti.o(.text)
    __aeabi_ui2d                             0x08004219   Thumb Code    26  dfltui.o(.text)
    __aeabi_f2iz                             0x08004233   Thumb Code    50  ffixi.o(.text)
    __aeabi_f2lz                             0x08004265   Thumb Code    66  ffixl.o(.text)
    __aeabi_d2iz                             0x080042a7   Thumb Code    62  dfixi.o(.text)
    __aeabi_f2d                              0x080042e5   Thumb Code    38  f2d.o(.text)
    __aeabi_d2f                              0x0800430b   Thumb Code    56  d2f.o(.text)
    __aeabi_llsl                             0x08004343   Thumb Code    30  llshl.o(.text)
    _ll_shift_l                              0x08004343   Thumb Code     0  llshl.o(.text)
    __aeabi_llsr                             0x08004361   Thumb Code    32  llushr.o(.text)
    _ll_ushift_r                             0x08004361   Thumb Code     0  llushr.o(.text)
    __aeabi_lasr                             0x08004381   Thumb Code    36  llsshr.o(.text)
    _ll_sshift_r                             0x08004381   Thumb Code     0  llsshr.o(.text)
    __I$use$fp                               0x080043a5   Thumb Code     0  iusefp.o(.text)
    _float_round                             0x080043a5   Thumb Code    18  fepilogue.o(.text)
    _float_epilogue                          0x080043b7   Thumb Code    92  fepilogue.o(.text)
    _double_round                            0x08004413   Thumb Code    30  depilogue.o(.text)
    _double_epilogue                         0x08004431   Thumb Code   156  depilogue.o(.text)
    __scatterload                            0x080044cd   Thumb Code    38  init.o(.text)
    __scatterload_rt2                        0x080044cd   Thumb Code     0  init.o(.text)
    __scatterload_copy                       0x080044fd   Thumb Code    14  handlers.o(i.__scatterload_copy)
    __scatterload_null                       0x0800450b   Thumb Code     2  handlers.o(i.__scatterload_null)
    __scatterload_zeroinit                   0x0800450d   Thumb Code    14  handlers.o(i.__scatterload_zeroinit)
    hall_to_pos                              0x08004536   Data           8  bldc.o(.rodata.hall_to_pos)
    lookUpTableAngle                         0x08004540   Data         724  main.o(.rodata.lookUpTableAngle)
    Region$$Table$$Base                      0x08004ae4   Number         0  anon$$obj.o(Region$$Table)
    Region$$Table$$Limit                     0x08004b04   Number         0  anon$$obj.o(Region$$Table)
    wState                                   0x20000000   Data           1  main.o(.data..L_MergedGlobals)
    speedLimit                               0x20000002   Data           2  main.o(.data..L_MergedGlobals)
    iFILTER_SHIFT                            0x20000004   Data           1  bldc.o(.data..L_MergedGlobals)
    iFILTER_SHIFTDo                          0x20000005   Data           1  bldc.o(.data..L_MergedGlobals)
    offsetdc                                 0x20000006   Data           2  bldc.o(.data..L_MergedGlobals)
    batteryVoltage                           0x20000008   Data           4  bldc.o(.data..L_MergedGlobals)
    currentDC                                0x2000000c   Data           4  bldc.o(.data..L_MergedGlobals)
    revs32ScaleSlow                          0x20000010   Data           4  bldc.o(.data..L_MergedGlobals)
    iDriverDoEvery                           0x20000014   Data           2  driver.o(.data..L_MergedGlobals)
    aoPIDInit                                0x20000018   Data          84  driver.o(.data..L_MergedGlobals)
    bRemoteInit                              0x2000006c   Data           1  remotedummy.o(.data..L_MergedGlobals)
    iRemotePeriod                            0x2000006d   Data           1  remotedummy.o(.data..L_MergedGlobals)
    iOldRemotePeriod                         0x2000006e   Data           1  remotedummy.o(.data..L_MergedGlobals)
    fRemoteScaleMax                          0x20000070   Data           4  remotedummy.o(.data..L_MergedGlobals)
    SystemCoreClock                          0x20000074   Data           4  system_gd32f1x0.o(.data.SystemCoreClock)
    sectorChange                             0x20000078   Data           1  bldcsine.o(.bss..L_MergedGlobals)
    sector                                   0x20000079   Data           1  bldcsine.o(.bss..L_MergedGlobals)
    sector10x                                0x2000007a   Data           1  bldcsine.o(.bss..L_MergedGlobals)
    bInterrupt                               0x2000007b   Data           1  bldcsine.o(.bss..L_MergedGlobals)
    hall_last                                0x2000007c   Data           1  bldcsine.o(.bss..L_MergedGlobals)
    angle_deg                                0x2000007e   Data           2  bldcsine.o(.bss..L_MergedGlobals)
    angle_deg_add                            0x20000080   Data           2  bldcsine.o(.bss..L_MergedGlobals)
    angle_deg_final                          0x20000082   Data           2  bldcsine.o(.bss..L_MergedGlobals)
    angle_idx                                0x20000084   Data           2  bldcsine.o(.bss..L_MergedGlobals)
    hall_time_last                           0x20000086   Data           2  bldcsine.o(.bss..L_MergedGlobals)
    hall_time_step                           0x20000088   Data           2  bldcsine.o(.bss..L_MergedGlobals)
    iDT                                      0x2000008a   Data           2  bldcsine.o(.bss..L_MergedGlobals)
    iAdd                                     0x2000008c   Data           2  bldcsine.o(.bss..L_MergedGlobals)
    pwmGo                                    0x20000090   Data           4  bldcsine.o(.bss..L_MergedGlobals)
    hall_time_step_LPR                       0x20000094   Data           4  bldcsine.o(.bss..L_MergedGlobals)
    hall_time_step_LP                        0x20000098   Data           4  bldcsine.o(.bss..L_MergedGlobals)
    aHallEXTI                                0x2000009c   Data          12  bldcsine.o(.bss..L_MergedGlobals)
    dev_id                                   0x200000a8   Data           4  setup.o(.bss..L_MergedGlobals)
    pll_mul                                  0x200000ac   Data           4  setup.o(.bss..L_MergedGlobals)
    timerBldc_paramter_struct                0x200000b0   Data          16  setup.o(.bss..L_MergedGlobals)
    timerBldc_oc_parameter_struct            0x200000c0   Data          16  setup.o(.bss..L_MergedGlobals)
    timerBldc_break_parameter_struct         0x200000d0   Data          24  setup.o(.bss..L_MergedGlobals)
    timedOut                                 0x200000e8   Data           1  it.o(.bss..L_MergedGlobals)
    timeoutCounter_ms                        0x200000ec   Data           4  it.o(.bss..L_MergedGlobals)
    msTicks                                  0x200000f0   Data           4  it.o(.bss..L_MergedGlobals)
    iPwmCounter                              0x200000f4   Data           4  it.o(.bss..L_MergedGlobals)
    iPwmTime                                 0x200000f8   Data           4  it.o(.bss..L_MergedGlobals)
    iPwmRate                                 0x200000fc   Data           4  it.o(.bss..L_MergedGlobals)
    iAdcCounter                              0x20000100   Data           4  it.o(.bss..L_MergedGlobals)
    iAdcTime                                 0x20000104   Data           4  it.o(.bss..L_MergedGlobals)
    iAdcRate                                 0x20000108   Data           4  it.o(.bss..L_MergedGlobals)
    iDrivingMode                             0x2000010c   Data           1  main.o(.bss..L_MergedGlobals.1)
    bRemoteTimeout                           0x2000010d   Data           1  main.o(.bss..L_MergedGlobals.1)
    bPilotTimeout                            0x2000010e   Data           1  main.o(.bss..L_MergedGlobals.1)
    enable                                   0x2000010f   Data           1  main.o(.bss..L_MergedGlobals.1)
    pwmSlave                                 0x20000110   Data           2  main.o(.bss..L_MergedGlobals.1)
    iBug                                     0x20000114   Data           4  main.o(.bss..L_MergedGlobals.1)
    steerCounter                             0x20000118   Data           4  main.o(.bss..L_MergedGlobals.1)
    speed                                    0x2000011c   Data           4  main.o(.bss..L_MergedGlobals.1)
    speedShutoff                             0x20000120   Data           4  main.o(.bss..L_MergedGlobals.1)
    steer                                    0x20000124   Data           4  main.o(.bss..L_MergedGlobals.1)
    inactivity_timeout_counter               0x20000128   Data           4  main.o(.bss..L_MergedGlobals.1)
    iTimeNextLoop                            0x2000012c   Data           4  main.o(.bss..L_MergedGlobals.1)
    bldc_enable                              0x20000130   Data           1  bldc.o(.bss..L_MergedGlobals.1)
    hall                                     0x20000131   Data           1  bldc.o(.bss..L_MergedGlobals.1)
    iDrivingModeOverride                     0x20000132   Data           1  bldc.o(.bss..L_MergedGlobals.1)
    buzzerToggle                             0x20000133   Data           1  bldc.o(.bss..L_MergedGlobals.1)
    buzzerFreq                               0x20000134   Data           1  bldc.o(.bss..L_MergedGlobals.1)
    buzzerPattern                            0x20000135   Data           1  bldc.o(.bss..L_MergedGlobals.1)
    hall_a                                   0x20000136   Data           1  bldc.o(.bss..L_MergedGlobals.1)
    hall_b                                   0x20000137   Data           1  bldc.o(.bss..L_MergedGlobals.1)
    hall_c                                   0x20000138   Data           1  bldc.o(.bss..L_MergedGlobals.1)
    pos                                      0x20000139   Data           1  bldc.o(.bss..L_MergedGlobals.1)
    lastPos                                  0x2000013a   Data           1  bldc.o(.bss..L_MergedGlobals.1)
    buzzerTimer                              0x2000013c   Data           2  bldc.o(.bss..L_MergedGlobals.1)
    offsetcount                              0x2000013e   Data           2  bldc.o(.bss..L_MergedGlobals.1)
    realSpeed                                0x20000140   Data           4  bldc.o(.bss..L_MergedGlobals.1)
    revs32                                   0x20000144   Data           4  bldc.o(.bss..L_MergedGlobals.1)
    revs32Latest                             0x20000148   Data           4  bldc.o(.bss..L_MergedGlobals.1)
    torque32                                 0x2000014c   Data           4  bldc.o(.bss..L_MergedGlobals.1)
    revs32_reg                               0x20000150   Data           4  bldc.o(.bss..L_MergedGlobals.1)
    torque32_reg                             0x20000154   Data           4  bldc.o(.bss..L_MergedGlobals.1)
    realSpeed32_reg                          0x20000158   Data           4  bldc.o(.bss..L_MergedGlobals.1)
    iBldcInput                               0x2000015c   Data           4  bldc.o(.bss..L_MergedGlobals.1)
    bldc_inputFilterPwm                      0x20000160   Data           4  bldc.o(.bss..L_MergedGlobals.1)
    bldc_outputFilterPwm                     0x20000164   Data           4  bldc.o(.bss..L_MergedGlobals.1)
    speedCounter                             0x20000168   Data           4  bldc.o(.bss..L_MergedGlobals.1)
    speedCounterSlow                         0x2000016c   Data           4  bldc.o(.bss..L_MergedGlobals.1)
    speedCounterSlowLog                      0x20000170   Data           4  bldc.o(.bss..L_MergedGlobals.1)
    iOdom                                    0x20000174   Data           4  bldc.o(.bss..L_MergedGlobals.1)
    iOdomLast                                0x20000178   Data           4  bldc.o(.bss..L_MergedGlobals.1)
    filter_reg                               0x2000017c   Data           4  bldc.o(.bss..L_MergedGlobals.1)
    iBuzzCounter                             0x20000180   Data           4  bldc.o(.bss..L_MergedGlobals.1)
    iBuzzTime                                0x20000184   Data           4  bldc.o(.bss..L_MergedGlobals.1)
    iBuzzRate                                0x20000188   Data           4  bldc.o(.bss..L_MergedGlobals.1)
    adc_buffer                               0x2000018c   Data           4  bldc.o(.bss..L_MergedGlobals.1)
    error                                    0x20000190   Data           4  driver.o(.bss..L_MergedGlobals.1)
    delta_error                              0x20000194   Data           4  driver.o(.bss..L_MergedGlobals.1)
    p_outH                                   0x20000198   Data           4  driver.o(.bss..L_MergedGlobals.1)
    p_outL                                   0x2000019c   Data           4  driver.o(.bss..L_MergedGlobals.1)
    i_outH                                   0x200001a0   Data           4  driver.o(.bss..L_MergedGlobals.1)
    i_outL                                   0x200001a4   Data           4  driver.o(.bss..L_MergedGlobals.1)
    d_outH                                   0x200001a8   Data           4  driver.o(.bss..L_MergedGlobals.1)
    d_outL                                   0x200001ac   Data           4  driver.o(.bss..L_MergedGlobals.1)
    p_out32                                  0x200001b0   Data           4  driver.o(.bss..L_MergedGlobals.1)
    i_out32                                  0x200001b4   Data           4  driver.o(.bss..L_MergedGlobals.1)
    d_out32                                  0x200001b8   Data           4  driver.o(.bss..L_MergedGlobals.1)
    output32                                 0x200001bc   Data           4  driver.o(.bss..L_MergedGlobals.1)
    output                                   0x200001c0   Data           4  driver.o(.bss..L_MergedGlobals.1)
    iOldDrivingMode                          0x200001c4   Data           1  remotedummy.o(.bss..L_MergedGlobals.1)
    iRemoteMax                               0x200001c8   Data           4  remotedummy.o(.bss..L_MergedGlobals.1)
    msTicksInit                              0x200001cc   Data           4  remotedummy.o(.bss..L_MergedGlobals.1)
    aoPIDInitOld                             0x200001d0   Data          84  remotedummy.o(.bss..L_MergedGlobals.1)
    dma_init_struct_adc                      0x20000224   Data          36  setup.o(.bss.dma_init_struct_adc)
    iTestClock                               0x20000248   Data           4  setup.o(.bss.iTestClock)
    oConfig                                  0x2000024c   Data          20  setup.o(.bss.oConfig)
    pid                                      0x20000260   Data          48  driver.o(.bss.pid)
    timeoutTimer_paramter_struct             0x20000290   Data          16  setup.o(.bss.timeoutTimer_paramter_struct)
    __initial_sp                             0x200006a0   Data           0  startup_gd32f1x0.o(STACK)



==============================================================================

Memory Map of the image

  Image Entry point : 0x08000169

  Load Region LR_IROM1 (Base: 0x08000000, Size: 0x00004b80, Max: 0x00010000, ABSOLUTE)

    Execution Region ER_IROM1 (Exec base: 0x08000000, Load base: 0x08000000, Size: 0x00004b04, Max: 0x00010000, ABSOLUTE)

    Exec Addr    Load Addr    Size         Type   Attr      Idx    E Section Name        Object

    0x08000000   0x08000000   0x00000168   Data   RO          285    RESET               startup_gd32f1x0.o
    0x08000168   0x08000168   0x00000000   Code   RO          302  * .ARM.Collect$$$$00000000  mc_w.l(entry.o)
    0x08000168   0x08000168   0x00000004   Code   RO          351    .ARM.Collect$$$$00000001  mc_w.l(entry2.o)
    0x0800016c   0x0800016c   0x00000004   Code   RO          354    .ARM.Collect$$$$00000004  mc_w.l(entry5.o)
    0x08000170   0x08000170   0x00000000   Code   RO          356    .ARM.Collect$$$$00000008  mc_w.l(entry7b.o)
    0x08000170   0x08000170   0x00000000   Code   RO          358    .ARM.Collect$$$$0000000A  mc_w.l(entry8b.o)
    0x08000170   0x08000170   0x00000008   Code   RO          359    .ARM.Collect$$$$0000000B  mc_w.l(entry9a.o)
    0x08000178   0x08000178   0x00000000   Code   RO          361    .ARM.Collect$$$$0000000D  mc_w.l(entry10a.o)
    0x08000178   0x08000178   0x00000000   Code   RO          363    .ARM.Collect$$$$0000000F  mc_w.l(entry11a.o)
    0x08000178   0x08000178   0x00000004   Code   RO          352    .ARM.Collect$$$$00002712  mc_w.l(entry2.o)
    0x0800017c   0x0800017c   0x0000050a   Code   RO            1    .text               main.o
    0x08000686   0x08000686   0x00000002   PAD
    0x08000688   0x08000688   0x000004de   Code   RO           19    .text               bldc.o
    0x08000b66   0x08000b66   0x00000002   PAD
    0x08000b68   0x08000b68   0x0000022c   Code   RO           36    .text               driver.o
    0x08000d94   0x08000d94   0x000002a4   Code   RO           50    .text               bldcsine.o
    0x08001038   0x08001038   0x00000666   Code   RO           63    .text               setup.o
    0x0800169e   0x0800169e   0x00000002   PAD
    0x080016a0   0x080016a0   0x00000140   Code   RO           81    .text               it.o
    0x080017e0   0x080017e0   0x00000174   Code   RO          111    .text               remotedummy.o
    0x08001954   0x08001954   0x000004ac   Code   RO          158    .text               gd32f1x0_adc.o
    0x08001e00   0x08001e00   0x00000314   Code   RO          174    .text               gd32f1x0_dma.o
    0x08002114   0x08002114   0x000000fe   Code   RO          182    .text               gd32f1x0_exti.o
    0x08002212   0x08002212   0x00000002   PAD
    0x08002214   0x08002214   0x00000408   Code   RO          190    .text               gd32f1x0_fmc.o
    0x0800261c   0x0800261c   0x000000b8   Code   RO          198    .text               gd32f1x0_fwdgt.o
    0x080026d4   0x080026d4   0x00000170   Code   RO          206    .text               gd32f1x0_gpio.o
    0x08002844   0x08002844   0x00000110   Code   RO          222    .text               gd32f1x0_misc.o
    0x08002954   0x08002954   0x000005a0   Code   RO          240    .text               gd32f1x0_rcu.o
    0x08002ef4   0x08002ef4   0x000000bc   Code   RO          250    .text               gd32f1x0_syscfg.o
    0x08002fb0   0x08002fb0   0x00000b88   Code   RO          258    .text               gd32f1x0_timer.o
    0x08003b38   0x08003b38   0x00000024   Code   RO          286    .text               startup_gd32f1x0.o
    0x08003b5c   0x08003b5c   0x00000128   Code   RO          292    .text               system_gd32f1x0.o
    0x08003c84   0x08003c84   0x00000024   Code   RO          305    .text               mc_w.l(memcpya.o)
    0x08003ca8   0x08003ca8   0x00000024   Code   RO          307    .text               mc_w.l(memseta.o)
    0x08003ccc   0x08003ccc   0x0000001a   Code   RO          311    .text               mc_w.l(memcmp.o)
    0x08003ce6   0x08003ce6   0x000000b0   Code   RO          315    .text               mf_w.l(fadd.o)
    0x08003d96   0x08003d96   0x00000064   Code   RO          317    .text               mf_w.l(fmul.o)
    0x08003dfa   0x08003dfa   0x0000007c   Code   RO          319    .text               mf_w.l(fdiv.o)
    0x08003e76   0x08003e76   0x0000014e   Code   RO          321    .text               mf_w.l(dadd.o)
    0x08003fc4   0x08003fc4   0x000000e4   Code   RO          323    .text               mf_w.l(dmul.o)
    0x080040a8   0x080040a8   0x000000de   Code   RO          325    .text               mf_w.l(ddiv.o)
    0x08004186   0x08004186   0x0000001c   Code   RO          327    .text               mf_w.l(fcmple.o)
    0x080041a2   0x080041a2   0x0000001c   Code   RO          329    .text               mf_w.l(fcmplt.o)
    0x080041be   0x080041be   0x0000001c   Code   RO          331    .text               mf_w.l(fcmpgt.o)
    0x080041da   0x080041da   0x00000012   Code   RO          333    .text               mf_w.l(fflti.o)
    0x080041ec   0x080041ec   0x0000000a   Code   RO          335    .text               mf_w.l(ffltui.o)
    0x080041f6   0x080041f6   0x00000022   Code   RO          337    .text               mf_w.l(dflti.o)
    0x08004218   0x08004218   0x0000001a   Code   RO          339    .text               mf_w.l(dfltui.o)
    0x08004232   0x08004232   0x00000032   Code   RO          341    .text               mf_w.l(ffixi.o)
    0x08004264   0x08004264   0x00000042   Code   RO          343    .text               mf_w.l(ffixl.o)
    0x080042a6   0x080042a6   0x0000003e   Code   RO          345    .text               mf_w.l(dfixi.o)
    0x080042e4   0x080042e4   0x00000026   Code   RO          347    .text               mf_w.l(f2d.o)
    0x0800430a   0x0800430a   0x00000038   Code   RO          349    .text               mf_w.l(d2f.o)
    0x08004342   0x08004342   0x0000001e   Code   RO          365    .text               mc_w.l(llshl.o)
    0x08004360   0x08004360   0x00000020   Code   RO          367    .text               mc_w.l(llushr.o)
    0x08004380   0x08004380   0x00000024   Code   RO          369    .text               mc_w.l(llsshr.o)
    0x080043a4   0x080043a4   0x00000000   Code   RO          371    .text               mc_w.l(iusefp.o)
    0x080043a4   0x080043a4   0x0000006e   Code   RO          372    .text               mf_w.l(fepilogue.o)
    0x08004412   0x08004412   0x000000ba   Code   RO          374    .text               mf_w.l(depilogue.o)
    0x080044cc   0x080044cc   0x00000030   Code   RO          376    .text               mc_w.l(init.o)
    0x080044fc   0x080044fc   0x0000000e   Code   RO          380    i.__scatterload_copy  mc_w.l(handlers.o)
    0x0800450a   0x0800450a   0x00000002   Code   RO          381    i.__scatterload_null  mc_w.l(handlers.o)
    0x0800450c   0x0800450c   0x0000000e   Code   RO          382    i.__scatterload_zeroinit  mc_w.l(handlers.o)
    0x0800451a   0x0800451a   0x0000000c   Data   RO           25    .rodata..L__const.up_or_down.up_down  bldc.o
    0x08004526   0x08004526   0x00000008   Data   RO           54    .rodata.cst8        bldcsine.o
    0x0800452e   0x0800452e   0x00000008   Data   RO          242    .rodata.cst8        gd32f1x0_rcu.o
    0x08004536   0x08004536   0x00000008   Data   RO           26    .rodata.hall_to_pos  bldc.o
    0x0800453e   0x0800453e   0x00000002   PAD
    0x08004540   0x08004540   0x000002d4   Data   RO            8    .rodata.lookUpTableAngle  main.o
    0x08004814   0x08004814   0x000002d0   Data   RO           55    .rodata.sine_table  bldcsine.o
    0x08004ae4   0x08004ae4   0x00000020   Data   RO          379    Region$$Table       anon$$obj.o


    Execution Region RW_IRAM1 (Exec base: 0x20000000, Load base: 0x08004b08, Size: 0x000006a0, Max: 0x00002000, ABSOLUTE)

    Exec Addr    Load Addr    Size         Type   Attr      Idx    E Section Name        Object

    0x20000000   0x08004b08   0x00000004   Data   RW           10    .data..L_MergedGlobals  main.o
    0x20000004   0x08004b0c   0x00000010   Data   RW           27    .data..L_MergedGlobals  bldc.o
    0x20000014   0x08004b1c   0x00000058   Data   RW           41    .data..L_MergedGlobals  driver.o
    0x2000006c   0x08004b74   0x00000008   Data   RW          113    .data..L_MergedGlobals  remotedummy.o
    0x20000074   0x08004b7c   0x00000004   Data   RW          294    .data.SystemCoreClock  system_gd32f1x0.o
    0x20000078        -       0x00000030   Zero   RW           56    .bss..L_MergedGlobals  bldcsine.o
    0x200000a8        -       0x00000040   Zero   RW           73    .bss..L_MergedGlobals  setup.o
    0x200000e8        -       0x00000024   Zero   RW           93    .bss..L_MergedGlobals  it.o
    0x2000010c        -       0x00000024   Zero   RW           11    .bss..L_MergedGlobals.1  main.o
    0x20000130        -       0x00000060   Zero   RW           28    .bss..L_MergedGlobals.1  bldc.o
    0x20000190        -       0x00000034   Zero   RW           42    .bss..L_MergedGlobals.1  driver.o
    0x200001c4        -       0x00000060   Zero   RW          114    .bss..L_MergedGlobals.1  remotedummy.o
    0x20000224        -       0x00000024   Zero   RW           66    .bss.dma_init_struct_adc  setup.o
    0x20000248        -       0x00000004   Zero   RW           68    .bss.iTestClock     setup.o
    0x2000024c        -       0x00000014   Zero   RW           67    .bss.oConfig        setup.o
    0x20000260        -       0x00000030   Zero   RW           39    .bss.pid            driver.o
    0x20000290        -       0x00000010   Zero   RW           65    .bss.timeoutTimer_paramter_struct  setup.o
    0x200002a0        -       0x00000400   Zero   RW          283    STACK               startup_gd32f1x0.o


==============================================================================

Image component sizes


      Code (inc. data)   RO Data    RW Data    ZI Data      Debug   Object Name

      1246        136         20         16         96       4937   bldc.o
       676         64        728          0         48       5991   bldcsine.o
       556         44          0         88        100       3569   driver.o
      1196        156          0          0          0       7367   gd32f1x0_adc.o
       788        168          0          0          0       5934   gd32f1x0_dma.o
       254         48          0          0          0       3031   gd32f1x0_exti.o
      1032        152          0          0          0       6872   gd32f1x0_fmc.o
       184         32          0          0          0       1949   gd32f1x0_fwdgt.o
       368         12          0          0          0       4156   gd32f1x0_gpio.o
       272         40          0          0          0       3216   gd32f1x0_misc.o
      1440        242          8          0          0      12255   gd32f1x0_rcu.o
       188         36          0          0          0       2849   gd32f1x0_syscfg.o
      2952        112          0          0          0      17994   gd32f1x0_timer.o
       320         48          0          0         36       3161   it.o
      1290        120        724          4         36       6208   main.o
       372         60          0          8         96       1729   remotedummy.o
      1638        152          0          0        140       9855   setup.o
        36          8        360          0       1024        844   startup_gd32f1x0.o
       296         52          0          4          0       1599   system_gd32f1x0.o

    ----------------------------------------------------------------------
     15112       1682       1874        120       1576     103516   Object Totals
         0          0         32          0          0          0   (incl. Generated)
         8          0          2          0          0          0   (incl. Padding)

    ----------------------------------------------------------------------

      Code (inc. data)   RO Data    RW Data    ZI Data      Debug   Library Member Name

         0          0          0          0          0          0   entry.o
         0          0          0          0          0          0   entry10a.o
         0          0          0          0          0          0   entry11a.o
         8          4          0          0          0          0   entry2.o
         4          0          0          0          0          0   entry5.o
         0          0          0          0          0          0   entry7b.o
         0          0          0          0          0          0   entry8b.o
         8          4          0          0          0          0   entry9a.o
        30          0          0          0          0          0   handlers.o
        48         10          0          0          0         68   init.o
         0          0          0          0          0          0   iusefp.o
        30          0          0          0          0         68   llshl.o
        36          0          0          0          0         68   llsshr.o
        32          0          0          0          0         68   llushr.o
        26          0          0          0          0         80   memcmp.o
        36          0          0          0          0         68   memcpya.o
        36          0          0          0          0        108   memseta.o
        56          0          0          0          0         88   d2f.o
       334          0          0          0          0        148   dadd.o
       222          0          0          0          0        100   ddiv.o
       186          0          0          0          0        176   depilogue.o
        62          0          0          0          0         80   dfixi.o
        34          0          0          0          0         76   dflti.o
        26          0          0          0          0         76   dfltui.o
       228          0          0          0          0         96   dmul.o
        38          0          0          0          0         68   f2d.o
       176          0          0          0          0        140   fadd.o
        28          0          0          0          0         68   fcmpgt.o
        28          0          0          0          0         68   fcmple.o
        28          0          0          0          0         68   fcmplt.o
       124          0          0          0          0         88   fdiv.o
       110          0          0          0          0        168   fepilogue.o
        50          0          0          0          0         68   ffixi.o
        66          0          0          0          0         76   ffixl.o
        18          0          0          0          0         68   fflti.o
        10          0          0          0          0         68   ffltui.o
       100          0          0          0          0         76   fmul.o

    ----------------------------------------------------------------------
      2218         18          0          0          0       2392   Library Totals
         0          0          0          0          0          0   (incl. Padding)

    ----------------------------------------------------------------------

      Code (inc. data)   RO Data    RW Data    ZI Data      Debug   Library Name

       294         18          0          0          0        528   mc_w.l
      1924          0          0          0          0       1864   mf_w.l

    ----------------------------------------------------------------------
      2218         18          0          0          0       2392   Library Totals

    ----------------------------------------------------------------------

==============================================================================


      Code (inc. data)   RO Data    RW Data    ZI Data      Debug   

     17330       1700       1874        120       1576     104472   Grand Totals
     17330       1700       1874        120       1576     104472   ELF Image Totals
     17330       1700       1874        120          0          0   ROM Totals

==============================================================================

    Total RO  Size (Code + RO Data)                19204 (  18.75kB)
    Total RW  Size (RW Data + ZI Data)              1696 (   1.66kB)
    Total ROM Size (Code + RO Data + RW Data)      19324 (  18.87kB)

==============================================================================

