Component: Arm Compiler for Embedded 6.19 Tool: armlink [5e73cb00]

==============================================================================

Section Cross References

    main.o(.text) refers to remoteautodetect.o(.text) for AutodetectInit
    main.o(.text) refers to system_gd32f1x0.o(.text) for SystemCoreClockUpdate
    main.o(.text) refers to system_gd32f1x0.o(.data.SystemCoreClock) for SystemCoreClock
    main.o(.text) refers to setup.o(.text) for Watchdog_init
    main.o(.text) refers to main.o(.bss.iTimeNextLoop) for iTimeNextLoop
    main.o(.text) refers to main.o(.bss.steerCounter) for steerCounter
    main.o(.text) refers to gd32f1x0_fwdgt.o(.text) for fwdgt_counter_reload
    main.o(.text) refers to it.o(.text) for millis
    main.o(.ARM.exidx) refers to main.o(.text) for [Anonymous Symbol]
    bldc.o(.text) refers to bldc.o(.rodata..L__const.up_or_down.up_down) for .L__const.up_or_down.up_down
    bldc.o(.text) refers to bldc.o(.bss.bldc_enable) for bldc_enable
    bldc.o(.text) refers to dflt_clz.o(x$fpl$dflt) for __aeabi_i2d
    bldc.o(.text) refers to dmul.o(x$fpl$dmul) for __aeabi_dmul
    bldc.o(.text) refers to dcmp.o(x$fpl$fcmp) for __aeabi_dcmplt
    bldc.o(.text) refers to dfix.o(x$fpl$dfix) for __aeabi_d2iz
    bldc.o(.text) refers to bldc.o(.bss.bldc_inputFilterPwm) for bldc_inputFilterPwm
    bldc.o(.text) refers to bldc.o(.bss.offsetcount) for offsetcount
    bldc.o(.text) refers to bldc.o(.bss.adc_buffer) for adc_buffer
    bldc.o(.text) refers to bldc.o(.data.offsetdc) for offsetdc
    bldc.o(.text) refers to bldc.o(.bss.buzzerTimer) for buzzerTimer
    bldc.o(.text) refers to bldc.o(.data.batteryVoltage) for batteryVoltage
    bldc.o(.text) refers to f2d.o(x$fpl$f2d) for __aeabi_f2d
    bldc.o(.text) refers to dflt_clz.o(x$fpl$dfltu) for __aeabi_ui2d
    bldc.o(.text) refers to daddsub_clz.o(x$fpl$dadd) for __aeabi_dadd
    bldc.o(.text) refers to d2f.o(x$fpl$d2f) for __aeabi_d2f
    bldc.o(.text) refers to bldc.o(.bss.buzzerFreq) for buzzerFreq
    bldc.o(.text) refers to bldc.o(.bss.buzzerPattern) for buzzerPattern
    bldc.o(.text) refers to gd32f1x0_gpio.o(.text) for gpio_bit_write
    bldc.o(.text) refers to bldc.o(.bss.currentDC) for currentDC
    bldc.o(.text) refers to it.o(.bss.timedOut) for timedOut
    bldc.o(.text) refers to gd32f1x0_timer.o(.text) for timer_automatic_output_enable
    bldc.o(.text) refers to remoteautodetect.o(.data.HALL_A) for HALL_A
    bldc.o(.text) refers to remoteautodetect.o(.data.HALL_B) for HALL_B
    bldc.o(.text) refers to bldc.o(.bss.hall_a) for hall_a
    bldc.o(.text) refers to remoteautodetect.o(.data.HALL_C) for HALL_C
    bldc.o(.text) refers to bldc.o(.bss.hall_b) for hall_b
    bldc.o(.text) refers to bldc.o(.bss.hall_c) for hall_c
    bldc.o(.text) refers to bldc.o(.rodata.hall_to_pos) for hall_to_pos
    bldc.o(.text) refers to bldc.o(.bss.hall) for hall
    bldc.o(.text) refers to remoteautodetect.o(.text) for AutodetectBldc
    bldc.o(.text) refers to bldc.o(.bss.pos) for pos
    bldc.o(.text) refers to bldc.o(.bss.filter_reg) for filter_reg
    bldc.o(.text) refers to bldc.o(.bss.bldc_outputFilterPwm) for bldc_outputFilterPwm
    bldc.o(.text) refers to bldc.o(.bss.buzzerToggle) for buzzerToggle
    bldc.o(.text) refers to bldc.o(.bss.lastPos) for lastPos
    bldc.o(.text) refers to bldc.o(.bss.iOdom) for iOdom
    bldc.o(.text) refers to bldc.o(.bss.speedCounter) for speedCounter
    bldc.o(.text) refers to fflt_clz.o(x$fpl$ffltu) for __aeabi_ui2f
    bldc.o(.text) refers to fdiv.o(x$fpl$fdiv) for __aeabi_fdiv
    bldc.o(.text) refers to bldc.o(.bss.realSpeed) for realSpeed
    bldc.o(.ARM.exidx) refers to bldc.o(.text) for [Anonymous Symbol]
    setup.o(.text) refers to gd32f1x0_misc.o(.text) for nvic_priority_group_set
    setup.o(.text) refers to gd32f1x0_rcu.o(.text) for rcu_flag_get
    setup.o(.text) refers to gd32f1x0_fwdgt.o(.text) for fwdgt_config
    setup.o(.text) refers to gd32f1x0_timer.o(.text) for timer_deinit
    setup.o(.text) refers to setup.o(.bss.timeoutTimer_paramter_struct) for timeoutTimer_paramter_struct
    setup.o(.text) refers to gd32f1x0_gpio.o(.text) for gpio_mode_set
    setup.o(.text) refers to setup.o(.bss.timerBldc_paramter_struct) for timerBldc_paramter_struct
    setup.o(.text) refers to setup.o(.bss.timerBldc_oc_parameter_struct) for timerBldc_oc_parameter_struct
    setup.o(.text) refers to setup.o(.bss.timerBldc_break_parameter_struct) for timerBldc_break_parameter_struct
    setup.o(.text) refers to gd32f1x0_dma.o(.text) for dma_deinit
    setup.o(.text) refers to setup.o(.bss.dma_init_struct_adc) for dma_init_struct_adc
    setup.o(.text) refers to bldc.o(.bss.adc_buffer) for adc_buffer
    setup.o(.text) refers to gd32f1x0_adc.o(.text) for adc_channel_length_config
    setup.o(.text) refers to gd32f1x0_usart.o(.text) for usart_baudrate_set
    setup.o(.text) refers to setup.o(.bss.dma_init_struct_usart) for dma_init_struct_usart
    setup.o(.text) refers to setup.o(.bss.usart0_rx_buf) for usart0_rx_buf
    setup.o(.ARM.exidx) refers to setup.o(.text) for [Anonymous Symbol]
    it.o(.text) refers to it.o(.bss.msTicks) for msTicks
    it.o(.text) refers to it.o(.bss.timeoutCounter_ms) for timeoutCounter_ms
    it.o(.text) refers to it.o(.bss.timedOut) for timedOut
    it.o(.text) refers to bldc.o(.text) for SetPWM
    it.o(.text) refers to gd32f1x0_timer.o(.text) for timer_interrupt_flag_clear
    it.o(.text) refers to gd32f1x0_adc.o(.text) for adc_software_trigger_enable
    it.o(.text) refers to gd32f1x0_dma.o(.text) for dma_interrupt_flag_get
    it.o(.text) refers to remoteautodetect.o(.text) for RemoteCallback
    it.o(.ARM.exidx) refers to it.o(.text) for [Anonymous Symbol]
    commsmasterslave.o(.text) refers to gd32f1x0_usart.o(.text) for usart_data_transmit
    commsmasterslave.o(.text) refers to commsmasterslave.o(.bss.beepsBackwardsMaster) for beepsBackwardsMaster
    commsmasterslave.o(.ARM.exidx) refers to commsmasterslave.o(.text) for [Anonymous Symbol]
    remoteautodetect.o(.text) refers (Special) to _printf_percent.o(.ARM.Collect$$_printf_percent$$00000000) for _printf_percent
    remoteautodetect.o(.text) refers (Special) to _printf_s.o(.ARM.Collect$$_printf_percent$$00000014) for _printf_s
    remoteautodetect.o(.text) refers (Special) to _printf_i.o(.ARM.Collect$$_printf_percent$$00000008) for _printf_i
    remoteautodetect.o(.text) refers (Special) to _printf_f.o(.ARM.Collect$$_printf_percent$$00000003) for _printf_f
    remoteautodetect.o(.text) refers (Special) to _printf_dec.o(.text) for _printf_int_dec
    remoteautodetect.o(.text) refers (Special) to printf1.o(x$fpl$printf1) for _printf_fp_dec
    remoteautodetect.o(.text) refers (Special) to _printf_str.o(.text) for _printf_str
    remoteautodetect.o(.text) refers to main.o(.bss.steer) for steer
    remoteautodetect.o(.text) refers to remoteautodetect.o(.bss.sMessage) for sMessage
    remoteautodetect.o(.text) refers to strlen.o(.text) for strlen
    remoteautodetect.o(.text) refers to commsmasterslave.o(.text) for SendBuffer
    remoteautodetect.o(.text) refers to setup.o(.bss.usart0_rx_buf) for usart0_rx_buf
    remoteautodetect.o(.text) refers to remoteautodetect.o(.data.cRxLast) for cRxLast
    remoteautodetect.o(.text) refers to remoteautodetect.o(.bss.cCommand) for cCommand
    remoteautodetect.o(.text) refers to remoteautodetect.o(.data.aoPin) for aoPin
    remoteautodetect.o(.text) refers to remoteautodetect.o(.data.sTodoPin) for sTodoPin
    remoteautodetect.o(.text) refers to gd32f1x0_adc.o(.text) for adc_regular_channel_config
    remoteautodetect.o(.text) refers to remoteautodetect.o(.bss.iRepeat) for iRepeat
    remoteautodetect.o(.text) refers to remoteautodetect.o(.bss.iTest) for iTest
    remoteautodetect.o(.text) refers to remoteautodetect.o(.bss.iTestPin) for iTestPin
    remoteautodetect.o(.text) refers to it.o(.bss.msTicks) for msTicks
    remoteautodetect.o(.text) refers to remoteautodetect.o(.data.wStage) for wStage
    remoteautodetect.o(.text) refers to remoteautodetect.o(.bss.msTicksWait) for msTicksWait
    remoteautodetect.o(.text) refers to remoteautodetect.o(.data.aHallOrder) for aHallOrder
    remoteautodetect.o(.text) refers to remoteautodetect.o(.bss.aPinHall) for aPinHall
    remoteautodetect.o(.text) refers to remoteautodetect.o(.rodata.str1.1) for .L.str.42
    remoteautodetect.o(.text) refers to noretval__2sprintf.o(.text) for __2sprintf
    remoteautodetect.o(.text) refers to remoteautodetect.o(.data.iMove) for iMove
    remoteautodetect.o(.text) refers to remoteautodetect.o(.rodata.str1.4) for .L.str.43
    remoteautodetect.o(.text) refers to gd32f1x0_gpio.o(.text) for gpio_mode_set
    remoteautodetect.o(.text) refers to remoteautodetect.o(.bss.aiPinScan) for aiPinScan
    remoteautodetect.o(.text) refers to remoteautodetect.o(.data.iVBatMinTest) for iVBatMinTest
    remoteautodetect.o(.text) refers to remoteautodetect.o(.bss.msTicksTest) for msTicksTest
    remoteautodetect.o(.text) refers to remoteautodetect.o(.data.asScan) for asScan
    remoteautodetect.o(.text) refers to bldc.o(.text) for SetPWM
    remoteautodetect.o(.text) refers to remoteautodetect.o(.data.wStageOld) for wStageOld
    remoteautodetect.o(.text) refers to remoteautodetect.o(.bss.fVBatt) for fVBatt
    remoteautodetect.o(.text) refers to f2d.o(x$fpl$f2d) for __aeabi_f2d
    remoteautodetect.o(.text) refers to bldc.o(.bss.adc_buffer) for adc_buffer
    remoteautodetect.o(.text) refers to dflt_clz.o(x$fpl$dfltu) for __aeabi_ui2d
    remoteautodetect.o(.text) refers to dmul.o(x$fpl$dmul) for __aeabi_dmul
    remoteautodetect.o(.text) refers to daddsub_clz.o(x$fpl$dadd) for __aeabi_dadd
    remoteautodetect.o(.text) refers to d2f.o(x$fpl$d2f) for __aeabi_d2f
    remoteautodetect.o(.text) refers to remoteautodetect.o(.bss.iOffsetDC) for iOffsetDC
    remoteautodetect.o(.text) refers to remoteautodetect.o(.data.iTestStart) for iTestStart
    remoteautodetect.o(.text) refers to rt_memcpy_w.o(.text) for __aeabi_memcpy4
    remoteautodetect.o(.text) refers to remoteautodetect.o(.bss.wScanConfig) for wScanConfig
    remoteautodetect.o(.text) refers to dflt_clz.o(x$fpl$dflt) for __aeabi_i2d
    remoteautodetect.o(.text) refers to remoteautodetect.o(.bss.fCurrentDC) for fCurrentDC
    remoteautodetect.o(.text) refers to fcmp.o(x$fpl$fcmp) for __aeabi_fcmpge
    remoteautodetect.o(.text) refers to remoteautodetect.o(.bss.iAverage) for iAverage
    remoteautodetect.o(.text) refers to rt_memclr_w.o(.text) for __aeabi_memclr4
    remoteautodetect.o(.text) refers to remoteautodetect.o(.data.iAverageMax) for iAverageMax
    remoteautodetect.o(.text) refers to remoteautodetect.o(.bss.msTicksOld) for msTicksOld
    remoteautodetect.o(.text) refers to remoteautodetect.o(.data.HALL_A) for HALL_A
    remoteautodetect.o(.text) refers to remoteautodetect.o(.data.HALL_B) for HALL_B
    remoteautodetect.o(.text) refers to remoteautodetect.o(.data.HALL_C) for HALL_C
    remoteautodetect.o(.text) refers to remoteautodetect.o(.bss.msTicksAuto) for msTicksAuto
    remoteautodetect.o(.text) refers to remoteautodetect.o(.data.posAuto) for posAuto
    remoteautodetect.o(.text) refers to remoteautodetect.o(.bss.iPhaseCurrent) for iPhaseCurrent
    remoteautodetect.o(.text) refers to remoteautodetect.o(.bss.posOld) for posOld
    remoteautodetect.o(.text) refers to remoteautodetect.o(.data.bHallOld) for bHallOld
    remoteautodetect.o(.ARM.exidx) refers (Special) to _printf_percent.o(.ARM.Collect$$_printf_percent$$00000000) for _printf_percent
    remoteautodetect.o(.ARM.exidx) refers (Special) to _printf_s.o(.ARM.Collect$$_printf_percent$$00000014) for _printf_s
    remoteautodetect.o(.ARM.exidx) refers (Special) to _printf_i.o(.ARM.Collect$$_printf_percent$$00000008) for _printf_i
    remoteautodetect.o(.ARM.exidx) refers (Special) to _printf_f.o(.ARM.Collect$$_printf_percent$$00000003) for _printf_f
    remoteautodetect.o(.ARM.exidx) refers (Special) to _printf_dec.o(.text) for _printf_int_dec
    remoteautodetect.o(.ARM.exidx) refers (Special) to printf1.o(x$fpl$printf1) for _printf_fp_dec
    remoteautodetect.o(.ARM.exidx) refers (Special) to _printf_str.o(.text) for _printf_str
    remoteautodetect.o(.ARM.exidx) refers to remoteautodetect.o(.text) for [Anonymous Symbol]
    remoteautodetect.o(.bss.iTimeNextTx) refers (Special) to _printf_percent.o(.ARM.Collect$$_printf_percent$$00000000) for _printf_percent
    remoteautodetect.o(.bss.iTimeNextTx) refers (Special) to _printf_s.o(.ARM.Collect$$_printf_percent$$00000014) for _printf_s
    remoteautodetect.o(.bss.iTimeNextTx) refers (Special) to _printf_i.o(.ARM.Collect$$_printf_percent$$00000008) for _printf_i
    remoteautodetect.o(.bss.iTimeNextTx) refers (Special) to _printf_f.o(.ARM.Collect$$_printf_percent$$00000003) for _printf_f
    remoteautodetect.o(.bss.iTimeNextTx) refers (Special) to _printf_dec.o(.text) for _printf_int_dec
    remoteautodetect.o(.bss.iTimeNextTx) refers (Special) to printf1.o(x$fpl$printf1) for _printf_fp_dec
    remoteautodetect.o(.bss.iTimeNextTx) refers (Special) to _printf_str.o(.text) for _printf_str
    remoteautodetect.o(.bss.sMessage) refers (Special) to _printf_percent.o(.ARM.Collect$$_printf_percent$$00000000) for _printf_percent
    remoteautodetect.o(.bss.sMessage) refers (Special) to _printf_s.o(.ARM.Collect$$_printf_percent$$00000014) for _printf_s
    remoteautodetect.o(.bss.sMessage) refers (Special) to _printf_i.o(.ARM.Collect$$_printf_percent$$00000008) for _printf_i
    remoteautodetect.o(.bss.sMessage) refers (Special) to _printf_f.o(.ARM.Collect$$_printf_percent$$00000003) for _printf_f
    remoteautodetect.o(.bss.sMessage) refers (Special) to _printf_dec.o(.text) for _printf_int_dec
    remoteautodetect.o(.bss.sMessage) refers (Special) to printf1.o(x$fpl$printf1) for _printf_fp_dec
    remoteautodetect.o(.bss.sMessage) refers (Special) to _printf_str.o(.text) for _printf_str
    remoteautodetect.o(.bss.cCommand) refers (Special) to _printf_percent.o(.ARM.Collect$$_printf_percent$$00000000) for _printf_percent
    remoteautodetect.o(.bss.cCommand) refers (Special) to _printf_s.o(.ARM.Collect$$_printf_percent$$00000014) for _printf_s
    remoteautodetect.o(.bss.cCommand) refers (Special) to _printf_i.o(.ARM.Collect$$_printf_percent$$00000008) for _printf_i
    remoteautodetect.o(.bss.cCommand) refers (Special) to _printf_f.o(.ARM.Collect$$_printf_percent$$00000003) for _printf_f
    remoteautodetect.o(.bss.cCommand) refers (Special) to _printf_dec.o(.text) for _printf_int_dec
    remoteautodetect.o(.bss.cCommand) refers (Special) to printf1.o(x$fpl$printf1) for _printf_fp_dec
    remoteautodetect.o(.bss.cCommand) refers (Special) to _printf_str.o(.text) for _printf_str
    remoteautodetect.o(.data.cRxLast) refers (Special) to _printf_percent.o(.ARM.Collect$$_printf_percent$$00000000) for _printf_percent
    remoteautodetect.o(.data.cRxLast) refers (Special) to _printf_s.o(.ARM.Collect$$_printf_percent$$00000014) for _printf_s
    remoteautodetect.o(.data.cRxLast) refers (Special) to _printf_i.o(.ARM.Collect$$_printf_percent$$00000008) for _printf_i
    remoteautodetect.o(.data.cRxLast) refers (Special) to _printf_f.o(.ARM.Collect$$_printf_percent$$00000003) for _printf_f
    remoteautodetect.o(.data.cRxLast) refers (Special) to _printf_dec.o(.text) for _printf_int_dec
    remoteautodetect.o(.data.cRxLast) refers (Special) to printf1.o(x$fpl$printf1) for _printf_fp_dec
    remoteautodetect.o(.data.cRxLast) refers (Special) to _printf_str.o(.text) for _printf_str
    remoteautodetect.o(.data.HALL_A) refers (Special) to _printf_percent.o(.ARM.Collect$$_printf_percent$$00000000) for _printf_percent
    remoteautodetect.o(.data.HALL_A) refers (Special) to _printf_s.o(.ARM.Collect$$_printf_percent$$00000014) for _printf_s
    remoteautodetect.o(.data.HALL_A) refers (Special) to _printf_i.o(.ARM.Collect$$_printf_percent$$00000008) for _printf_i
    remoteautodetect.o(.data.HALL_A) refers (Special) to _printf_f.o(.ARM.Collect$$_printf_percent$$00000003) for _printf_f
    remoteautodetect.o(.data.HALL_A) refers (Special) to _printf_dec.o(.text) for _printf_int_dec
    remoteautodetect.o(.data.HALL_A) refers (Special) to printf1.o(x$fpl$printf1) for _printf_fp_dec
    remoteautodetect.o(.data.HALL_A) refers (Special) to _printf_str.o(.text) for _printf_str
    remoteautodetect.o(.data.HALL_B) refers (Special) to _printf_percent.o(.ARM.Collect$$_printf_percent$$00000000) for _printf_percent
    remoteautodetect.o(.data.HALL_B) refers (Special) to _printf_s.o(.ARM.Collect$$_printf_percent$$00000014) for _printf_s
    remoteautodetect.o(.data.HALL_B) refers (Special) to _printf_i.o(.ARM.Collect$$_printf_percent$$00000008) for _printf_i
    remoteautodetect.o(.data.HALL_B) refers (Special) to _printf_f.o(.ARM.Collect$$_printf_percent$$00000003) for _printf_f
    remoteautodetect.o(.data.HALL_B) refers (Special) to _printf_dec.o(.text) for _printf_int_dec
    remoteautodetect.o(.data.HALL_B) refers (Special) to printf1.o(x$fpl$printf1) for _printf_fp_dec
    remoteautodetect.o(.data.HALL_B) refers (Special) to _printf_str.o(.text) for _printf_str
    remoteautodetect.o(.data.HALL_C) refers (Special) to _printf_percent.o(.ARM.Collect$$_printf_percent$$00000000) for _printf_percent
    remoteautodetect.o(.data.HALL_C) refers (Special) to _printf_s.o(.ARM.Collect$$_printf_percent$$00000014) for _printf_s
    remoteautodetect.o(.data.HALL_C) refers (Special) to _printf_i.o(.ARM.Collect$$_printf_percent$$00000008) for _printf_i
    remoteautodetect.o(.data.HALL_C) refers (Special) to _printf_f.o(.ARM.Collect$$_printf_percent$$00000003) for _printf_f
    remoteautodetect.o(.data.HALL_C) refers (Special) to _printf_dec.o(.text) for _printf_int_dec
    remoteautodetect.o(.data.HALL_C) refers (Special) to printf1.o(x$fpl$printf1) for _printf_fp_dec
    remoteautodetect.o(.data.HALL_C) refers (Special) to _printf_str.o(.text) for _printf_str
    remoteautodetect.o(.rodata.str1.1) refers (Special) to _printf_percent.o(.ARM.Collect$$_printf_percent$$00000000) for _printf_percent
    remoteautodetect.o(.rodata.str1.1) refers (Special) to _printf_s.o(.ARM.Collect$$_printf_percent$$00000014) for _printf_s
    remoteautodetect.o(.rodata.str1.1) refers (Special) to _printf_i.o(.ARM.Collect$$_printf_percent$$00000008) for _printf_i
    remoteautodetect.o(.rodata.str1.1) refers (Special) to _printf_f.o(.ARM.Collect$$_printf_percent$$00000003) for _printf_f
    remoteautodetect.o(.rodata.str1.1) refers (Special) to _printf_dec.o(.text) for _printf_int_dec
    remoteautodetect.o(.rodata.str1.1) refers (Special) to printf1.o(x$fpl$printf1) for _printf_fp_dec
    remoteautodetect.o(.rodata.str1.1) refers (Special) to _printf_str.o(.text) for _printf_str
    remoteautodetect.o(.data.aoPin) refers (Special) to _printf_percent.o(.ARM.Collect$$_printf_percent$$00000000) for _printf_percent
    remoteautodetect.o(.data.aoPin) refers (Special) to _printf_s.o(.ARM.Collect$$_printf_percent$$00000014) for _printf_s
    remoteautodetect.o(.data.aoPin) refers (Special) to _printf_i.o(.ARM.Collect$$_printf_percent$$00000008) for _printf_i
    remoteautodetect.o(.data.aoPin) refers (Special) to _printf_f.o(.ARM.Collect$$_printf_percent$$00000003) for _printf_f
    remoteautodetect.o(.data.aoPin) refers (Special) to _printf_dec.o(.text) for _printf_int_dec
    remoteautodetect.o(.data.aoPin) refers (Special) to printf1.o(x$fpl$printf1) for _printf_fp_dec
    remoteautodetect.o(.data.aoPin) refers (Special) to _printf_str.o(.text) for _printf_str
    remoteautodetect.o(.data.aoPin) refers to remoteautodetect.o(.rodata.str1.1) for [Anonymous Symbol]
    remoteautodetect.o(.data.sTodoPin) refers (Special) to _printf_percent.o(.ARM.Collect$$_printf_percent$$00000000) for _printf_percent
    remoteautodetect.o(.data.sTodoPin) refers (Special) to _printf_s.o(.ARM.Collect$$_printf_percent$$00000014) for _printf_s
    remoteautodetect.o(.data.sTodoPin) refers (Special) to _printf_i.o(.ARM.Collect$$_printf_percent$$00000008) for _printf_i
    remoteautodetect.o(.data.sTodoPin) refers (Special) to _printf_f.o(.ARM.Collect$$_printf_percent$$00000003) for _printf_f
    remoteautodetect.o(.data.sTodoPin) refers (Special) to _printf_dec.o(.text) for _printf_int_dec
    remoteautodetect.o(.data.sTodoPin) refers (Special) to printf1.o(x$fpl$printf1) for _printf_fp_dec
    remoteautodetect.o(.data.sTodoPin) refers (Special) to _printf_str.o(.text) for _printf_str
    remoteautodetect.o(.data.sTodoPin) refers to remoteautodetect.o(.rodata.str1.1) for [Anonymous Symbol]
    remoteautodetect.o(.data.wStage) refers (Special) to _printf_percent.o(.ARM.Collect$$_printf_percent$$00000000) for _printf_percent
    remoteautodetect.o(.data.wStage) refers (Special) to _printf_s.o(.ARM.Collect$$_printf_percent$$00000014) for _printf_s
    remoteautodetect.o(.data.wStage) refers (Special) to _printf_i.o(.ARM.Collect$$_printf_percent$$00000008) for _printf_i
    remoteautodetect.o(.data.wStage) refers (Special) to _printf_f.o(.ARM.Collect$$_printf_percent$$00000003) for _printf_f
    remoteautodetect.o(.data.wStage) refers (Special) to _printf_dec.o(.text) for _printf_int_dec
    remoteautodetect.o(.data.wStage) refers (Special) to printf1.o(x$fpl$printf1) for _printf_fp_dec
    remoteautodetect.o(.data.wStage) refers (Special) to _printf_str.o(.text) for _printf_str
    remoteautodetect.o(.data.wStageOld) refers (Special) to _printf_percent.o(.ARM.Collect$$_printf_percent$$00000000) for _printf_percent
    remoteautodetect.o(.data.wStageOld) refers (Special) to _printf_s.o(.ARM.Collect$$_printf_percent$$00000014) for _printf_s
    remoteautodetect.o(.data.wStageOld) refers (Special) to _printf_i.o(.ARM.Collect$$_printf_percent$$00000008) for _printf_i
    remoteautodetect.o(.data.wStageOld) refers (Special) to _printf_f.o(.ARM.Collect$$_printf_percent$$00000003) for _printf_f
    remoteautodetect.o(.data.wStageOld) refers (Special) to _printf_dec.o(.text) for _printf_int_dec
    remoteautodetect.o(.data.wStageOld) refers (Special) to printf1.o(x$fpl$printf1) for _printf_fp_dec
    remoteautodetect.o(.data.wStageOld) refers (Special) to _printf_str.o(.text) for _printf_str
    remoteautodetect.o(.bss.iTest) refers (Special) to _printf_percent.o(.ARM.Collect$$_printf_percent$$00000000) for _printf_percent
    remoteautodetect.o(.bss.iTest) refers (Special) to _printf_s.o(.ARM.Collect$$_printf_percent$$00000014) for _printf_s
    remoteautodetect.o(.bss.iTest) refers (Special) to _printf_i.o(.ARM.Collect$$_printf_percent$$00000008) for _printf_i
    remoteautodetect.o(.bss.iTest) refers (Special) to _printf_f.o(.ARM.Collect$$_printf_percent$$00000003) for _printf_f
    remoteautodetect.o(.bss.iTest) refers (Special) to _printf_dec.o(.text) for _printf_int_dec
    remoteautodetect.o(.bss.iTest) refers (Special) to printf1.o(x$fpl$printf1) for _printf_fp_dec
    remoteautodetect.o(.bss.iTest) refers (Special) to _printf_str.o(.text) for _printf_str
    remoteautodetect.o(.bss.iTestPin) refers (Special) to _printf_percent.o(.ARM.Collect$$_printf_percent$$00000000) for _printf_percent
    remoteautodetect.o(.bss.iTestPin) refers (Special) to _printf_s.o(.ARM.Collect$$_printf_percent$$00000014) for _printf_s
    remoteautodetect.o(.bss.iTestPin) refers (Special) to _printf_i.o(.ARM.Collect$$_printf_percent$$00000008) for _printf_i
    remoteautodetect.o(.bss.iTestPin) refers (Special) to _printf_f.o(.ARM.Collect$$_printf_percent$$00000003) for _printf_f
    remoteautodetect.o(.bss.iTestPin) refers (Special) to _printf_dec.o(.text) for _printf_int_dec
    remoteautodetect.o(.bss.iTestPin) refers (Special) to printf1.o(x$fpl$printf1) for _printf_fp_dec
    remoteautodetect.o(.bss.iTestPin) refers (Special) to _printf_str.o(.text) for _printf_str
    remoteautodetect.o(.data.iTestStart) refers (Special) to _printf_percent.o(.ARM.Collect$$_printf_percent$$00000000) for _printf_percent
    remoteautodetect.o(.data.iTestStart) refers (Special) to _printf_s.o(.ARM.Collect$$_printf_percent$$00000014) for _printf_s
    remoteautodetect.o(.data.iTestStart) refers (Special) to _printf_i.o(.ARM.Collect$$_printf_percent$$00000008) for _printf_i
    remoteautodetect.o(.data.iTestStart) refers (Special) to _printf_f.o(.ARM.Collect$$_printf_percent$$00000003) for _printf_f
    remoteautodetect.o(.data.iTestStart) refers (Special) to _printf_dec.o(.text) for _printf_int_dec
    remoteautodetect.o(.data.iTestStart) refers (Special) to printf1.o(x$fpl$printf1) for _printf_fp_dec
    remoteautodetect.o(.data.iTestStart) refers (Special) to _printf_str.o(.text) for _printf_str
    remoteautodetect.o(.bss.iRepeat) refers (Special) to _printf_percent.o(.ARM.Collect$$_printf_percent$$00000000) for _printf_percent
    remoteautodetect.o(.bss.iRepeat) refers (Special) to _printf_s.o(.ARM.Collect$$_printf_percent$$00000014) for _printf_s
    remoteautodetect.o(.bss.iRepeat) refers (Special) to _printf_i.o(.ARM.Collect$$_printf_percent$$00000008) for _printf_i
    remoteautodetect.o(.bss.iRepeat) refers (Special) to _printf_f.o(.ARM.Collect$$_printf_percent$$00000003) for _printf_f
    remoteautodetect.o(.bss.iRepeat) refers (Special) to _printf_dec.o(.text) for _printf_int_dec
    remoteautodetect.o(.bss.iRepeat) refers (Special) to printf1.o(x$fpl$printf1) for _printf_fp_dec
    remoteautodetect.o(.bss.iRepeat) refers (Special) to _printf_str.o(.text) for _printf_str
    remoteautodetect.o(.bss.iAverage) refers (Special) to _printf_percent.o(.ARM.Collect$$_printf_percent$$00000000) for _printf_percent
    remoteautodetect.o(.bss.iAverage) refers (Special) to _printf_s.o(.ARM.Collect$$_printf_percent$$00000014) for _printf_s
    remoteautodetect.o(.bss.iAverage) refers (Special) to _printf_i.o(.ARM.Collect$$_printf_percent$$00000008) for _printf_i
    remoteautodetect.o(.bss.iAverage) refers (Special) to _printf_f.o(.ARM.Collect$$_printf_percent$$00000003) for _printf_f
    remoteautodetect.o(.bss.iAverage) refers (Special) to _printf_dec.o(.text) for _printf_int_dec
    remoteautodetect.o(.bss.iAverage) refers (Special) to printf1.o(x$fpl$printf1) for _printf_fp_dec
    remoteautodetect.o(.bss.iAverage) refers (Special) to _printf_str.o(.text) for _printf_str
    remoteautodetect.o(.data.iAverageMax) refers (Special) to _printf_percent.o(.ARM.Collect$$_printf_percent$$00000000) for _printf_percent
    remoteautodetect.o(.data.iAverageMax) refers (Special) to _printf_s.o(.ARM.Collect$$_printf_percent$$00000014) for _printf_s
    remoteautodetect.o(.data.iAverageMax) refers (Special) to _printf_i.o(.ARM.Collect$$_printf_percent$$00000008) for _printf_i
    remoteautodetect.o(.data.iAverageMax) refers (Special) to _printf_f.o(.ARM.Collect$$_printf_percent$$00000003) for _printf_f
    remoteautodetect.o(.data.iAverageMax) refers (Special) to _printf_dec.o(.text) for _printf_int_dec
    remoteautodetect.o(.data.iAverageMax) refers (Special) to printf1.o(x$fpl$printf1) for _printf_fp_dec
    remoteautodetect.o(.data.iAverageMax) refers (Special) to _printf_str.o(.text) for _printf_str
    remoteautodetect.o(.bss.msTicksWait) refers (Special) to _printf_percent.o(.ARM.Collect$$_printf_percent$$00000000) for _printf_percent
    remoteautodetect.o(.bss.msTicksWait) refers (Special) to _printf_s.o(.ARM.Collect$$_printf_percent$$00000014) for _printf_s
    remoteautodetect.o(.bss.msTicksWait) refers (Special) to _printf_i.o(.ARM.Collect$$_printf_percent$$00000008) for _printf_i
    remoteautodetect.o(.bss.msTicksWait) refers (Special) to _printf_f.o(.ARM.Collect$$_printf_percent$$00000003) for _printf_f
    remoteautodetect.o(.bss.msTicksWait) refers (Special) to _printf_dec.o(.text) for _printf_int_dec
    remoteautodetect.o(.bss.msTicksWait) refers (Special) to printf1.o(x$fpl$printf1) for _printf_fp_dec
    remoteautodetect.o(.bss.msTicksWait) refers (Special) to _printf_str.o(.text) for _printf_str
    remoteautodetect.o(.data.asScan) refers (Special) to _printf_percent.o(.ARM.Collect$$_printf_percent$$00000000) for _printf_percent
    remoteautodetect.o(.data.asScan) refers (Special) to _printf_s.o(.ARM.Collect$$_printf_percent$$00000014) for _printf_s
    remoteautodetect.o(.data.asScan) refers (Special) to _printf_i.o(.ARM.Collect$$_printf_percent$$00000008) for _printf_i
    remoteautodetect.o(.data.asScan) refers (Special) to _printf_f.o(.ARM.Collect$$_printf_percent$$00000003) for _printf_f
    remoteautodetect.o(.data.asScan) refers (Special) to _printf_dec.o(.text) for _printf_int_dec
    remoteautodetect.o(.data.asScan) refers (Special) to printf1.o(x$fpl$printf1) for _printf_fp_dec
    remoteautodetect.o(.data.asScan) refers (Special) to _printf_str.o(.text) for _printf_str
    remoteautodetect.o(.data.asScan) refers to remoteautodetect.o(.rodata.str1.1) for [Anonymous Symbol]
    remoteautodetect.o(.bss.aiPinScan) refers (Special) to _printf_percent.o(.ARM.Collect$$_printf_percent$$00000000) for _printf_percent
    remoteautodetect.o(.bss.aiPinScan) refers (Special) to _printf_s.o(.ARM.Collect$$_printf_percent$$00000014) for _printf_s
    remoteautodetect.o(.bss.aiPinScan) refers (Special) to _printf_i.o(.ARM.Collect$$_printf_percent$$00000008) for _printf_i
    remoteautodetect.o(.bss.aiPinScan) refers (Special) to _printf_f.o(.ARM.Collect$$_printf_percent$$00000003) for _printf_f
    remoteautodetect.o(.bss.aiPinScan) refers (Special) to _printf_dec.o(.text) for _printf_int_dec
    remoteautodetect.o(.bss.aiPinScan) refers (Special) to printf1.o(x$fpl$printf1) for _printf_fp_dec
    remoteautodetect.o(.bss.aiPinScan) refers (Special) to _printf_str.o(.text) for _printf_str
    remoteautodetect.o(.bss.aPinHall) refers (Special) to _printf_percent.o(.ARM.Collect$$_printf_percent$$00000000) for _printf_percent
    remoteautodetect.o(.bss.aPinHall) refers (Special) to _printf_s.o(.ARM.Collect$$_printf_percent$$00000014) for _printf_s
    remoteautodetect.o(.bss.aPinHall) refers (Special) to _printf_i.o(.ARM.Collect$$_printf_percent$$00000008) for _printf_i
    remoteautodetect.o(.bss.aPinHall) refers (Special) to _printf_f.o(.ARM.Collect$$_printf_percent$$00000003) for _printf_f
    remoteautodetect.o(.bss.aPinHall) refers (Special) to _printf_dec.o(.text) for _printf_int_dec
    remoteautodetect.o(.bss.aPinHall) refers (Special) to printf1.o(x$fpl$printf1) for _printf_fp_dec
    remoteautodetect.o(.bss.aPinHall) refers (Special) to _printf_str.o(.text) for _printf_str
    remoteautodetect.o(.data.aHallOrder) refers (Special) to _printf_percent.o(.ARM.Collect$$_printf_percent$$00000000) for _printf_percent
    remoteautodetect.o(.data.aHallOrder) refers (Special) to _printf_s.o(.ARM.Collect$$_printf_percent$$00000014) for _printf_s
    remoteautodetect.o(.data.aHallOrder) refers (Special) to _printf_i.o(.ARM.Collect$$_printf_percent$$00000008) for _printf_i
    remoteautodetect.o(.data.aHallOrder) refers (Special) to _printf_f.o(.ARM.Collect$$_printf_percent$$00000003) for _printf_f
    remoteautodetect.o(.data.aHallOrder) refers (Special) to _printf_dec.o(.text) for _printf_int_dec
    remoteautodetect.o(.data.aHallOrder) refers (Special) to printf1.o(x$fpl$printf1) for _printf_fp_dec
    remoteautodetect.o(.data.aHallOrder) refers (Special) to _printf_str.o(.text) for _printf_str
    remoteautodetect.o(.bss.wScanConfig) refers (Special) to _printf_percent.o(.ARM.Collect$$_printf_percent$$00000000) for _printf_percent
    remoteautodetect.o(.bss.wScanConfig) refers (Special) to _printf_s.o(.ARM.Collect$$_printf_percent$$00000014) for _printf_s
    remoteautodetect.o(.bss.wScanConfig) refers (Special) to _printf_i.o(.ARM.Collect$$_printf_percent$$00000008) for _printf_i
    remoteautodetect.o(.bss.wScanConfig) refers (Special) to _printf_f.o(.ARM.Collect$$_printf_percent$$00000003) for _printf_f
    remoteautodetect.o(.bss.wScanConfig) refers (Special) to _printf_dec.o(.text) for _printf_int_dec
    remoteautodetect.o(.bss.wScanConfig) refers (Special) to printf1.o(x$fpl$printf1) for _printf_fp_dec
    remoteautodetect.o(.bss.wScanConfig) refers (Special) to _printf_str.o(.text) for _printf_str
    remoteautodetect.o(.data.iMove) refers (Special) to _printf_percent.o(.ARM.Collect$$_printf_percent$$00000000) for _printf_percent
    remoteautodetect.o(.data.iMove) refers (Special) to _printf_s.o(.ARM.Collect$$_printf_percent$$00000014) for _printf_s
    remoteautodetect.o(.data.iMove) refers (Special) to _printf_i.o(.ARM.Collect$$_printf_percent$$00000008) for _printf_i
    remoteautodetect.o(.data.iMove) refers (Special) to _printf_f.o(.ARM.Collect$$_printf_percent$$00000003) for _printf_f
    remoteautodetect.o(.data.iMove) refers (Special) to _printf_dec.o(.text) for _printf_int_dec
    remoteautodetect.o(.data.iMove) refers (Special) to printf1.o(x$fpl$printf1) for _printf_fp_dec
    remoteautodetect.o(.data.iMove) refers (Special) to _printf_str.o(.text) for _printf_str
    remoteautodetect.o(.rodata.str1.4) refers (Special) to _printf_percent.o(.ARM.Collect$$_printf_percent$$00000000) for _printf_percent
    remoteautodetect.o(.rodata.str1.4) refers (Special) to _printf_s.o(.ARM.Collect$$_printf_percent$$00000014) for _printf_s
    remoteautodetect.o(.rodata.str1.4) refers (Special) to _printf_i.o(.ARM.Collect$$_printf_percent$$00000008) for _printf_i
    remoteautodetect.o(.rodata.str1.4) refers (Special) to _printf_f.o(.ARM.Collect$$_printf_percent$$00000003) for _printf_f
    remoteautodetect.o(.rodata.str1.4) refers (Special) to _printf_dec.o(.text) for _printf_int_dec
    remoteautodetect.o(.rodata.str1.4) refers (Special) to printf1.o(x$fpl$printf1) for _printf_fp_dec
    remoteautodetect.o(.rodata.str1.4) refers (Special) to _printf_str.o(.text) for _printf_str
    remoteautodetect.o(.data.iVBatMinTest) refers (Special) to _printf_percent.o(.ARM.Collect$$_printf_percent$$00000000) for _printf_percent
    remoteautodetect.o(.data.iVBatMinTest) refers (Special) to _printf_s.o(.ARM.Collect$$_printf_percent$$00000014) for _printf_s
    remoteautodetect.o(.data.iVBatMinTest) refers (Special) to _printf_i.o(.ARM.Collect$$_printf_percent$$00000008) for _printf_i
    remoteautodetect.o(.data.iVBatMinTest) refers (Special) to _printf_f.o(.ARM.Collect$$_printf_percent$$00000003) for _printf_f
    remoteautodetect.o(.data.iVBatMinTest) refers (Special) to _printf_dec.o(.text) for _printf_int_dec
    remoteautodetect.o(.data.iVBatMinTest) refers (Special) to printf1.o(x$fpl$printf1) for _printf_fp_dec
    remoteautodetect.o(.data.iVBatMinTest) refers (Special) to _printf_str.o(.text) for _printf_str
    remoteautodetect.o(.bss.msTicksTest) refers (Special) to _printf_percent.o(.ARM.Collect$$_printf_percent$$00000000) for _printf_percent
    remoteautodetect.o(.bss.msTicksTest) refers (Special) to _printf_s.o(.ARM.Collect$$_printf_percent$$00000014) for _printf_s
    remoteautodetect.o(.bss.msTicksTest) refers (Special) to _printf_i.o(.ARM.Collect$$_printf_percent$$00000008) for _printf_i
    remoteautodetect.o(.bss.msTicksTest) refers (Special) to _printf_f.o(.ARM.Collect$$_printf_percent$$00000003) for _printf_f
    remoteautodetect.o(.bss.msTicksTest) refers (Special) to _printf_dec.o(.text) for _printf_int_dec
    remoteautodetect.o(.bss.msTicksTest) refers (Special) to printf1.o(x$fpl$printf1) for _printf_fp_dec
    remoteautodetect.o(.bss.msTicksTest) refers (Special) to _printf_str.o(.text) for _printf_str
    remoteautodetect.o(.bss.fVBatt) refers (Special) to _printf_percent.o(.ARM.Collect$$_printf_percent$$00000000) for _printf_percent
    remoteautodetect.o(.bss.fVBatt) refers (Special) to _printf_s.o(.ARM.Collect$$_printf_percent$$00000014) for _printf_s
    remoteautodetect.o(.bss.fVBatt) refers (Special) to _printf_i.o(.ARM.Collect$$_printf_percent$$00000008) for _printf_i
    remoteautodetect.o(.bss.fVBatt) refers (Special) to _printf_f.o(.ARM.Collect$$_printf_percent$$00000003) for _printf_f
    remoteautodetect.o(.bss.fVBatt) refers (Special) to _printf_dec.o(.text) for _printf_int_dec
    remoteautodetect.o(.bss.fVBatt) refers (Special) to printf1.o(x$fpl$printf1) for _printf_fp_dec
    remoteautodetect.o(.bss.fVBatt) refers (Special) to _printf_str.o(.text) for _printf_str
    remoteautodetect.o(.bss.iOffsetDC) refers (Special) to _printf_percent.o(.ARM.Collect$$_printf_percent$$00000000) for _printf_percent
    remoteautodetect.o(.bss.iOffsetDC) refers (Special) to _printf_s.o(.ARM.Collect$$_printf_percent$$00000014) for _printf_s
    remoteautodetect.o(.bss.iOffsetDC) refers (Special) to _printf_i.o(.ARM.Collect$$_printf_percent$$00000008) for _printf_i
    remoteautodetect.o(.bss.iOffsetDC) refers (Special) to _printf_f.o(.ARM.Collect$$_printf_percent$$00000003) for _printf_f
    remoteautodetect.o(.bss.iOffsetDC) refers (Special) to _printf_dec.o(.text) for _printf_int_dec
    remoteautodetect.o(.bss.iOffsetDC) refers (Special) to printf1.o(x$fpl$printf1) for _printf_fp_dec
    remoteautodetect.o(.bss.iOffsetDC) refers (Special) to _printf_str.o(.text) for _printf_str
    remoteautodetect.o(.bss.fCurrentDC) refers (Special) to _printf_percent.o(.ARM.Collect$$_printf_percent$$00000000) for _printf_percent
    remoteautodetect.o(.bss.fCurrentDC) refers (Special) to _printf_s.o(.ARM.Collect$$_printf_percent$$00000014) for _printf_s
    remoteautodetect.o(.bss.fCurrentDC) refers (Special) to _printf_i.o(.ARM.Collect$$_printf_percent$$00000008) for _printf_i
    remoteautodetect.o(.bss.fCurrentDC) refers (Special) to _printf_f.o(.ARM.Collect$$_printf_percent$$00000003) for _printf_f
    remoteautodetect.o(.bss.fCurrentDC) refers (Special) to _printf_dec.o(.text) for _printf_int_dec
    remoteautodetect.o(.bss.fCurrentDC) refers (Special) to printf1.o(x$fpl$printf1) for _printf_fp_dec
    remoteautodetect.o(.bss.fCurrentDC) refers (Special) to _printf_str.o(.text) for _printf_str
    remoteautodetect.o(.data.bHallOld) refers (Special) to _printf_percent.o(.ARM.Collect$$_printf_percent$$00000000) for _printf_percent
    remoteautodetect.o(.data.bHallOld) refers (Special) to _printf_s.o(.ARM.Collect$$_printf_percent$$00000014) for _printf_s
    remoteautodetect.o(.data.bHallOld) refers (Special) to _printf_i.o(.ARM.Collect$$_printf_percent$$00000008) for _printf_i
    remoteautodetect.o(.data.bHallOld) refers (Special) to _printf_f.o(.ARM.Collect$$_printf_percent$$00000003) for _printf_f
    remoteautodetect.o(.data.bHallOld) refers (Special) to _printf_dec.o(.text) for _printf_int_dec
    remoteautodetect.o(.data.bHallOld) refers (Special) to printf1.o(x$fpl$printf1) for _printf_fp_dec
    remoteautodetect.o(.data.bHallOld) refers (Special) to _printf_str.o(.text) for _printf_str
    remoteautodetect.o(.bss.msTicksAuto) refers (Special) to _printf_percent.o(.ARM.Collect$$_printf_percent$$00000000) for _printf_percent
    remoteautodetect.o(.bss.msTicksAuto) refers (Special) to _printf_s.o(.ARM.Collect$$_printf_percent$$00000014) for _printf_s
    remoteautodetect.o(.bss.msTicksAuto) refers (Special) to _printf_i.o(.ARM.Collect$$_printf_percent$$00000008) for _printf_i
    remoteautodetect.o(.bss.msTicksAuto) refers (Special) to _printf_f.o(.ARM.Collect$$_printf_percent$$00000003) for _printf_f
    remoteautodetect.o(.bss.msTicksAuto) refers (Special) to _printf_dec.o(.text) for _printf_int_dec
    remoteautodetect.o(.bss.msTicksAuto) refers (Special) to printf1.o(x$fpl$printf1) for _printf_fp_dec
    remoteautodetect.o(.bss.msTicksAuto) refers (Special) to _printf_str.o(.text) for _printf_str
    remoteautodetect.o(.data.posAuto) refers (Special) to _printf_percent.o(.ARM.Collect$$_printf_percent$$00000000) for _printf_percent
    remoteautodetect.o(.data.posAuto) refers (Special) to _printf_s.o(.ARM.Collect$$_printf_percent$$00000014) for _printf_s
    remoteautodetect.o(.data.posAuto) refers (Special) to _printf_i.o(.ARM.Collect$$_printf_percent$$00000008) for _printf_i
    remoteautodetect.o(.data.posAuto) refers (Special) to _printf_f.o(.ARM.Collect$$_printf_percent$$00000003) for _printf_f
    remoteautodetect.o(.data.posAuto) refers (Special) to _printf_dec.o(.text) for _printf_int_dec
    remoteautodetect.o(.data.posAuto) refers (Special) to printf1.o(x$fpl$printf1) for _printf_fp_dec
    remoteautodetect.o(.data.posAuto) refers (Special) to _printf_str.o(.text) for _printf_str
    remoteautodetect.o(.bss.posOld) refers (Special) to _printf_percent.o(.ARM.Collect$$_printf_percent$$00000000) for _printf_percent
    remoteautodetect.o(.bss.posOld) refers (Special) to _printf_s.o(.ARM.Collect$$_printf_percent$$00000014) for _printf_s
    remoteautodetect.o(.bss.posOld) refers (Special) to _printf_i.o(.ARM.Collect$$_printf_percent$$00000008) for _printf_i
    remoteautodetect.o(.bss.posOld) refers (Special) to _printf_f.o(.ARM.Collect$$_printf_percent$$00000003) for _printf_f
    remoteautodetect.o(.bss.posOld) refers (Special) to _printf_dec.o(.text) for _printf_int_dec
    remoteautodetect.o(.bss.posOld) refers (Special) to printf1.o(x$fpl$printf1) for _printf_fp_dec
    remoteautodetect.o(.bss.posOld) refers (Special) to _printf_str.o(.text) for _printf_str
    remoteautodetect.o(.bss.iPhaseCurrent) refers (Special) to _printf_percent.o(.ARM.Collect$$_printf_percent$$00000000) for _printf_percent
    remoteautodetect.o(.bss.iPhaseCurrent) refers (Special) to _printf_s.o(.ARM.Collect$$_printf_percent$$00000014) for _printf_s
    remoteautodetect.o(.bss.iPhaseCurrent) refers (Special) to _printf_i.o(.ARM.Collect$$_printf_percent$$00000008) for _printf_i
    remoteautodetect.o(.bss.iPhaseCurrent) refers (Special) to _printf_f.o(.ARM.Collect$$_printf_percent$$00000003) for _printf_f
    remoteautodetect.o(.bss.iPhaseCurrent) refers (Special) to _printf_dec.o(.text) for _printf_int_dec
    remoteautodetect.o(.bss.iPhaseCurrent) refers (Special) to printf1.o(x$fpl$printf1) for _printf_fp_dec
    remoteautodetect.o(.bss.iPhaseCurrent) refers (Special) to _printf_str.o(.text) for _printf_str
    remoteautodetect.o(.bss.msTicksOld) refers (Special) to _printf_percent.o(.ARM.Collect$$_printf_percent$$00000000) for _printf_percent
    remoteautodetect.o(.bss.msTicksOld) refers (Special) to _printf_s.o(.ARM.Collect$$_printf_percent$$00000014) for _printf_s
    remoteautodetect.o(.bss.msTicksOld) refers (Special) to _printf_i.o(.ARM.Collect$$_printf_percent$$00000008) for _printf_i
    remoteautodetect.o(.bss.msTicksOld) refers (Special) to _printf_f.o(.ARM.Collect$$_printf_percent$$00000003) for _printf_f
    remoteautodetect.o(.bss.msTicksOld) refers (Special) to _printf_dec.o(.text) for _printf_int_dec
    remoteautodetect.o(.bss.msTicksOld) refers (Special) to printf1.o(x$fpl$printf1) for _printf_fp_dec
    remoteautodetect.o(.bss.msTicksOld) refers (Special) to _printf_str.o(.text) for _printf_str
    gd32f1x0_adc.o(.text) refers to gd32f1x0_rcu.o(.text) for rcu_periph_reset_enable
    gd32f1x0_adc.o(.ARM.exidx) refers to gd32f1x0_adc.o(.text) for [Anonymous Symbol]
    gd32f1x0_dbg.o(.ARM.exidx) refers to gd32f1x0_dbg.o(.text) for [Anonymous Symbol]
    gd32f1x0_dma.o(.ARM.exidx) refers to gd32f1x0_dma.o(.text) for [Anonymous Symbol]
    gd32f1x0_fwdgt.o(.ARM.exidx) refers to gd32f1x0_fwdgt.o(.text) for [Anonymous Symbol]
    gd32f1x0_gpio.o(.text) refers to gd32f1x0_gpio.o(.rodata..Lswitch.table.gpio_deinit.1) for .Lswitch.table.gpio_deinit.1
    gd32f1x0_gpio.o(.text) refers to gd32f1x0_rcu.o(.text) for rcu_periph_reset_enable
    gd32f1x0_gpio.o(.ARM.exidx) refers to gd32f1x0_gpio.o(.text) for [Anonymous Symbol]
    gd32f1x0_i2c.o(.text) refers to gd32f1x0_rcu.o(.text) for rcu_periph_reset_enable
    gd32f1x0_i2c.o(.ARM.exidx) refers to gd32f1x0_i2c.o(.text) for [Anonymous Symbol]
    gd32f1x0_misc.o(.ARM.exidx) refers to gd32f1x0_misc.o(.text) for [Anonymous Symbol]
    gd32f1x0_pmu.o(.text) refers to gd32f1x0_rcu.o(.text) for rcu_periph_reset_enable
    gd32f1x0_pmu.o(.text) refers to gd32f1x0_pmu.o(.bss.pmu_to_deepsleepmode.reg_snap.1) for pmu_to_deepsleepmode.reg_snap.1
    gd32f1x0_pmu.o(.text) refers to gd32f1x0_pmu.o(.bss.pmu_to_deepsleepmode.reg_snap.0) for pmu_to_deepsleepmode.reg_snap.0
    gd32f1x0_pmu.o(.text) refers to gd32f1x0_pmu.o(.bss.pmu_to_deepsleepmode.reg_snap.2) for pmu_to_deepsleepmode.reg_snap.2
    gd32f1x0_pmu.o(.text) refers to gd32f1x0_pmu.o(.bss.pmu_to_deepsleepmode.reg_snap.3) for pmu_to_deepsleepmode.reg_snap.3
    gd32f1x0_pmu.o(.ARM.exidx) refers to gd32f1x0_pmu.o(.text) for [Anonymous Symbol]
    gd32f1x0_rcu.o(.text) refers to gd32f1x0_rcu.o(.rodata.cst8) for .L__const.rcu_clock_freq_get.apb2_exp
    gd32f1x0_rcu.o(.ARM.exidx) refers to gd32f1x0_rcu.o(.text) for [Anonymous Symbol]
    gd32f1x0_syscfg.o(.text) refers to gd32f1x0_rcu.o(.text) for rcu_periph_reset_enable
    gd32f1x0_syscfg.o(.ARM.exidx) refers to gd32f1x0_syscfg.o(.text) for [Anonymous Symbol]
    gd32f1x0_timer.o(.text) refers to gd32f1x0_rcu.o(.text) for rcu_periph_reset_enable
    gd32f1x0_timer.o(.ARM.exidx) refers to gd32f1x0_timer.o(.text) for [Anonymous Symbol]
    gd32f1x0_usart.o(.text) refers to gd32f1x0_rcu.o(.text) for rcu_periph_reset_enable
    gd32f1x0_usart.o(.ARM.exidx) refers to gd32f1x0_usart.o(.text) for [Anonymous Symbol]
    gd32f1x0_wwdgt.o(.text) refers to gd32f1x0_rcu.o(.text) for rcu_periph_reset_enable
    gd32f1x0_wwdgt.o(.ARM.exidx) refers to gd32f1x0_wwdgt.o(.text) for [Anonymous Symbol]
    startup_gd32f1x0.o(STACK) refers (Special) to heapauxi.o(.text) for __use_two_region_memory
    startup_gd32f1x0.o(HEAP) refers (Special) to heapauxi.o(.text) for __use_two_region_memory
    startup_gd32f1x0.o(RESET) refers (Special) to heapauxi.o(.text) for __use_two_region_memory
    startup_gd32f1x0.o(RESET) refers to startup_gd32f1x0.o(STACK) for __initial_sp
    startup_gd32f1x0.o(RESET) refers to startup_gd32f1x0.o(.text) for Reset_Handler
    startup_gd32f1x0.o(RESET) refers to it.o(.text) for NMI_Handler
    startup_gd32f1x0.o(.text) refers (Special) to heapauxi.o(.text) for __use_two_region_memory
    startup_gd32f1x0.o(.text) refers to system_gd32f1x0.o(.text) for SystemInit
    startup_gd32f1x0.o(.text) refers to __main.o(!!!main) for __main
    startup_gd32f1x0.o(.text) refers to startup_gd32f1x0.o(HEAP) for Heap_Mem
    startup_gd32f1x0.o(.text) refers to startup_gd32f1x0.o(STACK) for Stack_Mem
    system_gd32f1x0.o(.text) refers to system_gd32f1x0.o(.data.SystemCoreClock) for SystemCoreClock
    system_gd32f1x0.o(.ARM.exidx) refers to system_gd32f1x0.o(.text) for [Anonymous Symbol]
    __2sprintf.o(.text) refers to _printf_char_common.o(.text) for _printf_char_common
    __2sprintf.o(.text) refers to _sputc.o(.text) for _sputc
    noretval__2sprintf.o(.text) refers to _printf_char_common.o(.text) for _printf_char_common
    noretval__2sprintf.o(.text) refers to _sputc.o(.text) for _sputc
    __printf.o(.text) refers to _printf_percent.o(.ARM.Collect$$_printf_percent$$00000000) for _printf_percent
    _printf_str.o(.text) refers (Special) to _printf_char.o(.text) for _printf_cs_common
    _printf_dec.o(.text) refers to _printf_intcommon.o(.text) for _printf_int_common
    __printf_flags.o(.text) refers to _printf_percent.o(.ARM.Collect$$_printf_percent$$00000000) for _printf_percent
    __printf_flags.o(.text) refers to __printf_flags.o(.constdata) for .constdata
    __printf_ss.o(.text) refers to _printf_percent.o(.ARM.Collect$$_printf_percent$$00000000) for _printf_percent
    __printf_flags_ss.o(.text) refers to _printf_percent.o(.ARM.Collect$$_printf_percent$$00000000) for _printf_percent
    __printf_flags_ss.o(.text) refers to __printf_flags_ss.o(.constdata) for .constdata
    __printf_wp.o(.text) refers to __printf_wp.o(i._is_digit) for _is_digit
    __printf_wp.o(.text) refers to _printf_percent.o(.ARM.Collect$$_printf_percent$$00000000) for _printf_percent
    __printf_flags_wp.o(.text) refers to __printf_wp.o(i._is_digit) for _is_digit
    __printf_flags_wp.o(.text) refers to _printf_percent.o(.ARM.Collect$$_printf_percent$$00000000) for _printf_percent
    __printf_flags_wp.o(.text) refers to __printf_flags_wp.o(.constdata) for .constdata
    __printf_ss_wp.o(.text) refers to __printf_wp.o(i._is_digit) for _is_digit
    __printf_ss_wp.o(.text) refers to _printf_percent.o(.ARM.Collect$$_printf_percent$$00000000) for _printf_percent
    __printf_flags_ss_wp.o(.text) refers to __printf_wp.o(i._is_digit) for _is_digit
    __printf_flags_ss_wp.o(.text) refers to _printf_percent.o(.ARM.Collect$$_printf_percent$$00000000) for _printf_percent
    __printf_flags_ss_wp.o(.text) refers to __printf_flags_ss_wp.o(.constdata) for .constdata
    _printf_s.o(.ARM.Collect$$_printf_percent$$00000014) refers (Weak) to _printf_char.o(.text) for _printf_string
    _printf_i.o(.ARM.Collect$$_printf_percent$$00000008) refers (Weak) to _printf_dec.o(.text) for _printf_int_dec
    _printf_f.o(.ARM.Collect$$_printf_percent$$00000003) refers (Weak) to printf1.o(x$fpl$printf1) for _printf_fp_dec
    _printf_percent.o(.ARM.Collect$$_printf_percent$$00000000) refers (Special) to _printf_percent_end.o(.ARM.Collect$$_printf_percent$$00000017) for _printf_percent_end
    __main.o(!!!main) refers to __rtentry.o(.ARM.Collect$$rtentry$$00000000) for __rt_entry
    d2f.o(x$fpl$d2f) refers (Special) to usenofp.o(x$fpl$usenofp) for __I$use$fp
    d2f.o(x$fpl$d2f) refers to fretinf.o(x$fpl$fretinf) for __fpl_fretinf
    d2f.o(x$fpl$d2f) refers to dnaninf.o(x$fpl$dnaninf) for __fpl_dnaninf
    daddsub_clz.o(x$fpl$dadd) refers (Special) to usenofp.o(x$fpl$usenofp) for __I$use$fp
    daddsub_clz.o(x$fpl$dadd) refers to daddsub_clz.o(x$fpl$dsub) for _dsub1
    daddsub_clz.o(x$fpl$dadd) refers to dretinf.o(x$fpl$dretinf) for __fpl_dretinf
    daddsub_clz.o(x$fpl$dadd) refers to dnaninf.o(x$fpl$dnaninf) for __fpl_dnaninf
    daddsub_clz.o(x$fpl$drsb) refers (Special) to usenofp.o(x$fpl$usenofp) for __I$use$fp
    daddsub_clz.o(x$fpl$drsb) refers to daddsub_clz.o(x$fpl$dadd) for _dadd1
    daddsub_clz.o(x$fpl$drsb) refers to daddsub_clz.o(x$fpl$dsub) for _dsub1
    daddsub_clz.o(x$fpl$dsub) refers (Special) to usenofp.o(x$fpl$usenofp) for __I$use$fp
    daddsub_clz.o(x$fpl$dsub) refers to daddsub_clz.o(x$fpl$dadd) for _dadd1
    daddsub_clz.o(x$fpl$dsub) refers to dnaninf.o(x$fpl$dnaninf) for __fpl_dnaninf
    dcmp.o(x$fpl$fcmp) refers (Special) to usenofp.o(x$fpl$usenofp) for __I$use$fp
    dcmp.o(x$fpl$fcmp) refers to deqf.o(x$fpl$deqf) for _dcmpeq
    dcmp.o(x$fpl$fcmp) refers to dgeqf.o(x$fpl$dgeqf) for _dcmpge
    dcmp.o(x$fpl$fcmp) refers to dleqf.o(x$fpl$dleqf) for _dcmple
    dfix.o(x$fpl$dfix) refers (Special) to usenofp.o(x$fpl$usenofp) for __I$use$fp
    dfix.o(x$fpl$dfix) refers to dnaninf.o(x$fpl$dnaninf) for __fpl_dnaninf
    dfix.o(x$fpl$dfixr) refers (Special) to usenofp.o(x$fpl$usenofp) for __I$use$fp
    dfix.o(x$fpl$dfixr) refers to dnaninf.o(x$fpl$dnaninf) for __fpl_dnaninf
    dflt_clz.o(x$fpl$dfltu) refers (Special) to usenofp.o(x$fpl$usenofp) for __I$use$fp
    dflt_clz.o(x$fpl$dflt) refers (Special) to usenofp.o(x$fpl$usenofp) for __I$use$fp
    dflt_clz.o(x$fpl$dfltn) refers (Special) to usenofp.o(x$fpl$usenofp) for __I$use$fp
    dmul.o(x$fpl$dmul) refers (Special) to usenofp.o(x$fpl$usenofp) for __I$use$fp
    dmul.o(x$fpl$dmul) refers to dretinf.o(x$fpl$dretinf) for __fpl_dretinf
    dmul.o(x$fpl$dmul) refers to dnaninf.o(x$fpl$dnaninf) for __fpl_dnaninf
    f2d.o(x$fpl$f2d) refers (Special) to usenofp.o(x$fpl$usenofp) for __I$use$fp
    f2d.o(x$fpl$f2d) refers to fnaninf.o(x$fpl$fnaninf) for __fpl_fnaninf
    f2d.o(x$fpl$f2d) refers to dretinf.o(x$fpl$dretinf) for __fpl_dretinf
    fcmp.o(x$fpl$fcmp) refers (Special) to usenofp.o(x$fpl$usenofp) for __I$use$fp
    fcmp.o(x$fpl$fcmp) refers to feqf.o(x$fpl$feqf) for _fcmpeq
    fcmp.o(x$fpl$fcmp) refers to fgeqf.o(x$fpl$fgeqf) for _fcmpge
    fcmp.o(x$fpl$fcmp) refers to fleqf.o(x$fpl$fleqf) for _fcmple
    fdiv.o(x$fpl$frdiv) refers (Special) to usenofp.o(x$fpl$usenofp) for __I$use$fp
    fdiv.o(x$fpl$frdiv) refers to fdiv.o(x$fpl$fdiv) for _fdiv1
    fdiv.o(x$fpl$fdiv) refers (Special) to usenofp.o(x$fpl$usenofp) for __I$use$fp
    fdiv.o(x$fpl$fdiv) refers to fretinf.o(x$fpl$fretinf) for __fpl_fretinf
    fdiv.o(x$fpl$fdiv) refers to fnaninf.o(x$fpl$fnaninf) for __fpl_fnaninf
    fflt_clz.o(x$fpl$ffltu) refers (Special) to usenofp.o(x$fpl$usenofp) for __I$use$fp
    fflt_clz.o(x$fpl$fflt) refers (Special) to usenofp.o(x$fpl$usenofp) for __I$use$fp
    fflt_clz.o(x$fpl$ffltn) refers (Special) to usenofp.o(x$fpl$usenofp) for __I$use$fp
    printf1.o(x$fpl$printf1) refers to _printf_fp_dec.o(.text) for _printf_fp_dec_real
    __rtentry.o(.ARM.Collect$$rtentry$$00000000) refers (Special) to __rtentry2.o(.ARM.Collect$$rtentry$$0000000A) for __rt_entry_li
    __rtentry.o(.ARM.Collect$$rtentry$$00000000) refers (Special) to __rtentry2.o(.ARM.Collect$$rtentry$$0000000D) for __rt_entry_main
    __rtentry.o(.ARM.Collect$$rtentry$$00000000) refers (Special) to __rtentry2.o(.ARM.Collect$$rtentry$$0000000C) for __rt_entry_postli_1
    __rtentry.o(.ARM.Collect$$rtentry$$00000000) refers (Special) to __rtentry2.o(.ARM.Collect$$rtentry$$00000009) for __rt_entry_postsh_1
    __rtentry.o(.ARM.Collect$$rtentry$$00000000) refers (Special) to __rtentry2.o(.ARM.Collect$$rtentry$$00000002) for __rt_entry_presh_1
    __rtentry.o(.ARM.Collect$$rtentry$$00000000) refers (Special) to __rtentry4.o(.ARM.Collect$$rtentry$$00000004) for __rt_entry_sh
    _printf_fp_dec.o(.text) refers (Special) to usenofp.o(x$fpl$usenofp) for __I$use$fp
    _printf_fp_dec.o(.text) refers (Special) to lc_numeric_c.o(locale$$code) for _get_lc_numeric
    _printf_fp_dec.o(.text) refers to bigflt0.o(.text) for _btod_etento
    _printf_fp_dec.o(.text) refers to btod.o(CL$$btod_d2e) for _btod_d2e
    _printf_fp_dec.o(.text) refers to btod.o(CL$$btod_ediv) for _btod_ediv
    _printf_fp_dec.o(.text) refers to btod.o(CL$$btod_emul) for _btod_emul
    _printf_fp_dec.o(.text) refers to lludiv10.o(.text) for _ll_udiv10
    _printf_fp_dec.o(.text) refers to fpclassify.o(i.__ARM_fpclassify) for __ARM_fpclassify
    _printf_fp_dec.o(.text) refers to _printf_fp_infnan.o(.text) for _printf_fp_infnan
    _printf_fp_dec.o(.text) refers to rt_locale_intlibspace.o(.text) for __rt_locale
    _printf_fp_dec_accurate.o(.text) refers (Special) to usenofp.o(x$fpl$usenofp) for __I$use$fp
    _printf_fp_dec_accurate.o(.text) refers (Special) to lc_numeric_c.o(locale$$code) for _get_lc_numeric
    _printf_fp_dec_accurate.o(.text) refers to btod_accurate.o(.text) for _btod_main
    _printf_fp_dec_accurate.o(.text) refers to fpclassify.o(i.__ARM_fpclassify) for __ARM_fpclassify
    _printf_fp_dec_accurate.o(.text) refers to _printf_fp_infnan.o(.text) for _printf_fp_infnan
    _printf_fp_dec_accurate.o(.text) refers to rt_locale_intlibspace.o(.text) for __rt_locale
    _printf_char_common.o(.text) refers to __printf_wp.o(.text) for __printf
    _printf_char.o(.text) refers (Weak) to _printf_str.o(.text) for _printf_str
    deqf.o(x$fpl$deqf) refers (Special) to usenofp.o(x$fpl$usenofp) for __I$use$fp
    deqf.o(x$fpl$deqf) refers to dnaninf.o(x$fpl$dnaninf) for __fpl_dnaninf
    deqf.o(x$fpl$deqf) refers to dcmpi.o(x$fpl$dcmpinf) for __fpl_dcmp_Inf
    dgeqf.o(x$fpl$dgeqf) refers (Special) to usenofp.o(x$fpl$usenofp) for __I$use$fp
    dgeqf.o(x$fpl$dgeqf) refers to dnaninf.o(x$fpl$dnaninf) for __fpl_dnaninf
    dgeqf.o(x$fpl$dgeqf) refers to dcmpi.o(x$fpl$dcmpinf) for __fpl_dcmp_Inf
    dleqf.o(x$fpl$dleqf) refers (Special) to usenofp.o(x$fpl$usenofp) for __I$use$fp
    dleqf.o(x$fpl$dleqf) refers to dnaninf.o(x$fpl$dnaninf) for __fpl_dnaninf
    dleqf.o(x$fpl$dleqf) refers to dcmpi.o(x$fpl$dcmpinf) for __fpl_dcmp_Inf
    dnaninf.o(x$fpl$dnaninf) refers (Special) to usenofp.o(x$fpl$usenofp) for __I$use$fp
    dretinf.o(x$fpl$dretinf) refers (Special) to usenofp.o(x$fpl$usenofp) for __I$use$fp
    feqf.o(x$fpl$feqf) refers (Special) to usenofp.o(x$fpl$usenofp) for __I$use$fp
    feqf.o(x$fpl$feqf) refers to fnaninf.o(x$fpl$fnaninf) for __fpl_fnaninf
    feqf.o(x$fpl$feqf) refers to fcmpi.o(x$fpl$fcmpinf) for __fpl_fcmp_Inf
    fgeqf.o(x$fpl$fgeqf) refers (Special) to usenofp.o(x$fpl$usenofp) for __I$use$fp
    fgeqf.o(x$fpl$fgeqf) refers to fnaninf.o(x$fpl$fnaninf) for __fpl_fnaninf
    fgeqf.o(x$fpl$fgeqf) refers to fcmpi.o(x$fpl$fcmpinf) for __fpl_fcmp_Inf
    fleqf.o(x$fpl$fleqf) refers (Special) to usenofp.o(x$fpl$usenofp) for __I$use$fp
    fleqf.o(x$fpl$fleqf) refers to fnaninf.o(x$fpl$fnaninf) for __fpl_fnaninf
    fleqf.o(x$fpl$fleqf) refers to fcmpi.o(x$fpl$fcmpinf) for __fpl_fcmp_Inf
    fnaninf.o(x$fpl$fnaninf) refers (Special) to usenofp.o(x$fpl$usenofp) for __I$use$fp
    fretinf.o(x$fpl$fretinf) refers (Special) to usenofp.o(x$fpl$usenofp) for __I$use$fp
    __rtentry2.o(.ARM.Collect$$rtentry$$00000008) refers to boardinit2.o(.text) for _platform_post_stackheap_init
    __rtentry2.o(.ARM.Collect$$rtentry$$0000000A) refers to libinit.o(.ARM.Collect$$libinit$$00000000) for __rt_lib_init
    __rtentry2.o(.ARM.Collect$$rtentry$$0000000B) refers to boardinit3.o(.text) for _platform_post_lib_init
    __rtentry2.o(.ARM.Collect$$rtentry$$0000000D) refers to main.o(.text) for main
    __rtentry2.o(.ARM.Collect$$rtentry$$0000000D) refers to exit.o(.text) for exit
    __rtentry2.o(.ARM.exidx) refers to __rtentry2.o(.ARM.Collect$$rtentry$$00000001) for .ARM.Collect$$rtentry$$00000001
    __rtentry2.o(.ARM.exidx) refers to __rtentry2.o(.ARM.Collect$$rtentry$$00000008) for .ARM.Collect$$rtentry$$00000008
    __rtentry2.o(.ARM.exidx) refers to __rtentry2.o(.ARM.Collect$$rtentry$$0000000A) for .ARM.Collect$$rtentry$$0000000A
    __rtentry2.o(.ARM.exidx) refers to __rtentry2.o(.ARM.Collect$$rtentry$$0000000B) for .ARM.Collect$$rtentry$$0000000B
    __rtentry2.o(.ARM.exidx) refers to __rtentry2.o(.ARM.Collect$$rtentry$$0000000D) for .ARM.Collect$$rtentry$$0000000D
    __rtentry4.o(.ARM.Collect$$rtentry$$00000004) refers to sys_stackheap_outer.o(.text) for __user_setup_stackheap
    __rtentry4.o(.ARM.exidx) refers to __rtentry4.o(.ARM.Collect$$rtentry$$00000004) for .ARM.Collect$$rtentry$$00000004
    rt_locale.o(.text) refers to rt_locale.o(.bss) for __rt_locale_data
    rt_locale_intlibspace.o(.text) refers to libspace.o(.bss) for __libspace_start
    bigflt0.o(.text) refers (Special) to usenofp.o(x$fpl$usenofp) for __I$use$fp
    bigflt0.o(.text) refers to btod.o(CL$$btod_emul) for _btod_emul
    bigflt0.o(.text) refers to btod.o(CL$$btod_ediv) for _btod_ediv
    bigflt0.o(.text) refers to bigflt0.o(.constdata) for .constdata
    bigflt0.o(.constdata) refers (Special) to usenofp.o(x$fpl$usenofp) for __I$use$fp
    btod.o(CL$$btod_d2e) refers (Special) to usenofp.o(x$fpl$usenofp) for __I$use$fp
    btod.o(CL$$btod_d2e) refers to btod.o(CL$$btod_d2e_norm_op1) for _d2e_norm_op1
    btod.o(CL$$btod_d2e_norm_op1) refers (Special) to usenofp.o(x$fpl$usenofp) for __I$use$fp
    btod.o(CL$$btod_d2e_norm_op1) refers to btod.o(CL$$btod_d2e_denorm_low) for _d2e_denorm_low
    btod.o(CL$$btod_d2e_denorm_low) refers (Special) to usenofp.o(x$fpl$usenofp) for __I$use$fp
    btod.o(CL$$btod_emul) refers (Special) to usenofp.o(x$fpl$usenofp) for __I$use$fp
    btod.o(CL$$btod_emul) refers to btod.o(CL$$btod_mult_common) for __btod_mult_common
    btod.o(CL$$btod_emul) refers to btod.o(CL$$btod_e2e) for _e2e
    btod.o(CL$$btod_ediv) refers (Special) to usenofp.o(x$fpl$usenofp) for __I$use$fp
    btod.o(CL$$btod_ediv) refers to btod.o(CL$$btod_div_common) for __btod_div_common
    btod.o(CL$$btod_ediv) refers to btod.o(CL$$btod_e2e) for _e2e
    btod.o(CL$$btod_emuld) refers (Special) to usenofp.o(x$fpl$usenofp) for __I$use$fp
    btod.o(CL$$btod_emuld) refers to btod.o(CL$$btod_mult_common) for __btod_mult_common
    btod.o(CL$$btod_emuld) refers to btod.o(CL$$btod_e2d) for _e2d
    btod.o(CL$$btod_edivd) refers (Special) to usenofp.o(x$fpl$usenofp) for __I$use$fp
    btod.o(CL$$btod_edivd) refers to btod.o(CL$$btod_div_common) for __btod_div_common
    btod.o(CL$$btod_edivd) refers to btod.o(CL$$btod_e2d) for _e2d
    btod.o(CL$$btod_e2e) refers (Special) to usenofp.o(x$fpl$usenofp) for __I$use$fp
    btod.o(CL$$btod_e2d) refers (Special) to usenofp.o(x$fpl$usenofp) for __I$use$fp
    btod.o(CL$$btod_e2d) refers to btod.o(CL$$btod_e2e) for _e2e
    btod.o(CL$$btod_mult_common) refers (Special) to usenofp.o(x$fpl$usenofp) for __I$use$fp
    btod.o(CL$$btod_div_common) refers (Special) to usenofp.o(x$fpl$usenofp) for __I$use$fp
    btod_accurate.o(.text) refers to btod_accurate_common.o(.text) for _btod_common
    lc_numeric_c.o(locale$$data) refers (Special) to libinit2.o(.ARM.Collect$$libinit$$00000018) for __rt_lib_init_lc_numeric_2
    lc_numeric_c.o(locale$$code) refers (Special) to libinit2.o(.ARM.Collect$$libinit$$00000018) for __rt_lib_init_lc_numeric_2
    lc_numeric_c.o(locale$$code) refers to strcmpv7m.o(.text) for strcmp
    lc_numeric_c.o(locale$$code) refers to lc_numeric_c.o(locale$$data) for __lcnum_c_name
    dcmpi.o(x$fpl$dcmpinf) refers (Special) to usenofp.o(x$fpl$usenofp) for __I$use$fp
    fcmpi.o(x$fpl$fcmpinf) refers (Special) to usenofp.o(x$fpl$usenofp) for __I$use$fp
    istatus.o(x$fpl$ieeestatus) refers (Special) to usenofp.o(x$fpl$usenofp) for __I$use$fp
    fpclassify.o(i.__ARM_fpclassify) refers (Special) to usenofp.o(x$fpl$usenofp) for __I$use$fp
    libspace.o(.text) refers to libspace.o(.bss) for __libspace_start
    sys_stackheap_outer.o(.text) refers to libspace.o(.text) for __user_perproc_libspace
    sys_stackheap_outer.o(.text) refers to startup_gd32f1x0.o(.text) for __user_initial_stackheap
    btod_accurate_common.o(.text) refers to llushr.o(.text) for __aeabi_llsr
    exit.o(.text) refers to rtexit.o(.ARM.Collect$$rtexit$$00000000) for __rt_exit
    libinit.o(.ARM.Collect$$libinit$$00000000) refers (Special) to libinit2.o(.ARM.Collect$$libinit$$00000030) for __rt_lib_init_alloca_1
    libinit.o(.ARM.Collect$$libinit$$00000000) refers (Special) to libinit2.o(.ARM.Collect$$libinit$$0000002E) for __rt_lib_init_argv_1
    libinit.o(.ARM.Collect$$libinit$$00000000) refers (Special) to libinit2.o(.ARM.Collect$$libinit$$0000001D) for __rt_lib_init_atexit_1
    libinit.o(.ARM.Collect$$libinit$$00000000) refers (Special) to libinit2.o(.ARM.Collect$$libinit$$00000023) for __rt_lib_init_clock_1
    libinit.o(.ARM.Collect$$libinit$$00000000) refers (Special) to libinit2.o(.ARM.Collect$$libinit$$00000034) for __rt_lib_init_cpp_1
    libinit.o(.ARM.Collect$$libinit$$00000000) refers (Special) to libinit2.o(.ARM.Collect$$libinit$$00000032) for __rt_lib_init_exceptions_1
    libinit.o(.ARM.Collect$$libinit$$00000000) refers (Special) to libinit2.o(.ARM.Collect$$libinit$$00000002) for __rt_lib_init_fp_1
    libinit.o(.ARM.Collect$$libinit$$00000000) refers (Special) to libinit2.o(.ARM.Collect$$libinit$$00000021) for __rt_lib_init_fp_trap_1
    libinit.o(.ARM.Collect$$libinit$$00000000) refers (Special) to libinit2.o(.ARM.Collect$$libinit$$00000025) for __rt_lib_init_getenv_1
    libinit.o(.ARM.Collect$$libinit$$00000000) refers (Special) to libinit2.o(.ARM.Collect$$libinit$$0000000C) for __rt_lib_init_heap_1
    libinit.o(.ARM.Collect$$libinit$$00000000) refers (Special) to libinit2.o(.ARM.Collect$$libinit$$00000013) for __rt_lib_init_lc_collate_1
    libinit.o(.ARM.Collect$$libinit$$00000000) refers (Special) to libinit2.o(.ARM.Collect$$libinit$$00000015) for __rt_lib_init_lc_ctype_1
    libinit.o(.ARM.Collect$$libinit$$00000000) refers (Special) to libinit2.o(.ARM.Collect$$libinit$$00000017) for __rt_lib_init_lc_monetary_1
    libinit.o(.ARM.Collect$$libinit$$00000000) refers (Special) to libinit2.o(.ARM.Collect$$libinit$$00000019) for __rt_lib_init_lc_numeric_1
    libinit.o(.ARM.Collect$$libinit$$00000000) refers (Special) to libinit2.o(.ARM.Collect$$libinit$$0000001B) for __rt_lib_init_lc_time_1
    libinit.o(.ARM.Collect$$libinit$$00000000) refers (Special) to libinit2.o(.ARM.Collect$$libinit$$00000006) for __rt_lib_init_preinit_1
    libinit.o(.ARM.Collect$$libinit$$00000000) refers (Special) to libinit2.o(.ARM.Collect$$libinit$$00000010) for __rt_lib_init_rand_1
    libinit.o(.ARM.Collect$$libinit$$00000000) refers (Special) to libinit2.o(.ARM.Collect$$libinit$$00000004) for __rt_lib_init_relocate_pie_1
    libinit.o(.ARM.Collect$$libinit$$00000000) refers (Special) to libinit2.o(.ARM.Collect$$libinit$$00000035) for __rt_lib_init_return
    libinit.o(.ARM.Collect$$libinit$$00000000) refers (Special) to libinit2.o(.ARM.Collect$$libinit$$0000001F) for __rt_lib_init_signal_1
    libinit.o(.ARM.Collect$$libinit$$00000000) refers (Special) to libinit2.o(.ARM.Collect$$libinit$$00000027) for __rt_lib_init_stdio_1
    libinit.o(.ARM.Collect$$libinit$$00000000) refers (Special) to libinit2.o(.ARM.Collect$$libinit$$0000000E) for __rt_lib_init_user_alloc_1
    libinit2.o(.ARM.Collect$$libinit$$00000011) refers (Weak) to rt_locale_intlibspace.o(.text) for __rt_locale
    libinit2.o(.ARM.Collect$$libinit$$00000012) refers to libinit2.o(.ARM.Collect$$libinit$$00000011) for .ARM.Collect$$libinit$$00000011
    libinit2.o(.ARM.Collect$$libinit$$00000014) refers to libinit2.o(.ARM.Collect$$libinit$$00000011) for .ARM.Collect$$libinit$$00000011
    libinit2.o(.ARM.Collect$$libinit$$00000016) refers to libinit2.o(.ARM.Collect$$libinit$$00000011) for .ARM.Collect$$libinit$$00000011
    libinit2.o(.ARM.Collect$$libinit$$00000018) refers to libinit2.o(.ARM.Collect$$libinit$$00000011) for .ARM.Collect$$libinit$$00000011
    libinit2.o(.ARM.Collect$$libinit$$00000018) refers (Weak) to lc_numeric_c.o(locale$$code) for _get_lc_numeric
    libinit2.o(.ARM.Collect$$libinit$$0000001A) refers to libinit2.o(.ARM.Collect$$libinit$$00000011) for .ARM.Collect$$libinit$$00000011
    libinit2.o(.ARM.Collect$$libinit$$00000028) refers to argv_veneer.o(.emb_text) for __ARM_argv_veneer
    libinit2.o(.ARM.Collect$$libinit$$00000029) refers to argv_veneer.o(.emb_text) for __ARM_argv_veneer
    rtexit.o(.ARM.Collect$$rtexit$$00000000) refers (Special) to rtexit2.o(.ARM.Collect$$rtexit$$00000004) for __rt_exit_exit
    rtexit.o(.ARM.Collect$$rtexit$$00000000) refers (Special) to rtexit2.o(.ARM.Collect$$rtexit$$00000003) for __rt_exit_ls
    rtexit.o(.ARM.Collect$$rtexit$$00000000) refers (Special) to rtexit2.o(.ARM.Collect$$rtexit$$00000002) for __rt_exit_prels_1
    rtexit.o(.ARM.exidx) refers (Special) to rtexit2.o(.ARM.Collect$$rtexit$$00000004) for __rt_exit_exit
    rtexit.o(.ARM.exidx) refers (Special) to rtexit2.o(.ARM.Collect$$rtexit$$00000003) for __rt_exit_ls
    rtexit.o(.ARM.exidx) refers (Special) to rtexit2.o(.ARM.Collect$$rtexit$$00000002) for __rt_exit_prels_1
    rtexit.o(.ARM.exidx) refers to rtexit.o(.ARM.Collect$$rtexit$$00000000) for .ARM.Collect$$rtexit$$00000000
    argv_veneer.o(.emb_text) refers to no_argv.o(.text) for __ARM_get_argv
    rtexit2.o(.ARM.Collect$$rtexit$$00000003) refers to libshutdown.o(.ARM.Collect$$libshutdown$$00000000) for __rt_lib_shutdown
    rtexit2.o(.ARM.Collect$$rtexit$$00000004) refers to sys_exit.o(.text) for _sys_exit
    rtexit2.o(.ARM.exidx) refers to rtexit2.o(.ARM.Collect$$rtexit$$00000001) for .ARM.Collect$$rtexit$$00000001
    rtexit2.o(.ARM.exidx) refers to rtexit2.o(.ARM.Collect$$rtexit$$00000003) for .ARM.Collect$$rtexit$$00000003
    rtexit2.o(.ARM.exidx) refers to rtexit2.o(.ARM.Collect$$rtexit$$00000004) for .ARM.Collect$$rtexit$$00000004
    _get_argv_nomalloc.o(.text) refers (Special) to hrguard.o(.text) for __heap_region$guard
    _get_argv_nomalloc.o(.text) refers to defsig_rtmem_outer.o(.text) for __rt_SIGRTMEM
    _get_argv_nomalloc.o(.text) refers to sys_command.o(.text) for _sys_command_string
    sys_command.o(.text) refers (Special) to use_no_semi.o(.text) for __I$use$semihosting
    sys_command.o(.text) refers (Special) to indicate_semi.o(.text) for __semihosting_library_function
    sys_exit.o(.text) refers (Special) to use_no_semi.o(.text) for __I$use$semihosting
    sys_exit.o(.text) refers (Special) to indicate_semi.o(.text) for __semihosting_library_function
    sys_command_hlt.o(.text) refers (Special) to use_no_semi.o(.text) for __I$use$semihosting
    sys_command_hlt.o(.text) refers (Special) to indicate_semi.o(.text) for __semihosting_library_function
    sys_exit_hlt.o(.text) refers (Special) to use_no_semi.o(.text) for __I$use$semihosting
    sys_exit_hlt.o(.text) refers (Special) to indicate_semi.o(.text) for __semihosting_library_function
    defsig_rtmem_outer.o(.text) refers to defsig_rtmem_inner.o(.text) for __rt_SIGRTMEM_inner
    defsig_rtmem_outer.o(.text) refers to defsig_exit.o(.text) for __sig_exit
    defsig_rtmem_formal.o(.text) refers to rt_raise.o(.text) for __rt_raise
    libshutdown.o(.ARM.Collect$$libshutdown$$00000000) refers (Special) to libshutdown2.o(.ARM.Collect$$libshutdown$$00000002) for __rt_lib_shutdown_cpp_1
    libshutdown.o(.ARM.Collect$$libshutdown$$00000000) refers (Special) to libshutdown2.o(.ARM.Collect$$libshutdown$$00000007) for __rt_lib_shutdown_fp_trap_1
    libshutdown.o(.ARM.Collect$$libshutdown$$00000000) refers (Special) to libshutdown2.o(.ARM.Collect$$libshutdown$$0000000F) for __rt_lib_shutdown_heap_1
    libshutdown.o(.ARM.Collect$$libshutdown$$00000000) refers (Special) to libshutdown2.o(.ARM.Collect$$libshutdown$$00000010) for __rt_lib_shutdown_return
    libshutdown.o(.ARM.Collect$$libshutdown$$00000000) refers (Special) to libshutdown2.o(.ARM.Collect$$libshutdown$$0000000A) for __rt_lib_shutdown_signal_1
    libshutdown.o(.ARM.Collect$$libshutdown$$00000000) refers (Special) to libshutdown2.o(.ARM.Collect$$libshutdown$$00000004) for __rt_lib_shutdown_stdio_1
    libshutdown.o(.ARM.Collect$$libshutdown$$00000000) refers (Special) to libshutdown2.o(.ARM.Collect$$libshutdown$$0000000C) for __rt_lib_shutdown_user_alloc_1
    rt_raise.o(.text) refers to __raise.o(.text) for __raise
    rt_raise.o(.text) refers to sys_exit.o(.text) for _sys_exit
    defsig_exit.o(.text) refers to sys_exit.o(.text) for _sys_exit
    defsig_rtmem_inner.o(.text) refers to defsig_general.o(.text) for __default_signal_display
    __raise.o(.text) refers to defsig.o(CL$$defsig) for __default_signal_handler
    defsig_general.o(.text) refers to sys_wrch.o(.text) for _ttywrch
    sys_wrch.o(.text) refers (Special) to use_no_semi.o(.text) for __I$use$semihosting
    sys_wrch.o(.text) refers (Special) to indicate_semi.o(.text) for __semihosting_library_function
    sys_wrch_hlt.o(.text) refers (Special) to use_no_semi.o(.text) for __I$use$semihosting
    sys_wrch_hlt.o(.text) refers (Special) to indicate_semi.o(.text) for __semihosting_library_function
    defsig.o(CL$$defsig) refers to defsig_rtmem_inner.o(.text) for __rt_SIGRTMEM_inner
    defsig_abrt_inner.o(.text) refers to defsig_general.o(.text) for __default_signal_display
    defsig_fpe_inner.o(.text) refers to defsig_general.o(.text) for __default_signal_display
    defsig_rtred_inner.o(.text) refers to defsig_general.o(.text) for __default_signal_display
    defsig_stak_inner.o(.text) refers to defsig_general.o(.text) for __default_signal_display
    defsig_pvfn_inner.o(.text) refers to defsig_general.o(.text) for __default_signal_display
    defsig_cppl_inner.o(.text) refers to defsig_general.o(.text) for __default_signal_display
    defsig_segv_inner.o(.text) refers to defsig_general.o(.text) for __default_signal_display
    defsig_other.o(.text) refers to defsig_general.o(.text) for __default_signal_display


==============================================================================

Removing Unused input sections from the image.

    Removing main.o(.ARM.exidx), (8 bytes).
    Removing main.o(.bss.speed), (4 bytes).
    Removing main.o(.data.speedLimit), (2 bytes).
    Removing main.o(.data.wState), (1 bytes).
    Removing main.o(.data.wStateSlave), (1 bytes).
    Removing main.o(.bss.activateWeakening), (1 bytes).
    Removing main.o(.data.beepsBackwards), (1 bytes).
    Removing main.o(.bss.slaveError), (1 bytes).
    Removing main.o(.bss.enable), (1 bytes).
    Removing main.o(.bss.pwmSlave), (2 bytes).
    Removing main.o(.ARM.use_no_argv), (4 bytes).
    Removing bldc.o(.ARM.exidx), (40 bytes).
    Removing bldc.o(.rodata.pwm_res), (2 bytes).
    Removing setup.o(.ARM.exidx), (64 bytes).
    Removing setup.o(.bss.usart1_rx_buf), (1 bytes).
    Removing it.o(.ARM.exidx), (128 bytes).
    Removing it.o(.bss.iUartCounter), (2 bytes).
    Removing led.o(.text), (0 bytes).
    Removing remoteuart.o(.text), (0 bytes).
    Removing remotecrsf.o(.text), (0 bytes).
    Removing remotedummy.o(.text), (0 bytes).
    Removing remoteuartbus.o(.text), (0 bytes).
    Removing commsmasterslave.o(.ARM.exidx), (32 bytes).
    Removing commsmasterslave.o(.bss.mosfetOutMaster), (1 bytes).
    Removing remoteautodetect.o(.ARM.exidx), (120 bytes).
    Removing remoteautodetect.o(.bss.iTimeNextTx), (4 bytes).
    Removing gd32f1x0_adc.o(.ARM.exidx), (256 bytes).
    Removing gd32f1x0_dbg.o(.text), (128 bytes).
    Removing gd32f1x0_dbg.o(.ARM.exidx), (48 bytes).
    Removing gd32f1x0_dma.o(.ARM.exidx), (216 bytes).
    Removing gd32f1x0_fwdgt.o(.ARM.exidx), (48 bytes).
    Removing gd32f1x0_gpio.o(.ARM.exidx), (104 bytes).
    Removing gd32f1x0_i2c.o(.text), (810 bytes).
    Removing gd32f1x0_i2c.o(.ARM.exidx), (248 bytes).
    Removing gd32f1x0_misc.o(.ARM.exidx), (56 bytes).
    Removing gd32f1x0_opa.o(.text), (0 bytes).
    Removing gd32f1x0_pmu.o(.text), (490 bytes).
    Removing gd32f1x0_pmu.o(.ARM.exidx), (96 bytes).
    Removing gd32f1x0_pmu.o(.bss.pmu_to_deepsleepmode.reg_snap.0), (4 bytes).
    Removing gd32f1x0_pmu.o(.bss.pmu_to_deepsleepmode.reg_snap.1), (4 bytes).
    Removing gd32f1x0_pmu.o(.bss.pmu_to_deepsleepmode.reg_snap.2), (4 bytes).
    Removing gd32f1x0_pmu.o(.bss.pmu_to_deepsleepmode.reg_snap.3), (4 bytes).
    Removing gd32f1x0_rcu.o(.ARM.exidx), (336 bytes).
    Removing gd32f1x0_syscfg.o(.text), (254 bytes).
    Removing gd32f1x0_syscfg.o(.ARM.exidx), (72 bytes).
    Removing gd32f1x0_timer.o(.ARM.exidx), (568 bytes).
    Removing gd32f1x0_usart.o(.ARM.exidx), (544 bytes).
    Removing gd32f1x0_wwdgt.o(.text), (170 bytes).
    Removing gd32f1x0_wwdgt.o(.ARM.exidx), (56 bytes).
    Removing system_gd32f1x0.o(.ARM.exidx), (16 bytes).

50 unused section(s) (total 4952 bytes) removed from the image.

==============================================================================

Image Symbol Table

    Local Symbols

    Symbol Name                              Value     Ov Type        Size  Object(Section)

    ../clib/angel/boardlib.s                 0x00000000   Number         0  boardinit1.o ABSOLUTE
    ../clib/angel/boardlib.s                 0x00000000   Number         0  boardinit2.o ABSOLUTE
    ../clib/angel/boardlib.s                 0x00000000   Number         0  boardinit3.o ABSOLUTE
    ../clib/angel/boardlib.s                 0x00000000   Number         0  boardshut.o ABSOLUTE
    ../clib/angel/dczerorl2.s                0x00000000   Number         0  __dczerorl2.o ABSOLUTE
    ../clib/angel/handlers.s                 0x00000000   Number         0  __scatter_zi.o ABSOLUTE
    ../clib/angel/kernel.s                   0x00000000   Number         0  __rtentry.o ABSOLUTE
    ../clib/angel/kernel.s                   0x00000000   Number         0  __rtentry2.o ABSOLUTE
    ../clib/angel/kernel.s                   0x00000000   Number         0  __rtentry4.o ABSOLUTE
    ../clib/angel/kernel.s                   0x00000000   Number         0  rtexit.o ABSOLUTE
    ../clib/angel/kernel.s                   0x00000000   Number         0  rtexit2.o ABSOLUTE
    ../clib/angel/rt.s                       0x00000000   Number         0  rt_locale.o ABSOLUTE
    ../clib/angel/rt.s                       0x00000000   Number         0  rt_locale_intlibspace.o ABSOLUTE
    ../clib/angel/rt.s                       0x00000000   Number         0  rt_raise.o ABSOLUTE
    ../clib/angel/scatter.s                  0x00000000   Number         0  __scatter.o ABSOLUTE
    ../clib/angel/startup.s                  0x00000000   Number         0  __main.o ABSOLUTE
    ../clib/angel/sys.s                      0x00000000   Number         0  libspace.o ABSOLUTE
    ../clib/angel/sys.s                      0x00000000   Number         0  sys_stackheap_outer.o ABSOLUTE
    ../clib/angel/sys.s                      0x00000000   Number         0  use_no_semi.o ABSOLUTE
    ../clib/angel/sys.s                      0x00000000   Number         0  indicate_semi.o ABSOLUTE
    ../clib/angel/sysapp.c                   0x00000000   Number         0  sys_command.o ABSOLUTE
    ../clib/angel/sysapp.c                   0x00000000   Number         0  sys_exit.o ABSOLUTE
    ../clib/angel/sysapp.c                   0x00000000   Number         0  sys_command_hlt.o ABSOLUTE
    ../clib/angel/sysapp.c                   0x00000000   Number         0  sys_exit_hlt.o ABSOLUTE
    ../clib/angel/sysapp.c                   0x00000000   Number         0  sys_wrch.o ABSOLUTE
    ../clib/angel/sysapp.c                   0x00000000   Number         0  sys_wrch_hlt.o ABSOLUTE
    ../clib/armsys.c                         0x00000000   Number         0  argv_veneer.o ABSOLUTE
    ../clib/armsys.c                         0x00000000   Number         0  argv_veneer.o ABSOLUTE
    ../clib/armsys.c                         0x00000000   Number         0  _get_argv_nomalloc.o ABSOLUTE
    ../clib/armsys.c                         0x00000000   Number         0  no_argv.o ABSOLUTE
    ../clib/bigflt.c                         0x00000000   Number         0  bigflt0.o ABSOLUTE
    ../clib/btod.s                           0x00000000   Number         0  btod.o ABSOLUTE
    ../clib/btod_accurate.c                  0x00000000   Number         0  btod_accurate.o ABSOLUTE
    ../clib/btod_accurate.c                  0x00000000   Number         0  btod_accurate_common.o ABSOLUTE
    ../clib/heapalloc.c                      0x00000000   Number         0  hrguard.o ABSOLUTE
    ../clib/heapaux.c                        0x00000000   Number         0  heapauxi.o ABSOLUTE
    ../clib/libinit.s                        0x00000000   Number         0  libinit.o ABSOLUTE
    ../clib/libinit.s                        0x00000000   Number         0  libinit2.o ABSOLUTE
    ../clib/libinit.s                        0x00000000   Number         0  libshutdown.o ABSOLUTE
    ../clib/libinit.s                        0x00000000   Number         0  libshutdown2.o ABSOLUTE
    ../clib/locale.s                         0x00000000   Number         0  lc_numeric_c.o ABSOLUTE
    ../clib/longlong.s                       0x00000000   Number         0  lludiv10.o ABSOLUTE
    ../clib/longlong.s                       0x00000000   Number         0  llushr.o ABSOLUTE
    ../clib/memcpset.s                       0x00000000   Number         0  rt_memcpy_w.o ABSOLUTE
    ../clib/memcpset.s                       0x00000000   Number         0  rt_memclr_w.o ABSOLUTE
    ../clib/memcpset.s                       0x00000000   Number         0  strcmpv7m.o ABSOLUTE
    ../clib/misc.s                           0x00000000   Number         0  printf_stubs.o ABSOLUTE
    ../clib/printf.c                         0x00000000   Number         0  __2sprintf.o ABSOLUTE
    ../clib/printf.c                         0x00000000   Number         0  noretval__2sprintf.o ABSOLUTE
    ../clib/printf.c                         0x00000000   Number         0  __printf.o ABSOLUTE
    ../clib/printf.c                         0x00000000   Number         0  _printf_str.o ABSOLUTE
    ../clib/printf.c                         0x00000000   Number         0  _printf_dec.o ABSOLUTE
    ../clib/printf.c                         0x00000000   Number         0  __printf_flags.o ABSOLUTE
    ../clib/printf.c                         0x00000000   Number         0  __printf_ss.o ABSOLUTE
    ../clib/printf.c                         0x00000000   Number         0  __printf_flags_ss.o ABSOLUTE
    ../clib/printf.c                         0x00000000   Number         0  __printf_wp.o ABSOLUTE
    ../clib/printf.c                         0x00000000   Number         0  __printf_flags_wp.o ABSOLUTE
    ../clib/printf.c                         0x00000000   Number         0  __printf_ss_wp.o ABSOLUTE
    ../clib/printf.c                         0x00000000   Number         0  __printf_flags_ss_wp.o ABSOLUTE
    ../clib/printf.c                         0x00000000   Number         0  _printf_intcommon.o ABSOLUTE
    ../clib/printf.c                         0x00000000   Number         0  _printf_fp_dec.o ABSOLUTE
    ../clib/printf.c                         0x00000000   Number         0  _printf_fp_dec_accurate.o ABSOLUTE
    ../clib/printf.c                         0x00000000   Number         0  _printf_char_common.o ABSOLUTE
    ../clib/printf.c                         0x00000000   Number         0  _sputc.o ABSOLUTE
    ../clib/printf.c                         0x00000000   Number         0  _printf_char.o ABSOLUTE
    ../clib/printf.c                         0x00000000   Number         0  _printf_fp_infnan.o ABSOLUTE
    ../clib/printf.c                         0x00000000   Number         0  __printf_nopercent.o ABSOLUTE
    ../clib/printf_percent.s                 0x00000000   Number         0  _printf_s.o ABSOLUTE
    ../clib/printf_percent.s                 0x00000000   Number         0  _printf_i.o ABSOLUTE
    ../clib/printf_percent.s                 0x00000000   Number         0  _printf_f.o ABSOLUTE
    ../clib/printf_percent.s                 0x00000000   Number         0  _printf_percent.o ABSOLUTE
    ../clib/printf_percent.s                 0x00000000   Number         0  _printf_percent_end.o ABSOLUTE
    ../clib/signal.c                         0x00000000   Number         0  defsig_rtmem_outer.o ABSOLUTE
    ../clib/signal.c                         0x00000000   Number         0  defsig_rtmem_formal.o ABSOLUTE
    ../clib/signal.c                         0x00000000   Number         0  defsig_exit.o ABSOLUTE
    ../clib/signal.c                         0x00000000   Number         0  defsig_rtmem_inner.o ABSOLUTE
    ../clib/signal.c                         0x00000000   Number         0  __raise.o ABSOLUTE
    ../clib/signal.c                         0x00000000   Number         0  defsig_general.o ABSOLUTE
    ../clib/signal.c                         0x00000000   Number         0  defsig_abrt_inner.o ABSOLUTE
    ../clib/signal.c                         0x00000000   Number         0  defsig_fpe_inner.o ABSOLUTE
    ../clib/signal.c                         0x00000000   Number         0  defsig_rtred_inner.o ABSOLUTE
    ../clib/signal.c                         0x00000000   Number         0  defsig_stak_inner.o ABSOLUTE
    ../clib/signal.c                         0x00000000   Number         0  defsig_pvfn_inner.o ABSOLUTE
    ../clib/signal.c                         0x00000000   Number         0  defsig_cppl_inner.o ABSOLUTE
    ../clib/signal.c                         0x00000000   Number         0  defsig_segv_inner.o ABSOLUTE
    ../clib/signal.c                         0x00000000   Number         0  defsig_other.o ABSOLUTE
    ../clib/signal.s                         0x00000000   Number         0  defsig.o ABSOLUTE
    ../clib/stdlib.c                         0x00000000   Number         0  exit.o ABSOLUTE
    ../clib/string.c                         0x00000000   Number         0  strlen.o ABSOLUTE
    ../fplib/d2f.s                           0x00000000   Number         0  d2f.o ABSOLUTE
    ../fplib/daddsub.s                       0x00000000   Number         0  daddsub_clz.o ABSOLUTE
    ../fplib/dcmp.s                          0x00000000   Number         0  dcmp.o ABSOLUTE
    ../fplib/dcmpi.s                         0x00000000   Number         0  dcmpi.o ABSOLUTE
    ../fplib/deqf.s                          0x00000000   Number         0  deqf.o ABSOLUTE
    ../fplib/dfix.s                          0x00000000   Number         0  dfix.o ABSOLUTE
    ../fplib/dflt.s                          0x00000000   Number         0  dflt_clz.o ABSOLUTE
    ../fplib/dgeqf.s                         0x00000000   Number         0  dgeqf.o ABSOLUTE
    ../fplib/dleqf.s                         0x00000000   Number         0  dleqf.o ABSOLUTE
    ../fplib/dmul.s                          0x00000000   Number         0  dmul.o ABSOLUTE
    ../fplib/dnaninf.s                       0x00000000   Number         0  dnaninf.o ABSOLUTE
    ../fplib/dretinf.s                       0x00000000   Number         0  dretinf.o ABSOLUTE
    ../fplib/f2d.s                           0x00000000   Number         0  f2d.o ABSOLUTE
    ../fplib/fcmp.s                          0x00000000   Number         0  fcmp.o ABSOLUTE
    ../fplib/fcmpi.s                         0x00000000   Number         0  fcmpi.o ABSOLUTE
    ../fplib/fdiv.s                          0x00000000   Number         0  fdiv.o ABSOLUTE
    ../fplib/feqf.s                          0x00000000   Number         0  feqf.o ABSOLUTE
    ../fplib/fflt.s                          0x00000000   Number         0  fflt_clz.o ABSOLUTE
    ../fplib/fgeqf.s                         0x00000000   Number         0  fgeqf.o ABSOLUTE
    ../fplib/fleqf.s                         0x00000000   Number         0  fleqf.o ABSOLUTE
    ../fplib/fnaninf.s                       0x00000000   Number         0  fnaninf.o ABSOLUTE
    ../fplib/fpinit.s                        0x00000000   Number         0  fpinit.o ABSOLUTE
    ../fplib/fpinit_empty.s                  0x00000000   Number         0  fpinit_empty.o ABSOLUTE
    ../fplib/fretinf.s                       0x00000000   Number         0  fretinf.o ABSOLUTE
    ../fplib/istatus.s                       0x00000000   Number         0  istatus.o ABSOLUTE
    ../fplib/printf1.s                       0x00000000   Number         0  printf1.o ABSOLUTE
    ../fplib/usenofp.s                       0x00000000   Number         0  usenofp.o ABSOLUTE
    ../mathlib/fpclassify.c                  0x00000000   Number         0  fpclassify.o ABSOLUTE
    RTE/Device/GD32F130C8/startup_gd32f1x0.s 0x00000000   Number         0  startup_gd32f1x0.o ABSOLUTE
    RemoteAutodetect.c                       0x00000000   Number         0  remoteautodetect.o ABSOLUTE
    bldc.c                                   0x00000000   Number         0  bldc.o ABSOLUTE
    commsMasterSlave.c                       0x00000000   Number         0  commsmasterslave.o ABSOLUTE
    dc.s                                     0x00000000   Number         0  dc.o ABSOLUTE
    gd32f1x0_adc.c                           0x00000000   Number         0  gd32f1x0_adc.o ABSOLUTE
    gd32f1x0_dbg.c                           0x00000000   Number         0  gd32f1x0_dbg.o ABSOLUTE
    gd32f1x0_dma.c                           0x00000000   Number         0  gd32f1x0_dma.o ABSOLUTE
    gd32f1x0_fwdgt.c                         0x00000000   Number         0  gd32f1x0_fwdgt.o ABSOLUTE
    gd32f1x0_gpio.c                          0x00000000   Number         0  gd32f1x0_gpio.o ABSOLUTE
    gd32f1x0_i2c.c                           0x00000000   Number         0  gd32f1x0_i2c.o ABSOLUTE
    gd32f1x0_misc.c                          0x00000000   Number         0  gd32f1x0_misc.o ABSOLUTE
    gd32f1x0_opa.c                           0x00000000   Number         0  gd32f1x0_opa.o ABSOLUTE
    gd32f1x0_pmu.c                           0x00000000   Number         0  gd32f1x0_pmu.o ABSOLUTE
    gd32f1x0_rcu.c                           0x00000000   Number         0  gd32f1x0_rcu.o ABSOLUTE
    gd32f1x0_syscfg.c                        0x00000000   Number         0  gd32f1x0_syscfg.o ABSOLUTE
    gd32f1x0_timer.c                         0x00000000   Number         0  gd32f1x0_timer.o ABSOLUTE
    gd32f1x0_usart.c                         0x00000000   Number         0  gd32f1x0_usart.o ABSOLUTE
    gd32f1x0_wwdgt.c                         0x00000000   Number         0  gd32f1x0_wwdgt.o ABSOLUTE
    it.c                                     0x00000000   Number         0  it.o ABSOLUTE
    led.c                                    0x00000000   Number         0  led.o ABSOLUTE
    main.c                                   0x00000000   Number         0  main.o ABSOLUTE
    remoteCrsf.c                             0x00000000   Number         0  remotecrsf.o ABSOLUTE
    remoteDummy.c                            0x00000000   Number         0  remotedummy.o ABSOLUTE
    remoteUart.c                             0x00000000   Number         0  remoteuart.o ABSOLUTE
    remoteUartBus.c                          0x00000000   Number         0  remoteuartbus.o ABSOLUTE
    setup.c                                  0x00000000   Number         0  setup.o ABSOLUTE
    system_gd32f1x0.c                        0x00000000   Number         0  system_gd32f1x0.o ABSOLUTE
    RESET                                    0x08000000   Section      360  startup_gd32f1x0.o(RESET)
    !!!main                                  0x08000168   Section        8  __main.o(!!!main)
    !!!scatter                               0x08000170   Section       52  __scatter.o(!!!scatter)
    !!dczerorl2                              0x080001a4   Section       90  __dczerorl2.o(!!dczerorl2)
    !!handler_zi                             0x08000200   Section       28  __scatter_zi.o(!!handler_zi)
    .ARM.Collect$$_printf_percent$$00000000  0x0800021c   Section        0  _printf_percent.o(.ARM.Collect$$_printf_percent$$00000000)
    .ARM.Collect$$_printf_percent$$00000003  0x0800021c   Section        6  _printf_f.o(.ARM.Collect$$_printf_percent$$00000003)
    .ARM.Collect$$_printf_percent$$00000008  0x08000222   Section        6  _printf_i.o(.ARM.Collect$$_printf_percent$$00000008)
    .ARM.Collect$$_printf_percent$$00000014  0x08000228   Section        6  _printf_s.o(.ARM.Collect$$_printf_percent$$00000014)
    .ARM.Collect$$_printf_percent$$00000017  0x0800022e   Section        4  _printf_percent_end.o(.ARM.Collect$$_printf_percent$$00000017)
    .ARM.Collect$$libinit$$00000000          0x08000232   Section        2  libinit.o(.ARM.Collect$$libinit$$00000000)
    .ARM.Collect$$libinit$$00000002          0x08000234   Section        0  libinit2.o(.ARM.Collect$$libinit$$00000002)
    .ARM.Collect$$libinit$$00000004          0x08000234   Section        0  libinit2.o(.ARM.Collect$$libinit$$00000004)
    .ARM.Collect$$libinit$$00000006          0x08000234   Section        0  libinit2.o(.ARM.Collect$$libinit$$00000006)
    .ARM.Collect$$libinit$$0000000C          0x08000234   Section        0  libinit2.o(.ARM.Collect$$libinit$$0000000C)
    .ARM.Collect$$libinit$$0000000E          0x08000234   Section        0  libinit2.o(.ARM.Collect$$libinit$$0000000E)
    .ARM.Collect$$libinit$$00000010          0x08000234   Section        0  libinit2.o(.ARM.Collect$$libinit$$00000010)
    .ARM.Collect$$libinit$$00000011          0x08000234   Section        6  libinit2.o(.ARM.Collect$$libinit$$00000011)
    .ARM.Collect$$libinit$$00000013          0x0800023a   Section        0  libinit2.o(.ARM.Collect$$libinit$$00000013)
    .ARM.Collect$$libinit$$00000015          0x0800023a   Section        0  libinit2.o(.ARM.Collect$$libinit$$00000015)
    .ARM.Collect$$libinit$$00000017          0x0800023a   Section        0  libinit2.o(.ARM.Collect$$libinit$$00000017)
    .ARM.Collect$$libinit$$00000018          0x0800023a   Section       10  libinit2.o(.ARM.Collect$$libinit$$00000018)
    .ARM.Collect$$libinit$$00000019          0x08000244   Section        0  libinit2.o(.ARM.Collect$$libinit$$00000019)
    .ARM.Collect$$libinit$$0000001B          0x08000244   Section        0  libinit2.o(.ARM.Collect$$libinit$$0000001B)
    .ARM.Collect$$libinit$$0000001D          0x08000244   Section        0  libinit2.o(.ARM.Collect$$libinit$$0000001D)
    .ARM.Collect$$libinit$$0000001F          0x08000244   Section        0  libinit2.o(.ARM.Collect$$libinit$$0000001F)
    .ARM.Collect$$libinit$$00000021          0x08000244   Section        0  libinit2.o(.ARM.Collect$$libinit$$00000021)
    .ARM.Collect$$libinit$$00000023          0x08000244   Section        0  libinit2.o(.ARM.Collect$$libinit$$00000023)
    .ARM.Collect$$libinit$$00000025          0x08000244   Section        0  libinit2.o(.ARM.Collect$$libinit$$00000025)
    .ARM.Collect$$libinit$$00000027          0x08000244   Section        0  libinit2.o(.ARM.Collect$$libinit$$00000027)
    .ARM.Collect$$libinit$$0000002E          0x08000244   Section        0  libinit2.o(.ARM.Collect$$libinit$$0000002E)
    .ARM.Collect$$libinit$$00000030          0x08000244   Section        0  libinit2.o(.ARM.Collect$$libinit$$00000030)
    .ARM.Collect$$libinit$$00000032          0x08000244   Section        0  libinit2.o(.ARM.Collect$$libinit$$00000032)
    .ARM.Collect$$libinit$$00000034          0x08000244   Section        0  libinit2.o(.ARM.Collect$$libinit$$00000034)
    .ARM.Collect$$libinit$$00000035          0x08000244   Section        2  libinit2.o(.ARM.Collect$$libinit$$00000035)
    .ARM.Collect$$libshutdown$$00000000      0x08000246   Section        2  libshutdown.o(.ARM.Collect$$libshutdown$$00000000)
    .ARM.Collect$$libshutdown$$00000002      0x08000248   Section        0  libshutdown2.o(.ARM.Collect$$libshutdown$$00000002)
    .ARM.Collect$$libshutdown$$00000004      0x08000248   Section        0  libshutdown2.o(.ARM.Collect$$libshutdown$$00000004)
    .ARM.Collect$$libshutdown$$00000007      0x08000248   Section        0  libshutdown2.o(.ARM.Collect$$libshutdown$$00000007)
    .ARM.Collect$$libshutdown$$0000000A      0x08000248   Section        0  libshutdown2.o(.ARM.Collect$$libshutdown$$0000000A)
    .ARM.Collect$$libshutdown$$0000000C      0x08000248   Section        0  libshutdown2.o(.ARM.Collect$$libshutdown$$0000000C)
    .ARM.Collect$$libshutdown$$0000000F      0x08000248   Section        0  libshutdown2.o(.ARM.Collect$$libshutdown$$0000000F)
    .ARM.Collect$$libshutdown$$00000010      0x08000248   Section        2  libshutdown2.o(.ARM.Collect$$libshutdown$$00000010)
    .ARM.Collect$$rtentry$$00000000          0x0800024a   Section        0  __rtentry.o(.ARM.Collect$$rtentry$$00000000)
    .ARM.Collect$$rtentry$$00000002          0x0800024a   Section        0  __rtentry2.o(.ARM.Collect$$rtentry$$00000002)
    .ARM.Collect$$rtentry$$00000004          0x0800024a   Section        6  __rtentry4.o(.ARM.Collect$$rtentry$$00000004)
    .ARM.Collect$$rtentry$$00000009          0x08000250   Section        0  __rtentry2.o(.ARM.Collect$$rtentry$$00000009)
    .ARM.Collect$$rtentry$$0000000A          0x08000250   Section        4  __rtentry2.o(.ARM.Collect$$rtentry$$0000000A)
    .ARM.Collect$$rtentry$$0000000C          0x08000254   Section        0  __rtentry2.o(.ARM.Collect$$rtentry$$0000000C)
    .ARM.Collect$$rtentry$$0000000D          0x08000254   Section        8  __rtentry2.o(.ARM.Collect$$rtentry$$0000000D)
    .ARM.Collect$$rtexit$$00000000           0x0800025c   Section        2  rtexit.o(.ARM.Collect$$rtexit$$00000000)
    .ARM.Collect$$rtexit$$00000002           0x0800025e   Section        0  rtexit2.o(.ARM.Collect$$rtexit$$00000002)
    .ARM.Collect$$rtexit$$00000003           0x0800025e   Section        4  rtexit2.o(.ARM.Collect$$rtexit$$00000003)
    .ARM.Collect$$rtexit$$00000004           0x08000262   Section        6  rtexit2.o(.ARM.Collect$$rtexit$$00000004)
    [Anonymous Symbol]                       0x08000268   Section        0  main.o(.text)
    [Anonymous Symbol]                       0x08000310   Section        0  bldc.o(.text)
    [Anonymous Symbol]                       0x080007b0   Section        0  setup.o(.text)
    [Anonymous Symbol]                       0x08000d20   Section        0  it.o(.text)
    [Anonymous Symbol]                       0x08000e30   Section        0  commsmasterslave.o(.text)
    [Anonymous Symbol]                       0x08000eb4   Section        0  remoteautodetect.o(.text)
    [Anonymous Symbol]                       0x08003090   Section        0  gd32f1x0_adc.o(.text)
    [Anonymous Symbol]                       0x08003638   Section        0  gd32f1x0_dma.o(.text)
    [Anonymous Symbol]                       0x08003984   Section        0  gd32f1x0_fwdgt.o(.text)
    [Anonymous Symbol]                       0x08003a60   Section        0  gd32f1x0_gpio.o(.text)
    [Anonymous Symbol]                       0x08003bf8   Section        0  gd32f1x0_misc.o(.text)
    [Anonymous Symbol]                       0x08003d28   Section        0  gd32f1x0_rcu.o(.text)
    [Anonymous Symbol]                       0x08004458   Section        0  gd32f1x0_timer.o(.text)
    [Anonymous Symbol]                       0x080051b8   Section        0  gd32f1x0_usart.o(.text)
    .text                                    0x080057f8   Section       64  startup_gd32f1x0.o(.text)
    [Anonymous Symbol]                       0x08005838   Section        0  system_gd32f1x0.o(.text)
    .text                                    0x08005974   Section        0  noretval__2sprintf.o(.text)
    .text                                    0x0800599c   Section        0  _printf_str.o(.text)
    .text                                    0x080059f0   Section        0  _printf_dec.o(.text)
    .text                                    0x08005a68   Section        0  __printf_wp.o(.text)
    .text                                    0x08005b76   Section        0  strlen.o(.text)
    .text                                    0x08005bb4   Section      100  rt_memcpy_w.o(.text)
    .text                                    0x08005c18   Section       78  rt_memclr_w.o(.text)
    .text                                    0x08005c66   Section        0  heapauxi.o(.text)
    .text                                    0x08005c6c   Section        0  _printf_intcommon.o(.text)
    _fp_digits                               0x08005d1f   Thumb Code   432  _printf_fp_dec.o(.text)
    .text                                    0x08005d1e   Section        0  _printf_fp_dec.o(.text)
    _printf_input_char                       0x0800613d   Thumb Code    10  _printf_char_common.o(.text)
    .text                                    0x0800613c   Section        0  _printf_char_common.o(.text)
    .text                                    0x0800616c   Section        0  _sputc.o(.text)
    .text                                    0x08006176   Section        0  _printf_char.o(.text)
    .text                                    0x080061a4   Section        8  rt_locale_intlibspace.o(.text)
    .text                                    0x080061ac   Section      138  lludiv10.o(.text)
    .text                                    0x08006238   Section        0  _printf_fp_infnan.o(.text)
    .text                                    0x080062b8   Section        0  bigflt0.o(.text)
    .text                                    0x0800639c   Section        8  libspace.o(.text)
    .text                                    0x080063a4   Section       74  sys_stackheap_outer.o(.text)
    .text                                    0x080063ee   Section        0  exit.o(.text)
    .text                                    0x08006400   Section      128  strcmpv7m.o(.text)
    .text                                    0x08006480   Section        0  sys_exit.o(.text)
    .text                                    0x0800648c   Section        2  use_no_semi.o(.text)
    .text                                    0x0800648e   Section        0  indicate_semi.o(.text)
    CL$$btod_d2e                             0x0800648e   Section       62  btod.o(CL$$btod_d2e)
    CL$$btod_d2e_denorm_low                  0x080064cc   Section       70  btod.o(CL$$btod_d2e_denorm_low)
    CL$$btod_d2e_norm_op1                    0x08006512   Section       96  btod.o(CL$$btod_d2e_norm_op1)
    CL$$btod_div_common                      0x08006574   Section      824  btod.o(CL$$btod_div_common)
    CL$$btod_e2e                             0x080068ac   Section      220  btod.o(CL$$btod_e2e)
    CL$$btod_ediv                            0x08006988   Section       42  btod.o(CL$$btod_ediv)
    CL$$btod_emul                            0x080069b2   Section       42  btod.o(CL$$btod_emul)
    CL$$btod_mult_common                     0x080069dc   Section      580  btod.o(CL$$btod_mult_common)
    i.__ARM_fpclassify                       0x08006c20   Section        0  fpclassify.o(i.__ARM_fpclassify)
    i._is_digit                              0x08006c48   Section        0  __printf_wp.o(i._is_digit)
    locale$$code                             0x08006c58   Section       44  lc_numeric_c.o(locale$$code)
    x$fpl$d2f                                0x08006c84   Section       98  d2f.o(x$fpl$d2f)
    x$fpl$dadd                               0x08006ce8   Section      336  daddsub_clz.o(x$fpl$dadd)
    _dadd1                                   0x08006cf9   Thumb Code     0  daddsub_clz.o(x$fpl$dadd)
    x$fpl$dcmpinf                            0x08006e38   Section       24  dcmpi.o(x$fpl$dcmpinf)
    x$fpl$deqf                               0x08006e50   Section      120  deqf.o(x$fpl$deqf)
    x$fpl$dfix                               0x08006ec8   Section       94  dfix.o(x$fpl$dfix)
    x$fpl$dflt                               0x08006f26   Section       46  dflt_clz.o(x$fpl$dflt)
    x$fpl$dfltu                              0x08006f54   Section       38  dflt_clz.o(x$fpl$dfltu)
    x$fpl$dgeqf                              0x08006f7c   Section      120  dgeqf.o(x$fpl$dgeqf)
    x$fpl$dleqf                              0x08006ff4   Section      120  dleqf.o(x$fpl$dleqf)
    x$fpl$dmul                               0x0800706c   Section      340  dmul.o(x$fpl$dmul)
    x$fpl$dnaninf                            0x080071c0   Section      156  dnaninf.o(x$fpl$dnaninf)
    x$fpl$dretinf                            0x0800725c   Section       12  dretinf.o(x$fpl$dretinf)
    x$fpl$dsub                               0x08007268   Section      476  daddsub_clz.o(x$fpl$dsub)
    _dsub1                                   0x08007279   Thumb Code     0  daddsub_clz.o(x$fpl$dsub)
    x$fpl$f2d                                0x08007444   Section       86  f2d.o(x$fpl$f2d)
    x$fpl$fcmp                               0x0800749a   Section       84  dcmp.o(x$fpl$fcmp)
    x$fpl$fcmp                               0x080074ee   Section       84  fcmp.o(x$fpl$fcmp)
    x$fpl$fcmpinf                            0x08007542   Section       24  fcmpi.o(x$fpl$fcmpinf)
    _fdiv1                                   0x0800755d   Thumb Code     0  fdiv.o(x$fpl$fdiv)
    x$fpl$fdiv                               0x0800755c   Section      388  fdiv.o(x$fpl$fdiv)
    x$fpl$feqf                               0x080076e0   Section      104  feqf.o(x$fpl$feqf)
    x$fpl$ffltu                              0x08007748   Section       38  fflt_clz.o(x$fpl$ffltu)
    x$fpl$fgeqf                              0x08007770   Section      104  fgeqf.o(x$fpl$fgeqf)
    x$fpl$fleqf                              0x080077d8   Section      104  fleqf.o(x$fpl$fleqf)
    x$fpl$fnaninf                            0x08007840   Section      140  fnaninf.o(x$fpl$fnaninf)
    x$fpl$fretinf                            0x080078cc   Section       10  fretinf.o(x$fpl$fretinf)
    x$fpl$printf1                            0x080078d6   Section        4  printf1.o(x$fpl$printf1)
    x$fpl$usenofp                            0x080078da   Section        0  usenofp.o(x$fpl$usenofp)
    tenpwrs_x                                0x080078dc   Data          60  bigflt0.o(.constdata)
    .constdata                               0x080078dc   Section      148  bigflt0.o(.constdata)
    tenpwrs_i                                0x08007918   Data          64  bigflt0.o(.constdata)
    .L__const.up_or_down.up_down             0x08007970   Data          12  bldc.o(.rodata..L__const.up_or_down.up_down)
    .Lswitch.table.gpio_deinit.1             0x0800797c   Data          12  gd32f1x0_gpio.o(.rodata..Lswitch.table.gpio_deinit.1)
    .L__const.rcu_clock_freq_get.apb2_exp    0x08007988   Data           8  gd32f1x0_rcu.o(.rodata.cst8)
    .L.str.78                                0x08007998   Data          17  remoteautodetect.o(.rodata.str1.1)
    [Anonymous Symbol]                       0x08007998   Section        0  remoteautodetect.o(.rodata.str1.1)
    .L.str.72                                0x080079a9   Data          39  remoteautodetect.o(.rodata.str1.1)
    .L.str.57                                0x080079d0   Data          13  remoteautodetect.o(.rodata.str1.1)
    .L.str.56                                0x080079dd   Data          11  remoteautodetect.o(.rodata.str1.1)
    .L.str.54                                0x080079e8   Data          20  remoteautodetect.o(.rodata.str1.1)
    .L.str.60                                0x080079fc   Data          16  remoteautodetect.o(.rodata.str1.1)
    .L.str.74                                0x08007a0c   Data          15  remoteautodetect.o(.rodata.str1.1)
    .L.str.45                                0x08007a1b   Data          19  remoteautodetect.o(.rodata.str1.1)
    .L.str.71                                0x08007a2e   Data          22  remoteautodetect.o(.rodata.str1.1)
    .L.str.42                                0x08007a44   Data         132  remoteautodetect.o(.rodata.str1.1)
    .L.str.62                                0x08007ac8   Data          10  remoteautodetect.o(.rodata.str1.1)
    .L.str.73                                0x08007ad2   Data           9  remoteautodetect.o(.rodata.str1.1)
    .L.str.67                                0x08007adb   Data          17  remoteautodetect.o(.rodata.str1.1)
    .L.str.66                                0x08007bc7   Data          65  remoteautodetect.o(.rodata.str1.1)
    .L.str.65                                0x08007c08   Data          39  remoteautodetect.o(.rodata.str1.1)
    .L.str.51                                0x08007c3c   Data         107  remoteautodetect.o(.rodata.str1.1)
    .L.str.64                                0x08007ca7   Data           9  remoteautodetect.o(.rodata.str1.1)
    .L.str.52                                0x08007cb0   Data          34  remoteautodetect.o(.rodata.str1.1)
    .L.str.69                                0x08007cd2   Data          14  remoteautodetect.o(.rodata.str1.1)
    .L.str.68                                0x08007ce0   Data          44  remoteautodetect.o(.rodata.str1.1)
    .L.str.53                                0x08007d0c   Data          29  remoteautodetect.o(.rodata.str1.1)
    .L.str.44                                0x08007d28   Data           1  remoteautodetect.o(.rodata.str1.1)
    .L.str.70                                0x08007d2c   Data          36  remoteautodetect.o(.rodata.str1.4)
    [Anonymous Symbol]                       0x08007d2c   Section        0  remoteautodetect.o(.rodata.str1.4)
    .L.str.50                                0x08007d50   Data          58  remoteautodetect.o(.rodata.str1.4)
    .L.str.49                                0x08007d8c   Data          70  remoteautodetect.o(.rodata.str1.4)
    .L.str.43                                0x08007dd4   Data          23  remoteautodetect.o(.rodata.str1.4)
    .L.str.61                                0x08007dec   Data          18  remoteautodetect.o(.rodata.str1.4)
    locale$$data                             0x08007e20   Section       28  lc_numeric_c.o(locale$$data)
    __lcnum_c_name                           0x08007e24   Data           2  lc_numeric_c.o(locale$$data)
    __lcnum_c_start                          0x08007e2c   Data           0  lc_numeric_c.o(locale$$data)
    __lcnum_c_point                          0x08007e38   Data           0  lc_numeric_c.o(locale$$data)
    __lcnum_c_thousands                      0x08007e3a   Data           0  lc_numeric_c.o(locale$$data)
    __lcnum_c_grouping                       0x08007e3b   Data           0  lc_numeric_c.o(locale$$data)
    __lcnum_c_end                            0x08007e3c   Data           0  lc_numeric_c.o(locale$$data)
    .bss                                     0x200001c0   Section       96  libspace.o(.bss)
    sMessage                                 0x20000300   Data         512  remoteautodetect.o(.bss.sMessage)
    Heap_Mem                                 0x20000560   Data        1024  startup_gd32f1x0.o(HEAP)
    HEAP                                     0x20000560   Section     1024  startup_gd32f1x0.o(HEAP)
    Stack_Mem                                0x20000960   Data        1024  startup_gd32f1x0.o(STACK)
    STACK                                    0x20000960   Section     1024  startup_gd32f1x0.o(STACK)
    __initial_sp                             0x20000d60   Data           0  startup_gd32f1x0.o(STACK)

    Global Symbols

    Symbol Name                              Value     Ov Type        Size  Object(Section)

    BuildAttributes$$THM_ISAv4$P$D$K$B$S$PE$A:L22UL41UL21$X:L11$S22US41US21$IEEE1$IW$~IW$USESV6$~STKCKD$USESV7$~SHL$OTIME$ROPI$IEEEJ$EBA8$UX$STANDARDLIB$REQ8$PRES8$EABIv2 0x00000000   Number         0  anon$$obj.o ABSOLUTE
    __fp_init_empty                          0x00000000   Number         0  fpinit_empty.o ABSOLUTE
    _printf_flags                            0x00000000   Number         0  printf_stubs.o ABSOLUTE
    _printf_return_value                     0x00000000   Number         0  printf_stubs.o ABSOLUTE
    _printf_sizespec                         0x00000000   Number         0  printf_stubs.o ABSOLUTE
    _printf_widthprec                        0x00000000   Number         0  printf_stubs.o ABSOLUTE
    __ARM_exceptions_init                     - Undefined Weak Reference
    __alloca_initialize                       - Undefined Weak Reference
    __arm_preinit_                            - Undefined Weak Reference
    __arm_relocate_pie_                       - Undefined Weak Reference
    __cpp_initialize__aeabi_                  - Undefined Weak Reference
    __cxa_finalize                            - Undefined Weak Reference
    __sigvec_lookup                           - Undefined Weak Reference
    _atexit_init                              - Undefined Weak Reference
    _call_atexit_fns                          - Undefined Weak Reference
    _clock_init                               - Undefined Weak Reference
    _fp_trap_init                             - Undefined Weak Reference
    _fp_trap_shutdown                         - Undefined Weak Reference
    _get_lc_collate                           - Undefined Weak Reference
    _get_lc_ctype                             - Undefined Weak Reference
    _get_lc_monetary                          - Undefined Weak Reference
    _get_lc_time                              - Undefined Weak Reference
    _getenv_init                              - Undefined Weak Reference
    _handle_redirection                       - Undefined Weak Reference
    _init_alloc                               - Undefined Weak Reference
    _init_user_alloc                          - Undefined Weak Reference
    _initio                                   - Undefined Weak Reference
    _printf_mbtowc                            - Undefined Weak Reference
    _printf_post_padding                      - Undefined Weak Reference
    _printf_pre_padding                       - Undefined Weak Reference
    _printf_truncate_signed                   - Undefined Weak Reference
    _printf_truncate_unsigned                 - Undefined Weak Reference
    _rand_init                                - Undefined Weak Reference
    _signal_finish                            - Undefined Weak Reference
    _signal_init                              - Undefined Weak Reference
    _terminate_alloc                          - Undefined Weak Reference
    _terminate_user_alloc                     - Undefined Weak Reference
    _terminateio                              - Undefined Weak Reference
    __Vectors_Size                           0x00000168   Number         0  startup_gd32f1x0.o ABSOLUTE
    __Vectors                                0x08000000   Data           4  startup_gd32f1x0.o(RESET)
    __Vectors_End                            0x08000168   Data           0  startup_gd32f1x0.o(RESET)
    __main                                   0x08000169   Thumb Code     8  __main.o(!!!main)
    __scatterload                            0x08000171   Thumb Code     0  __scatter.o(!!!scatter)
    __scatterload_rt2                        0x08000171   Thumb Code    44  __scatter.o(!!!scatter)
    __scatterload_rt2_thumb_only             0x08000171   Thumb Code     0  __scatter.o(!!!scatter)
    __scatterload_null                       0x0800017f   Thumb Code     0  __scatter.o(!!!scatter)
    __decompress                             0x080001a5   Thumb Code    90  __dczerorl2.o(!!dczerorl2)
    __decompress1                            0x080001a5   Thumb Code     0  __dczerorl2.o(!!dczerorl2)
    __scatterload_zeroinit                   0x08000201   Thumb Code    28  __scatter_zi.o(!!handler_zi)
    _printf_f                                0x0800021d   Thumb Code     0  _printf_f.o(.ARM.Collect$$_printf_percent$$00000003)
    _printf_percent                          0x0800021d   Thumb Code     0  _printf_percent.o(.ARM.Collect$$_printf_percent$$00000000)
    _printf_i                                0x08000223   Thumb Code     0  _printf_i.o(.ARM.Collect$$_printf_percent$$00000008)
    _printf_s                                0x08000229   Thumb Code     0  _printf_s.o(.ARM.Collect$$_printf_percent$$00000014)
    _printf_percent_end                      0x0800022f   Thumb Code     0  _printf_percent_end.o(.ARM.Collect$$_printf_percent$$00000017)
    __rt_lib_init                            0x08000233   Thumb Code     0  libinit.o(.ARM.Collect$$libinit$$00000000)
    __rt_lib_init_fp_1                       0x08000235   Thumb Code     0  libinit2.o(.ARM.Collect$$libinit$$00000002)
    __rt_lib_init_heap_1                     0x08000235   Thumb Code     0  libinit2.o(.ARM.Collect$$libinit$$0000000C)
    __rt_lib_init_lc_common                  0x08000235   Thumb Code     0  libinit2.o(.ARM.Collect$$libinit$$00000011)
    __rt_lib_init_preinit_1                  0x08000235   Thumb Code     0  libinit2.o(.ARM.Collect$$libinit$$00000006)
    __rt_lib_init_rand_1                     0x08000235   Thumb Code     0  libinit2.o(.ARM.Collect$$libinit$$00000010)
    __rt_lib_init_relocate_pie_1             0x08000235   Thumb Code     0  libinit2.o(.ARM.Collect$$libinit$$00000004)
    __rt_lib_init_user_alloc_1               0x08000235   Thumb Code     0  libinit2.o(.ARM.Collect$$libinit$$0000000E)
    __rt_lib_init_lc_collate_1               0x0800023b   Thumb Code     0  libinit2.o(.ARM.Collect$$libinit$$00000013)
    __rt_lib_init_lc_ctype_1                 0x0800023b   Thumb Code     0  libinit2.o(.ARM.Collect$$libinit$$00000015)
    __rt_lib_init_lc_monetary_1              0x0800023b   Thumb Code     0  libinit2.o(.ARM.Collect$$libinit$$00000017)
    __rt_lib_init_lc_numeric_2               0x0800023b   Thumb Code     0  libinit2.o(.ARM.Collect$$libinit$$00000018)
    __rt_lib_init_alloca_1                   0x08000245   Thumb Code     0  libinit2.o(.ARM.Collect$$libinit$$00000030)
    __rt_lib_init_argv_1                     0x08000245   Thumb Code     0  libinit2.o(.ARM.Collect$$libinit$$0000002E)
    __rt_lib_init_atexit_1                   0x08000245   Thumb Code     0  libinit2.o(.ARM.Collect$$libinit$$0000001D)
    __rt_lib_init_clock_1                    0x08000245   Thumb Code     0  libinit2.o(.ARM.Collect$$libinit$$00000023)
    __rt_lib_init_cpp_1                      0x08000245   Thumb Code     0  libinit2.o(.ARM.Collect$$libinit$$00000034)
    __rt_lib_init_exceptions_1               0x08000245   Thumb Code     0  libinit2.o(.ARM.Collect$$libinit$$00000032)
    __rt_lib_init_fp_trap_1                  0x08000245   Thumb Code     0  libinit2.o(.ARM.Collect$$libinit$$00000021)
    __rt_lib_init_getenv_1                   0x08000245   Thumb Code     0  libinit2.o(.ARM.Collect$$libinit$$00000025)
    __rt_lib_init_lc_numeric_1               0x08000245   Thumb Code     0  libinit2.o(.ARM.Collect$$libinit$$00000019)
    __rt_lib_init_lc_time_1                  0x08000245   Thumb Code     0  libinit2.o(.ARM.Collect$$libinit$$0000001B)
    __rt_lib_init_return                     0x08000245   Thumb Code     0  libinit2.o(.ARM.Collect$$libinit$$00000035)
    __rt_lib_init_signal_1                   0x08000245   Thumb Code     0  libinit2.o(.ARM.Collect$$libinit$$0000001F)
    __rt_lib_init_stdio_1                    0x08000245   Thumb Code     0  libinit2.o(.ARM.Collect$$libinit$$00000027)
    __rt_lib_shutdown                        0x08000247   Thumb Code     0  libshutdown.o(.ARM.Collect$$libshutdown$$00000000)
    __rt_lib_shutdown_cpp_1                  0x08000249   Thumb Code     0  libshutdown2.o(.ARM.Collect$$libshutdown$$00000002)
    __rt_lib_shutdown_fp_trap_1              0x08000249   Thumb Code     0  libshutdown2.o(.ARM.Collect$$libshutdown$$00000007)
    __rt_lib_shutdown_heap_1                 0x08000249   Thumb Code     0  libshutdown2.o(.ARM.Collect$$libshutdown$$0000000F)
    __rt_lib_shutdown_return                 0x08000249   Thumb Code     0  libshutdown2.o(.ARM.Collect$$libshutdown$$00000010)
    __rt_lib_shutdown_signal_1               0x08000249   Thumb Code     0  libshutdown2.o(.ARM.Collect$$libshutdown$$0000000A)
    __rt_lib_shutdown_stdio_1                0x08000249   Thumb Code     0  libshutdown2.o(.ARM.Collect$$libshutdown$$00000004)
    __rt_lib_shutdown_user_alloc_1           0x08000249   Thumb Code     0  libshutdown2.o(.ARM.Collect$$libshutdown$$0000000C)
    __rt_entry                               0x0800024b   Thumb Code     0  __rtentry.o(.ARM.Collect$$rtentry$$00000000)
    __rt_entry_presh_1                       0x0800024b   Thumb Code     0  __rtentry2.o(.ARM.Collect$$rtentry$$00000002)
    __rt_entry_sh                            0x0800024b   Thumb Code     0  __rtentry4.o(.ARM.Collect$$rtentry$$00000004)
    __rt_entry_li                            0x08000251   Thumb Code     0  __rtentry2.o(.ARM.Collect$$rtentry$$0000000A)
    __rt_entry_postsh_1                      0x08000251   Thumb Code     0  __rtentry2.o(.ARM.Collect$$rtentry$$00000009)
    __rt_entry_main                          0x08000255   Thumb Code     0  __rtentry2.o(.ARM.Collect$$rtentry$$0000000D)
    __rt_entry_postli_1                      0x08000255   Thumb Code     0  __rtentry2.o(.ARM.Collect$$rtentry$$0000000C)
    __rt_exit                                0x0800025d   Thumb Code     0  rtexit.o(.ARM.Collect$$rtexit$$00000000)
    __rt_exit_ls                             0x0800025f   Thumb Code     0  rtexit2.o(.ARM.Collect$$rtexit$$00000003)
    __rt_exit_prels_1                        0x0800025f   Thumb Code     0  rtexit2.o(.ARM.Collect$$rtexit$$00000002)
    __rt_exit_exit                           0x08000263   Thumb Code     0  rtexit2.o(.ARM.Collect$$rtexit$$00000004)
    main                                     0x08000269   Thumb Code   166  main.o(.text)
    modulo                                   0x08000311   Thumb Code    22  bldc.o(.text)
    up_or_down                               0x08000329   Thumb Code    60  bldc.o(.text)
    SetEnable                                0x08000365   Thumb Code    12  bldc.o(.text)
    SetPWM                                   0x08000371   Thumb Code   120  bldc.o(.text)
    CalculateBLDC                            0x080003e9   Thumb Code   966  bldc.o(.text)
    Interrupt_init                           0x080007b1   Thumb Code     8  setup.o(.text)
    Watchdog_init                            0x080007b9   Thumb Code    56  setup.o(.text)
    TimeoutTimer_init                        0x080007f1   Thumb Code    92  setup.o(.text)
    GPIO_init                                0x0800084d   Thumb Code   342  setup.o(.text)
    PWM_init                                 0x080009a5   Thumb Code   368  setup.o(.text)
    ADC_init                                 0x08000b15   Thumb Code   234  setup.o(.text)
    USART1_Init                              0x08000c01   Thumb Code     2  setup.o(.text)
    USART0_Init                              0x08000c05   Thumb Code   284  setup.o(.text)
    SysTick_Handler                          0x08000d21   Thumb Code    16  it.o(.text)
    ResetTimeout                             0x08000d31   Thumb Code    14  it.o(.text)
    TIMER13_IRQHandler                       0x08000d41   Thumb Code    76  it.o(.text)
    TIMER0_BRK_UP_TRG_COM_IRQHandler         0x08000d8d   Thumb Code    26  it.o(.text)
    DMA_Channel0_IRQHandler                  0x08000da9   Thumb Code    32  it.o(.text)
    DMA_Channel1_2_IRQHandler                0x08000dc9   Thumb Code    32  it.o(.text)
    millis                                   0x08000de9   Thumb Code    12  it.o(.text)
    Delay                                    0x08000df5   Thumb Code    28  it.o(.text)
    NMI_Handler                              0x08000e11   Thumb Code     2  it.o(.text)
    HardFault_Handler                        0x08000e15   Thumb Code     2  it.o(.text)
    MemManage_Handler                        0x08000e19   Thumb Code     2  it.o(.text)
    BusFault_Handler                         0x08000e1d   Thumb Code     2  it.o(.text)
    UsageFault_Handler                       0x08000e21   Thumb Code     2  it.o(.text)
    SVC_Handler                              0x08000e25   Thumb Code     2  it.o(.text)
    DebugMon_Handler                         0x08000e29   Thumb Code     2  it.o(.text)
    PendSV_Handler                           0x08000e2d   Thumb Code     2  it.o(.text)
    SendBuffer                               0x08000e31   Thumb Code    48  commsmasterslave.o(.text)
    CalcCRC                                  0x08000e61   Thumb Code    60  commsmasterslave.o(.text)
    SetBeepsBackwardsMaster                  0x08000e9d   Thumb Code    12  commsmasterslave.o(.text)
    GetBeepsBackwardsMaster                  0x08000ea9   Thumb Code    12  commsmasterslave.o(.text)
    RemoteUpdate                             0x08000eb5   Thumb Code    54  remoteautodetect.o(.text)
    RemoteCallback                           0x08000eed   Thumb Code    52  remoteautodetect.o(.text)
    GetPinName                               0x08000f21   Thumb Code    42  remoteautodetect.o(.text)
    HidePinDigital                           0x08000f4d   Thumb Code    58  remoteautodetect.o(.text)
    AutodetectInit                           0x08000f89   Thumb Code   108  remoteautodetect.o(.text)
    AutoDetectSetStage                       0x08000ff5   Thumb Code    68  remoteautodetect.o(.text)
    AutoDetectNextStage                      0x08001039   Thumb Code    72  remoteautodetect.o(.text)
    HallList                                 0x08001081   Thumb Code   226  remoteautodetect.o(.text)
    SetNextTestPin                           0x08001165   Thumb Code   234  remoteautodetect.o(.text)
    ScanInit                                 0x08001251   Thumb Code   812  remoteautodetect.o(.text)
    ListFound                                0x0800157d   Thumb Code   136  remoteautodetect.o(.text)
    AutodetectScan                           0x08001605   Thumb Code  3972  remoteautodetect.o(.text)
    AutoDetectHallInit                       0x08002621   Thumb Code   146  remoteautodetect.o(.text)
    AutoDetectHallOrderInit                  0x080026b5   Thumb Code   156  remoteautodetect.o(.text)
    AutodetectBldc                           0x08002751   Thumb Code  2224  remoteautodetect.o(.text)
    adc_deinit                               0x08003091   Thumb Code    22  gd32f1x0_adc.o(.text)
    adc_enable                               0x080030a9   Thumb Code    26  gd32f1x0_adc.o(.text)
    adc_disable                              0x080030c5   Thumb Code    18  gd32f1x0_adc.o(.text)
    adc_calibration_enable                   0x080030d9   Thumb Code    40  gd32f1x0_adc.o(.text)
    adc_dma_mode_enable                      0x08003101   Thumb Code    18  gd32f1x0_adc.o(.text)
    adc_dma_mode_disable                     0x08003115   Thumb Code    18  gd32f1x0_adc.o(.text)
    adc_tempsensor_vrefint_enable            0x08003129   Thumb Code    18  gd32f1x0_adc.o(.text)
    adc_tempsensor_vrefint_disable           0x0800313d   Thumb Code    18  gd32f1x0_adc.o(.text)
    adc_vbat_enable                          0x08003151   Thumb Code    18  gd32f1x0_adc.o(.text)
    adc_vbat_disable                         0x08003165   Thumb Code    18  gd32f1x0_adc.o(.text)
    adc_discontinuous_mode_config            0x08003179   Thumb Code    68  gd32f1x0_adc.o(.text)
    adc_special_function_config              0x080031bd   Thumb Code   100  gd32f1x0_adc.o(.text)
    adc_data_alignment_config                0x08003221   Thumb Code    26  gd32f1x0_adc.o(.text)
    adc_channel_length_config                0x0800323d   Thumb Code    82  gd32f1x0_adc.o(.text)
    adc_regular_channel_config               0x08003291   Thumb Code   180  gd32f1x0_adc.o(.text)
    adc_inserted_channel_config              0x08003345   Thumb Code   114  gd32f1x0_adc.o(.text)
    adc_inserted_channel_offset_config       0x080033b9   Thumb Code    32  gd32f1x0_adc.o(.text)
    adc_external_trigger_config              0x080033d9   Thumb Code    72  gd32f1x0_adc.o(.text)
    adc_external_trigger_source_config       0x08003421   Thumb Code    42  gd32f1x0_adc.o(.text)
    adc_software_trigger_enable              0x0800344d   Thumb Code    36  gd32f1x0_adc.o(.text)
    adc_regular_data_read                    0x08003471   Thumb Code    14  gd32f1x0_adc.o(.text)
    adc_inserted_data_read                   0x08003481   Thumb Code    74  gd32f1x0_adc.o(.text)
    adc_flag_get                             0x080034cd   Thumb Code    18  gd32f1x0_adc.o(.text)
    adc_flag_clear                           0x080034e1   Thumb Code    18  gd32f1x0_adc.o(.text)
    adc_interrupt_flag_get                   0x080034f5   Thumb Code    56  gd32f1x0_adc.o(.text)
    adc_interrupt_flag_clear                 0x0800352d   Thumb Code    18  gd32f1x0_adc.o(.text)
    adc_interrupt_enable                     0x08003541   Thumb Code    48  gd32f1x0_adc.o(.text)
    adc_interrupt_disable                    0x08003571   Thumb Code    48  gd32f1x0_adc.o(.text)
    adc_watchdog_single_channel_enable       0x080035a1   Thumb Code    42  gd32f1x0_adc.o(.text)
    adc_watchdog_group_channel_enable        0x080035cd   Thumb Code    48  gd32f1x0_adc.o(.text)
    adc_watchdog_disable                     0x08003609   Thumb Code    24  gd32f1x0_adc.o(.text)
    adc_watchdog_threshold_config            0x08003621   Thumb Code    22  gd32f1x0_adc.o(.text)
    dma_deinit                               0x08003639   Thumb Code    48  gd32f1x0_dma.o(.text)
    dma_struct_para_init                     0x08003669   Thumb Code    24  gd32f1x0_dma.o(.text)
    dma_init                                 0x08003681   Thumb Code   122  gd32f1x0_dma.o(.text)
    dma_circulation_enable                   0x080036fd   Thumb Code    24  gd32f1x0_dma.o(.text)
    dma_circulation_disable                  0x08003715   Thumb Code    24  gd32f1x0_dma.o(.text)
    dma_memory_to_memory_enable              0x0800372d   Thumb Code    24  gd32f1x0_dma.o(.text)
    dma_memory_to_memory_disable             0x08003745   Thumb Code    24  gd32f1x0_dma.o(.text)
    dma_channel_enable                       0x0800375d   Thumb Code    24  gd32f1x0_dma.o(.text)
    dma_channel_disable                      0x08003775   Thumb Code    24  gd32f1x0_dma.o(.text)
    dma_periph_address_config                0x0800378d   Thumb Code    16  gd32f1x0_dma.o(.text)
    dma_memory_address_config                0x0800379d   Thumb Code    16  gd32f1x0_dma.o(.text)
    dma_transfer_number_config               0x080037ad   Thumb Code    16  gd32f1x0_dma.o(.text)
    dma_transfer_number_get                  0x080037bd   Thumb Code    16  gd32f1x0_dma.o(.text)
    dma_priority_config                      0x080037cd   Thumb Code    26  gd32f1x0_dma.o(.text)
    dma_memory_width_config                  0x080037e9   Thumb Code    26  gd32f1x0_dma.o(.text)
    dma_periph_width_config                  0x08003805   Thumb Code    26  gd32f1x0_dma.o(.text)
    dma_memory_increase_enable               0x08003821   Thumb Code    24  gd32f1x0_dma.o(.text)
    dma_memory_increase_disable              0x08003839   Thumb Code    24  gd32f1x0_dma.o(.text)
    dma_periph_increase_enable               0x08003851   Thumb Code    24  gd32f1x0_dma.o(.text)
    dma_periph_increase_disable              0x08003869   Thumb Code    24  gd32f1x0_dma.o(.text)
    dma_transfer_direction_config            0x08003881   Thumb Code    30  gd32f1x0_dma.o(.text)
    dma_interrupt_flag_get                   0x080038a1   Thumb Code   116  gd32f1x0_dma.o(.text)
    dma_interrupt_flag_clear                 0x08003915   Thumb Code    20  gd32f1x0_dma.o(.text)
    dma_interrupt_enable                     0x08003929   Thumb Code    22  gd32f1x0_dma.o(.text)
    dma_interrupt_disable                    0x08003941   Thumb Code    24  gd32f1x0_dma.o(.text)
    dma_flag_get                             0x08003959   Thumb Code    22  gd32f1x0_dma.o(.text)
    dma_flag_clear                           0x08003971   Thumb Code    20  gd32f1x0_dma.o(.text)
    fwdgt_write_disable                      0x08003985   Thumb Code    14  gd32f1x0_fwdgt.o(.text)
    fwdgt_counter_reload                     0x08003995   Thumb Code    16  gd32f1x0_fwdgt.o(.text)
    fwdgt_enable                             0x080039a5   Thumb Code    16  gd32f1x0_fwdgt.o(.text)
    fwdgt_window_value_config                0x080039b5   Thumb Code    52  gd32f1x0_fwdgt.o(.text)
    fwdgt_config                             0x080039e9   Thumb Code   100  gd32f1x0_fwdgt.o(.text)
    fwdgt_flag_get                           0x08003a4d   Thumb Code    18  gd32f1x0_fwdgt.o(.text)
    gpio_deinit                              0x08003a61   Thumb Code    58  gd32f1x0_gpio.o(.text)
    gpio_mode_set                            0x08003a9d   Thumb Code    84  gd32f1x0_gpio.o(.text)
    gpio_output_options_set                  0x08003af1   Thumb Code    70  gd32f1x0_gpio.o(.text)
    gpio_bit_set                             0x08003b39   Thumb Code     4  gd32f1x0_gpio.o(.text)
    gpio_bit_reset                           0x08003b3d   Thumb Code     4  gd32f1x0_gpio.o(.text)
    gpio_bit_write                           0x08003b41   Thumb Code    12  gd32f1x0_gpio.o(.text)
    gpio_port_write                          0x08003b4d   Thumb Code     4  gd32f1x0_gpio.o(.text)
    gpio_input_bit_get                       0x08003b51   Thumb Code    10  gd32f1x0_gpio.o(.text)
    gpio_input_port_get                      0x08003b5d   Thumb Code     6  gd32f1x0_gpio.o(.text)
    gpio_output_bit_get                      0x08003b65   Thumb Code    10  gd32f1x0_gpio.o(.text)
    gpio_output_port_get                     0x08003b71   Thumb Code     6  gd32f1x0_gpio.o(.text)
    gpio_af_set                              0x08003b79   Thumb Code   110  gd32f1x0_gpio.o(.text)
    gpio_pin_lock                            0x08003be9   Thumb Code    16  gd32f1x0_gpio.o(.text)
    nvic_priority_group_set                  0x08003bf9   Thumb Code    20  gd32f1x0_misc.o(.text)
    nvic_irq_enable                          0x08003c0d   Thumb Code   168  gd32f1x0_misc.o(.text)
    nvic_irq_disable                         0x08003cb5   Thumb Code    30  gd32f1x0_misc.o(.text)
    nvic_vector_table_set                    0x08003cd5   Thumb Code    24  gd32f1x0_misc.o(.text)
    system_lowpower_set                      0x08003ced   Thumb Code    16  gd32f1x0_misc.o(.text)
    system_lowpower_reset                    0x08003cfd   Thumb Code    18  gd32f1x0_misc.o(.text)
    systick_clksource_set                    0x08003d11   Thumb Code    24  gd32f1x0_misc.o(.text)
    rcu_deinit                               0x08003d29   Thumb Code   112  gd32f1x0_rcu.o(.text)
    rcu_periph_clock_enable                  0x08003d99   Thumb Code    30  gd32f1x0_rcu.o(.text)
    rcu_periph_clock_disable                 0x08003db9   Thumb Code    32  gd32f1x0_rcu.o(.text)
    rcu_periph_clock_sleep_enable            0x08003dd9   Thumb Code    30  gd32f1x0_rcu.o(.text)
    rcu_periph_clock_sleep_disable           0x08003df9   Thumb Code    32  gd32f1x0_rcu.o(.text)
    rcu_periph_reset_enable                  0x08003e19   Thumb Code    30  gd32f1x0_rcu.o(.text)
    rcu_periph_reset_disable                 0x08003e39   Thumb Code    32  gd32f1x0_rcu.o(.text)
    rcu_bkp_reset_enable                     0x08003e59   Thumb Code    18  gd32f1x0_rcu.o(.text)
    rcu_bkp_reset_disable                    0x08003e6d   Thumb Code    18  gd32f1x0_rcu.o(.text)
    rcu_system_clock_source_config           0x08003e81   Thumb Code    20  gd32f1x0_rcu.o(.text)
    rcu_system_clock_source_get              0x08003e95   Thumb Code    16  gd32f1x0_rcu.o(.text)
    rcu_ahb_clock_config                     0x08003ea5   Thumb Code    20  gd32f1x0_rcu.o(.text)
    rcu_apb1_clock_config                    0x08003eb9   Thumb Code    20  gd32f1x0_rcu.o(.text)
    rcu_apb2_clock_config                    0x08003ecd   Thumb Code    20  gd32f1x0_rcu.o(.text)
    rcu_adc_clock_config                     0x08003ee1   Thumb Code    88  gd32f1x0_rcu.o(.text)
    rcu_usbd_clock_config                    0x08003f39   Thumb Code    24  gd32f1x0_rcu.o(.text)
    rcu_ckout_config                         0x08003f51   Thumb Code    22  gd32f1x0_rcu.o(.text)
    rcu_pll_config                           0x08003f69   Thumb Code    36  gd32f1x0_rcu.o(.text)
    rcu_usart_clock_config                   0x08003f8d   Thumb Code    24  gd32f1x0_rcu.o(.text)
    rcu_cec_clock_config                     0x08003fa5   Thumb Code    24  gd32f1x0_rcu.o(.text)
    rcu_rtc_clock_config                     0x08003fbd   Thumb Code    24  gd32f1x0_rcu.o(.text)
    rcu_hxtal_prediv_config                  0x08003fd5   Thumb Code    20  gd32f1x0_rcu.o(.text)
    rcu_lxtal_drive_capability_config        0x08003fe9   Thumb Code    24  gd32f1x0_rcu.o(.text)
    rcu_flag_get                             0x08004001   Thumb Code    26  gd32f1x0_rcu.o(.text)
    rcu_all_reset_flag_clear                 0x0800401d   Thumb Code    18  gd32f1x0_rcu.o(.text)
    rcu_interrupt_flag_get                   0x08004031   Thumb Code    18  gd32f1x0_rcu.o(.text)
    rcu_interrupt_flag_clear                 0x08004045   Thumb Code    16  gd32f1x0_rcu.o(.text)
    rcu_interrupt_enable                     0x08004055   Thumb Code    16  gd32f1x0_rcu.o(.text)
    rcu_interrupt_disable                    0x08004065   Thumb Code    18  gd32f1x0_rcu.o(.text)
    rcu_osci_stab_wait                       0x08004079   Thumb Code   324  gd32f1x0_rcu.o(.text)
    rcu_osci_on                              0x080041bd   Thumb Code    30  gd32f1x0_rcu.o(.text)
    rcu_osci_off                             0x080041dd   Thumb Code    32  gd32f1x0_rcu.o(.text)
    rcu_osci_bypass_mode_enable              0x080041fd   Thumb Code    64  gd32f1x0_rcu.o(.text)
    rcu_osci_bypass_mode_disable             0x0800423d   Thumb Code    64  gd32f1x0_rcu.o(.text)
    rcu_hxtal_clock_monitor_enable           0x0800427d   Thumb Code    18  gd32f1x0_rcu.o(.text)
    rcu_hxtal_clock_monitor_disable          0x08004291   Thumb Code    18  gd32f1x0_rcu.o(.text)
    rcu_irc8m_adjust_value_set               0x080042a5   Thumb Code    22  gd32f1x0_rcu.o(.text)
    rcu_irc14m_adjust_value_set              0x080042bd   Thumb Code    22  gd32f1x0_rcu.o(.text)
    rcu_voltage_key_unlock                   0x080042d5   Thumb Code    30  gd32f1x0_rcu.o(.text)
    rcu_deepsleep_voltage_set                0x080042f5   Thumb Code    24  gd32f1x0_rcu.o(.text)
    rcu_power_down_voltage_set               0x0800430d   Thumb Code    24  gd32f1x0_rcu.o(.text)
    rcu_clock_freq_get                       0x08004325   Thumb Code   292  gd32f1x0_rcu.o(.text)
    timer_deinit                             0x08004459   Thumb Code   194  gd32f1x0_timer.o(.text)
    timer_struct_para_init                   0x0800451d   Thumb Code    16  gd32f1x0_timer.o(.text)
    timer_init                               0x0800452d   Thumb Code   212  gd32f1x0_timer.o(.text)
    timer_enable                             0x08004601   Thumb Code    10  gd32f1x0_timer.o(.text)
    timer_disable                            0x0800460d   Thumb Code    10  gd32f1x0_timer.o(.text)
    timer_auto_reload_shadow_enable          0x08004619   Thumb Code    10  gd32f1x0_timer.o(.text)
    timer_auto_reload_shadow_disable         0x08004625   Thumb Code    10  gd32f1x0_timer.o(.text)
    timer_update_event_enable                0x08004631   Thumb Code    10  gd32f1x0_timer.o(.text)
    timer_update_event_disable               0x0800463d   Thumb Code    10  gd32f1x0_timer.o(.text)
    timer_counter_alignment                  0x08004649   Thumb Code    16  gd32f1x0_timer.o(.text)
    timer_counter_up_direction               0x08004659   Thumb Code    10  gd32f1x0_timer.o(.text)
    timer_counter_down_direction             0x08004665   Thumb Code    10  gd32f1x0_timer.o(.text)
    timer_prescaler_config                   0x08004671   Thumb Code    18  gd32f1x0_timer.o(.text)
    timer_repetition_value_config            0x08004685   Thumb Code     4  gd32f1x0_timer.o(.text)
    timer_autoreload_value_config            0x08004689   Thumb Code     4  gd32f1x0_timer.o(.text)
    timer_counter_value_config               0x0800468d   Thumb Code     4  gd32f1x0_timer.o(.text)
    timer_counter_read                       0x08004691   Thumb Code     4  gd32f1x0_timer.o(.text)
    timer_prescaler_read                     0x08004695   Thumb Code     6  gd32f1x0_timer.o(.text)
    timer_single_pulse_mode_config           0x0800469d   Thumb Code    30  gd32f1x0_timer.o(.text)
    timer_update_source_config               0x080046bd   Thumb Code    30  gd32f1x0_timer.o(.text)
    timer_ocpre_clear_source_config          0x080046dd   Thumb Code    28  gd32f1x0_timer.o(.text)
    timer_interrupt_enable                   0x080046f9   Thumb Code     8  gd32f1x0_timer.o(.text)
    timer_interrupt_disable                  0x08004701   Thumb Code    10  gd32f1x0_timer.o(.text)
    timer_interrupt_flag_get                 0x0800470d   Thumb Code    22  gd32f1x0_timer.o(.text)
    timer_interrupt_flag_clear               0x08004725   Thumb Code     6  gd32f1x0_timer.o(.text)
    timer_flag_get                           0x0800472d   Thumb Code    10  gd32f1x0_timer.o(.text)
    timer_flag_clear                         0x08004739   Thumb Code     6  gd32f1x0_timer.o(.text)
    timer_dma_enable                         0x08004741   Thumb Code     8  gd32f1x0_timer.o(.text)
    timer_dma_disable                        0x08004749   Thumb Code    10  gd32f1x0_timer.o(.text)
    timer_channel_dma_request_source_select  0x08004755   Thumb Code    30  gd32f1x0_timer.o(.text)
    timer_dma_transfer_config                0x08004775   Thumb Code    24  gd32f1x0_timer.o(.text)
    timer_event_software_generate            0x0800478d   Thumb Code     8  gd32f1x0_timer.o(.text)
    timer_break_struct_para_init             0x08004795   Thumb Code    16  gd32f1x0_timer.o(.text)
    timer_break_config                       0x080047a5   Thumb Code    36  gd32f1x0_timer.o(.text)
    timer_break_enable                       0x080047c9   Thumb Code    10  gd32f1x0_timer.o(.text)
    timer_break_disable                      0x080047d5   Thumb Code    10  gd32f1x0_timer.o(.text)
    timer_automatic_output_enable            0x080047e1   Thumb Code    10  gd32f1x0_timer.o(.text)
    timer_automatic_output_disable           0x080047ed   Thumb Code    10  gd32f1x0_timer.o(.text)
    timer_primary_output_config              0x080047f9   Thumb Code    18  gd32f1x0_timer.o(.text)
    timer_channel_control_shadow_config      0x0800480d   Thumb Code    16  gd32f1x0_timer.o(.text)
    timer_channel_control_shadow_update_config 0x0800481d   Thumb Code    30  gd32f1x0_timer.o(.text)
    timer_channel_output_struct_para_init    0x0800483d   Thumb Code    12  gd32f1x0_timer.o(.text)
    timer_channel_output_config              0x08004849   Thumb Code   550  gd32f1x0_timer.o(.text)
    timer_channel_output_mode_config         0x08004a71   Thumb Code    58  gd32f1x0_timer.o(.text)
    timer_channel_output_pulse_value_config  0x08004aad   Thumb Code    12  gd32f1x0_timer.o(.text)
    timer_channel_output_shadow_config       0x08004ab9   Thumb Code    58  gd32f1x0_timer.o(.text)
    timer_channel_output_fast_config         0x08004af5   Thumb Code    58  gd32f1x0_timer.o(.text)
    timer_channel_output_clear_config        0x08004b31   Thumb Code    58  gd32f1x0_timer.o(.text)
    timer_channel_output_polarity_config     0x08004b6d   Thumb Code    74  gd32f1x0_timer.o(.text)
    timer_channel_complementary_output_polarity_config 0x08004bb9   Thumb Code    74  gd32f1x0_timer.o(.text)
    timer_channel_output_state_config        0x08004c05   Thumb Code    74  gd32f1x0_timer.o(.text)
    timer_channel_complementary_output_state_config 0x08004c51   Thumb Code    60  gd32f1x0_timer.o(.text)
    timer_channel_input_struct_para_init     0x08004c8d   Thumb Code    12  gd32f1x0_timer.o(.text)
    timer_input_capture_config               0x08004c99   Thumb Code   346  gd32f1x0_timer.o(.text)
    timer_channel_input_capture_prescaler_config 0x08004df5   Thumb Code    58  gd32f1x0_timer.o(.text)
    timer_channel_capture_value_register_read 0x08004e31   Thumb Code    14  gd32f1x0_timer.o(.text)
    timer_input_pwm_capture_config           0x08004e41   Thumb Code   356  gd32f1x0_timer.o(.text)
    timer_hall_mode_config                   0x08004fa5   Thumb Code    30  gd32f1x0_timer.o(.text)
    timer_input_trigger_source_select        0x08004fc5   Thumb Code    16  gd32f1x0_timer.o(.text)
    timer_master_output_trigger_source_select 0x08004fd5   Thumb Code    16  gd32f1x0_timer.o(.text)
    timer_slave_mode_select                  0x08004fe5   Thumb Code    16  gd32f1x0_timer.o(.text)
    timer_master_slave_mode_config           0x08004ff5   Thumb Code    30  gd32f1x0_timer.o(.text)
    timer_external_trigger_config            0x08005015   Thumb Code    34  gd32f1x0_timer.o(.text)
    timer_quadrature_decoder_mode_config     0x08005039   Thumb Code    78  gd32f1x0_timer.o(.text)
    timer_internal_clock_config              0x08005089   Thumb Code    10  gd32f1x0_timer.o(.text)
    timer_internal_trigger_as_external_clock_config 0x08005095   Thumb Code    32  gd32f1x0_timer.o(.text)
    timer_external_trigger_as_external_clock_config 0x080050b5   Thumb Code   148  gd32f1x0_timer.o(.text)
    timer_external_clock_mode0_config        0x08005149   Thumb Code    50  gd32f1x0_timer.o(.text)
    timer_external_clock_mode1_config        0x0800517d   Thumb Code    42  gd32f1x0_timer.o(.text)
    timer_external_clock_mode1_disable       0x080051a9   Thumb Code    10  gd32f1x0_timer.o(.text)
    timer_channel_remap_config               0x080051b5   Thumb Code     4  gd32f1x0_timer.o(.text)
    usart_deinit                             0x080051b9   Thumb Code    54  gd32f1x0_usart.o(.text)
    usart_baudrate_set                       0x080051f1   Thumb Code    90  gd32f1x0_usart.o(.text)
    usart_parity_config                      0x0800524d   Thumb Code    24  gd32f1x0_usart.o(.text)
    usart_word_length_set                    0x08005265   Thumb Code    24  gd32f1x0_usart.o(.text)
    usart_stop_bit_set                       0x0800527d   Thumb Code    24  gd32f1x0_usart.o(.text)
    usart_enable                             0x08005295   Thumb Code    10  gd32f1x0_usart.o(.text)
    usart_disable                            0x080052a1   Thumb Code    10  gd32f1x0_usart.o(.text)
    usart_transmit_config                    0x080052ad   Thumb Code    16  gd32f1x0_usart.o(.text)
    usart_receive_config                     0x080052bd   Thumb Code    16  gd32f1x0_usart.o(.text)
    usart_data_transmit                      0x080052cd   Thumb Code     8  gd32f1x0_usart.o(.text)
    usart_data_receive                       0x080052d5   Thumb Code     8  gd32f1x0_usart.o(.text)
    usart_data_first_config                  0x080052dd   Thumb Code    28  gd32f1x0_usart.o(.text)
    usart_invert_config                      0x080052f9   Thumb Code   106  gd32f1x0_usart.o(.text)
    usart_overrun_enable                     0x08005365   Thumb Code    18  gd32f1x0_usart.o(.text)
    usart_overrun_disable                    0x08005379   Thumb Code    18  gd32f1x0_usart.o(.text)
    usart_oversample_config                  0x0800538d   Thumb Code    24  gd32f1x0_usart.o(.text)
    usart_sample_bit_config                  0x080053a5   Thumb Code    24  gd32f1x0_usart.o(.text)
    usart_autobaud_detection_enable          0x080053bd   Thumb Code    10  gd32f1x0_usart.o(.text)
    usart_autobaud_detection_disable         0x080053c9   Thumb Code    10  gd32f1x0_usart.o(.text)
    usart_autobaud_detection_mode_config     0x080053d5   Thumb Code    16  gd32f1x0_usart.o(.text)
    usart_mute_mode_enable                   0x080053e5   Thumb Code    10  gd32f1x0_usart.o(.text)
    usart_mute_mode_disable                  0x080053f1   Thumb Code    10  gd32f1x0_usart.o(.text)
    usart_mute_mode_wakeup_config            0x080053fd   Thumb Code    24  gd32f1x0_usart.o(.text)
    usart_address_detection_mode_config      0x08005415   Thumb Code    28  gd32f1x0_usart.o(.text)
    usart_address_config                     0x08005431   Thumb Code    26  gd32f1x0_usart.o(.text)
    usart_receiver_timeout_enable            0x0800544d   Thumb Code    10  gd32f1x0_usart.o(.text)
    usart_receiver_timeout_disable           0x08005459   Thumb Code    10  gd32f1x0_usart.o(.text)
    usart_receiver_timeout_config            0x08005465   Thumb Code    16  gd32f1x0_usart.o(.text)
    usart_lin_mode_enable                    0x08005475   Thumb Code    18  gd32f1x0_usart.o(.text)
    usart_lin_mode_disable                   0x08005489   Thumb Code    18  gd32f1x0_usart.o(.text)
    usart_lin_break_detection_length_config  0x0800549d   Thumb Code    20  gd32f1x0_usart.o(.text)
    usart_halfduplex_enable                  0x080054b1   Thumb Code    18  gd32f1x0_usart.o(.text)
    usart_halfduplex_disable                 0x080054c5   Thumb Code    18  gd32f1x0_usart.o(.text)
    usart_clock_enable                       0x080054d9   Thumb Code    18  gd32f1x0_usart.o(.text)
    usart_clock_disable                      0x080054ed   Thumb Code    18  gd32f1x0_usart.o(.text)
    usart_synchronous_clock_config           0x08005501   Thumb Code    60  gd32f1x0_usart.o(.text)
    usart_smartcard_mode_enable              0x0800553d   Thumb Code    18  gd32f1x0_usart.o(.text)
    usart_smartcard_mode_disable             0x08005551   Thumb Code    18  gd32f1x0_usart.o(.text)
    usart_smartcard_mode_nack_enable         0x08005565   Thumb Code    18  gd32f1x0_usart.o(.text)
    usart_smartcard_mode_nack_disable        0x08005579   Thumb Code    18  gd32f1x0_usart.o(.text)
    usart_guard_time_config                  0x0800558d   Thumb Code    28  gd32f1x0_usart.o(.text)
    usart_block_length_config                0x080055a9   Thumb Code    18  gd32f1x0_usart.o(.text)
    usart_smartcard_autoretry_config         0x080055bd   Thumb Code    30  gd32f1x0_usart.o(.text)
    usart_irda_mode_enable                   0x080055dd   Thumb Code    18  gd32f1x0_usart.o(.text)
    usart_irda_mode_disable                  0x080055f1   Thumb Code    18  gd32f1x0_usart.o(.text)
    usart_irda_lowpower_config               0x08005605   Thumb Code    20  gd32f1x0_usart.o(.text)
    usart_prescaler_config                   0x08005619   Thumb Code    24  gd32f1x0_usart.o(.text)
    usart_hardware_flow_rts_config           0x08005631   Thumb Code    24  gd32f1x0_usart.o(.text)
    usart_hardware_flow_cts_config           0x08005649   Thumb Code    24  gd32f1x0_usart.o(.text)
    usart_rs485_driver_enable                0x08005661   Thumb Code    18  gd32f1x0_usart.o(.text)
    usart_rs485_driver_disable               0x08005675   Thumb Code    18  gd32f1x0_usart.o(.text)
    usart_driver_assertime_config            0x08005689   Thumb Code    30  gd32f1x0_usart.o(.text)
    usart_driver_deassertime_config          0x080056a9   Thumb Code    30  gd32f1x0_usart.o(.text)
    usart_depolarity_config                  0x080056c9   Thumb Code    28  gd32f1x0_usart.o(.text)
    usart_dma_receive_config                 0x080056e5   Thumb Code    16  gd32f1x0_usart.o(.text)
    usart_dma_transmit_config                0x080056f5   Thumb Code    16  gd32f1x0_usart.o(.text)
    usart_reception_error_dma_disable        0x08005705   Thumb Code    18  gd32f1x0_usart.o(.text)
    usart_reception_error_dma_enable         0x08005719   Thumb Code    18  gd32f1x0_usart.o(.text)
    usart_wakeup_enable                      0x0800572d   Thumb Code    10  gd32f1x0_usart.o(.text)
    usart_wakeup_disable                     0x08005739   Thumb Code    10  gd32f1x0_usart.o(.text)
    usart_wakeup_mode_config                 0x08005745   Thumb Code    28  gd32f1x0_usart.o(.text)
    usart_flag_get                           0x08005761   Thumb Code    16  gd32f1x0_usart.o(.text)
    usart_flag_clear                         0x08005771   Thumb Code    18  gd32f1x0_usart.o(.text)
    usart_interrupt_enable                   0x08005785   Thumb Code    24  gd32f1x0_usart.o(.text)
    usart_interrupt_disable                  0x0800579d   Thumb Code    26  gd32f1x0_usart.o(.text)
    usart_command_enable                     0x080057b9   Thumb Code     8  gd32f1x0_usart.o(.text)
    usart_interrupt_flag_get                 0x080057c1   Thumb Code    34  gd32f1x0_usart.o(.text)
    usart_interrupt_flag_clear               0x080057e5   Thumb Code    18  gd32f1x0_usart.o(.text)
    Reset_Handler                            0x080057f9   Thumb Code     8  startup_gd32f1x0.o(.text)
    ADC_CMP_IRQHandler                       0x08005813   Thumb Code     0  startup_gd32f1x0.o(.text)
    CAN0_RX0_IRQHandler                      0x08005813   Thumb Code     0  startup_gd32f1x0.o(.text)
    CAN0_RX1_IRQHandler                      0x08005813   Thumb Code     0  startup_gd32f1x0.o(.text)
    CAN0_SCE_IRQHandler                      0x08005813   Thumb Code     0  startup_gd32f1x0.o(.text)
    CAN0_TX_IRQHandler                       0x08005813   Thumb Code     0  startup_gd32f1x0.o(.text)
    CAN1_RX0_IRQHandler                      0x08005813   Thumb Code     0  startup_gd32f1x0.o(.text)
    CAN1_RX1_IRQHandler                      0x08005813   Thumb Code     0  startup_gd32f1x0.o(.text)
    CAN1_SCE_IRQHandler                      0x08005813   Thumb Code     0  startup_gd32f1x0.o(.text)
    CAN1_TX_IRQHandler                       0x08005813   Thumb Code     0  startup_gd32f1x0.o(.text)
    CEC_IRQHandler                           0x08005813   Thumb Code     0  startup_gd32f1x0.o(.text)
    DMA_Channel3_4_IRQHandler                0x08005813   Thumb Code     0  startup_gd32f1x0.o(.text)
    DMA_Channel5_6_IRQHandler                0x08005813   Thumb Code     0  startup_gd32f1x0.o(.text)
    EXTI0_1_IRQHandler                       0x08005813   Thumb Code     0  startup_gd32f1x0.o(.text)
    EXTI2_3_IRQHandler                       0x08005813   Thumb Code     0  startup_gd32f1x0.o(.text)
    EXTI4_15_IRQHandler                      0x08005813   Thumb Code     0  startup_gd32f1x0.o(.text)
    FMC_IRQHandler                           0x08005813   Thumb Code     0  startup_gd32f1x0.o(.text)
    I2C0_ER_IRQHandler                       0x08005813   Thumb Code     0  startup_gd32f1x0.o(.text)
    I2C0_EV_IRQHandler                       0x08005813   Thumb Code     0  startup_gd32f1x0.o(.text)
    I2C1_ER_IRQHandler                       0x08005813   Thumb Code     0  startup_gd32f1x0.o(.text)
    I2C1_EV_IRQHandler                       0x08005813   Thumb Code     0  startup_gd32f1x0.o(.text)
    I2C2_ER_IRQHandler                       0x08005813   Thumb Code     0  startup_gd32f1x0.o(.text)
    I2C2_EV_IRQHandler                       0x08005813   Thumb Code     0  startup_gd32f1x0.o(.text)
    LVD_IRQHandler                           0x08005813   Thumb Code     0  startup_gd32f1x0.o(.text)
    RCU_IRQHandler                           0x08005813   Thumb Code     0  startup_gd32f1x0.o(.text)
    RTC_IRQHandler                           0x08005813   Thumb Code     0  startup_gd32f1x0.o(.text)
    SLCD_IRQHandler                          0x08005813   Thumb Code     0  startup_gd32f1x0.o(.text)
    SPI0_IRQHandler                          0x08005813   Thumb Code     0  startup_gd32f1x0.o(.text)
    SPI1_IRQHandler                          0x08005813   Thumb Code     0  startup_gd32f1x0.o(.text)
    SPI2_IRQHandler                          0x08005813   Thumb Code     0  startup_gd32f1x0.o(.text)
    TIMER0_Channel_IRQHandler                0x08005813   Thumb Code     0  startup_gd32f1x0.o(.text)
    TIMER14_IRQHandler                       0x08005813   Thumb Code     0  startup_gd32f1x0.o(.text)
    TIMER15_IRQHandler                       0x08005813   Thumb Code     0  startup_gd32f1x0.o(.text)
    TIMER16_IRQHandler                       0x08005813   Thumb Code     0  startup_gd32f1x0.o(.text)
    TIMER1_IRQHandler                        0x08005813   Thumb Code     0  startup_gd32f1x0.o(.text)
    TIMER2_IRQHandler                        0x08005813   Thumb Code     0  startup_gd32f1x0.o(.text)
    TIMER5_DAC_IRQHandler                    0x08005813   Thumb Code     0  startup_gd32f1x0.o(.text)
    TSI_IRQHandler                           0x08005813   Thumb Code     0  startup_gd32f1x0.o(.text)
    USART0_IRQHandler                        0x08005813   Thumb Code     0  startup_gd32f1x0.o(.text)
    USART1_IRQHandler                        0x08005813   Thumb Code     0  startup_gd32f1x0.o(.text)
    USBDWakeUp_IRQHandler                    0x08005813   Thumb Code     0  startup_gd32f1x0.o(.text)
    USBD_HP_IRQHandler                       0x08005813   Thumb Code     0  startup_gd32f1x0.o(.text)
    USBD_LP_IRQHandler                       0x08005813   Thumb Code     0  startup_gd32f1x0.o(.text)
    WWDGT_IRQHandler                         0x08005813   Thumb Code     0  startup_gd32f1x0.o(.text)
    __user_initial_stackheap                 0x08005815   Thumb Code    10  startup_gd32f1x0.o(.text)
    SystemInit                               0x08005839   Thumb Code   188  system_gd32f1x0.o(.text)
    SystemCoreClockUpdate                    0x080058f5   Thumb Code   112  system_gd32f1x0.o(.text)
    __2sprintf                               0x08005975   Thumb Code    34  noretval__2sprintf.o(.text)
    _printf_str                              0x0800599d   Thumb Code    82  _printf_str.o(.text)
    _printf_int_dec                          0x080059f1   Thumb Code   104  _printf_dec.o(.text)
    __printf                                 0x08005a69   Thumb Code   270  __printf_wp.o(.text)
    strlen                                   0x08005b77   Thumb Code    62  strlen.o(.text)
    __aeabi_memcpy4                          0x08005bb5   Thumb Code     0  rt_memcpy_w.o(.text)
    __aeabi_memcpy8                          0x08005bb5   Thumb Code     0  rt_memcpy_w.o(.text)
    __rt_memcpy_w                            0x08005bb5   Thumb Code   100  rt_memcpy_w.o(.text)
    _memcpy_lastbytes_aligned                0x08005bfd   Thumb Code     0  rt_memcpy_w.o(.text)
    __aeabi_memclr4                          0x08005c19   Thumb Code     0  rt_memclr_w.o(.text)
    __aeabi_memclr8                          0x08005c19   Thumb Code     0  rt_memclr_w.o(.text)
    __rt_memclr_w                            0x08005c19   Thumb Code     0  rt_memclr_w.o(.text)
    _memset_w                                0x08005c1d   Thumb Code    74  rt_memclr_w.o(.text)
    __use_two_region_memory                  0x08005c67   Thumb Code     2  heapauxi.o(.text)
    __rt_heap_escrow$2region                 0x08005c69   Thumb Code     2  heapauxi.o(.text)
    __rt_heap_expand$2region                 0x08005c6b   Thumb Code     2  heapauxi.o(.text)
    _printf_int_common                       0x08005c6d   Thumb Code   178  _printf_intcommon.o(.text)
    _printf_fp_dec_real                      0x08005ecf   Thumb Code   620  _printf_fp_dec.o(.text)
    _printf_char_common                      0x08006147   Thumb Code    32  _printf_char_common.o(.text)
    _sputc                                   0x0800616d   Thumb Code    10  _sputc.o(.text)
    _printf_cs_common                        0x08006177   Thumb Code    20  _printf_char.o(.text)
    _printf_char                             0x0800618b   Thumb Code    16  _printf_char.o(.text)
    _printf_string                           0x0800619b   Thumb Code     8  _printf_char.o(.text)
    __rt_locale                              0x080061a5   Thumb Code     8  rt_locale_intlibspace.o(.text)
    _ll_udiv10                               0x080061ad   Thumb Code   138  lludiv10.o(.text)
    _printf_fp_infnan                        0x08006239   Thumb Code   112  _printf_fp_infnan.o(.text)
    _btod_etento                             0x080062b9   Thumb Code   224  bigflt0.o(.text)
    __user_libspace                          0x0800639d   Thumb Code     8  libspace.o(.text)
    __user_perproc_libspace                  0x0800639d   Thumb Code     0  libspace.o(.text)
    __user_perthread_libspace                0x0800639d   Thumb Code     0  libspace.o(.text)
    __user_setup_stackheap                   0x080063a5   Thumb Code    74  sys_stackheap_outer.o(.text)
    exit                                     0x080063ef   Thumb Code    18  exit.o(.text)
    strcmp                                   0x08006401   Thumb Code   128  strcmpv7m.o(.text)
    _sys_exit                                0x08006481   Thumb Code     8  sys_exit.o(.text)
    __I$use$semihosting                      0x0800648d   Thumb Code     0  use_no_semi.o(.text)
    __use_no_semihosting_swi                 0x0800648d   Thumb Code     2  use_no_semi.o(.text)
    __semihosting_library_function           0x0800648f   Thumb Code     0  indicate_semi.o(.text)
    _btod_d2e                                0x0800648f   Thumb Code    62  btod.o(CL$$btod_d2e)
    _d2e_denorm_low                          0x080064cd   Thumb Code    70  btod.o(CL$$btod_d2e_denorm_low)
    _d2e_norm_op1                            0x08006513   Thumb Code    96  btod.o(CL$$btod_d2e_norm_op1)
    __btod_div_common                        0x08006575   Thumb Code   696  btod.o(CL$$btod_div_common)
    _e2e                                     0x080068ad   Thumb Code   220  btod.o(CL$$btod_e2e)
    _btod_ediv                               0x08006989   Thumb Code    42  btod.o(CL$$btod_ediv)
    _btod_emul                               0x080069b3   Thumb Code    42  btod.o(CL$$btod_emul)
    __btod_mult_common                       0x080069dd   Thumb Code   580  btod.o(CL$$btod_mult_common)
    __ARM_fpclassify                         0x08006c21   Thumb Code    40  fpclassify.o(i.__ARM_fpclassify)
    _is_digit                                0x08006c49   Thumb Code    14  __printf_wp.o(i._is_digit)
    _get_lc_numeric                          0x08006c59   Thumb Code    44  lc_numeric_c.o(locale$$code)
    __aeabi_d2f                              0x08006c85   Thumb Code     0  d2f.o(x$fpl$d2f)
    _d2f                                     0x08006c85   Thumb Code    98  d2f.o(x$fpl$d2f)
    __aeabi_dadd                             0x08006ce9   Thumb Code     0  daddsub_clz.o(x$fpl$dadd)
    _dadd                                    0x08006ce9   Thumb Code   332  daddsub_clz.o(x$fpl$dadd)
    __fpl_dcmp_Inf                           0x08006e39   Thumb Code    24  dcmpi.o(x$fpl$dcmpinf)
    __aeabi_cdcmpeq                          0x08006e51   Thumb Code     0  deqf.o(x$fpl$deqf)
    _dcmpeq                                  0x08006e51   Thumb Code   120  deqf.o(x$fpl$deqf)
    __aeabi_d2iz                             0x08006ec9   Thumb Code     0  dfix.o(x$fpl$dfix)
    _dfix                                    0x08006ec9   Thumb Code    94  dfix.o(x$fpl$dfix)
    __aeabi_i2d                              0x08006f27   Thumb Code     0  dflt_clz.o(x$fpl$dflt)
    _dflt                                    0x08006f27   Thumb Code    46  dflt_clz.o(x$fpl$dflt)
    __aeabi_ui2d                             0x08006f55   Thumb Code     0  dflt_clz.o(x$fpl$dfltu)
    _dfltu                                   0x08006f55   Thumb Code    38  dflt_clz.o(x$fpl$dfltu)
    __aeabi_cdcmpge                          0x08006f7d   Thumb Code     0  dgeqf.o(x$fpl$dgeqf)
    _dcmpge                                  0x08006f7d   Thumb Code   120  dgeqf.o(x$fpl$dgeqf)
    __aeabi_cdcmple                          0x08006ff5   Thumb Code     0  dleqf.o(x$fpl$dleqf)
    _dcmple                                  0x08006ff5   Thumb Code   120  dleqf.o(x$fpl$dleqf)
    __fpl_dcmple_InfNaN                      0x08007057   Thumb Code     0  dleqf.o(x$fpl$dleqf)
    __aeabi_dmul                             0x0800706d   Thumb Code     0  dmul.o(x$fpl$dmul)
    _dmul                                    0x0800706d   Thumb Code   332  dmul.o(x$fpl$dmul)
    __fpl_dnaninf                            0x080071c1   Thumb Code   156  dnaninf.o(x$fpl$dnaninf)
    __fpl_dretinf                            0x0800725d   Thumb Code    12  dretinf.o(x$fpl$dretinf)
    __aeabi_dsub                             0x08007269   Thumb Code     0  daddsub_clz.o(x$fpl$dsub)
    _dsub                                    0x08007269   Thumb Code   472  daddsub_clz.o(x$fpl$dsub)
    __aeabi_f2d                              0x08007445   Thumb Code     0  f2d.o(x$fpl$f2d)
    _f2d                                     0x08007445   Thumb Code    86  f2d.o(x$fpl$f2d)
    __aeabi_dcmpeq                           0x0800749b   Thumb Code     0  dcmp.o(x$fpl$fcmp)
    _deq                                     0x0800749b   Thumb Code    14  dcmp.o(x$fpl$fcmp)
    _dneq                                    0x080074a9   Thumb Code    14  dcmp.o(x$fpl$fcmp)
    __aeabi_dcmpgt                           0x080074b7   Thumb Code     0  dcmp.o(x$fpl$fcmp)
    _dgr                                     0x080074b7   Thumb Code    14  dcmp.o(x$fpl$fcmp)
    __aeabi_dcmpge                           0x080074c5   Thumb Code     0  dcmp.o(x$fpl$fcmp)
    _dgeq                                    0x080074c5   Thumb Code    14  dcmp.o(x$fpl$fcmp)
    __aeabi_dcmple                           0x080074d3   Thumb Code     0  dcmp.o(x$fpl$fcmp)
    _dleq                                    0x080074d3   Thumb Code    14  dcmp.o(x$fpl$fcmp)
    __aeabi_dcmplt                           0x080074e1   Thumb Code     0  dcmp.o(x$fpl$fcmp)
    _dls                                     0x080074e1   Thumb Code    14  dcmp.o(x$fpl$fcmp)
    __aeabi_fcmpeq                           0x080074ef   Thumb Code     0  fcmp.o(x$fpl$fcmp)
    _feq                                     0x080074ef   Thumb Code    14  fcmp.o(x$fpl$fcmp)
    _fneq                                    0x080074fd   Thumb Code    14  fcmp.o(x$fpl$fcmp)
    __aeabi_fcmpgt                           0x0800750b   Thumb Code     0  fcmp.o(x$fpl$fcmp)
    _fgr                                     0x0800750b   Thumb Code    14  fcmp.o(x$fpl$fcmp)
    __aeabi_fcmpge                           0x08007519   Thumb Code     0  fcmp.o(x$fpl$fcmp)
    _fgeq                                    0x08007519   Thumb Code    14  fcmp.o(x$fpl$fcmp)
    __aeabi_fcmple                           0x08007527   Thumb Code     0  fcmp.o(x$fpl$fcmp)
    _fleq                                    0x08007527   Thumb Code    14  fcmp.o(x$fpl$fcmp)
    __aeabi_fcmplt                           0x08007535   Thumb Code     0  fcmp.o(x$fpl$fcmp)
    _fls                                     0x08007535   Thumb Code    14  fcmp.o(x$fpl$fcmp)
    __fpl_fcmp_Inf                           0x08007543   Thumb Code    24  fcmpi.o(x$fpl$fcmpinf)
    __aeabi_fdiv                             0x0800755d   Thumb Code     0  fdiv.o(x$fpl$fdiv)
    _fdiv                                    0x0800755d   Thumb Code   384  fdiv.o(x$fpl$fdiv)
    __aeabi_cfcmpeq                          0x080076e1   Thumb Code     0  feqf.o(x$fpl$feqf)
    _fcmpeq                                  0x080076e1   Thumb Code   104  feqf.o(x$fpl$feqf)
    __aeabi_ui2f                             0x08007749   Thumb Code     0  fflt_clz.o(x$fpl$ffltu)
    _ffltu                                   0x08007749   Thumb Code    38  fflt_clz.o(x$fpl$ffltu)
    _fcmpge                                  0x08007771   Thumb Code   104  fgeqf.o(x$fpl$fgeqf)
    __aeabi_cfcmple                          0x080077d9   Thumb Code     0  fleqf.o(x$fpl$fleqf)
    _fcmple                                  0x080077d9   Thumb Code   104  fleqf.o(x$fpl$fleqf)
    __fpl_fcmple_InfNaN                      0x0800782b   Thumb Code     0  fleqf.o(x$fpl$fleqf)
    __fpl_fnaninf                            0x08007841   Thumb Code   140  fnaninf.o(x$fpl$fnaninf)
    __fpl_fretinf                            0x080078cd   Thumb Code    10  fretinf.o(x$fpl$fretinf)
    _printf_fp_dec                           0x080078d7   Thumb Code     4  printf1.o(x$fpl$printf1)
    __I$use$fp                               0x080078da   Number         0  usenofp.o(x$fpl$usenofp)
    hall_to_pos                              0x08007990   Data           8  bldc.o(.rodata.hall_to_pos)
    Region$$Table$$Base                      0x08007e00   Number         0  anon$$obj.o(Region$$Table)
    Region$$Table$$Limit                     0x08007e20   Number         0  anon$$obj.o(Region$$Table)
    HALL_A                                   0x20000000   Data           4  remoteautodetect.o(.data.HALL_A)
    HALL_B                                   0x20000004   Data           4  remoteautodetect.o(.data.HALL_B)
    HALL_C                                   0x20000008   Data           4  remoteautodetect.o(.data.HALL_C)
    SystemCoreClock                          0x2000000c   Data           4  system_gd32f1x0.o(.data.SystemCoreClock)
    aHallOrder                               0x20000010   Data          18  remoteautodetect.o(.data.aHallOrder)
    aoPin                                    0x20000022   Data         341  remoteautodetect.o(.data.aoPin)
    asScan                                   0x20000178   Data          40  remoteautodetect.o(.data.asScan)
    bHallOld                                 0x200001a0   Data           1  remoteautodetect.o(.data.bHallOld)
    batteryVoltage                           0x200001a4   Data           4  bldc.o(.data.batteryVoltage)
    cRxLast                                  0x200001a8   Data           1  remoteautodetect.o(.data.cRxLast)
    iAverageMax                              0x200001aa   Data           2  remoteautodetect.o(.data.iAverageMax)
    iMove                                    0x200001ac   Data           1  remoteautodetect.o(.data.iMove)
    iTestStart                               0x200001ad   Data           1  remoteautodetect.o(.data.iTestStart)
    iVBatMinTest                             0x200001ae   Data           2  remoteautodetect.o(.data.iVBatMinTest)
    offsetdc                                 0x200001b0   Data           2  bldc.o(.data.offsetdc)
    posAuto                                  0x200001b2   Data           1  remoteautodetect.o(.data.posAuto)
    sTodoPin                                 0x200001b4   Data           4  remoteautodetect.o(.data.sTodoPin)
    wStage                                   0x200001b8   Data           2  remoteautodetect.o(.data.wStage)
    wStageOld                                0x200001ba   Data           2  remoteautodetect.o(.data.wStageOld)
    __libspace_start                         0x200001c0   Data          96  libspace.o(.bss)
    __temporary_stack_top$libspace           0x20000220   Data           0  libspace.o(.bss)
    aPinHall                                 0x20000220   Data          24  remoteautodetect.o(.bss.aPinHall)
    adc_buffer                               0x20000238   Data           4  bldc.o(.bss.adc_buffer)
    aiPinScan                                0x2000023c   Data          40  remoteautodetect.o(.bss.aiPinScan)
    beepsBackwardsMaster                     0x20000264   Data           1  commsmasterslave.o(.bss.beepsBackwardsMaster)
    bldc_enable                              0x20000265   Data           1  bldc.o(.bss.bldc_enable)
    bldc_inputFilterPwm                      0x20000266   Data           2  bldc.o(.bss.bldc_inputFilterPwm)
    bldc_outputFilterPwm                     0x20000268   Data           2  bldc.o(.bss.bldc_outputFilterPwm)
    buzzerFreq                               0x2000026a   Data           1  bldc.o(.bss.buzzerFreq)
    buzzerPattern                            0x2000026b   Data           1  bldc.o(.bss.buzzerPattern)
    buzzerTimer                              0x2000026c   Data           2  bldc.o(.bss.buzzerTimer)
    buzzerToggle                             0x2000026e   Data           1  bldc.o(.bss.buzzerToggle)
    cCommand                                 0x2000026f   Data           1  remoteautodetect.o(.bss.cCommand)
    currentDC                                0x20000270   Data           4  bldc.o(.bss.currentDC)
    dma_init_struct_adc                      0x20000274   Data          36  setup.o(.bss.dma_init_struct_adc)
    dma_init_struct_usart                    0x20000298   Data          36  setup.o(.bss.dma_init_struct_usart)
    fCurrentDC                               0x200002bc   Data           4  remoteautodetect.o(.bss.fCurrentDC)
    fVBatt                                   0x200002c0   Data           4  remoteautodetect.o(.bss.fVBatt)
    filter_reg                               0x200002c4   Data           4  bldc.o(.bss.filter_reg)
    hall                                     0x200002c8   Data           1  bldc.o(.bss.hall)
    hall_a                                   0x200002c9   Data           1  bldc.o(.bss.hall_a)
    hall_b                                   0x200002ca   Data           1  bldc.o(.bss.hall_b)
    hall_c                                   0x200002cb   Data           1  bldc.o(.bss.hall_c)
    iAverage                                 0x200002cc   Data           2  remoteautodetect.o(.bss.iAverage)
    iOdom                                    0x200002d0   Data           4  bldc.o(.bss.iOdom)
    iOffsetDC                                0x200002d4   Data           2  remoteautodetect.o(.bss.iOffsetDC)
    iPhaseCurrent                            0x200002d6   Data           1  remoteautodetect.o(.bss.iPhaseCurrent)
    iRepeat                                  0x200002d7   Data           1  remoteautodetect.o(.bss.iRepeat)
    iTest                                    0x200002d8   Data           1  remoteautodetect.o(.bss.iTest)
    iTestPin                                 0x200002d9   Data           1  remoteautodetect.o(.bss.iTestPin)
    iTimeNextLoop                            0x200002dc   Data           4  main.o(.bss.iTimeNextLoop)
    lastPos                                  0x200002e0   Data           1  bldc.o(.bss.lastPos)
    msTicks                                  0x200002e4   Data           4  it.o(.bss.msTicks)
    msTicksAuto                              0x200002e8   Data           4  remoteautodetect.o(.bss.msTicksAuto)
    msTicksOld                               0x200002ec   Data           4  remoteautodetect.o(.bss.msTicksOld)
    msTicksTest                              0x200002f0   Data           4  remoteautodetect.o(.bss.msTicksTest)
    msTicksWait                              0x200002f4   Data           4  remoteautodetect.o(.bss.msTicksWait)
    offsetcount                              0x200002f8   Data           2  bldc.o(.bss.offsetcount)
    pos                                      0x200002fa   Data           1  bldc.o(.bss.pos)
    posOld                                   0x200002fb   Data           1  remoteautodetect.o(.bss.posOld)
    realSpeed                                0x200002fc   Data           4  bldc.o(.bss.realSpeed)
    speedCounter                             0x20000500   Data           4  bldc.o(.bss.speedCounter)
    steer                                    0x20000504   Data           4  main.o(.bss.steer)
    steerCounter                             0x20000508   Data           4  main.o(.bss.steerCounter)
    timedOut                                 0x2000050c   Data           1  it.o(.bss.timedOut)
    timeoutCounter_ms                        0x20000510   Data           4  it.o(.bss.timeoutCounter_ms)
    timeoutTimer_paramter_struct             0x20000514   Data          16  setup.o(.bss.timeoutTimer_paramter_struct)
    timerBldc_break_parameter_struct         0x20000524   Data          24  setup.o(.bss.timerBldc_break_parameter_struct)
    timerBldc_oc_parameter_struct            0x2000053c   Data          16  setup.o(.bss.timerBldc_oc_parameter_struct)
    timerBldc_paramter_struct                0x2000054c   Data          16  setup.o(.bss.timerBldc_paramter_struct)
    usart0_rx_buf                            0x2000055c   Data           1  setup.o(.bss.usart0_rx_buf)
    wScanConfig                              0x2000055d   Data           1  remoteautodetect.o(.bss.wScanConfig)



==============================================================================

Memory Map of the image

  Image Entry point : 0x08000169

  Load Region LR_IROM1 (Base: 0x08000000, Size: 0x00008000, Max: 0x00010000, ABSOLUTE, COMPRESSED[0x00007f50])

    Execution Region ER_IROM1 (Exec base: 0x08000000, Load base: 0x08000000, Size: 0x00007e3c, Max: 0x00010000, ABSOLUTE)

    Exec Addr    Load Addr    Size         Type   Attr      Idx    E Section Name        Object

    0x08000000   0x08000000   0x00000168   Data   RO          142    RESET               startup_gd32f1x0.o
    0x08000168   0x08000168   0x00000008   Code   RO          175  * !!!main             c_w.l(__main.o)
    0x08000170   0x08000170   0x00000034   Code   RO          372    !!!scatter          c_w.l(__scatter.o)
    0x080001a4   0x080001a4   0x0000005a   Code   RO          371    !!dczerorl2         c_w.l(__dczerorl2.o)
    0x080001fe   0x080001fe   0x00000002   PAD
    0x08000200   0x08000200   0x0000001c   Code   RO          373    !!handler_zi        c_w.l(__scatter_zi.o)
    0x0800021c   0x0800021c   0x00000000   Code   RO          170    .ARM.Collect$$_printf_percent$$00000000  c_w.l(_printf_percent.o)
    0x0800021c   0x0800021c   0x00000006   Code   RO          169    .ARM.Collect$$_printf_percent$$00000003  c_w.l(_printf_f.o)
    0x08000222   0x08000222   0x00000006   Code   RO          168    .ARM.Collect$$_printf_percent$$00000008  c_w.l(_printf_i.o)
    0x08000228   0x08000228   0x00000006   Code   RO          167    .ARM.Collect$$_printf_percent$$00000014  c_w.l(_printf_s.o)
    0x0800022e   0x0800022e   0x00000004   Code   RO          202    .ARM.Collect$$_printf_percent$$00000017  c_w.l(_printf_percent_end.o)
    0x08000232   0x08000232   0x00000002   Code   RO          264    .ARM.Collect$$libinit$$00000000  c_w.l(libinit.o)
    0x08000234   0x08000234   0x00000000   Code   RO          266    .ARM.Collect$$libinit$$00000002  c_w.l(libinit2.o)
    0x08000234   0x08000234   0x00000000   Code   RO          268    .ARM.Collect$$libinit$$00000004  c_w.l(libinit2.o)
    0x08000234   0x08000234   0x00000000   Code   RO          270    .ARM.Collect$$libinit$$00000006  c_w.l(libinit2.o)
    0x08000234   0x08000234   0x00000000   Code   RO          273    .ARM.Collect$$libinit$$0000000C  c_w.l(libinit2.o)
    0x08000234   0x08000234   0x00000000   Code   RO          275    .ARM.Collect$$libinit$$0000000E  c_w.l(libinit2.o)
    0x08000234   0x08000234   0x00000000   Code   RO          277    .ARM.Collect$$libinit$$00000010  c_w.l(libinit2.o)
    0x08000234   0x08000234   0x00000006   Code   RO          278    .ARM.Collect$$libinit$$00000011  c_w.l(libinit2.o)
    0x0800023a   0x0800023a   0x00000000   Code   RO          280    .ARM.Collect$$libinit$$00000013  c_w.l(libinit2.o)
    0x0800023a   0x0800023a   0x00000000   Code   RO          282    .ARM.Collect$$libinit$$00000015  c_w.l(libinit2.o)
    0x0800023a   0x0800023a   0x00000000   Code   RO          284    .ARM.Collect$$libinit$$00000017  c_w.l(libinit2.o)
    0x0800023a   0x0800023a   0x0000000a   Code   RO          285    .ARM.Collect$$libinit$$00000018  c_w.l(libinit2.o)
    0x08000244   0x08000244   0x00000000   Code   RO          286    .ARM.Collect$$libinit$$00000019  c_w.l(libinit2.o)
    0x08000244   0x08000244   0x00000000   Code   RO          288    .ARM.Collect$$libinit$$0000001B  c_w.l(libinit2.o)
    0x08000244   0x08000244   0x00000000   Code   RO          290    .ARM.Collect$$libinit$$0000001D  c_w.l(libinit2.o)
    0x08000244   0x08000244   0x00000000   Code   RO          292    .ARM.Collect$$libinit$$0000001F  c_w.l(libinit2.o)
    0x08000244   0x08000244   0x00000000   Code   RO          294    .ARM.Collect$$libinit$$00000021  c_w.l(libinit2.o)
    0x08000244   0x08000244   0x00000000   Code   RO          296    .ARM.Collect$$libinit$$00000023  c_w.l(libinit2.o)
    0x08000244   0x08000244   0x00000000   Code   RO          298    .ARM.Collect$$libinit$$00000025  c_w.l(libinit2.o)
    0x08000244   0x08000244   0x00000000   Code   RO          300    .ARM.Collect$$libinit$$00000027  c_w.l(libinit2.o)
    0x08000244   0x08000244   0x00000000   Code   RO          304    .ARM.Collect$$libinit$$0000002E  c_w.l(libinit2.o)
    0x08000244   0x08000244   0x00000000   Code   RO          306    .ARM.Collect$$libinit$$00000030  c_w.l(libinit2.o)
    0x08000244   0x08000244   0x00000000   Code   RO          308    .ARM.Collect$$libinit$$00000032  c_w.l(libinit2.o)
    0x08000244   0x08000244   0x00000000   Code   RO          310    .ARM.Collect$$libinit$$00000034  c_w.l(libinit2.o)
    0x08000244   0x08000244   0x00000002   Code   RO          311    .ARM.Collect$$libinit$$00000035  c_w.l(libinit2.o)
    0x08000246   0x08000246   0x00000002   Code   RO          334    .ARM.Collect$$libshutdown$$00000000  c_w.l(libshutdown.o)
    0x08000248   0x08000248   0x00000000   Code   RO          341    .ARM.Collect$$libshutdown$$00000002  c_w.l(libshutdown2.o)
    0x08000248   0x08000248   0x00000000   Code   RO          343    .ARM.Collect$$libshutdown$$00000004  c_w.l(libshutdown2.o)
    0x08000248   0x08000248   0x00000000   Code   RO          346    .ARM.Collect$$libshutdown$$00000007  c_w.l(libshutdown2.o)
    0x08000248   0x08000248   0x00000000   Code   RO          349    .ARM.Collect$$libshutdown$$0000000A  c_w.l(libshutdown2.o)
    0x08000248   0x08000248   0x00000000   Code   RO          351    .ARM.Collect$$libshutdown$$0000000C  c_w.l(libshutdown2.o)
    0x08000248   0x08000248   0x00000000   Code   RO          354    .ARM.Collect$$libshutdown$$0000000F  c_w.l(libshutdown2.o)
    0x08000248   0x08000248   0x00000002   Code   RO          355    .ARM.Collect$$libshutdown$$00000010  c_w.l(libshutdown2.o)
    0x0800024a   0x0800024a   0x00000000   Code   RO          195    .ARM.Collect$$rtentry$$00000000  c_w.l(__rtentry.o)
    0x0800024a   0x0800024a   0x00000000   Code   RO          215    .ARM.Collect$$rtentry$$00000002  c_w.l(__rtentry2.o)
    0x0800024a   0x0800024a   0x00000006   Code   RO          227    .ARM.Collect$$rtentry$$00000004  c_w.l(__rtentry4.o)
    0x08000250   0x08000250   0x00000000   Code   RO          217    .ARM.Collect$$rtentry$$00000009  c_w.l(__rtentry2.o)
    0x08000250   0x08000250   0x00000004   Code   RO          218    .ARM.Collect$$rtentry$$0000000A  c_w.l(__rtentry2.o)
    0x08000254   0x08000254   0x00000000   Code   RO          220    .ARM.Collect$$rtentry$$0000000C  c_w.l(__rtentry2.o)
    0x08000254   0x08000254   0x00000008   Code   RO          221    .ARM.Collect$$rtentry$$0000000D  c_w.l(__rtentry2.o)
    0x0800025c   0x0800025c   0x00000002   Code   RO          312    .ARM.Collect$$rtexit$$00000000  c_w.l(rtexit.o)
    0x0800025e   0x0800025e   0x00000000   Code   RO          318    .ARM.Collect$$rtexit$$00000002  c_w.l(rtexit2.o)
    0x0800025e   0x0800025e   0x00000004   Code   RO          319    .ARM.Collect$$rtexit$$00000003  c_w.l(rtexit2.o)
    0x08000262   0x08000262   0x00000006   Code   RO          320    .ARM.Collect$$rtexit$$00000004  c_w.l(rtexit2.o)
    0x08000268   0x08000268   0x000000a6   Code   RO            1    .text               main.o
    0x0800030e   0x0800030e   0x00000002   PAD
    0x08000310   0x08000310   0x0000049e   Code   RO           16    .text               bldc.o
    0x080007ae   0x080007ae   0x00000002   PAD
    0x080007b0   0x080007b0   0x00000570   Code   RO           43    .text               setup.o
    0x08000d20   0x08000d20   0x0000010e   Code   RO           53    .text               it.o
    0x08000e2e   0x08000e2e   0x00000002   PAD
    0x08000e30   0x08000e30   0x00000084   Code   RO           64    .text               commsmasterslave.o
    0x08000eb4   0x08000eb4   0x000021dc   Code   RO           68    .text               remoteautodetect.o
    0x08003090   0x08003090   0x000005a6   Code   RO          107    .text               gd32f1x0_adc.o
    0x08003636   0x08003636   0x00000002   PAD
    0x08003638   0x08003638   0x0000034c   Code   RO          111    .text               gd32f1x0_dma.o
    0x08003984   0x08003984   0x000000da   Code   RO          113    .text               gd32f1x0_fwdgt.o
    0x08003a5e   0x08003a5e   0x00000002   PAD
    0x08003a60   0x08003a60   0x00000198   Code   RO          115    .text               gd32f1x0_gpio.o
    0x08003bf8   0x08003bf8   0x00000130   Code   RO          120    .text               gd32f1x0_misc.o
    0x08003d28   0x08003d28   0x00000730   Code   RO          129    .text               gd32f1x0_rcu.o
    0x08004458   0x08004458   0x00000d60   Code   RO          134    .text               gd32f1x0_timer.o
    0x080051b8   0x080051b8   0x0000063e   Code   RO          136    .text               gd32f1x0_usart.o
    0x080057f6   0x080057f6   0x00000002   PAD
    0x080057f8   0x080057f8   0x00000040   Code   RO          143    .text               startup_gd32f1x0.o
    0x08005838   0x08005838   0x0000013c   Code   RO          144    .text               system_gd32f1x0.o
    0x08005974   0x08005974   0x00000028   Code   RO          150    .text               c_w.l(noretval__2sprintf.o)
    0x0800599c   0x0800599c   0x00000052   Code   RO          152    .text               c_w.l(_printf_str.o)
    0x080059ee   0x080059ee   0x00000002   PAD
    0x080059f0   0x080059f0   0x00000078   Code   RO          153    .text               c_w.l(_printf_dec.o)
    0x08005a68   0x08005a68   0x0000010e   Code   RO          159    .text               c_w.l(__printf_wp.o)
    0x08005b76   0x08005b76   0x0000003e   Code   RO          171    .text               c_w.l(strlen.o)
    0x08005bb4   0x08005bb4   0x00000064   Code   RO          172    .text               c_w.l(rt_memcpy_w.o)
    0x08005c18   0x08005c18   0x0000004e   Code   RO          173    .text               c_w.l(rt_memclr_w.o)
    0x08005c66   0x08005c66   0x00000006   Code   RO          174    .text               c_w.l(heapauxi.o)
    0x08005c6c   0x08005c6c   0x000000b2   Code   RO          196    .text               c_w.l(_printf_intcommon.o)
    0x08005d1e   0x08005d1e   0x0000041c   Code   RO          197    .text               c_w.l(_printf_fp_dec.o)
    0x0800613a   0x0800613a   0x00000002   PAD
    0x0800613c   0x0800613c   0x00000030   Code   RO          199    .text               c_w.l(_printf_char_common.o)
    0x0800616c   0x0800616c   0x0000000a   Code   RO          200    .text               c_w.l(_sputc.o)
    0x08006176   0x08006176   0x0000002c   Code   RO          201    .text               c_w.l(_printf_char.o)
    0x080061a2   0x080061a2   0x00000002   PAD
    0x080061a4   0x080061a4   0x00000008   Code   RO          231    .text               c_w.l(rt_locale_intlibspace.o)
    0x080061ac   0x080061ac   0x0000008a   Code   RO          232    .text               c_w.l(lludiv10.o)
    0x08006236   0x08006236   0x00000002   PAD
    0x08006238   0x08006238   0x00000080   Code   RO          233    .text               c_w.l(_printf_fp_infnan.o)
    0x080062b8   0x080062b8   0x000000e4   Code   RO          235    .text               c_w.l(bigflt0.o)
    0x0800639c   0x0800639c   0x00000008   Code   RO          255    .text               c_w.l(libspace.o)
    0x080063a4   0x080063a4   0x0000004a   Code   RO          257    .text               c_w.l(sys_stackheap_outer.o)
    0x080063ee   0x080063ee   0x00000012   Code   RO          259    .text               c_w.l(exit.o)
    0x08006400   0x08006400   0x00000080   Code   RO          260    .text               c_w.l(strcmpv7m.o)
    0x08006480   0x08006480   0x0000000c   Code   RO          327    .text               c_w.l(sys_exit.o)
    0x0800648c   0x0800648c   0x00000002   Code   RO          335    .text               c_w.l(use_no_semi.o)
    0x0800648e   0x0800648e   0x00000000   Code   RO          336    .text               c_w.l(indicate_semi.o)
    0x0800648e   0x0800648e   0x0000003e   Code   RO          237    CL$$btod_d2e        c_w.l(btod.o)
    0x080064cc   0x080064cc   0x00000046   Code   RO          239    CL$$btod_d2e_denorm_low  c_w.l(btod.o)
    0x08006512   0x08006512   0x00000060   Code   RO          238    CL$$btod_d2e_norm_op1  c_w.l(btod.o)
    0x08006572   0x08006572   0x00000002   PAD
    0x08006574   0x08006574   0x00000338   Code   RO          247    CL$$btod_div_common  c_w.l(btod.o)
    0x080068ac   0x080068ac   0x000000dc   Code   RO          244    CL$$btod_e2e        c_w.l(btod.o)
    0x08006988   0x08006988   0x0000002a   Code   RO          241    CL$$btod_ediv       c_w.l(btod.o)
    0x080069b2   0x080069b2   0x0000002a   Code   RO          240    CL$$btod_emul       c_w.l(btod.o)
    0x080069dc   0x080069dc   0x00000244   Code   RO          246    CL$$btod_mult_common  c_w.l(btod.o)
    0x08006c20   0x08006c20   0x00000028   Code   RO          254    i.__ARM_fpclassify  m_ws.l(fpclassify.o)
    0x08006c48   0x08006c48   0x0000000e   Code   RO          161    i._is_digit         c_w.l(__printf_wp.o)
    0x08006c56   0x08006c56   0x00000002   PAD
    0x08006c58   0x08006c58   0x0000002c   Code   RO          250    locale$$code        c_w.l(lc_numeric_c.o)
    0x08006c84   0x08006c84   0x00000062   Code   RO          176    x$fpl$d2f           fz_ws.l(d2f.o)
    0x08006ce6   0x08006ce6   0x00000002   PAD
    0x08006ce8   0x08006ce8   0x00000150   Code   RO          177    x$fpl$dadd          fz_ws.l(daddsub_clz.o)
    0x08006e38   0x08006e38   0x00000018   Code   RO          251    x$fpl$dcmpinf       fz_ws.l(dcmpi.o)
    0x08006e50   0x08006e50   0x00000078   Code   RO          203    x$fpl$deqf          fz_ws.l(deqf.o)
    0x08006ec8   0x08006ec8   0x0000005e   Code   RO          181    x$fpl$dfix          fz_ws.l(dfix.o)
    0x08006f26   0x08006f26   0x0000002e   Code   RO          184    x$fpl$dflt          fz_ws.l(dflt_clz.o)
    0x08006f54   0x08006f54   0x00000026   Code   RO          183    x$fpl$dfltu         fz_ws.l(dflt_clz.o)
    0x08006f7a   0x08006f7a   0x00000002   PAD
    0x08006f7c   0x08006f7c   0x00000078   Code   RO          204    x$fpl$dgeqf         fz_ws.l(dgeqf.o)
    0x08006ff4   0x08006ff4   0x00000078   Code   RO          205    x$fpl$dleqf         fz_ws.l(dleqf.o)
    0x0800706c   0x0800706c   0x00000154   Code   RO          186    x$fpl$dmul          fz_ws.l(dmul.o)
    0x080071c0   0x080071c0   0x0000009c   Code   RO          206    x$fpl$dnaninf       fz_ws.l(dnaninf.o)
    0x0800725c   0x0800725c   0x0000000c   Code   RO          207    x$fpl$dretinf       fz_ws.l(dretinf.o)
    0x08007268   0x08007268   0x000001dc   Code   RO          179    x$fpl$dsub          fz_ws.l(daddsub_clz.o)
    0x08007444   0x08007444   0x00000056   Code   RO          187    x$fpl$f2d           fz_ws.l(f2d.o)
    0x0800749a   0x0800749a   0x00000054   Code   RO          180    x$fpl$fcmp          fz_ws.l(dcmp.o)
    0x080074ee   0x080074ee   0x00000054   Code   RO          188    x$fpl$fcmp          fz_ws.l(fcmp.o)
    0x08007542   0x08007542   0x00000018   Code   RO          252    x$fpl$fcmpinf       fz_ws.l(fcmpi.o)
    0x0800755a   0x0800755a   0x00000002   PAD
    0x0800755c   0x0800755c   0x00000184   Code   RO          190    x$fpl$fdiv          fz_ws.l(fdiv.o)
    0x080076e0   0x080076e0   0x00000068   Code   RO          208    x$fpl$feqf          fz_ws.l(feqf.o)
    0x08007748   0x08007748   0x00000026   Code   RO          191    x$fpl$ffltu         fz_ws.l(fflt_clz.o)
    0x0800776e   0x0800776e   0x00000002   PAD
    0x08007770   0x08007770   0x00000068   Code   RO          209    x$fpl$fgeqf         fz_ws.l(fgeqf.o)
    0x080077d8   0x080077d8   0x00000068   Code   RO          210    x$fpl$fleqf         fz_ws.l(fleqf.o)
    0x08007840   0x08007840   0x0000008c   Code   RO          211    x$fpl$fnaninf       fz_ws.l(fnaninf.o)
    0x080078cc   0x080078cc   0x0000000a   Code   RO          212    x$fpl$fretinf       fz_ws.l(fretinf.o)
    0x080078d6   0x080078d6   0x00000004   Code   RO          194    x$fpl$printf1       fz_ws.l(printf1.o)
    0x080078da   0x080078da   0x00000000   Code   RO          213    x$fpl$usenofp       fz_ws.l(usenofp.o)
    0x080078da   0x080078da   0x00000002   PAD
    0x080078dc   0x080078dc   0x00000094   Data   RO          236    .constdata          c_w.l(bigflt0.o)
    0x08007970   0x08007970   0x0000000c   Data   RO           33    .rodata..L__const.up_or_down.up_down  bldc.o
    0x0800797c   0x0800797c   0x0000000c   Data   RO          117    .rodata..Lswitch.table.gpio_deinit.1  gd32f1x0_gpio.o
    0x08007988   0x08007988   0x00000008   Data   RO          131    .rodata.cst8        gd32f1x0_rcu.o
    0x08007990   0x08007990   0x00000008   Data   RO           34    .rodata.hall_to_pos  bldc.o
    0x08007998   0x08007998   0x00000391   Data   RO           77    .rodata.str1.1      remoteautodetect.o
    0x08007d29   0x08007d29   0x00000003   PAD
    0x08007d2c   0x08007d2c   0x000000d2   Data   RO           95    .rodata.str1.4      remoteautodetect.o
    0x08007dfe   0x08007dfe   0x00000002   PAD
    0x08007e00   0x08007e00   0x00000020   Data   RO          370    Region$$Table       anon$$obj.o
    0x08007e20   0x08007e20   0x0000001c   Data   RO          249    locale$$data        c_w.l(lc_numeric_c.o)


    Execution Region RW_IRAM1 (Exec base: 0x20000000, Load base: 0x08007e40, Size: 0x00000d60, Max: 0x00002000, ABSOLUTE, COMPRESSED[0x00000110])

    Exec Addr    Load Addr    Size         Type   Attr      Idx    E Section Name        Object

    0x20000000   COMPRESSED   0x00000004   Data   RW           74    .data.HALL_A        remoteautodetect.o
    0x20000004   COMPRESSED   0x00000004   Data   RW           75    .data.HALL_B        remoteautodetect.o
    0x20000008   COMPRESSED   0x00000004   Data   RW           76    .data.HALL_C        remoteautodetect.o
    0x2000000c   COMPRESSED   0x00000004   Data   RW          146    .data.SystemCoreClock  system_gd32f1x0.o
    0x20000010   COMPRESSED   0x00000012   Data   RW           92    .data.aHallOrder    remoteautodetect.o
    0x20000022   COMPRESSED   0x00000155   Data   RW           78    .data.aoPin         remoteautodetect.o
    0x20000177   COMPRESSED   0x00000001   PAD
    0x20000178   COMPRESSED   0x00000028   Data   RW           89    .data.asScan        remoteautodetect.o
    0x200001a0   COMPRESSED   0x00000001   Data   RW          101    .data.bHallOld      remoteautodetect.o
    0x200001a1   COMPRESSED   0x00000003   PAD
    0x200001a4   COMPRESSED   0x00000004   Data   RW           19    .data.batteryVoltage  bldc.o
    0x200001a8   COMPRESSED   0x00000001   Data   RW           73    .data.cRxLast       remoteautodetect.o
    0x200001a9   COMPRESSED   0x00000001   PAD
    0x200001aa   COMPRESSED   0x00000002   Data   RW           87    .data.iAverageMax   remoteautodetect.o
    0x200001ac   COMPRESSED   0x00000001   Data   RW           94    .data.iMove         remoteautodetect.o
    0x200001ad   COMPRESSED   0x00000001   Data   RW           84    .data.iTestStart    remoteautodetect.o
    0x200001ae   COMPRESSED   0x00000002   Data   RW           96    .data.iVBatMinTest  remoteautodetect.o
    0x200001b0   COMPRESSED   0x00000002   Data   RW           27    .data.offsetdc      bldc.o
    0x200001b2   COMPRESSED   0x00000001   Data   RW          103    .data.posAuto       remoteautodetect.o
    0x200001b3   COMPRESSED   0x00000001   PAD
    0x200001b4   COMPRESSED   0x00000004   Data   RW           79    .data.sTodoPin      remoteautodetect.o
    0x200001b8   COMPRESSED   0x00000002   Data   RW           80    .data.wStage        remoteautodetect.o
    0x200001ba   COMPRESSED   0x00000002   Data   RW           81    .data.wStageOld     remoteautodetect.o
    0x200001bc   COMPRESSED   0x00000004   PAD
    0x200001c0        -       0x00000060   Zero   RW          256    .bss                c_w.l(libspace.o)
    0x20000220        -       0x00000018   Zero   RW           91    .bss.aPinHall       remoteautodetect.o
    0x20000238        -       0x00000004   Zero   RW           35    .bss.adc_buffer     bldc.o
    0x2000023c        -       0x00000028   Zero   RW           90    .bss.aiPinScan      remoteautodetect.o
    0x20000264        -       0x00000001   Zero   RW           67    .bss.beepsBackwardsMaster  commsmasterslave.o
    0x20000265        -       0x00000001   Zero   RW           23    .bss.bldc_enable    bldc.o
    0x20000266        -       0x00000002   Zero   RW           22    .bss.bldc_inputFilterPwm  bldc.o
    0x20000268        -       0x00000002   Zero   RW           24    .bss.bldc_outputFilterPwm  bldc.o
    0x2000026a        -       0x00000001   Zero   RW           30    .bss.buzzerFreq     bldc.o
    0x2000026b        -       0x00000001   Zero   RW           31    .bss.buzzerPattern  bldc.o
    0x2000026c        -       0x00000002   Zero   RW           25    .bss.buzzerTimer    bldc.o
    0x2000026e        -       0x00000001   Zero   RW           29    .bss.buzzerToggle   bldc.o
    0x2000026f        -       0x00000001   Zero   RW           72    .bss.cCommand       remoteautodetect.o
    0x20000270        -       0x00000004   Zero   RW           20    .bss.currentDC      bldc.o
    0x20000274        -       0x00000024   Zero   RW           49    .bss.dma_init_struct_adc  setup.o
    0x20000298        -       0x00000024   Zero   RW           50    .bss.dma_init_struct_usart  setup.o
    0x200002bc        -       0x00000004   Zero   RW          100    .bss.fCurrentDC     remoteautodetect.o
    0x200002c0        -       0x00000004   Zero   RW           98    .bss.fVBatt         remoteautodetect.o
    0x200002c4        -       0x00000004   Zero   RW           41    .bss.filter_reg     bldc.o
    0x200002c8        -       0x00000001   Zero   RW           39    .bss.hall           bldc.o
    0x200002c9        -       0x00000001   Zero   RW           36    .bss.hall_a         bldc.o
    0x200002ca        -       0x00000001   Zero   RW           37    .bss.hall_b         bldc.o
    0x200002cb        -       0x00000001   Zero   RW           38    .bss.hall_c         bldc.o
    0x200002cc        -       0x00000002   Zero   RW           86    .bss.iAverage       remoteautodetect.o
    0x200002ce   COMPRESSED   0x00000002   PAD
    0x200002d0        -       0x00000004   Zero   RW           32    .bss.iOdom          bldc.o
    0x200002d4        -       0x00000002   Zero   RW           99    .bss.iOffsetDC      remoteautodetect.o
    0x200002d6        -       0x00000001   Zero   RW          105    .bss.iPhaseCurrent  remoteautodetect.o
    0x200002d7        -       0x00000001   Zero   RW           85    .bss.iRepeat        remoteautodetect.o
    0x200002d8        -       0x00000001   Zero   RW           82    .bss.iTest          remoteautodetect.o
    0x200002d9        -       0x00000001   Zero   RW           83    .bss.iTestPin       remoteautodetect.o
    0x200002da   COMPRESSED   0x00000002   PAD
    0x200002dc        -       0x00000004   Zero   RW           14    .bss.iTimeNextLoop  main.o
    0x200002e0        -       0x00000001   Zero   RW           42    .bss.lastPos        bldc.o
    0x200002e1   COMPRESSED   0x00000003   PAD
    0x200002e4        -       0x00000004   Zero   RW           57    .bss.msTicks        it.o
    0x200002e8        -       0x00000004   Zero   RW          102    .bss.msTicksAuto    remoteautodetect.o
    0x200002ec        -       0x00000004   Zero   RW          106    .bss.msTicksOld     remoteautodetect.o
    0x200002f0        -       0x00000004   Zero   RW           97    .bss.msTicksTest    remoteautodetect.o
    0x200002f4        -       0x00000004   Zero   RW           88    .bss.msTicksWait    remoteautodetect.o
    0x200002f8        -       0x00000002   Zero   RW           26    .bss.offsetcount    bldc.o
    0x200002fa        -       0x00000001   Zero   RW           40    .bss.pos            bldc.o
    0x200002fb        -       0x00000001   Zero   RW          104    .bss.posOld         remoteautodetect.o
    0x200002fc        -       0x00000004   Zero   RW           21    .bss.realSpeed      bldc.o
    0x20000300        -       0x00000200   Zero   RW           71    .bss.sMessage       remoteautodetect.o
    0x20000500        -       0x00000004   Zero   RW           28    .bss.speedCounter   bldc.o
    0x20000504        -       0x00000004   Zero   RW            8    .bss.steer          main.o
    0x20000508        -       0x00000004   Zero   RW            3    .bss.steerCounter   main.o
    0x2000050c        -       0x00000001   Zero   RW           56    .bss.timedOut       it.o
    0x2000050d   COMPRESSED   0x00000003   PAD
    0x20000510        -       0x00000004   Zero   RW           55    .bss.timeoutCounter_ms  it.o
    0x20000514        -       0x00000010   Zero   RW           45    .bss.timeoutTimer_paramter_struct  setup.o
    0x20000524        -       0x00000018   Zero   RW           48    .bss.timerBldc_break_parameter_struct  setup.o
    0x2000053c        -       0x00000010   Zero   RW           47    .bss.timerBldc_oc_parameter_struct  setup.o
    0x2000054c        -       0x00000010   Zero   RW           46    .bss.timerBldc_paramter_struct  setup.o
    0x2000055c        -       0x00000001   Zero   RW           51    .bss.usart0_rx_buf  setup.o
    0x2000055d        -       0x00000001   Zero   RW           93    .bss.wScanConfig    remoteautodetect.o
    0x2000055e   COMPRESSED   0x00000002   PAD
    0x20000560        -       0x00000400   Zero   RW          141    HEAP                startup_gd32f1x0.o
    0x20000960        -       0x00000400   Zero   RW          140    STACK               startup_gd32f1x0.o


==============================================================================

Image component sizes


      Code (inc. data)   RO Data    RW Data    ZI Data      Debug   Object Name

      1182          6         20          6         42          0   bldc.o
       132          0          0          0          1          0   commsmasterslave.o
      1446         16          0          0          0          0   gd32f1x0_adc.o
       844          8          0          0          0          0   gd32f1x0_dma.o
       218          0          0          0          0          0   gd32f1x0_fwdgt.o
       408          0         12          0          0          0   gd32f1x0_gpio.o
       304          0          0          0          0          0   gd32f1x0_misc.o
      1840         34          8          0          0          0   gd32f1x0_rcu.o
      3424         44          0          0          0          0   gd32f1x0_timer.o
      1598          8          0          0          0          0   gd32f1x0_usart.o
       270          0          0          0          9          0   it.o
       166          0          0          0         12          0   main.o
      8668        380       1123        428        611          0   remoteautodetect.o
      1392          0          0          0        145          0   setup.o
        64         26        360          0       2048          0   startup_gd32f1x0.o
       316         16          0          4          0          0   system_gd32f1x0.o

    ----------------------------------------------------------------------
     22284        538       1560        444       2884          0   Object Totals
         0          0         32          0          0          0   (incl. Generated)
        12          0          5          6         16          0   (incl. Padding)

    ----------------------------------------------------------------------

      Code (inc. data)   RO Data    RW Data    ZI Data      Debug   Library Member Name

        90          0          0          0          0          0   __dczerorl2.o
         8          0          0          0          0          0   __main.o
       284          0          0          0          0          0   __printf_wp.o
         0          0          0          0          0          0   __rtentry.o
        12          0          0          0          0          0   __rtentry2.o
         6          0          0          0          0          0   __rtentry4.o
        52          8          0          0          0          0   __scatter.o
        28          0          0          0          0          0   __scatter_zi.o
        44          0          0          0          0          0   _printf_char.o
        48          6          0          0          0          0   _printf_char_common.o
       120         16          0          0          0          0   _printf_dec.o
         6          0          0          0          0          0   _printf_f.o
      1052          0          0          0          0          0   _printf_fp_dec.o
       128         16          0          0          0          0   _printf_fp_infnan.o
         6          0          0          0          0          0   _printf_i.o
       178          0          0          0          0          0   _printf_intcommon.o
         0          0          0          0          0          0   _printf_percent.o
         4          0          0          0          0          0   _printf_percent_end.o
         6          0          0          0          0          0   _printf_s.o
        82          0          0          0          0          0   _printf_str.o
        10          0          0          0          0          0   _sputc.o
       228          4        148          0          0          0   bigflt0.o
      1936        128          0          0          0          0   btod.o
        18          0          0          0          0          0   exit.o
         6          0          0          0          0          0   heapauxi.o
         0          0          0          0          0          0   indicate_semi.o
        44         10         28          0          0          0   lc_numeric_c.o
         2          0          0          0          0          0   libinit.o
        18          0          0          0          0          0   libinit2.o
         2          0          0          0          0          0   libshutdown.o
         2          0          0          0          0          0   libshutdown2.o
         8          4          0          0         96          0   libspace.o
       138          0          0          0          0          0   lludiv10.o
        40          6          0          0          0          0   noretval__2sprintf.o
         8          4          0          0          0          0   rt_locale_intlibspace.o
        78          0          0          0          0          0   rt_memclr_w.o
       100          0          0          0          0          0   rt_memcpy_w.o
         2          0          0          0          0          0   rtexit.o
        10          0          0          0          0          0   rtexit2.o
       128          0          0          0          0          0   strcmpv7m.o
        62          0          0          0          0          0   strlen.o
        12          4          0          0          0          0   sys_exit.o
        74          0          0          0          0          0   sys_stackheap_outer.o
         2          0          0          0          0          0   use_no_semi.o
        98          4          0          0          0          0   d2f.o
       812         16          0          0          0          0   daddsub_clz.o
        84          0          0          0          0          0   dcmp.o
        24          0          0          0          0          0   dcmpi.o
       120          4          0          0          0          0   deqf.o
        94          4          0          0          0          0   dfix.o
        84          0          0          0          0          0   dflt_clz.o
       120          4          0          0          0          0   dgeqf.o
       120          4          0          0          0          0   dleqf.o
       340         12          0          0          0          0   dmul.o
       156          4          0          0          0          0   dnaninf.o
        12          0          0          0          0          0   dretinf.o
        86          4          0          0          0          0   f2d.o
        84          0          0          0          0          0   fcmp.o
        24          0          0          0          0          0   fcmpi.o
       388         76          0          0          0          0   fdiv.o
       104          4          0          0          0          0   feqf.o
        38          0          0          0          0          0   fflt_clz.o
       104          4          0          0          0          0   fgeqf.o
       104          4          0          0          0          0   fleqf.o
       140          4          0          0          0          0   fnaninf.o
        10          0          0          0          0          0   fretinf.o
         4          0          0          0          0          0   printf1.o
         0          0          0          0          0          0   usenofp.o
        40          0          0          0          0          0   fpclassify.o

    ----------------------------------------------------------------------
      8296        354        176          0         96          0   Library Totals
        24          0          0          0          0          0   (incl. Padding)

    ----------------------------------------------------------------------

      Code (inc. data)   RO Data    RW Data    ZI Data      Debug   Library Name

      5082        206        176          0         96          0   c_w.l
      3150        148          0          0          0          0   fz_ws.l
        40          0          0          0          0          0   m_ws.l

    ----------------------------------------------------------------------
      8296        354        176          0         96          0   Library Totals

    ----------------------------------------------------------------------

==============================================================================


      Code (inc. data)   RO Data    RW Data    ZI Data      Debug   

     30580        892       1736        444       2980          0   Grand Totals
     30580        892       1736        272       2980          0   ELF Image Totals (compressed)
     30580        892       1736        272          0          0   ROM Totals

==============================================================================

    Total RO  Size (Code + RO Data)                32316 (  31.56kB)
    Total RW  Size (RW Data + ZI Data)              3424 (   3.34kB)
    Total ROM Size (Code + RO Data + RW Data)      32588 (  31.82kB)

==============================================================================

