Component: Arm Compiler for Embedded 6.23 Tool: armlink [5f102400]

==============================================================================

Section Cross References

    main.o(.text) refers to main.o(.bss.iBug) for iBug
    main.o(.text) refers to setup.o(.text) for ConfigRead
    main.o(.text) refers to remoteautodetect.o(.text) for AutodetectInit
    main.o(.text) refers to system_gd32f10x.o(.text) for SystemCoreClockUpdate
    main.o(.text) refers to system_gd32f10x.o(.data.SystemCoreClock) for SystemCoreClock
    main.o(.text) refers to bldcbc.o(.text) for InitBldc
    main.o(.text) refers to main.o(.bss.iTimeNextLoop) for iTimeNextLoop
    main.o(.text) refers to main.o(.bss.steerCounter) for steerCounter
    main.o(.text) refers to gd32f10x_fwdgt.o(.text) for fwdgt_counter_reload
    main.o(.text) refers to it.o(.text) for millis
    main.o(.text) refers to bldc.o(.text) for SetEnable
    main.o(.ARM.exidx) refers to main.o(.text) for [Anonymous Symbol]
    bldc.o(.text) refers to bldc.o(.rodata..L__const.up_or_down.up_down) for .L__const.up_or_down.up_down
    bldc.o(.text) refers to bldc.o(.bss.bldc_enable) for bldc_enable
    bldc.o(.text) refers to dflti.o(.text) for __aeabi_i2d
    bldc.o(.text) refers to ddiv.o(.text) for __aeabi_ddiv
    bldc.o(.text) refers to dmul.o(.text) for __aeabi_dmul
    bldc.o(.text) refers to dfixi.o(.text) for __aeabi_d2iz
    bldc.o(.text) refers to bldc.o(.bss.bldc_inputFilterPwm) for bldc_inputFilterPwm
    bldc.o(.text) refers to bldc.o(.data.iFILTER_SHIFT) for iFILTER_SHIFT
    bldc.o(.text) refers to bldc.o(.bss.bldc_outputFilterPwm) for bldc_outputFilterPwm
    bldc.o(.text) refers to bldc.o(.bss.filter_reg) for filter_reg
    bldc.o(.text) refers to bldc.o(.bss.buzzerTimer) for buzzerTimer
    bldc.o(.text) refers to main.o(.bss.iBug) for iBug
    bldc.o(.text) refers to bldc.o(.data.currentDC) for currentDC
    bldc.o(.text) refers to fcmpgt.o(.text) for __aeabi_fcmpgt
    bldc.o(.text) refers to it.o(.bss.timedOut) for timedOut
    bldc.o(.text) refers to gd32f10x_timer.o(.text) for timer_automatic_output_enable
    bldc.o(.text) refers to remoteautodetect.o(.data.HALL_A) for HALL_A
    bldc.o(.text) refers to gd32f10x_gpio.o(.text) for gpio_input_bit_get
    bldc.o(.text) refers to remoteautodetect.o(.data.HALL_B) for HALL_B
    bldc.o(.text) refers to bldc.o(.bss.hall_a) for hall_a
    bldc.o(.text) refers to remoteautodetect.o(.data.HALL_C) for HALL_C
    bldc.o(.text) refers to bldc.o(.bss.hall_b) for hall_b
    bldc.o(.text) refers to bldc.o(.bss.hall_c) for hall_c
    bldc.o(.text) refers to bldc.o(.bss.hall) for hall
    bldc.o(.text) refers to bldc.o(.rodata.hall_to_pos) for hall_to_pos
    bldc.o(.text) refers to remoteautodetect.o(.text) for AutodetectBldc
    bldc.o(.text) refers to bldc.o(.bss.pos) for pos
    bldc.o(.text) refers to bldcbc.o(.text) for bldc_get_pwm
    bldc.o(.text) refers to bldc.o(.bss.lastPos) for lastPos
    bldc.o(.text) refers to bldc.o(.bss.iOdom) for iOdom
    bldc.o(.text) refers to bldc.o(.bss.speedCounter) for speedCounter
    bldc.o(.text) refers to ffltui.o(.text) for __aeabi_ui2f
    bldc.o(.text) refers to fdiv.o(.text) for __aeabi_fdiv
    bldc.o(.text) refers to bldc.o(.bss.realSpeed) for realSpeed
    bldc.o(.ARM.exidx) refers to bldc.o(.text) for [Anonymous Symbol]
    bldcbc.o(.ARM.exidx) refers to bldcbc.o(.text) for [Anonymous Symbol]
    setup.o(.text) refers to gd32f10x_misc.o(.text) for nvic_priority_group_set
    setup.o(.text) refers to gd32f10x_rcu.o(.text) for rcu_flag_get
    setup.o(.text) refers to gd32f10x_fwdgt.o(.text) for fwdgt_config
    setup.o(.text) refers to gd32f10x_timer.o(.text) for timer_deinit
    setup.o(.text) refers to setup.o(.bss.timeoutTimer_paramter_struct) for timeoutTimer_paramter_struct
    setup.o(.text) refers to gd32f10x_gpio.o(.text) for gpio_init
    setup.o(.text) refers to setup.o(.bss.timerBldc_paramter_struct) for timerBldc_paramter_struct
    setup.o(.text) refers to setup.o(.bss.timerBldc_oc_parameter_struct) for timerBldc_oc_parameter_struct
    setup.o(.text) refers to setup.o(.bss.timerBldc_break_parameter_struct) for timerBldc_break_parameter_struct
    setup.o(.text) refers to gd32f10x_dma.o(.text) for dma_deinit
    setup.o(.text) refers to setup.o(.bss.dma_init_struct_adc) for dma_init_struct_adc
    setup.o(.text) refers to bldc.o(.bss.adc_buffer) for adc_buffer
    setup.o(.text) refers to gd32f10x_adc.o(.text) for adc_channel_length_config
    setup.o(.text) refers to gd32f10x_usart.o(.text) for usart_deinit
    setup.o(.text) refers to setup.o(.bss.dma_init_struct_usart) for dma_init_struct_usart
    setup.o(.text) refers to setup.o(.bss.usart0_rx_buf) for usart0_rx_buf
    setup.o(.text) refers to gd32f10x_fmc.o(.text) for fmc_unlock
    setup.o(.text) refers to setup.o(.bss.oConfig) for oConfig
    setup.o(.ARM.exidx) refers to setup.o(.text) for [Anonymous Symbol]
    it.o(.text) refers to it.o(.bss.msTicks) for msTicks
    it.o(.text) refers to it.o(.bss.timeoutCounter_ms) for timeoutCounter_ms
    it.o(.text) refers to it.o(.bss.timedOut) for timedOut
    it.o(.text) refers to main.o(.bss.speed) for speed
    it.o(.text) refers to gd32f10x_timer.o(.text) for timer_interrupt_flag_clear
    it.o(.text) refers to it.o(.bss.iPwmCounter) for iPwmCounter
    it.o(.text) refers to it.o(.bss.iPwmTicks0) for iPwmTicks0
    it.o(.text) refers to it.o(.bss.iPwmTicks) for iPwmTicks
    it.o(.text) refers to gd32f10x_adc.o(.text) for adc_software_trigger_enable
    it.o(.text) refers to it.o(.bss.iAdcCounter) for iAdcCounter
    it.o(.text) refers to it.o(.bss.iAdcTicks0) for iAdcTicks0
    it.o(.text) refers to it.o(.bss.iAdcTicks) for iAdcTicks
    it.o(.text) refers to bldc.o(.text) for CalculateBLDC
    it.o(.text) refers to gd32f10x_dma.o(.text) for dma_interrupt_flag_get
    it.o(.text) refers to it.o(.bss.iCounterUsart0) for iCounterUsart0
    it.o(.text) refers to it.o(.bss.iCounter2Usart0) for iCounter2Usart0
    it.o(.text) refers to remoteautodetect.o(.text) for RemoteCallback
    it.o(.ARM.exidx) refers to it.o(.text) for [Anonymous Symbol]
    comms.o(.text) refers to gd32f10x_usart.o(.text) for usart_data_transmit
    comms.o(.ARM.exidx) refers to comms.o(.text) for [Anonymous Symbol]
    remoteautodetect.o(.text) refers to remoteautodetect.o(.data.aoPin) for aoPin
    remoteautodetect.o(.text) refers to remoteautodetect.o(.data.sTodoPin) for sTodoPin
    remoteautodetect.o(.text) refers to remoteautodetect.o(.bss.bMessageWait) for bMessageWait
    remoteautodetect.o(.text) refers to remoteautodetect.o(.bss.sMessage) for sMessage
    remoteautodetect.o(.text) refers to remoteautodetect.o(.data.asScan) for asScan
    remoteautodetect.o(.text) refers to remoteautodetect.o(.rodata.str1.1) for .L.str.49
    remoteautodetect.o(.text) refers to printfa.o(i.__0sprintf) for __2sprintf
    remoteautodetect.o(.text) refers to remoteautodetect.o(.bss.aiPinScan) for aiPinScan
    remoteautodetect.o(.text) refers to it.o(.text) for ResetTimeout
    remoteautodetect.o(.text) refers to remoteautodetect.o(.data.oDataHeader) for oDataHeader
    remoteautodetect.o(.text) refers to main.o(.bss.steer) for steer
    remoteautodetect.o(.text) refers to comms.o(.text) for SendBuffer
    remoteautodetect.o(.text) refers to strlen.o(.text) for strlen
    remoteautodetect.o(.text) refers to remoteautodetect.o(.bss.iBug2) for iBug2
    remoteautodetect.o(.text) refers to remoteautodetect.o(.bss.iBufferData) for iBufferData
    remoteautodetect.o(.text) refers to setup.o(.bss.usart0_rx_buf) for usart0_rx_buf
    remoteautodetect.o(.text) refers to remoteautodetect.o(.bss.aBufferData) for aBufferData
    remoteautodetect.o(.text) refers to remoteautodetect.o(.bss.oHeaderRx) for oHeaderRx
    remoteautodetect.o(.text) refers to memcpya.o(.text) for __aeabi_memcpy
    remoteautodetect.o(.text) refers to remoteautodetect.o(.data.wMenuStage) for wMenuStage
    remoteautodetect.o(.text) refers to remoteautodetect.o(.bss.iTest) for iTest
    remoteautodetect.o(.text) refers to remoteautodetect.o(.data.aHallOrder) for aHallOrder
    remoteautodetect.o(.text) refers to remoteautodetect.o(.data.HALL_A) for HALL_A
    remoteautodetect.o(.text) refers to remoteautodetect.o(.data.HALL_B) for HALL_B
    remoteautodetect.o(.text) refers to it.o(.bss.msTicks) for msTicks
    remoteautodetect.o(.text) refers to remoteautodetect.o(.data.HALL_C) for HALL_C
    remoteautodetect.o(.text) refers to remoteautodetect.o(.bss.msTicksTest) for msTicksTest
    remoteautodetect.o(.text) refers to remoteautodetect.o(.bss.msTicksOld) for msTicksOld
    remoteautodetect.o(.text) refers to remoteautodetect.o(.bss.iRepeat) for iRepeat
    remoteautodetect.o(.text) refers to remoteautodetect.o(.data.cRxLast) for cRxLast
    remoteautodetect.o(.text) refers to remoteautodetect.o(.bss.cCommand) for cCommand
    remoteautodetect.o(.text) refers to remoteautodetect.o(.bss.iPhaseCurrent) for iPhaseCurrent
    remoteautodetect.o(.text) refers to remoteautodetect.o(.bss.iTestPin) for iTestPin
    remoteautodetect.o(.text) refers to remoteautodetect.o(.data.wStage) for wStage
    remoteautodetect.o(.text) refers to remoteautodetect.o(.bss.msTicksWait) for msTicksWait
    remoteautodetect.o(.text) refers to remoteautodetect.o(.bss.bReturnToMenu) for bReturnToMenu
    remoteautodetect.o(.text) refers to gd32f10x_gpio.o(.text) for gpio_init
    remoteautodetect.o(.text) refers to remoteautodetect.o(.data.iHoldAutofind) for iHoldAutofind
    remoteautodetect.o(.text) refers to remoteautodetect.o(.data.iVBatMinTest) for iVBatMinTest
    remoteautodetect.o(.text) refers to gd32f10x_adc.o(.text) for adc_regular_channel_config
    remoteautodetect.o(.text) refers to remoteautodetect.o(.bss.msTicksTestNext) for msTicksTestNext
    remoteautodetect.o(.text) refers to remoteautodetect.o(.bss.iAverage) for iAverage
    remoteautodetect.o(.text) refers to remoteautodetect.o(.bss.fVBattOld) for fVBattOld
    remoteautodetect.o(.text) refers to main.o(.bss.iBug) for iBug
    remoteautodetect.o(.text) refers to bldc.o(.text) for SetPWM
    remoteautodetect.o(.text) refers to remoteautodetect.o(.data.wStageOld) for wStageOld
    remoteautodetect.o(.text) refers to memseta.o(.text) for __aeabi_memclr4
    remoteautodetect.o(.text) refers to remoteautodetect.o(.bss.bWait4Enter) for bWait4Enter
    remoteautodetect.o(.text) refers to remoteautodetect.o(.bss.bCurrentManualMode) for bCurrentManualMode
    remoteautodetect.o(.text) refers to remoteautodetect.o(.data.iTestStart) for iTestStart
    remoteautodetect.o(.text) refers to remoteautodetect.o(.bss.iOffsetDC) for iOffsetDC
    remoteautodetect.o(.text) refers to remoteautodetect.o(.bss.fVBatt) for fVBatt
    remoteautodetect.o(.text) refers to f2d.o(.text) for __aeabi_f2d
    remoteautodetect.o(.text) refers to bldc.o(.bss.adc_buffer) for adc_buffer
    remoteautodetect.o(.text) refers to dfltui.o(.text) for __aeabi_ui2d
    remoteautodetect.o(.text) refers to dmul.o(.text) for __aeabi_dmul
    remoteautodetect.o(.text) refers to dadd.o(.text) for __aeabi_dadd
    remoteautodetect.o(.text) refers to d2f.o(.text) for __aeabi_d2f
    remoteautodetect.o(.text) refers to fcmpeq.o(.text) for __aeabi_fcmpeq
    remoteautodetect.o(.text) refers to remoteautodetect.o(.rodata.str1.4) for .L.str.56
    remoteautodetect.o(.text) refers to remoteautodetect.o(.data.asStage) for asStage
    remoteautodetect.o(.text) refers to dflti.o(.text) for __aeabi_i2d
    remoteautodetect.o(.text) refers to remoteautodetect.o(.bss.fCurrentDC) for fCurrentDC
    remoteautodetect.o(.text) refers to fadd.o(.text) for __aeabi_fsub
    remoteautodetect.o(.text) refers to fcmpge.o(.text) for __aeabi_fcmpge
    remoteautodetect.o(.text) refers to remoteautodetect.o(.data.fVBattFound) for fVBattFound
    remoteautodetect.o(.text) refers to fcmple.o(.text) for __aeabi_fcmple
    remoteautodetect.o(.text) refers to remoteautodetect.o(.data.iAverageMax) for iAverageMax
    remoteautodetect.o(.text) refers to remoteautodetect.o(.bss.msTicksAuto) for msTicksAuto
    remoteautodetect.o(.text) refers to remoteautodetect.o(.data.posAuto) for posAuto
    remoteautodetect.o(.text) refers to ffixi.o(.text) for __aeabi_f2iz
    remoteautodetect.o(.text) refers to remoteautodetect.o(.bss.posOld) for posOld
    remoteautodetect.o(.text) refers to remoteautodetect.o(.data.bHallOld) for bHallOld
    remoteautodetect.o(.ARM.exidx) refers to remoteautodetect.o(.text) for [Anonymous Symbol]
    remoteautodetect.o(.data.aoPin) refers to remoteautodetect.o(.rodata.str1.1) for [Anonymous Symbol]
    remoteautodetect.o(.data.asScan) refers to remoteautodetect.o(.rodata.str1.1) for [Anonymous Symbol]
    remoteautodetect.o(.data.sTodoPin) refers to remoteautodetect.o(.rodata.str1.1) for [Anonymous Symbol]
    gd32f10x_adc.o(.text) refers to gd32f10x_rcu.o(.text) for rcu_periph_reset_enable
    gd32f10x_adc.o(.ARM.exidx) refers to gd32f10x_adc.o(.text) for [Anonymous Symbol]
    gd32f10x_dma.o(.ARM.exidx) refers to gd32f10x_dma.o(.text) for [Anonymous Symbol]
    gd32f10x_exti.o(.ARM.exidx) refers to gd32f10x_exti.o(.text) for [Anonymous Symbol]
    gd32f10x_fmc.o(.ARM.exidx) refers to gd32f10x_fmc.o(.text) for [Anonymous Symbol]
    gd32f10x_fwdgt.o(.ARM.exidx) refers to gd32f10x_fwdgt.o(.text) for [Anonymous Symbol]
    gd32f10x_gpio.o(.text) refers to gd32f10x_rcu.o(.text) for rcu_periph_reset_enable
    gd32f10x_gpio.o(.ARM.exidx) refers to gd32f10x_gpio.o(.text) for [Anonymous Symbol]
    gd32f10x_i2c.o(.text) refers to gd32f10x_rcu.o(.text) for rcu_periph_reset_enable
    gd32f10x_i2c.o(.ARM.exidx) refers to gd32f10x_i2c.o(.text) for [Anonymous Symbol]
    gd32f10x_misc.o(.ARM.exidx) refers to gd32f10x_misc.o(.text) for [Anonymous Symbol]
    gd32f10x_pmu.o(.text) refers to gd32f10x_rcu.o(.text) for rcu_periph_reset_enable
    gd32f10x_pmu.o(.ARM.exidx) refers to gd32f10x_pmu.o(.text) for [Anonymous Symbol]
    gd32f10x_rcu.o(.text) refers to gd32f10x_rcu.o(.rodata.cst8) for .L__const.rcu_clock_freq_get.apb2_exp
    gd32f10x_rcu.o(.ARM.exidx) refers to gd32f10x_rcu.o(.text) for [Anonymous Symbol]
    gd32f10x_timer.o(.text) refers to gd32f10x_rcu.o(.text) for rcu_periph_reset_enable
    gd32f10x_timer.o(.ARM.exidx) refers to gd32f10x_timer.o(.text) for [Anonymous Symbol]
    gd32f10x_usart.o(.text) refers to gd32f10x_rcu.o(.text) for rcu_periph_reset_enable
    gd32f10x_usart.o(.ARM.exidx) refers to gd32f10x_usart.o(.text) for [Anonymous Symbol]
    gd32f10x_wwdgt.o(.text) refers to gd32f10x_rcu.o(.text) for rcu_periph_reset_enable
    gd32f10x_wwdgt.o(.ARM.exidx) refers to gd32f10x_wwdgt.o(.text) for [Anonymous Symbol]
    startup_gd32f10x_hd.o(RESET) refers to startup_gd32f10x_hd.o(STACK) for __initial_sp
    startup_gd32f10x_hd.o(RESET) refers to startup_gd32f10x_hd.o(.text) for Reset_Handler
    startup_gd32f10x_hd.o(RESET) refers to it.o(.text) for NMI_Handler
    startup_gd32f10x_hd.o(.text) refers to system_gd32f10x.o(.text) for SystemInit
    startup_gd32f10x_hd.o(.text) refers to entry.o(.ARM.Collect$$$$00000000) for __main
    system_gd32f10x.o(.text) refers to system_gd32f10x.o(.data.SystemCoreClock) for SystemCoreClock
    system_gd32f10x.o(.ARM.exidx) refers to system_gd32f10x.o(.text) for [Anonymous Symbol]
    entry.o(.ARM.Collect$$$$00000000) refers (Special) to entry10a.o(.ARM.Collect$$$$0000000D) for __rt_final_cpp
    entry.o(.ARM.Collect$$$$00000000) refers (Special) to entry11a.o(.ARM.Collect$$$$0000000F) for __rt_final_exit
    entry.o(.ARM.Collect$$$$00000000) refers (Special) to entry7b.o(.ARM.Collect$$$$00000008) for _main_clock
    entry.o(.ARM.Collect$$$$00000000) refers (Special) to entry8b.o(.ARM.Collect$$$$0000000A) for _main_cpp_init
    entry.o(.ARM.Collect$$$$00000000) refers (Special) to entry9a.o(.ARM.Collect$$$$0000000B) for _main_init
    entry.o(.ARM.Collect$$$$00000000) refers (Special) to entry5.o(.ARM.Collect$$$$00000004) for _main_scatterload
    entry.o(.ARM.Collect$$$$00000000) refers (Special) to entry2.o(.ARM.Collect$$$$00000001) for _main_stk
    printfb.o(i.__0fprintf$bare) refers to printfb.o(i._printf_core) for _printf_core
    printfb.o(i.__0fprintf$bare) refers to fputc.o(i.fputc) for fputc
    printfb.o(i.__0printf$bare) refers to printfb.o(i._printf_core) for _printf_core
    printfb.o(i.__0printf$bare) refers to fputc.o(i.fputc) for fputc
    printfb.o(i.__0printf$bare) refers to stdout.o(.data) for __stdout
    printfb.o(i.__0snprintf$bare) refers to printfb.o(i._printf_core) for _printf_core
    printfb.o(i.__0snprintf$bare) refers to printfb.o(i._snputc) for _snputc
    printfb.o(i.__0sprintf$bare) refers to printfb.o(i._printf_core) for _printf_core
    printfb.o(i.__0sprintf$bare) refers to printfb.o(i._sputc) for _sputc
    printfb.o(i.__0vfprintf$bare) refers to printfb.o(i._printf_core) for _printf_core
    printfb.o(i.__0vfprintf$bare) refers to fputc.o(i.fputc) for fputc
    printfb.o(i.__0vprintf$bare) refers to printfb.o(i._printf_core) for _printf_core
    printfb.o(i.__0vprintf$bare) refers to fputc.o(i.fputc) for fputc
    printfb.o(i.__0vprintf$bare) refers to stdout.o(.data) for __stdout
    printfb.o(i.__0vsnprintf$bare) refers to printfb.o(i._printf_core) for _printf_core
    printfb.o(i.__0vsnprintf$bare) refers to printfb.o(i._snputc) for _snputc
    printfb.o(i.__0vsprintf$bare) refers to printfb.o(i._printf_core) for _printf_core
    printfb.o(i.__0vsprintf$bare) refers to printfb.o(i._sputc) for _sputc
    printf0.o(i.__0fprintf$0) refers to printf0.o(i._printf_core) for _printf_core
    printf0.o(i.__0fprintf$0) refers to fputc.o(i.fputc) for fputc
    printf0.o(i.__0printf$0) refers to printf0.o(i._printf_core) for _printf_core
    printf0.o(i.__0printf$0) refers to fputc.o(i.fputc) for fputc
    printf0.o(i.__0printf$0) refers to stdout.o(.data) for __stdout
    printf0.o(i.__0snprintf$0) refers to printf0.o(i._printf_core) for _printf_core
    printf0.o(i.__0snprintf$0) refers to printf0.o(i._snputc) for _snputc
    printf0.o(i.__0sprintf$0) refers to printf0.o(i._printf_core) for _printf_core
    printf0.o(i.__0sprintf$0) refers to printf0.o(i._sputc) for _sputc
    printf0.o(i.__0vfprintf$0) refers to printf0.o(i._printf_core) for _printf_core
    printf0.o(i.__0vfprintf$0) refers to fputc.o(i.fputc) for fputc
    printf0.o(i.__0vprintf$0) refers to printf0.o(i._printf_core) for _printf_core
    printf0.o(i.__0vprintf$0) refers to fputc.o(i.fputc) for fputc
    printf0.o(i.__0vprintf$0) refers to stdout.o(.data) for __stdout
    printf0.o(i.__0vsnprintf$0) refers to printf0.o(i._printf_core) for _printf_core
    printf0.o(i.__0vsnprintf$0) refers to printf0.o(i._snputc) for _snputc
    printf0.o(i.__0vsprintf$0) refers to printf0.o(i._printf_core) for _printf_core
    printf0.o(i.__0vsprintf$0) refers to printf0.o(i._sputc) for _sputc
    printf1.o(i.__0fprintf$1) refers to printf1.o(i._printf_core) for _printf_core
    printf1.o(i.__0fprintf$1) refers to fputc.o(i.fputc) for fputc
    printf1.o(i.__0printf$1) refers to printf1.o(i._printf_core) for _printf_core
    printf1.o(i.__0printf$1) refers to fputc.o(i.fputc) for fputc
    printf1.o(i.__0printf$1) refers to stdout.o(.data) for __stdout
    printf1.o(i.__0snprintf$1) refers to printf1.o(i._printf_core) for _printf_core
    printf1.o(i.__0snprintf$1) refers to printf1.o(i._snputc) for _snputc
    printf1.o(i.__0sprintf$1) refers to printf1.o(i._printf_core) for _printf_core
    printf1.o(i.__0sprintf$1) refers to printf1.o(i._sputc) for _sputc
    printf1.o(i.__0vfprintf$1) refers to printf1.o(i._printf_core) for _printf_core
    printf1.o(i.__0vfprintf$1) refers to fputc.o(i.fputc) for fputc
    printf1.o(i.__0vprintf$1) refers to printf1.o(i._printf_core) for _printf_core
    printf1.o(i.__0vprintf$1) refers to fputc.o(i.fputc) for fputc
    printf1.o(i.__0vprintf$1) refers to stdout.o(.data) for __stdout
    printf1.o(i.__0vsnprintf$1) refers to printf1.o(i._printf_core) for _printf_core
    printf1.o(i.__0vsnprintf$1) refers to printf1.o(i._snputc) for _snputc
    printf1.o(i.__0vsprintf$1) refers to printf1.o(i._printf_core) for _printf_core
    printf1.o(i.__0vsprintf$1) refers to printf1.o(i._sputc) for _sputc
    printf1.o(i._printf_core) refers to uidiv.o(.text) for __aeabi_uidivmod
    printf2.o(i.__0fprintf$2) refers to printf2.o(i._printf_core) for _printf_core
    printf2.o(i.__0fprintf$2) refers to fputc.o(i.fputc) for fputc
    printf2.o(i.__0printf$2) refers to printf2.o(i._printf_core) for _printf_core
    printf2.o(i.__0printf$2) refers to fputc.o(i.fputc) for fputc
    printf2.o(i.__0printf$2) refers to stdout.o(.data) for __stdout
    printf2.o(i.__0snprintf$2) refers to printf2.o(i._printf_core) for _printf_core
    printf2.o(i.__0snprintf$2) refers to printf2.o(i._snputc) for _snputc
    printf2.o(i.__0sprintf$2) refers to printf2.o(i._printf_core) for _printf_core
    printf2.o(i.__0sprintf$2) refers to printf2.o(i._sputc) for _sputc
    printf2.o(i.__0vfprintf$2) refers to printf2.o(i._printf_core) for _printf_core
    printf2.o(i.__0vfprintf$2) refers to fputc.o(i.fputc) for fputc
    printf2.o(i.__0vprintf$2) refers to printf2.o(i._printf_core) for _printf_core
    printf2.o(i.__0vprintf$2) refers to fputc.o(i.fputc) for fputc
    printf2.o(i.__0vprintf$2) refers to stdout.o(.data) for __stdout
    printf2.o(i.__0vsnprintf$2) refers to printf2.o(i._printf_core) for _printf_core
    printf2.o(i.__0vsnprintf$2) refers to printf2.o(i._snputc) for _snputc
    printf2.o(i.__0vsprintf$2) refers to printf2.o(i._printf_core) for _printf_core
    printf2.o(i.__0vsprintf$2) refers to printf2.o(i._sputc) for _sputc
    printf3.o(i.__0fprintf$3) refers to printf3.o(i._printf_core) for _printf_core
    printf3.o(i.__0fprintf$3) refers to fputc.o(i.fputc) for fputc
    printf3.o(i.__0printf$3) refers to printf3.o(i._printf_core) for _printf_core
    printf3.o(i.__0printf$3) refers to fputc.o(i.fputc) for fputc
    printf3.o(i.__0printf$3) refers to stdout.o(.data) for __stdout
    printf3.o(i.__0snprintf$3) refers to printf3.o(i._printf_core) for _printf_core
    printf3.o(i.__0snprintf$3) refers to printf3.o(i._snputc) for _snputc
    printf3.o(i.__0sprintf$3) refers to printf3.o(i._printf_core) for _printf_core
    printf3.o(i.__0sprintf$3) refers to printf3.o(i._sputc) for _sputc
    printf3.o(i.__0vfprintf$3) refers to printf3.o(i._printf_core) for _printf_core
    printf3.o(i.__0vfprintf$3) refers to fputc.o(i.fputc) for fputc
    printf3.o(i.__0vprintf$3) refers to printf3.o(i._printf_core) for _printf_core
    printf3.o(i.__0vprintf$3) refers to fputc.o(i.fputc) for fputc
    printf3.o(i.__0vprintf$3) refers to stdout.o(.data) for __stdout
    printf3.o(i.__0vsnprintf$3) refers to printf3.o(i._printf_core) for _printf_core
    printf3.o(i.__0vsnprintf$3) refers to printf3.o(i._snputc) for _snputc
    printf3.o(i.__0vsprintf$3) refers to printf3.o(i._printf_core) for _printf_core
    printf3.o(i.__0vsprintf$3) refers to printf3.o(i._sputc) for _sputc
    printf3.o(i._printf_core) refers to uidiv.o(.text) for __aeabi_uidivmod
    printf4.o(i.__0fprintf$4) refers to printf4.o(i._printf_core) for _printf_core
    printf4.o(i.__0fprintf$4) refers to fputc.o(i.fputc) for fputc
    printf4.o(i.__0printf$4) refers to printf4.o(i._printf_core) for _printf_core
    printf4.o(i.__0printf$4) refers to fputc.o(i.fputc) for fputc
    printf4.o(i.__0printf$4) refers to stdout.o(.data) for __stdout
    printf4.o(i.__0snprintf$4) refers to printf4.o(i._printf_core) for _printf_core
    printf4.o(i.__0snprintf$4) refers to printf4.o(i._snputc) for _snputc
    printf4.o(i.__0sprintf$4) refers to printf4.o(i._printf_core) for _printf_core
    printf4.o(i.__0sprintf$4) refers to printf4.o(i._sputc) for _sputc
    printf4.o(i.__0vfprintf$4) refers to printf4.o(i._printf_core) for _printf_core
    printf4.o(i.__0vfprintf$4) refers to fputc.o(i.fputc) for fputc
    printf4.o(i.__0vprintf$4) refers to printf4.o(i._printf_core) for _printf_core
    printf4.o(i.__0vprintf$4) refers to fputc.o(i.fputc) for fputc
    printf4.o(i.__0vprintf$4) refers to stdout.o(.data) for __stdout
    printf4.o(i.__0vsnprintf$4) refers to printf4.o(i._printf_core) for _printf_core
    printf4.o(i.__0vsnprintf$4) refers to printf4.o(i._snputc) for _snputc
    printf4.o(i.__0vsprintf$4) refers to printf4.o(i._printf_core) for _printf_core
    printf4.o(i.__0vsprintf$4) refers to printf4.o(i._sputc) for _sputc
    printf4.o(i._printf_core) refers to uldiv.o(.text) for __aeabi_uldivmod
    printf5.o(i.__0fprintf$5) refers to printf5.o(i._printf_core) for _printf_core
    printf5.o(i.__0fprintf$5) refers to fputc.o(i.fputc) for fputc
    printf5.o(i.__0printf$5) refers to printf5.o(i._printf_core) for _printf_core
    printf5.o(i.__0printf$5) refers to fputc.o(i.fputc) for fputc
    printf5.o(i.__0printf$5) refers to stdout.o(.data) for __stdout
    printf5.o(i.__0snprintf$5) refers to printf5.o(i._printf_core) for _printf_core
    printf5.o(i.__0snprintf$5) refers to printf5.o(i._snputc) for _snputc
    printf5.o(i.__0sprintf$5) refers to printf5.o(i._printf_core) for _printf_core
    printf5.o(i.__0sprintf$5) refers to printf5.o(i._sputc) for _sputc
    printf5.o(i.__0vfprintf$5) refers to printf5.o(i._printf_core) for _printf_core
    printf5.o(i.__0vfprintf$5) refers to fputc.o(i.fputc) for fputc
    printf5.o(i.__0vprintf$5) refers to printf5.o(i._printf_core) for _printf_core
    printf5.o(i.__0vprintf$5) refers to fputc.o(i.fputc) for fputc
    printf5.o(i.__0vprintf$5) refers to stdout.o(.data) for __stdout
    printf5.o(i.__0vsnprintf$5) refers to printf5.o(i._printf_core) for _printf_core
    printf5.o(i.__0vsnprintf$5) refers to printf5.o(i._snputc) for _snputc
    printf5.o(i.__0vsprintf$5) refers to printf5.o(i._printf_core) for _printf_core
    printf5.o(i.__0vsprintf$5) refers to printf5.o(i._sputc) for _sputc
    printf5.o(i._printf_core) refers to uldiv.o(.text) for __aeabi_uldivmod
    printf6.o(i.__0fprintf$6) refers to printf6.o(i._printf_core) for _printf_core
    printf6.o(i.__0fprintf$6) refers to fputc.o(i.fputc) for fputc
    printf6.o(i.__0printf$6) refers to printf6.o(i._printf_core) for _printf_core
    printf6.o(i.__0printf$6) refers to fputc.o(i.fputc) for fputc
    printf6.o(i.__0printf$6) refers to stdout.o(.data) for __stdout
    printf6.o(i.__0snprintf$6) refers to printf6.o(i._printf_core) for _printf_core
    printf6.o(i.__0snprintf$6) refers to printf6.o(i._snputc) for _snputc
    printf6.o(i.__0sprintf$6) refers to printf6.o(i._printf_core) for _printf_core
    printf6.o(i.__0sprintf$6) refers to printf6.o(i._sputc) for _sputc
    printf6.o(i.__0vfprintf$6) refers to printf6.o(i._printf_core) for _printf_core
    printf6.o(i.__0vfprintf$6) refers to fputc.o(i.fputc) for fputc
    printf6.o(i.__0vprintf$6) refers to printf6.o(i._printf_core) for _printf_core
    printf6.o(i.__0vprintf$6) refers to fputc.o(i.fputc) for fputc
    printf6.o(i.__0vprintf$6) refers to stdout.o(.data) for __stdout
    printf6.o(i.__0vsnprintf$6) refers to printf6.o(i._printf_core) for _printf_core
    printf6.o(i.__0vsnprintf$6) refers to printf6.o(i._snputc) for _snputc
    printf6.o(i.__0vsprintf$6) refers to printf6.o(i._printf_core) for _printf_core
    printf6.o(i.__0vsprintf$6) refers to printf6.o(i._sputc) for _sputc
    printf6.o(i._printf_core) refers to printf6.o(i._printf_pre_padding) for _printf_pre_padding
    printf6.o(i._printf_core) refers to uidiv.o(.text) for __aeabi_uidivmod
    printf6.o(i._printf_core) refers to printf6.o(i._printf_post_padding) for _printf_post_padding
    printf7.o(i.__0fprintf$7) refers to printf7.o(i._printf_core) for _printf_core
    printf7.o(i.__0fprintf$7) refers to fputc.o(i.fputc) for fputc
    printf7.o(i.__0printf$7) refers to printf7.o(i._printf_core) for _printf_core
    printf7.o(i.__0printf$7) refers to fputc.o(i.fputc) for fputc
    printf7.o(i.__0printf$7) refers to stdout.o(.data) for __stdout
    printf7.o(i.__0snprintf$7) refers to printf7.o(i._printf_core) for _printf_core
    printf7.o(i.__0snprintf$7) refers to printf7.o(i._snputc) for _snputc
    printf7.o(i.__0sprintf$7) refers to printf7.o(i._printf_core) for _printf_core
    printf7.o(i.__0sprintf$7) refers to printf7.o(i._sputc) for _sputc
    printf7.o(i.__0vfprintf$7) refers to printf7.o(i._printf_core) for _printf_core
    printf7.o(i.__0vfprintf$7) refers to fputc.o(i.fputc) for fputc
    printf7.o(i.__0vprintf$7) refers to printf7.o(i._printf_core) for _printf_core
    printf7.o(i.__0vprintf$7) refers to fputc.o(i.fputc) for fputc
    printf7.o(i.__0vprintf$7) refers to stdout.o(.data) for __stdout
    printf7.o(i.__0vsnprintf$7) refers to printf7.o(i._printf_core) for _printf_core
    printf7.o(i.__0vsnprintf$7) refers to printf7.o(i._snputc) for _snputc
    printf7.o(i.__0vsprintf$7) refers to printf7.o(i._printf_core) for _printf_core
    printf7.o(i.__0vsprintf$7) refers to printf7.o(i._sputc) for _sputc
    printf7.o(i._printf_core) refers to printf7.o(i._printf_pre_padding) for _printf_pre_padding
    printf7.o(i._printf_core) refers to uldiv.o(.text) for __aeabi_uldivmod
    printf7.o(i._printf_core) refers to printf7.o(i._printf_post_padding) for _printf_post_padding
    printf8.o(i.__0fprintf$8) refers to printf8.o(i._printf_core) for _printf_core
    printf8.o(i.__0fprintf$8) refers to fputc.o(i.fputc) for fputc
    printf8.o(i.__0printf$8) refers to printf8.o(i._printf_core) for _printf_core
    printf8.o(i.__0printf$8) refers to fputc.o(i.fputc) for fputc
    printf8.o(i.__0printf$8) refers to stdout.o(.data) for __stdout
    printf8.o(i.__0snprintf$8) refers to printf8.o(i._printf_core) for _printf_core
    printf8.o(i.__0snprintf$8) refers to printf8.o(i._snputc) for _snputc
    printf8.o(i.__0sprintf$8) refers to printf8.o(i._printf_core) for _printf_core
    printf8.o(i.__0sprintf$8) refers to printf8.o(i._sputc) for _sputc
    printf8.o(i.__0vfprintf$8) refers to printf8.o(i._printf_core) for _printf_core
    printf8.o(i.__0vfprintf$8) refers to fputc.o(i.fputc) for fputc
    printf8.o(i.__0vprintf$8) refers to printf8.o(i._printf_core) for _printf_core
    printf8.o(i.__0vprintf$8) refers to fputc.o(i.fputc) for fputc
    printf8.o(i.__0vprintf$8) refers to stdout.o(.data) for __stdout
    printf8.o(i.__0vsnprintf$8) refers to printf8.o(i._printf_core) for _printf_core
    printf8.o(i.__0vsnprintf$8) refers to printf8.o(i._snputc) for _snputc
    printf8.o(i.__0vsprintf$8) refers to printf8.o(i._printf_core) for _printf_core
    printf8.o(i.__0vsprintf$8) refers to printf8.o(i._sputc) for _sputc
    printf8.o(i._printf_core) refers to printf8.o(i._printf_pre_padding) for _printf_pre_padding
    printf8.o(i._printf_core) refers to uldiv.o(.text) for __aeabi_uldivmod
    printf8.o(i._printf_core) refers to printf8.o(i._printf_post_padding) for _printf_post_padding
    printfa.o(i.__0fprintf) refers (Special) to iusefp.o(.text) for __I$use$fp
    printfa.o(i.__0fprintf) refers to printfa.o(i._printf_core) for _printf_core
    printfa.o(i.__0fprintf) refers to fputc.o(i.fputc) for fputc
    printfa.o(i.__0printf) refers (Special) to iusefp.o(.text) for __I$use$fp
    printfa.o(i.__0printf) refers to printfa.o(i._printf_core) for _printf_core
    printfa.o(i.__0printf) refers to fputc.o(i.fputc) for fputc
    printfa.o(i.__0printf) refers to stdout.o(.data) for __stdout
    printfa.o(i.__0snprintf) refers (Special) to iusefp.o(.text) for __I$use$fp
    printfa.o(i.__0snprintf) refers to printfa.o(i._printf_core) for _printf_core
    printfa.o(i.__0snprintf) refers to printfa.o(i._snputc) for _snputc
    printfa.o(i.__0sprintf) refers (Special) to iusefp.o(.text) for __I$use$fp
    printfa.o(i.__0sprintf) refers to printfa.o(i._printf_core) for _printf_core
    printfa.o(i.__0sprintf) refers to printfa.o(i._sputc) for _sputc
    printfa.o(i.__0vfprintf) refers (Special) to iusefp.o(.text) for __I$use$fp
    printfa.o(i.__0vfprintf) refers to printfa.o(i._printf_core) for _printf_core
    printfa.o(i.__0vfprintf) refers to fputc.o(i.fputc) for fputc
    printfa.o(i.__0vprintf) refers (Special) to iusefp.o(.text) for __I$use$fp
    printfa.o(i.__0vprintf) refers to printfa.o(i._printf_core) for _printf_core
    printfa.o(i.__0vprintf) refers to fputc.o(i.fputc) for fputc
    printfa.o(i.__0vprintf) refers to stdout.o(.data) for __stdout
    printfa.o(i.__0vsnprintf) refers (Special) to iusefp.o(.text) for __I$use$fp
    printfa.o(i.__0vsnprintf) refers to printfa.o(i._printf_core) for _printf_core
    printfa.o(i.__0vsnprintf) refers to printfa.o(i._snputc) for _snputc
    printfa.o(i.__0vsprintf) refers (Special) to iusefp.o(.text) for __I$use$fp
    printfa.o(i.__0vsprintf) refers to printfa.o(i._printf_core) for _printf_core
    printfa.o(i.__0vsprintf) refers to printfa.o(i._sputc) for _sputc
    printfa.o(i._fp_digits) refers (Special) to iusefp.o(.text) for __I$use$fp
    printfa.o(i._fp_digits) refers to dmul.o(.text) for __aeabi_dmul
    printfa.o(i._fp_digits) refers to ddiv.o(.text) for __aeabi_ddiv
    printfa.o(i._fp_digits) refers to cdrcmple.o(.text) for __aeabi_cdrcmple
    printfa.o(i._fp_digits) refers to dadd.o(.text) for __aeabi_dadd
    printfa.o(i._fp_digits) refers to dfixul.o(.text) for __aeabi_d2ulz
    printfa.o(i._fp_digits) refers to uldiv.o(.text) for __aeabi_uldivmod
    printfa.o(i._printf_core) refers (Special) to iusefp.o(.text) for __I$use$fp
    printfa.o(i._printf_core) refers to printfa.o(i._printf_pre_padding) for _printf_pre_padding
    printfa.o(i._printf_core) refers to uldiv.o(.text) for __aeabi_uldivmod
    printfa.o(i._printf_core) refers to printfa.o(i._printf_post_padding) for _printf_post_padding
    printfa.o(i._printf_core) refers to printfa.o(i._fp_digits) for _fp_digits
    printfa.o(i._printf_core) refers to uidiv.o(.text) for __aeabi_uidivmod
    printfa.o(i._printf_post_padding) refers (Special) to iusefp.o(.text) for __I$use$fp
    printfa.o(i._printf_pre_padding) refers (Special) to iusefp.o(.text) for __I$use$fp
    printfa.o(i._snputc) refers (Special) to iusefp.o(.text) for __I$use$fp
    printfa.o(i._sputc) refers (Special) to iusefp.o(.text) for __I$use$fp
    fadd.o(.text) refers (Special) to iusefp.o(.text) for __I$use$fp
    fadd.o(.text) refers to fepilogue.o(.text) for _float_epilogue
    fdiv.o(.text) refers (Special) to iusefp.o(.text) for __I$use$fp
    fdiv.o(.text) refers to fepilogue.o(.text) for _float_round
    dadd.o(.text) refers (Special) to iusefp.o(.text) for __I$use$fp
    dadd.o(.text) refers to llshl.o(.text) for __aeabi_llsl
    dadd.o(.text) refers to llsshr.o(.text) for __aeabi_lasr
    dadd.o(.text) refers to depilogue.o(.text) for _double_epilogue
    dmul.o(.text) refers (Special) to iusefp.o(.text) for __I$use$fp
    dmul.o(.text) refers to depilogue.o(.text) for _double_epilogue
    ddiv.o(.text) refers (Special) to iusefp.o(.text) for __I$use$fp
    ddiv.o(.text) refers to depilogue.o(.text) for _double_round
    fcmple.o(.text) refers (Special) to iusefp.o(.text) for __I$use$fp
    fcmpge.o(.text) refers (Special) to iusefp.o(.text) for __I$use$fp
    fcmpgt.o(.text) refers (Special) to iusefp.o(.text) for __I$use$fp
    fcmpeq.o(.text) refers (Special) to iusefp.o(.text) for __I$use$fp
    ffltui.o(.text) refers (Special) to iusefp.o(.text) for __I$use$fp
    ffltui.o(.text) refers to fepilogue.o(.text) for _float_epilogue
    dflti.o(.text) refers (Special) to iusefp.o(.text) for __I$use$fp
    dflti.o(.text) refers to depilogue.o(.text) for _double_epilogue
    dfltui.o(.text) refers (Special) to iusefp.o(.text) for __I$use$fp
    dfltui.o(.text) refers to depilogue.o(.text) for _double_epilogue
    ffixi.o(.text) refers (Special) to iusefp.o(.text) for __I$use$fp
    dfixi.o(.text) refers (Special) to iusefp.o(.text) for __I$use$fp
    dfixi.o(.text) refers to llushr.o(.text) for __aeabi_llsr
    f2d.o(.text) refers (Special) to iusefp.o(.text) for __I$use$fp
    d2f.o(.text) refers (Special) to iusefp.o(.text) for __I$use$fp
    d2f.o(.text) refers to fepilogue.o(.text) for _float_round
    entry2.o(.ARM.Collect$$$$00000001) refers to entry2.o(.ARM.Collect$$$$00002712) for __lit__00000000
    entry2.o(.ARM.Collect$$$$00002712) refers to startup_gd32f10x_hd.o(STACK) for __initial_sp
    entry2.o(__vectab_stack_and_reset_area) refers to startup_gd32f10x_hd.o(STACK) for __initial_sp
    entry2.o(__vectab_stack_and_reset_area) refers to entry.o(.ARM.Collect$$$$00000000) for __main
    entry5.o(.ARM.Collect$$$$00000004) refers to init.o(.text) for __scatterload
    entry9a.o(.ARM.Collect$$$$0000000B) refers to main.o(.text) for main
    entry9b.o(.ARM.Collect$$$$0000000C) refers to main.o(.text) for main
    fputc.o(i.fputc) refers (Special) to iusesemip.o(.text) for __I$use$semihosting$fputc
    fputc.o(i.fputc) refers (Special) to semi.o(.text) for __semihosting_library_function
    fputc_h.o(i._fputc$hlt) refers (Special) to iusesemip.o(.text) for __I$use$semihosting$fputc
    fputc_h.o(i._fputc$hlt) refers (Special) to semi.o(.text) for __semihosting_library_function
    uldiv.o(.text) refers to llushr.o(.text) for __aeabi_llsr
    uldiv.o(.text) refers to llshl.o(.text) for __aeabi_llsl
    fepilogue.o(.text) refers (Special) to iusefp.o(.text) for __I$use$fp
    depilogue.o(.text) refers (Special) to iusefp.o(.text) for __I$use$fp
    depilogue.o(.text) refers to llshl.o(.text) for __aeabi_llsl
    depilogue.o(.text) refers to llushr.o(.text) for __aeabi_llsr
    dfixul.o(.text) refers (Special) to iusefp.o(.text) for __I$use$fp
    dfixul.o(.text) refers to llushr.o(.text) for __aeabi_llsr
    dfixul.o(.text) refers to llshl.o(.text) for __aeabi_llsl
    cdrcmple.o(.text) refers (Special) to iusefp.o(.text) for __I$use$fp
    init.o(.text) refers to entry5.o(.ARM.Collect$$$$00000004) for __main_after_scatterload


==============================================================================

Removing Unused input sections from the image.

    Removing main.o(.ARM.exidx), (8 bytes).
    Removing main.o(.bss.speedShutoff), (4 bytes).
    Removing main.o(.data.speedLimit), (2 bytes).
    Removing main.o(.data.wState), (1 bytes).
    Removing main.o(.data.wStateSlave), (1 bytes).
    Removing main.o(.bss.activateWeakening), (1 bytes).
    Removing main.o(.data.beepsBackwards), (1 bytes).
    Removing main.o(.bss.slaveError), (1 bytes).
    Removing main.o(.bss.enable), (1 bytes).
    Removing main.o(.bss.pwmSlave), (2 bytes).
    Removing main.o(.ARM.use_no_argv), (4 bytes).
    Removing bldc.o(.ARM.exidx), (48 bytes).
    Removing bldc.o(.data.batteryVoltage), (4 bytes).
    Removing bldc.o(.bss.offsetcount), (2 bytes).
    Removing bldc.o(.data.offsetdc), (2 bytes).
    Removing bldcbc.o(.ARM.exidx), (16 bytes).
    Removing bldcsine.o(.text), (0 bytes).
    Removing setup.o(.ARM.exidx), (152 bytes).
    Removing setup.o(.bss.usart1_rx_buf), (1 bytes).
    Removing setup.o(.bss.usart2_rx_buf), (1 bytes).
    Removing it.o(.ARM.exidx), (128 bytes).
    Removing it.o(.bss.iCounterUsart2), (4 bytes).
    Removing it.o(.bss.iCounter2Usart2), (4 bytes).
    Removing led.o(.text), (0 bytes).
    Removing comms.o(.ARM.exidx), (16 bytes).
    Removing remoteuart.o(.text), (0 bytes).
    Removing remotecrsf.o(.text), (0 bytes).
    Removing remotedummy.o(.text), (0 bytes).
    Removing remoteuartbus.o(.text), (0 bytes).
    Removing commsmasterslave.o(.text), (0 bytes).
    Removing commsmasterslave.o(.bss.mosfetOutMaster), (1 bytes).
    Removing commsmasterslave.o(.bss.beepsBackwardsMaster), (1 bytes).
    Removing remoteadc.o(.text), (0 bytes).
    Removing remoteautodetect.o(.ARM.exidx), (112 bytes).
    Removing remoteautodetect.o(.bss.iTimeNextTx), (4 bytes).
    Removing gd32f10x_adc.o(.ARM.exidx), (272 bytes).
    Removing gd32f10x_dma.o(.ARM.exidx), (216 bytes).
    Removing gd32f10x_exti.o(.text), (362 bytes).
    Removing gd32f10x_exti.o(.ARM.exidx), (96 bytes).
    Removing gd32f10x_fmc.o(.ARM.exidx), (272 bytes).
    Removing gd32f10x_fwdgt.o(.ARM.exidx), (48 bytes).
    Removing gd32f10x_gpio.o(.ARM.exidx), (136 bytes).
    Removing gd32f10x_i2c.o(.text), (794 bytes).
    Removing gd32f10x_i2c.o(.ARM.exidx), (240 bytes).
    Removing gd32f10x_misc.o(.ARM.exidx), (56 bytes).
    Removing gd32f10x_pmu.o(.text), (362 bytes).
    Removing gd32f10x_pmu.o(.ARM.exidx), (96 bytes).
    Removing gd32f10x_rcu.o(.ARM.exidx), (288 bytes).
    Removing gd32f10x_timer.o(.ARM.exidx), (552 bytes).
    Removing gd32f10x_usart.o(.ARM.exidx), (344 bytes).
    Removing gd32f10x_wwdgt.o(.text), (170 bytes).
    Removing gd32f10x_wwdgt.o(.ARM.exidx), (56 bytes).
    Removing startup_gd32f10x_hd.o(HEAP), (8192 bytes).
    Removing system_gd32f10x.o(.ARM.exidx), (16 bytes).

54 unused section(s) (total 13090 bytes) removed from the image.

==============================================================================

Image Symbol Table

    Local Symbols

    Symbol Name                              Value     Ov Type        Size  Object(Section)

    ../clib/../cmprslib/zerorunl2.c          0x00000000   Number         0  __dczerorl2.o ABSOLUTE
    ../clib/division.s                       0x00000000   Number         0  aeabi_sdiv.o ABSOLUTE
    ../clib/microlib/division.c              0x00000000   Number         0  uidiv.o ABSOLUTE
    ../clib/microlib/division.c              0x00000000   Number         0  uldiv.o ABSOLUTE
    ../clib/microlib/init/entry.s            0x00000000   Number         0  entry.o ABSOLUTE
    ../clib/microlib/init/entry.s            0x00000000   Number         0  entry2.o ABSOLUTE
    ../clib/microlib/init/entry.s            0x00000000   Number         0  entry5.o ABSOLUTE
    ../clib/microlib/init/entry.s            0x00000000   Number         0  entry7a.o ABSOLUTE
    ../clib/microlib/init/entry.s            0x00000000   Number         0  entry7b.o ABSOLUTE
    ../clib/microlib/init/entry.s            0x00000000   Number         0  entry8a.o ABSOLUTE
    ../clib/microlib/init/entry.s            0x00000000   Number         0  entry8b.o ABSOLUTE
    ../clib/microlib/init/entry.s            0x00000000   Number         0  entry9a.o ABSOLUTE
    ../clib/microlib/init/entry.s            0x00000000   Number         0  entry9b.o ABSOLUTE
    ../clib/microlib/init/entry.s            0x00000000   Number         0  entry10a.o ABSOLUTE
    ../clib/microlib/init/entry.s            0x00000000   Number         0  entry10b.o ABSOLUTE
    ../clib/microlib/init/entry.s            0x00000000   Number         0  entry11a.o ABSOLUTE
    ../clib/microlib/init/entry.s            0x00000000   Number         0  entry11b.o ABSOLUTE
    ../clib/microlib/longlong.c              0x00000000   Number         0  llshl.o ABSOLUTE
    ../clib/microlib/longlong.c              0x00000000   Number         0  llushr.o ABSOLUTE
    ../clib/microlib/longlong.c              0x00000000   Number         0  llsshr.o ABSOLUTE
    ../clib/microlib/printf/printf.c         0x00000000   Number         0  printfb.o ABSOLUTE
    ../clib/microlib/printf/printf.c         0x00000000   Number         0  printf0.o ABSOLUTE
    ../clib/microlib/printf/printf.c         0x00000000   Number         0  printf1.o ABSOLUTE
    ../clib/microlib/printf/printf.c         0x00000000   Number         0  printf2.o ABSOLUTE
    ../clib/microlib/printf/printf.c         0x00000000   Number         0  printf3.o ABSOLUTE
    ../clib/microlib/printf/printf.c         0x00000000   Number         0  printf4.o ABSOLUTE
    ../clib/microlib/printf/printf.c         0x00000000   Number         0  printf5.o ABSOLUTE
    ../clib/microlib/printf/printf.c         0x00000000   Number         0  printf6.o ABSOLUTE
    ../clib/microlib/printf/printf.c         0x00000000   Number         0  printf7.o ABSOLUTE
    ../clib/microlib/printf/printf.c         0x00000000   Number         0  printf8.o ABSOLUTE
    ../clib/microlib/printf/printf.c         0x00000000   Number         0  printfa.o ABSOLUTE
    ../clib/microlib/printf/stubs.s          0x00000000   Number         0  printfstubs.o ABSOLUTE
    ../clib/microlib/stdio/fputc.c           0x00000000   Number         0  fputc.o ABSOLUTE
    ../clib/microlib/stdio/fputc.c           0x00000000   Number         0  fputc_h.o ABSOLUTE
    ../clib/microlib/stdio/semi.s            0x00000000   Number         0  semi.o ABSOLUTE
    ../clib/microlib/stdio/streams.c         0x00000000   Number         0  stdout.o ABSOLUTE
    ../clib/microlib/string/memcpy.c         0x00000000   Number         0  memcpya.o ABSOLUTE
    ../clib/microlib/string/memcpy.c         0x00000000   Number         0  memcpyb.o ABSOLUTE
    ../clib/microlib/string/memset.c         0x00000000   Number         0  memseta.o ABSOLUTE
    ../clib/microlib/string/strlen.c         0x00000000   Number         0  strlen.o ABSOLUTE
    ../clib/microlib/stubs.s                 0x00000000   Number         0  iusefp.o ABSOLUTE
    ../clib/microlib/stubs.s                 0x00000000   Number         0  iusesemip.o ABSOLUTE
    ../fplib/microlib/d2f.c                  0x00000000   Number         0  d2f.o ABSOLUTE
    ../fplib/microlib/f2d.c                  0x00000000   Number         0  f2d.o ABSOLUTE
    ../fplib/microlib/fpadd.c                0x00000000   Number         0  fadd.o ABSOLUTE
    ../fplib/microlib/fpadd.c                0x00000000   Number         0  dadd.o ABSOLUTE
    ../fplib/microlib/fpcmp.c                0x00000000   Number         0  fcmple.o ABSOLUTE
    ../fplib/microlib/fpcmp.c                0x00000000   Number         0  fcmpge.o ABSOLUTE
    ../fplib/microlib/fpcmp.c                0x00000000   Number         0  fcmpgt.o ABSOLUTE
    ../fplib/microlib/fpcmp.c                0x00000000   Number         0  fcmpeq.o ABSOLUTE
    ../fplib/microlib/fpdiv.c                0x00000000   Number         0  fdiv.o ABSOLUTE
    ../fplib/microlib/fpdiv.c                0x00000000   Number         0  ddiv.o ABSOLUTE
    ../fplib/microlib/fpepilogue.c           0x00000000   Number         0  fepilogue.o ABSOLUTE
    ../fplib/microlib/fpepilogue.c           0x00000000   Number         0  depilogue.o ABSOLUTE
    ../fplib/microlib/fpfix.c                0x00000000   Number         0  ffixi.o ABSOLUTE
    ../fplib/microlib/fpfix.c                0x00000000   Number         0  dfixi.o ABSOLUTE
    ../fplib/microlib/fpfix.c                0x00000000   Number         0  dfixul.o ABSOLUTE
    ../fplib/microlib/fpflt.c                0x00000000   Number         0  ffltui.o ABSOLUTE
    ../fplib/microlib/fpflt.c                0x00000000   Number         0  dflti.o ABSOLUTE
    ../fplib/microlib/fpflt.c                0x00000000   Number         0  dfltui.o ABSOLUTE
    ../fplib/microlib/fpmul.c                0x00000000   Number         0  dmul.o ABSOLUTE
    RTE/Device/GD32F103C8/startup_gd32f10x_hd.s 0x00000000   Number         0  startup_gd32f10x_hd.o ABSOLUTE
    RemoteAdc.c                              0x00000000   Number         0  remoteadc.o ABSOLUTE
    RemoteAutodetect.c                       0x00000000   Number         0  remoteautodetect.o ABSOLUTE
    bldc.c                                   0x00000000   Number         0  bldc.o ABSOLUTE
    bldcBC.c                                 0x00000000   Number         0  bldcbc.o ABSOLUTE
    bldcSINE.c                               0x00000000   Number         0  bldcsine.o ABSOLUTE
    cdrcmple.s                               0x00000000   Number         0  cdrcmple.o ABSOLUTE
    comms.c                                  0x00000000   Number         0  comms.o ABSOLUTE
    commsMasterSlave.c                       0x00000000   Number         0  commsmasterslave.o ABSOLUTE
    dc.s                                     0x00000000   Number         0  dc.o ABSOLUTE
    gd32f10x_adc.c                           0x00000000   Number         0  gd32f10x_adc.o ABSOLUTE
    gd32f10x_dma.c                           0x00000000   Number         0  gd32f10x_dma.o ABSOLUTE
    gd32f10x_exti.c                          0x00000000   Number         0  gd32f10x_exti.o ABSOLUTE
    gd32f10x_fmc.c                           0x00000000   Number         0  gd32f10x_fmc.o ABSOLUTE
    gd32f10x_fwdgt.c                         0x00000000   Number         0  gd32f10x_fwdgt.o ABSOLUTE
    gd32f10x_gpio.c                          0x00000000   Number         0  gd32f10x_gpio.o ABSOLUTE
    gd32f10x_i2c.c                           0x00000000   Number         0  gd32f10x_i2c.o ABSOLUTE
    gd32f10x_misc.c                          0x00000000   Number         0  gd32f10x_misc.o ABSOLUTE
    gd32f10x_pmu.c                           0x00000000   Number         0  gd32f10x_pmu.o ABSOLUTE
    gd32f10x_rcu.c                           0x00000000   Number         0  gd32f10x_rcu.o ABSOLUTE
    gd32f10x_timer.c                         0x00000000   Number         0  gd32f10x_timer.o ABSOLUTE
    gd32f10x_usart.c                         0x00000000   Number         0  gd32f10x_usart.o ABSOLUTE
    gd32f10x_wwdgt.c                         0x00000000   Number         0  gd32f10x_wwdgt.o ABSOLUTE
    handlers.s                               0x00000000   Number         0  handlers.o ABSOLUTE
    init.s                                   0x00000000   Number         0  init.o ABSOLUTE
    it.c                                     0x00000000   Number         0  it.o ABSOLUTE
    led.c                                    0x00000000   Number         0  led.o ABSOLUTE
    main.c                                   0x00000000   Number         0  main.o ABSOLUTE
    remoteCrsf.c                             0x00000000   Number         0  remotecrsf.o ABSOLUTE
    remoteDummy.c                            0x00000000   Number         0  remotedummy.o ABSOLUTE
    remoteUart.c                             0x00000000   Number         0  remoteuart.o ABSOLUTE
    remoteUartBus.c                          0x00000000   Number         0  remoteuartbus.o ABSOLUTE
    setup.c                                  0x00000000   Number         0  setup.o ABSOLUTE
    system_gd32f10x.c                        0x00000000   Number         0  system_gd32f10x.o ABSOLUTE
    RESET                                    0x08000000   Section      304  startup_gd32f10x_hd.o(RESET)
    .ARM.Collect$$$$00000000                 0x08000130   Section        0  entry.o(.ARM.Collect$$$$00000000)
    .ARM.Collect$$$$00000001                 0x08000130   Section        4  entry2.o(.ARM.Collect$$$$00000001)
    .ARM.Collect$$$$00000004                 0x08000134   Section        4  entry5.o(.ARM.Collect$$$$00000004)
    .ARM.Collect$$$$00000008                 0x08000138   Section        0  entry7b.o(.ARM.Collect$$$$00000008)
    .ARM.Collect$$$$0000000A                 0x08000138   Section        0  entry8b.o(.ARM.Collect$$$$0000000A)
    .ARM.Collect$$$$0000000B                 0x08000138   Section        8  entry9a.o(.ARM.Collect$$$$0000000B)
    __lit__00000000                          0x08000140   Data           4  entry2.o(.ARM.Collect$$$$00002712)
    .ARM.Collect$$$$0000000D                 0x08000140   Section        0  entry10a.o(.ARM.Collect$$$$0000000D)
    .ARM.Collect$$$$0000000F                 0x08000140   Section        0  entry11a.o(.ARM.Collect$$$$0000000F)
    .ARM.Collect$$$$00002712                 0x08000140   Section        4  entry2.o(.ARM.Collect$$$$00002712)
    [Anonymous Symbol]                       0x08000144   Section        0  main.o(.text)
    [Anonymous Symbol]                       0x08000224   Section        0  bldc.o(.text)
    [Anonymous Symbol]                       0x0800060c   Section        0  bldcbc.o(.text)
    [Anonymous Symbol]                       0x0800067c   Section        0  setup.o(.text)
    [Anonymous Symbol]                       0x08000e58   Section        0  it.o(.text)
    [Anonymous Symbol]                       0x08001014   Section        0  comms.o(.text)
    [Anonymous Symbol]                       0x08001090   Section        0  remoteautodetect.o(.text)
    [Anonymous Symbol]                       0x08003528   Section        0  gd32f10x_adc.o(.text)
    [Anonymous Symbol]                       0x080039b8   Section        0  gd32f10x_dma.o(.text)
    [Anonymous Symbol]                       0x08003dbc   Section        0  gd32f10x_fmc.o(.text)
    [Anonymous Symbol]                       0x08004df0   Section        0  gd32f10x_fwdgt.o(.text)
    [Anonymous Symbol]                       0x08004ea8   Section        0  gd32f10x_gpio.o(.text)
    [Anonymous Symbol]                       0x08005124   Section        0  gd32f10x_misc.o(.text)
    [Anonymous Symbol]                       0x0800520c   Section        0  gd32f10x_rcu.o(.text)
    [Anonymous Symbol]                       0x080057e4   Section        0  gd32f10x_timer.o(.text)
    [Anonymous Symbol]                       0x0800653c   Section        0  gd32f10x_usart.o(.text)
    .text                                    0x080068a4   Section       36  startup_gd32f10x_hd.o(.text)
    [Anonymous Symbol]                       0x080068c8   Section        0  system_gd32f10x.o(.text)
    .text                                    0x08006a2e   Section        0  memcpya.o(.text)
    .text                                    0x08006a52   Section        0  memseta.o(.text)
    .text                                    0x08006a76   Section        0  strlen.o(.text)
    .text                                    0x08006a84   Section        0  fadd.o(.text)
    .text                                    0x08006b34   Section        0  fdiv.o(.text)
    .text                                    0x08006bb0   Section        0  dadd.o(.text)
    .text                                    0x08006cfe   Section        0  dmul.o(.text)
    .text                                    0x08006de2   Section        0  ddiv.o(.text)
    .text                                    0x08006ec0   Section        0  fcmple.o(.text)
    .text                                    0x08006edc   Section        0  fcmpge.o(.text)
    .text                                    0x08006ef8   Section        0  fcmpgt.o(.text)
    .text                                    0x08006f14   Section        0  fcmpeq.o(.text)
    .text                                    0x08006f30   Section        0  ffltui.o(.text)
    .text                                    0x08006f3a   Section        0  dflti.o(.text)
    .text                                    0x08006f5c   Section        0  dfltui.o(.text)
    .text                                    0x08006f76   Section        0  ffixi.o(.text)
    .text                                    0x08006fa8   Section        0  dfixi.o(.text)
    .text                                    0x08006fe6   Section        0  f2d.o(.text)
    .text                                    0x0800700c   Section        0  d2f.o(.text)
    .text                                    0x08007044   Section        0  uidiv.o(.text)
    .text                                    0x08007070   Section        0  uldiv.o(.text)
    .text                                    0x080070d2   Section        0  llshl.o(.text)
    .text                                    0x080070f0   Section        0  llushr.o(.text)
    .text                                    0x08007110   Section        0  llsshr.o(.text)
    .text                                    0x08007134   Section        0  iusefp.o(.text)
    .text                                    0x08007134   Section        0  fepilogue.o(.text)
    .text                                    0x080071a2   Section        0  depilogue.o(.text)
    .text                                    0x0800725c   Section        0  dfixul.o(.text)
    .text                                    0x0800728c   Section       48  cdrcmple.o(.text)
    .text                                    0x080072bc   Section       48  init.o(.text)
    .text                                    0x080072ec   Section        0  __dczerorl2.o(.text)
    i.__0sprintf                             0x08007344   Section        0  printfa.o(i.__0sprintf)
    i.__scatterload_copy                     0x0800736c   Section       14  handlers.o(i.__scatterload_copy)
    i.__scatterload_null                     0x0800737a   Section        2  handlers.o(i.__scatterload_null)
    i.__scatterload_zeroinit                 0x0800737c   Section       14  handlers.o(i.__scatterload_zeroinit)
    _fp_digits                               0x0800738d   Thumb Code   366  printfa.o(i._fp_digits)
    i._fp_digits                             0x0800738c   Section        0  printfa.o(i._fp_digits)
    _printf_core                             0x08007511   Thumb Code  1744  printfa.o(i._printf_core)
    i._printf_core                           0x08007510   Section        0  printfa.o(i._printf_core)
    _printf_post_padding                     0x08007bed   Thumb Code    36  printfa.o(i._printf_post_padding)
    i._printf_post_padding                   0x08007bec   Section        0  printfa.o(i._printf_post_padding)
    _printf_pre_padding                      0x08007c11   Thumb Code    46  printfa.o(i._printf_pre_padding)
    i._printf_pre_padding                    0x08007c10   Section        0  printfa.o(i._printf_pre_padding)
    _sputc                                   0x08007c3f   Thumb Code    10  printfa.o(i._sputc)
    i._sputc                                 0x08007c3e   Section        0  printfa.o(i._sputc)
    .L__const.up_or_down.up_down             0x08007c48   Data          12  bldc.o(.rodata..L__const.up_or_down.up_down)
    .L__const.rcu_clock_freq_get.apb2_exp    0x08007c54   Data           8  gd32f10x_rcu.o(.rodata.cst8)
    .L.str.88                                0x08007c64   Data          17  remoteautodetect.o(.rodata.str1.1)
    [Anonymous Symbol]                       0x08007c64   Section        0  remoteautodetect.o(.rodata.str1.1)
    .L.str.67                                0x08007c75   Data          22  remoteautodetect.o(.rodata.str1.1)
    .L.str.68                                0x08007c8b   Data          25  remoteautodetect.o(.rodata.str1.1)
    .L.str.84                                0x08007ca4   Data          35  remoteautodetect.o(.rodata.str1.1)
    .L.str.69                                0x08007cc7   Data          10  remoteautodetect.o(.rodata.str1.1)
    .L.str.83                                0x08007cd1   Data           9  remoteautodetect.o(.rodata.str1.1)
    .L.str.49                                0x08007cda   Data          22  remoteautodetect.o(.rodata.str1.1)
    .L.str.75                                0x08007cf5   Data          17  remoteautodetect.o(.rodata.str1.1)
    .L.str.73                                0x08007d0b   Data          69  remoteautodetect.o(.rodata.str1.1)
    .L.str.51                                0x08007d50   Data           3  remoteautodetect.o(.rodata.str1.1)
    .L.str.70                                0x08007e53   Data           9  remoteautodetect.o(.rodata.str1.1)
    .L.str.72                                0x08007e5c   Data          44  remoteautodetect.o(.rodata.str1.1)
    .L.str.74                                0x08007e88   Data          25  remoteautodetect.o(.rodata.str1.1)
    .L.str.79                                0x08007ea1   Data          40  remoteautodetect.o(.rodata.str1.1)
    .L.str.78                                0x08007ec9   Data          10  remoteautodetect.o(.rodata.str1.1)
    .L.str.77                                0x08007ed3   Data          14  remoteautodetect.o(.rodata.str1.1)
    .L.str.76                                0x08007ee1   Data          36  remoteautodetect.o(.rodata.str1.1)
    .L.str.64                                0x08007f05   Data         100  remoteautodetect.o(.rodata.str1.1)
    .L.str.50                                0x08007f68   Data           1  remoteautodetect.o(.rodata.str1.1)
    .L.str.89                                0x08007f6c   Data          25  remoteautodetect.o(.rodata.str1.4)
    [Anonymous Symbol]                       0x08007f6c   Section        0  remoteautodetect.o(.rodata.str1.4)
    .L.str.59                                0x08007f98   Data          19  remoteautodetect.o(.rodata.str1.4)
    .L.str.63                                0x08007fac   Data          99  remoteautodetect.o(.rodata.str1.4)
    .L.str.61                                0x08008010   Data          82  remoteautodetect.o(.rodata.str1.4)
    .L.str.80                                0x08008064   Data          22  remoteautodetect.o(.rodata.str1.4)
    .L.str.62                                0x0800807c   Data          48  remoteautodetect.o(.rodata.str1.4)
    .L.str.56                                0x080080ac   Data          74  remoteautodetect.o(.rodata.str1.4)
    STACK                                    0x200005f0   Section     8192  startup_gd32f10x_hd.o(STACK)

    Global Symbols

    Symbol Name                              Value     Ov Type        Size  Object(Section)

    BuildAttributes$$THM_ISAv4$P$D$K$B$S$PE$A:L22UL41UL21$X:L11$S22US41US21$IEEE1$IW$~IW$USESV6$~STKCKD$USESV7$~SHL$OTIME$ROPI$EBA8$MICROLIB$REQ8$PRES8$EABIv2 0x00000000   Number         0  anon$$obj.o ABSOLUTE
    _printf_a                                0x00000000   Number         0  printfstubs.o ABSOLUTE
    _printf_c                                0x00000000   Number         0  printfstubs.o ABSOLUTE
    _printf_charcount                        0x00000000   Number         0  printfstubs.o ABSOLUTE
    _printf_d                                0x00000000   Number         0  printfstubs.o ABSOLUTE
    _printf_e                                0x00000000   Number         0  printfstubs.o ABSOLUTE
    _printf_f                                0x00000000   Number         0  printfstubs.o ABSOLUTE
    _printf_flags                            0x00000000   Number         0  printfstubs.o ABSOLUTE
    _printf_fp_dec                           0x00000000   Number         0  printfstubs.o ABSOLUTE
    _printf_fp_hex                           0x00000000   Number         0  printfstubs.o ABSOLUTE
    _printf_g                                0x00000000   Number         0  printfstubs.o ABSOLUTE
    _printf_i                                0x00000000   Number         0  printfstubs.o ABSOLUTE
    _printf_int_dec                          0x00000000   Number         0  printfstubs.o ABSOLUTE
    _printf_l                                0x00000000   Number         0  printfstubs.o ABSOLUTE
    _printf_lc                               0x00000000   Number         0  printfstubs.o ABSOLUTE
    _printf_ll                               0x00000000   Number         0  printfstubs.o ABSOLUTE
    _printf_lld                              0x00000000   Number         0  printfstubs.o ABSOLUTE
    _printf_lli                              0x00000000   Number         0  printfstubs.o ABSOLUTE
    _printf_llo                              0x00000000   Number         0  printfstubs.o ABSOLUTE
    _printf_llu                              0x00000000   Number         0  printfstubs.o ABSOLUTE
    _printf_llx                              0x00000000   Number         0  printfstubs.o ABSOLUTE
    _printf_longlong_dec                     0x00000000   Number         0  printfstubs.o ABSOLUTE
    _printf_longlong_hex                     0x00000000   Number         0  printfstubs.o ABSOLUTE
    _printf_longlong_oct                     0x00000000   Number         0  printfstubs.o ABSOLUTE
    _printf_ls                               0x00000000   Number         0  printfstubs.o ABSOLUTE
    _printf_mbtowc                           0x00000000   Number         0  printfstubs.o ABSOLUTE
    _printf_n                                0x00000000   Number         0  printfstubs.o ABSOLUTE
    _printf_o                                0x00000000   Number         0  printfstubs.o ABSOLUTE
    _printf_p                                0x00000000   Number         0  printfstubs.o ABSOLUTE
    _printf_percent                          0x00000000   Number         0  printfstubs.o ABSOLUTE
    _printf_pre_padding                      0x00000000   Number         0  printfstubs.o ABSOLUTE
    _printf_return_value                     0x00000000   Number         0  printfstubs.o ABSOLUTE
    _printf_s                                0x00000000   Number         0  printfstubs.o ABSOLUTE
    _printf_sizespec                         0x00000000   Number         0  printfstubs.o ABSOLUTE
    _printf_str                              0x00000000   Number         0  printfstubs.o ABSOLUTE
    _printf_truncate_signed                  0x00000000   Number         0  printfstubs.o ABSOLUTE
    _printf_truncate_unsigned                0x00000000   Number         0  printfstubs.o ABSOLUTE
    _printf_u                                0x00000000   Number         0  printfstubs.o ABSOLUTE
    _printf_wc                               0x00000000   Number         0  printfstubs.o ABSOLUTE
    _printf_wctomb                           0x00000000   Number         0  printfstubs.o ABSOLUTE
    _printf_widthprec                        0x00000000   Number         0  printfstubs.o ABSOLUTE
    _printf_x                                0x00000000   Number         0  printfstubs.o ABSOLUTE
    __cpp_initialize__aeabi_                  - Undefined Weak Reference
    __cxa_finalize                            - Undefined Weak Reference
    _clock_init                               - Undefined Weak Reference
    _microlib_exit                            - Undefined Weak Reference
    __Vectors_Size                           0x00000130   Number         0  startup_gd32f10x_hd.o ABSOLUTE
    __Vectors                                0x08000000   Data           4  startup_gd32f10x_hd.o(RESET)
    __Vectors_End                            0x08000130   Data           0  startup_gd32f10x_hd.o(RESET)
    __main                                   0x08000131   Thumb Code     0  entry.o(.ARM.Collect$$$$00000000)
    _main_stk                                0x08000131   Thumb Code     0  entry2.o(.ARM.Collect$$$$00000001)
    _main_scatterload                        0x08000135   Thumb Code     0  entry5.o(.ARM.Collect$$$$00000004)
    __main_after_scatterload                 0x08000139   Thumb Code     0  entry5.o(.ARM.Collect$$$$00000004)
    _main_clock                              0x08000139   Thumb Code     0  entry7b.o(.ARM.Collect$$$$00000008)
    _main_cpp_init                           0x08000139   Thumb Code     0  entry8b.o(.ARM.Collect$$$$0000000A)
    _main_init                               0x08000139   Thumb Code     0  entry9a.o(.ARM.Collect$$$$0000000B)
    __rt_final_cpp                           0x08000141   Thumb Code     0  entry10a.o(.ARM.Collect$$$$0000000D)
    __rt_final_exit                          0x08000141   Thumb Code     0  entry11a.o(.ARM.Collect$$$$0000000F)
    main                                     0x08000145   Thumb Code   222  main.o(.text)
    modulo                                   0x08000225   Thumb Code    22  bldc.o(.text)
    up_or_down                               0x0800023d   Thumb Code    66  bldc.o(.text)
    SetEnable                                0x08000281   Thumb Code    12  bldc.o(.text)
    SetPWM                                   0x0800028d   Thumb Code    74  bldc.o(.text)
    SetFilter                                0x080002d9   Thumb Code    46  bldc.o(.text)
    CalculateBLDC                            0x08000309   Thumb Code   772  bldc.o(.text)
    bldc_get_pwm                             0x0800060d   Thumb Code   106  bldcbc.o(.text)
    InitBldc                                 0x08000679   Thumb Code     2  bldcbc.o(.text)
    Interrupt_init                           0x0800067d   Thumb Code     8  setup.o(.text)
    Watchdog_init                            0x08000685   Thumb Code    44  setup.o(.text)
    TimeoutTimer_init                        0x080006b1   Thumb Code    94  setup.o(.text)
    GPIO_init                                0x08000711   Thumb Code   134  setup.o(.text)
    PWM_initOld                              0x08000799   Thumb Code   362  setup.o(.text)
    PWM_init                                 0x08000905   Thumb Code   362  setup.o(.text)
    ADC_init                                 0x08000a71   Thumb Code   260  setup.o(.text)
    USART0_Init                              0x08000b75   Thumb Code   276  setup.o(.text)
    USART1_Init                              0x08000c89   Thumb Code     2  setup.o(.text)
    USART2_Init                              0x08000c8d   Thumb Code     2  setup.o(.text)
    flashErase                               0x08000c91   Thumb Code    30  setup.o(.text)
    flashRead                                0x08000cb1   Thumb Code     4  setup.o(.text)
    flashWrite                               0x08000cb5   Thumb Code    40  setup.o(.text)
    flashWriteBuffer                         0x08000cdd   Thumb Code    66  setup.o(.text)
    flashReadBuffer                          0x08000d21   Thumb Code    26  setup.o(.text)
    ConfigReset                              0x08000d3d   Thumb Code    36  setup.o(.text)
    ConfigWrite                              0x08000d61   Thumb Code    98  setup.o(.text)
    ConfigRead                               0x08000dc5   Thumb Code   112  setup.o(.text)
    confErase                                0x08000e35   Thumb Code    34  setup.o(.text)
    SysTick_Handler                          0x08000e59   Thumb Code    16  it.o(.text)
    ResetTimeout                             0x08000e69   Thumb Code    14  it.o(.text)
    TIMER3_IRQHandler                        0x08000e79   Thumb Code    76  it.o(.text)
    TIMER0_UP_IRQHandler                     0x08000ec5   Thumb Code    90  it.o(.text)
    DMA0_Channel0_IRQHandler                 0x08000f21   Thumb Code   100  it.o(.text)
    DMA0_Channel4_IRQHandler                 0x08000f85   Thumb Code    70  it.o(.text)
    millis                                   0x08000fcd   Thumb Code    12  it.o(.text)
    Delay                                    0x08000fd9   Thumb Code    28  it.o(.text)
    NMI_Handler                              0x08000ff5   Thumb Code     2  it.o(.text)
    HardFault_Handler                        0x08000ff9   Thumb Code     2  it.o(.text)
    MemManage_Handler                        0x08000ffd   Thumb Code     2  it.o(.text)
    BusFault_Handler                         0x08001001   Thumb Code     2  it.o(.text)
    UsageFault_Handler                       0x08001005   Thumb Code     2  it.o(.text)
    SVC_Handler                              0x08001009   Thumb Code     2  it.o(.text)
    DebugMon_Handler                         0x0800100d   Thumb Code     2  it.o(.text)
    PendSV_Handler                           0x08001011   Thumb Code     2  it.o(.text)
    SendBuffer                               0x08001015   Thumb Code    54  comms.o(.text)
    CalcCRC                                  0x0800104d   Thumb Code    68  comms.o(.text)
    HidePinDigital                           0x08001091   Thumb Code    58  remoteautodetect.o(.text)
    GetPinName                               0x080010cd   Thumb Code    42  remoteautodetect.o(.text)
    ListFound                                0x080010f9   Thumb Code   192  remoteautodetect.o(.text)
    RemoteUpdate                             0x080011b9   Thumb Code   142  remoteautodetect.o(.text)
    RemoteCallback                           0x08001249   Thumb Code   506  remoteautodetect.o(.text)
    AutoDetectHallOrderInit                  0x08001445   Thumb Code   128  remoteautodetect.o(.text)
    AutodetectInit                           0x080014c5   Thumb Code    96  remoteautodetect.o(.text)
    AutoDetectSetStage                       0x08001525   Thumb Code    78  remoteautodetect.o(.text)
    AutoDetectNextStage                      0x08001575   Thumb Code   108  remoteautodetect.o(.text)
    SetNextTestPin                           0x080015e1   Thumb Code   132  remoteautodetect.o(.text)
    ScanInit                                 0x08001665   Thumb Code   648  remoteautodetect.o(.text)
    AutodetectScan                           0x080018ed   Thumb Code  5164  remoteautodetect.o(.text)
    AutoDetectHallInit                       0x08002d49   Thumb Code   110  remoteautodetect.o(.text)
    AutodetectBldc                           0x08002db9   Thumb Code  1760  remoteautodetect.o(.text)
    adc_deinit                               0x08003529   Thumb Code    72  gd32f10x_adc.o(.text)
    adc_mode_config                          0x08003571   Thumb Code    24  gd32f10x_adc.o(.text)
    adc_special_function_config              0x08003589   Thumb Code    90  gd32f10x_adc.o(.text)
    adc_data_alignment_config                0x080035e5   Thumb Code    18  gd32f10x_adc.o(.text)
    adc_enable                               0x080035f9   Thumb Code    18  gd32f10x_adc.o(.text)
    adc_disable                              0x0800360d   Thumb Code    10  gd32f10x_adc.o(.text)
    adc_calibration_enable                   0x08003619   Thumb Code    32  gd32f10x_adc.o(.text)
    adc_tempsensor_vrefint_enable            0x08003639   Thumb Code    18  gd32f10x_adc.o(.text)
    adc_tempsensor_vrefint_disable           0x0800364d   Thumb Code    18  gd32f10x_adc.o(.text)
    adc_dma_mode_enable                      0x08003661   Thumb Code    10  gd32f10x_adc.o(.text)
    adc_dma_mode_disable                     0x0800366d   Thumb Code    10  gd32f10x_adc.o(.text)
    adc_discontinuous_mode_config            0x08003679   Thumb Code    60  gd32f10x_adc.o(.text)
    adc_channel_length_config                0x080036b5   Thumb Code    58  gd32f10x_adc.o(.text)
    adc_regular_channel_config               0x080036f1   Thumb Code   116  gd32f10x_adc.o(.text)
    adc_inserted_channel_config              0x08003765   Thumb Code   100  gd32f10x_adc.o(.text)
    adc_inserted_channel_offset_config       0x080037c9   Thumb Code    26  gd32f10x_adc.o(.text)
    adc_external_trigger_source_config       0x080037e5   Thumb Code    34  gd32f10x_adc.o(.text)
    adc_external_trigger_config              0x08003809   Thumb Code    62  gd32f10x_adc.o(.text)
    adc_software_trigger_enable              0x08003849   Thumb Code    28  gd32f10x_adc.o(.text)
    adc_regular_data_read                    0x08003865   Thumb Code     6  gd32f10x_adc.o(.text)
    adc_inserted_data_read                   0x0800386d   Thumb Code    20  gd32f10x_adc.o(.text)
    adc_sync_mode_convert_value_read         0x08003881   Thumb Code    12  gd32f10x_adc.o(.text)
    adc_watchdog_single_channel_enable       0x0800388d   Thumb Code    34  gd32f10x_adc.o(.text)
    adc_watchdog_group_channel_enable        0x080038b1   Thumb Code    40  gd32f10x_adc.o(.text)
    adc_watchdog_disable                     0x080038e5   Thumb Code    16  gd32f10x_adc.o(.text)
    adc_watchdog_threshold_config            0x080038f5   Thumb Code    14  gd32f10x_adc.o(.text)
    adc_flag_get                             0x08003905   Thumb Code    10  gd32f10x_adc.o(.text)
    adc_flag_clear                           0x08003911   Thumb Code    10  gd32f10x_adc.o(.text)
    adc_regular_software_startconv_flag_get  0x0800391d   Thumb Code     8  gd32f10x_adc.o(.text)
    adc_inserted_software_startconv_flag_get 0x08003925   Thumb Code     8  gd32f10x_adc.o(.text)
    adc_interrupt_flag_get                   0x0800392d   Thumb Code    48  gd32f10x_adc.o(.text)
    adc_interrupt_flag_clear                 0x0800395d   Thumb Code    10  gd32f10x_adc.o(.text)
    adc_interrupt_enable                     0x08003969   Thumb Code    40  gd32f10x_adc.o(.text)
    adc_interrupt_disable                    0x08003991   Thumb Code    40  gd32f10x_adc.o(.text)
    dma_deinit                               0x080039b9   Thumb Code    60  gd32f10x_dma.o(.text)
    dma_struct_para_init                     0x080039f5   Thumb Code    20  gd32f10x_dma.o(.text)
    dma_init                                 0x08003a09   Thumb Code   116  gd32f10x_dma.o(.text)
    dma_circulation_enable                   0x08003a7d   Thumb Code    36  gd32f10x_dma.o(.text)
    dma_circulation_disable                  0x08003aa1   Thumb Code    36  gd32f10x_dma.o(.text)
    dma_memory_to_memory_enable              0x08003ac5   Thumb Code    36  gd32f10x_dma.o(.text)
    dma_memory_to_memory_disable             0x08003ae9   Thumb Code    36  gd32f10x_dma.o(.text)
    dma_channel_enable                       0x08003b0d   Thumb Code    36  gd32f10x_dma.o(.text)
    dma_channel_disable                      0x08003b31   Thumb Code    36  gd32f10x_dma.o(.text)
    dma_periph_address_config                0x08003b55   Thumb Code    30  gd32f10x_dma.o(.text)
    dma_memory_address_config                0x08003b75   Thumb Code    30  gd32f10x_dma.o(.text)
    dma_transfer_number_config               0x08003b95   Thumb Code    32  gd32f10x_dma.o(.text)
    dma_transfer_number_get                  0x08003bb5   Thumb Code    30  gd32f10x_dma.o(.text)
    dma_priority_config                      0x08003bd5   Thumb Code    38  gd32f10x_dma.o(.text)
    dma_memory_width_config                  0x08003bfd   Thumb Code    38  gd32f10x_dma.o(.text)
    dma_periph_width_config                  0x08003c25   Thumb Code    38  gd32f10x_dma.o(.text)
    dma_memory_increase_enable               0x08003c4d   Thumb Code    36  gd32f10x_dma.o(.text)
    dma_memory_increase_disable              0x08003c71   Thumb Code    36  gd32f10x_dma.o(.text)
    dma_periph_increase_enable               0x08003c95   Thumb Code    36  gd32f10x_dma.o(.text)
    dma_periph_increase_disable              0x08003cb9   Thumb Code    36  gd32f10x_dma.o(.text)
    dma_transfer_direction_config            0x08003cdd   Thumb Code    42  gd32f10x_dma.o(.text)
    dma_flag_get                             0x08003d09   Thumb Code    16  gd32f10x_dma.o(.text)
    dma_flag_clear                           0x08003d19   Thumb Code    14  gd32f10x_dma.o(.text)
    dma_interrupt_flag_get                   0x08003d29   Thumb Code    58  gd32f10x_dma.o(.text)
    dma_interrupt_flag_clear                 0x08003d65   Thumb Code    14  gd32f10x_dma.o(.text)
    dma_interrupt_enable                     0x08003d75   Thumb Code    34  gd32f10x_dma.o(.text)
    dma_interrupt_disable                    0x08003d99   Thumb Code    34  gd32f10x_dma.o(.text)
    fmc_wscnt_set                            0x08003dbd   Thumb Code    20  gd32f10x_fmc.o(.text)
    fmc_unlock                               0x08003dd1   Thumb Code    80  gd32f10x_fmc.o(.text)
    fmc_bank0_unlock                         0x08003e21   Thumb Code    38  gd32f10x_fmc.o(.text)
    fmc_bank1_unlock                         0x08003e49   Thumb Code    38  gd32f10x_fmc.o(.text)
    fmc_lock                                 0x08003e71   Thumb Code    44  gd32f10x_fmc.o(.text)
    fmc_bank0_lock                           0x08003e9d   Thumb Code    18  gd32f10x_fmc.o(.text)
    fmc_bank1_lock                           0x08003eb1   Thumb Code    18  gd32f10x_fmc.o(.text)
    fmc_page_erase                           0x08003ec5   Thumb Code   462  gd32f10x_fmc.o(.text)
    fmc_bank0_ready_wait                     0x08004095   Thumb Code    68  gd32f10x_fmc.o(.text)
    fmc_bank1_ready_wait                     0x080040d9   Thumb Code    68  gd32f10x_fmc.o(.text)
    fmc_mass_erase                           0x0800411d   Thumb Code   458  gd32f10x_fmc.o(.text)
    fmc_bank0_erase                          0x080042e9   Thumb Code   150  gd32f10x_fmc.o(.text)
    fmc_bank1_erase                          0x08004381   Thumb Code   150  gd32f10x_fmc.o(.text)
    fmc_word_program                         0x08004419   Thumb Code   424  gd32f10x_fmc.o(.text)
    fmc_halfword_program                     0x080045c1   Thumb Code   424  gd32f10x_fmc.o(.text)
    ob_unlock                                0x08004769   Thumb Code    44  gd32f10x_fmc.o(.text)
    ob_lock                                  0x08004795   Thumb Code    18  gd32f10x_fmc.o(.text)
    ob_erase                                 0x080047a9   Thumb Code   270  gd32f10x_fmc.o(.text)
    ob_spc_get                               0x080048b9   Thumb Code    16  gd32f10x_fmc.o(.text)
    ob_write_protection_enable               0x080048c9   Thumb Code   380  gd32f10x_fmc.o(.text)
    ob_security_protection_config            0x08004a45   Thumb Code   260  gd32f10x_fmc.o(.text)
    ob_user_write                            0x08004b49   Thumb Code   184  gd32f10x_fmc.o(.text)
    ob_data_program                          0x08004c01   Thumb Code   152  gd32f10x_fmc.o(.text)
    ob_user_get                              0x08004c99   Thumb Code    16  gd32f10x_fmc.o(.text)
    ob_data_get                              0x08004ca9   Thumb Code    16  gd32f10x_fmc.o(.text)
    ob_write_protection_get                  0x08004cb9   Thumb Code    12  gd32f10x_fmc.o(.text)
    fmc_interrupt_enable                     0x08004cc5   Thumb Code    30  gd32f10x_fmc.o(.text)
    fmc_interrupt_disable                    0x08004ce5   Thumb Code    32  gd32f10x_fmc.o(.text)
    fmc_flag_get                             0x08004d05   Thumb Code    26  gd32f10x_fmc.o(.text)
    fmc_flag_clear                           0x08004d21   Thumb Code    30  gd32f10x_fmc.o(.text)
    fmc_interrupt_flag_get                   0x08004d41   Thumb Code    72  gd32f10x_fmc.o(.text)
    fmc_interrupt_flag_clear                 0x08004d89   Thumb Code    30  gd32f10x_fmc.o(.text)
    fmc_bank0_state_get                      0x08004da9   Thumb Code    36  gd32f10x_fmc.o(.text)
    fmc_bank1_state_get                      0x08004dcd   Thumb Code    36  gd32f10x_fmc.o(.text)
    fwdgt_write_enable                       0x08004df1   Thumb Code    16  gd32f10x_fwdgt.o(.text)
    fwdgt_write_disable                      0x08004e01   Thumb Code    14  gd32f10x_fwdgt.o(.text)
    fwdgt_enable                             0x08004e11   Thumb Code    16  gd32f10x_fwdgt.o(.text)
    fwdgt_counter_reload                     0x08004e21   Thumb Code    16  gd32f10x_fwdgt.o(.text)
    fwdgt_config                             0x08004e31   Thumb Code   100  gd32f10x_fwdgt.o(.text)
    fwdgt_flag_get                           0x08004e95   Thumb Code    18  gd32f10x_fwdgt.o(.text)
    gpio_deinit                              0x08004ea9   Thumb Code    42  gd32f10x_gpio.o(.text)
    gpio_afio_deinit                         0x08004ed5   Thumb Code    22  gd32f10x_gpio.o(.text)
    gpio_init                                0x08004eed   Thumb Code   170  gd32f10x_gpio.o(.text)
    gpio_bit_set                             0x08004f99   Thumb Code     4  gd32f10x_gpio.o(.text)
    gpio_bit_reset                           0x08004f9d   Thumb Code     4  gd32f10x_gpio.o(.text)
    gpio_bit_write                           0x08004fa1   Thumb Code    12  gd32f10x_gpio.o(.text)
    gpio_port_write                          0x08004fad   Thumb Code     4  gd32f10x_gpio.o(.text)
    gpio_input_bit_get                       0x08004fb1   Thumb Code    10  gd32f10x_gpio.o(.text)
    gpio_input_port_get                      0x08004fbd   Thumb Code     6  gd32f10x_gpio.o(.text)
    gpio_output_bit_get                      0x08004fc5   Thumb Code    10  gd32f10x_gpio.o(.text)
    gpio_output_port_get                     0x08004fd1   Thumb Code     6  gd32f10x_gpio.o(.text)
    gpio_pin_remap_config                    0x08004fd9   Thumb Code   128  gd32f10x_gpio.o(.text)
    gpio_exti_source_select                  0x08005059   Thumb Code   130  gd32f10x_gpio.o(.text)
    gpio_event_output_config                 0x080050dd   Thumb Code    22  gd32f10x_gpio.o(.text)
    gpio_event_output_enable                 0x080050f5   Thumb Code    16  gd32f10x_gpio.o(.text)
    gpio_event_output_disable                0x08005105   Thumb Code    16  gd32f10x_gpio.o(.text)
    gpio_pin_lock                            0x08005115   Thumb Code    16  gd32f10x_gpio.o(.text)
    nvic_priority_group_set                  0x08005125   Thumb Code    20  gd32f10x_misc.o(.text)
    nvic_irq_enable                          0x08005139   Thumb Code   100  gd32f10x_misc.o(.text)
    nvic_irq_disable                         0x0800519d   Thumb Code    28  gd32f10x_misc.o(.text)
    nvic_vector_table_set                    0x080051b9   Thumb Code    24  gd32f10x_misc.o(.text)
    system_lowpower_set                      0x080051d1   Thumb Code    16  gd32f10x_misc.o(.text)
    system_lowpower_reset                    0x080051e1   Thumb Code    18  gd32f10x_misc.o(.text)
    systick_clksource_set                    0x080051f5   Thumb Code    24  gd32f10x_misc.o(.text)
    rcu_deinit                               0x0800520d   Thumb Code   106  gd32f10x_rcu.o(.text)
    rcu_osci_stab_wait                       0x08005279   Thumb Code   264  gd32f10x_rcu.o(.text)
    rcu_periph_clock_enable                  0x08005381   Thumb Code    30  gd32f10x_rcu.o(.text)
    rcu_periph_clock_disable                 0x080053a1   Thumb Code    32  gd32f10x_rcu.o(.text)
    rcu_periph_clock_sleep_enable            0x080053c1   Thumb Code    30  gd32f10x_rcu.o(.text)
    rcu_periph_clock_sleep_disable           0x080053e1   Thumb Code    32  gd32f10x_rcu.o(.text)
    rcu_periph_reset_enable                  0x08005401   Thumb Code    30  gd32f10x_rcu.o(.text)
    rcu_periph_reset_disable                 0x08005421   Thumb Code    32  gd32f10x_rcu.o(.text)
    rcu_bkp_reset_enable                     0x08005441   Thumb Code    18  gd32f10x_rcu.o(.text)
    rcu_bkp_reset_disable                    0x08005455   Thumb Code    18  gd32f10x_rcu.o(.text)
    rcu_system_clock_source_config           0x08005469   Thumb Code    20  gd32f10x_rcu.o(.text)
    rcu_system_clock_source_get              0x0800547d   Thumb Code    16  gd32f10x_rcu.o(.text)
    rcu_ahb_clock_config                     0x0800548d   Thumb Code    20  gd32f10x_rcu.o(.text)
    rcu_apb1_clock_config                    0x080054a1   Thumb Code    20  gd32f10x_rcu.o(.text)
    rcu_apb2_clock_config                    0x080054b5   Thumb Code    20  gd32f10x_rcu.o(.text)
    rcu_ckout0_config                        0x080054c9   Thumb Code    20  gd32f10x_rcu.o(.text)
    rcu_pll_config                           0x080054dd   Thumb Code    32  gd32f10x_rcu.o(.text)
    rcu_predv0_config                        0x080054fd   Thumb Code    26  gd32f10x_rcu.o(.text)
    rcu_adc_clock_config                     0x08005519   Thumb Code    64  gd32f10x_rcu.o(.text)
    rcu_usb_clock_config                     0x08005559   Thumb Code    20  gd32f10x_rcu.o(.text)
    rcu_rtc_clock_config                     0x0800556d   Thumb Code    20  gd32f10x_rcu.o(.text)
    rcu_flag_get                             0x08005581   Thumb Code    26  gd32f10x_rcu.o(.text)
    rcu_all_reset_flag_clear                 0x0800559d   Thumb Code    18  gd32f10x_rcu.o(.text)
    rcu_interrupt_flag_get                   0x080055b1   Thumb Code    26  gd32f10x_rcu.o(.text)
    rcu_interrupt_flag_clear                 0x080055cd   Thumb Code    30  gd32f10x_rcu.o(.text)
    rcu_interrupt_enable                     0x080055ed   Thumb Code    30  gd32f10x_rcu.o(.text)
    rcu_interrupt_disable                    0x0800560d   Thumb Code    32  gd32f10x_rcu.o(.text)
    rcu_osci_on                              0x0800562d   Thumb Code    30  gd32f10x_rcu.o(.text)
    rcu_osci_off                             0x0800564d   Thumb Code    32  gd32f10x_rcu.o(.text)
    rcu_osci_bypass_mode_enable              0x0800566d   Thumb Code    64  gd32f10x_rcu.o(.text)
    rcu_osci_bypass_mode_disable             0x080056ad   Thumb Code    64  gd32f10x_rcu.o(.text)
    rcu_hxtal_clock_monitor_enable           0x080056ed   Thumb Code    18  gd32f10x_rcu.o(.text)
    rcu_hxtal_clock_monitor_disable          0x08005701   Thumb Code    18  gd32f10x_rcu.o(.text)
    rcu_irc8m_adjust_value_set               0x08005715   Thumb Code    18  gd32f10x_rcu.o(.text)
    rcu_deepsleep_voltage_set                0x08005729   Thumb Code    16  gd32f10x_rcu.o(.text)
    rcu_clock_freq_get                       0x08005739   Thumb Code   156  gd32f10x_rcu.o(.text)
    timer_deinit                             0x080057e5   Thumb Code   194  gd32f10x_timer.o(.text)
    timer_struct_para_init                   0x080058a9   Thumb Code    18  gd32f10x_timer.o(.text)
    timer_init                               0x080058bd   Thumb Code   288  gd32f10x_timer.o(.text)
    timer_enable                             0x080059dd   Thumb Code    10  gd32f10x_timer.o(.text)
    timer_disable                            0x080059e9   Thumb Code    10  gd32f10x_timer.o(.text)
    timer_auto_reload_shadow_enable          0x080059f5   Thumb Code    10  gd32f10x_timer.o(.text)
    timer_auto_reload_shadow_disable         0x08005a01   Thumb Code    10  gd32f10x_timer.o(.text)
    timer_update_event_enable                0x08005a0d   Thumb Code    10  gd32f10x_timer.o(.text)
    timer_update_event_disable               0x08005a19   Thumb Code    10  gd32f10x_timer.o(.text)
    timer_counter_alignment                  0x08005a25   Thumb Code    16  gd32f10x_timer.o(.text)
    timer_counter_up_direction               0x08005a35   Thumb Code    10  gd32f10x_timer.o(.text)
    timer_counter_down_direction             0x08005a41   Thumb Code    10  gd32f10x_timer.o(.text)
    timer_prescaler_config                   0x08005a4d   Thumb Code    18  gd32f10x_timer.o(.text)
    timer_repetition_value_config            0x08005a61   Thumb Code     4  gd32f10x_timer.o(.text)
    timer_autoreload_value_config            0x08005a65   Thumb Code     4  gd32f10x_timer.o(.text)
    timer_counter_value_config               0x08005a69   Thumb Code     4  gd32f10x_timer.o(.text)
    timer_counter_read                       0x08005a6d   Thumb Code     4  gd32f10x_timer.o(.text)
    timer_prescaler_read                     0x08005a71   Thumb Code     6  gd32f10x_timer.o(.text)
    timer_single_pulse_mode_config           0x08005a79   Thumb Code    28  gd32f10x_timer.o(.text)
    timer_update_source_config               0x08005a95   Thumb Code    28  gd32f10x_timer.o(.text)
    timer_dma_enable                         0x08005ab1   Thumb Code     8  gd32f10x_timer.o(.text)
    timer_dma_disable                        0x08005ab9   Thumb Code    10  gd32f10x_timer.o(.text)
    timer_channel_dma_request_source_select  0x08005ac5   Thumb Code    28  gd32f10x_timer.o(.text)
    timer_dma_transfer_config                0x08005ae1   Thumb Code    24  gd32f10x_timer.o(.text)
    timer_event_software_generate            0x08005af9   Thumb Code     8  gd32f10x_timer.o(.text)
    timer_break_struct_para_init             0x08005b01   Thumb Code    12  gd32f10x_timer.o(.text)
    timer_break_config                       0x08005b0d   Thumb Code    38  gd32f10x_timer.o(.text)
    timer_break_enable                       0x08005b35   Thumb Code    10  gd32f10x_timer.o(.text)
    timer_break_disable                      0x08005b41   Thumb Code    10  gd32f10x_timer.o(.text)
    timer_automatic_output_enable            0x08005b4d   Thumb Code    10  gd32f10x_timer.o(.text)
    timer_automatic_output_disable           0x08005b59   Thumb Code    10  gd32f10x_timer.o(.text)
    timer_primary_output_config              0x08005b65   Thumb Code    18  gd32f10x_timer.o(.text)
    timer_channel_control_shadow_config      0x08005b79   Thumb Code    16  gd32f10x_timer.o(.text)
    timer_channel_control_shadow_update_config 0x08005b89   Thumb Code    30  gd32f10x_timer.o(.text)
    timer_channel_output_struct_para_init    0x08005ba9   Thumb Code    10  gd32f10x_timer.o(.text)
    timer_channel_output_config              0x08005bb5   Thumb Code   532  gd32f10x_timer.o(.text)
    timer_channel_output_mode_config         0x08005dc9   Thumb Code    56  gd32f10x_timer.o(.text)
    timer_channel_output_pulse_value_config  0x08005e01   Thumb Code    16  gd32f10x_timer.o(.text)
    timer_channel_output_shadow_config       0x08005e11   Thumb Code    56  gd32f10x_timer.o(.text)
    timer_channel_output_fast_config         0x08005e49   Thumb Code    56  gd32f10x_timer.o(.text)
    timer_channel_output_clear_config        0x08005e81   Thumb Code    56  gd32f10x_timer.o(.text)
    timer_channel_output_polarity_config     0x08005eb9   Thumb Code    68  gd32f10x_timer.o(.text)
    timer_channel_complementary_output_polarity_config 0x08005efd   Thumb Code    56  gd32f10x_timer.o(.text)
    timer_channel_output_state_config        0x08005f35   Thumb Code    68  gd32f10x_timer.o(.text)
    timer_channel_complementary_output_state_config 0x08005f79   Thumb Code    56  gd32f10x_timer.o(.text)
    timer_channel_input_struct_para_init     0x08005fb1   Thumb Code    12  gd32f10x_timer.o(.text)
    timer_input_capture_config               0x08005fbd   Thumb Code   350  gd32f10x_timer.o(.text)
    timer_channel_input_capture_prescaler_config 0x0800611d   Thumb Code    56  gd32f10x_timer.o(.text)
    timer_channel_capture_value_register_read 0x08006155   Thumb Code    18  gd32f10x_timer.o(.text)
    timer_input_pwm_capture_config           0x08006169   Thumb Code   354  gd32f10x_timer.o(.text)
    timer_hall_mode_config                   0x080062cd   Thumb Code    28  gd32f10x_timer.o(.text)
    timer_input_trigger_source_select        0x080062e9   Thumb Code    16  gd32f10x_timer.o(.text)
    timer_master_output_trigger_source_select 0x080062f9   Thumb Code    16  gd32f10x_timer.o(.text)
    timer_slave_mode_select                  0x08006309   Thumb Code    16  gd32f10x_timer.o(.text)
    timer_master_slave_mode_config           0x08006319   Thumb Code    28  gd32f10x_timer.o(.text)
    timer_external_trigger_config            0x08006335   Thumb Code    34  gd32f10x_timer.o(.text)
    timer_quadrature_decoder_mode_config     0x08006359   Thumb Code    78  gd32f10x_timer.o(.text)
    timer_internal_clock_config              0x080063a9   Thumb Code    10  gd32f10x_timer.o(.text)
    timer_internal_trigger_as_external_clock_config 0x080063b5   Thumb Code    32  gd32f10x_timer.o(.text)
    timer_external_trigger_as_external_clock_config 0x080063d5   Thumb Code   172  gd32f10x_timer.o(.text)
    timer_external_clock_mode0_config        0x08006481   Thumb Code    50  gd32f10x_timer.o(.text)
    timer_external_clock_mode1_config        0x080064b5   Thumb Code    42  gd32f10x_timer.o(.text)
    timer_external_clock_mode1_disable       0x080064e1   Thumb Code    10  gd32f10x_timer.o(.text)
    timer_interrupt_enable                   0x080064ed   Thumb Code     8  gd32f10x_timer.o(.text)
    timer_interrupt_disable                  0x080064f5   Thumb Code    10  gd32f10x_timer.o(.text)
    timer_interrupt_flag_get                 0x08006501   Thumb Code    22  gd32f10x_timer.o(.text)
    timer_interrupt_flag_clear               0x08006519   Thumb Code    10  gd32f10x_timer.o(.text)
    timer_flag_get                           0x08006525   Thumb Code    10  gd32f10x_timer.o(.text)
    timer_flag_clear                         0x08006531   Thumb Code    10  gd32f10x_timer.o(.text)
    usart_deinit                             0x0800653d   Thumb Code   122  gd32f10x_usart.o(.text)
    usart_baudrate_set                       0x080065b9   Thumb Code   106  gd32f10x_usart.o(.text)
    usart_parity_config                      0x08006625   Thumb Code    16  gd32f10x_usart.o(.text)
    usart_word_length_set                    0x08006635   Thumb Code    16  gd32f10x_usart.o(.text)
    usart_stop_bit_set                       0x08006645   Thumb Code    16  gd32f10x_usart.o(.text)
    usart_enable                             0x08006655   Thumb Code    10  gd32f10x_usart.o(.text)
    usart_disable                            0x08006661   Thumb Code    10  gd32f10x_usart.o(.text)
    usart_transmit_config                    0x0800666d   Thumb Code    12  gd32f10x_usart.o(.text)
    usart_receive_config                     0x08006679   Thumb Code    12  gd32f10x_usart.o(.text)
    usart_data_transmit                      0x08006685   Thumb Code     8  gd32f10x_usart.o(.text)
    usart_data_receive                       0x0800668d   Thumb Code     8  gd32f10x_usart.o(.text)
    usart_address_config                     0x08006695   Thumb Code    20  gd32f10x_usart.o(.text)
    usart_mute_mode_enable                   0x080066a9   Thumb Code    10  gd32f10x_usart.o(.text)
    usart_mute_mode_disable                  0x080066b5   Thumb Code    10  gd32f10x_usart.o(.text)
    usart_mute_mode_wakeup_config            0x080066c1   Thumb Code    16  gd32f10x_usart.o(.text)
    usart_lin_mode_enable                    0x080066d1   Thumb Code    10  gd32f10x_usart.o(.text)
    usart_lin_mode_disable                   0x080066dd   Thumb Code    10  gd32f10x_usart.o(.text)
    usart_lin_break_detection_length_config  0x080066e9   Thumb Code    20  gd32f10x_usart.o(.text)
    usart_send_break                         0x080066fd   Thumb Code    10  gd32f10x_usart.o(.text)
    usart_halfduplex_enable                  0x08006709   Thumb Code    10  gd32f10x_usart.o(.text)
    usart_halfduplex_disable                 0x08006715   Thumb Code    10  gd32f10x_usart.o(.text)
    usart_synchronous_clock_enable           0x08006721   Thumb Code    10  gd32f10x_usart.o(.text)
    usart_synchronous_clock_disable          0x0800672d   Thumb Code    10  gd32f10x_usart.o(.text)
    usart_synchronous_clock_config           0x08006739   Thumb Code    30  gd32f10x_usart.o(.text)
    usart_guard_time_config                  0x08006759   Thumb Code    20  gd32f10x_usart.o(.text)
    usart_smartcard_mode_enable              0x0800676d   Thumb Code    10  gd32f10x_usart.o(.text)
    usart_smartcard_mode_disable             0x08006779   Thumb Code    10  gd32f10x_usart.o(.text)
    usart_smartcard_mode_nack_enable         0x08006785   Thumb Code    10  gd32f10x_usart.o(.text)
    usart_smartcard_mode_nack_disable        0x08006791   Thumb Code    10  gd32f10x_usart.o(.text)
    usart_irda_mode_enable                   0x0800679d   Thumb Code    10  gd32f10x_usart.o(.text)
    usart_irda_mode_disable                  0x080067a9   Thumb Code    10  gd32f10x_usart.o(.text)
    usart_prescaler_config                   0x080067b5   Thumb Code    16  gd32f10x_usart.o(.text)
    usart_irda_lowpower_config               0x080067c5   Thumb Code    20  gd32f10x_usart.o(.text)
    usart_hardware_flow_rts_config           0x080067d9   Thumb Code    12  gd32f10x_usart.o(.text)
    usart_hardware_flow_cts_config           0x080067e5   Thumb Code    12  gd32f10x_usart.o(.text)
    usart_dma_receive_config                 0x080067f1   Thumb Code    12  gd32f10x_usart.o(.text)
    usart_dma_transmit_config                0x080067fd   Thumb Code    12  gd32f10x_usart.o(.text)
    usart_flag_get                           0x08006809   Thumb Code    16  gd32f10x_usart.o(.text)
    usart_flag_clear                         0x08006819   Thumb Code    24  gd32f10x_usart.o(.text)
    usart_interrupt_enable                   0x08006831   Thumb Code    24  gd32f10x_usart.o(.text)
    usart_interrupt_disable                  0x08006849   Thumb Code    26  gd32f10x_usart.o(.text)
    usart_interrupt_flag_get                 0x08006865   Thumb Code    40  gd32f10x_usart.o(.text)
    usart_interrupt_flag_clear               0x0800688d   Thumb Code    24  gd32f10x_usart.o(.text)
    Reset_Handler                            0x080068a5   Thumb Code     8  startup_gd32f10x_hd.o(.text)
    ADC0_1_IRQHandler                        0x080068bf   Thumb Code     0  startup_gd32f10x_hd.o(.text)
    ADC2_IRQHandler                          0x080068bf   Thumb Code     0  startup_gd32f10x_hd.o(.text)
    CAN0_EWMC_IRQHandler                     0x080068bf   Thumb Code     0  startup_gd32f10x_hd.o(.text)
    CAN0_RX1_IRQHandler                      0x080068bf   Thumb Code     0  startup_gd32f10x_hd.o(.text)
    DMA0_Channel1_IRQHandler                 0x080068bf   Thumb Code     0  startup_gd32f10x_hd.o(.text)
    DMA0_Channel2_IRQHandler                 0x080068bf   Thumb Code     0  startup_gd32f10x_hd.o(.text)
    DMA0_Channel3_IRQHandler                 0x080068bf   Thumb Code     0  startup_gd32f10x_hd.o(.text)
    DMA0_Channel5_IRQHandler                 0x080068bf   Thumb Code     0  startup_gd32f10x_hd.o(.text)
    DMA0_Channel6_IRQHandler                 0x080068bf   Thumb Code     0  startup_gd32f10x_hd.o(.text)
    DMA1_Channel0_IRQHandler                 0x080068bf   Thumb Code     0  startup_gd32f10x_hd.o(.text)
    DMA1_Channel1_IRQHandler                 0x080068bf   Thumb Code     0  startup_gd32f10x_hd.o(.text)
    DMA1_Channel2_IRQHandler                 0x080068bf   Thumb Code     0  startup_gd32f10x_hd.o(.text)
    DMA1_Channel3_4_IRQHandler               0x080068bf   Thumb Code     0  startup_gd32f10x_hd.o(.text)
    EXMC_IRQHandler                          0x080068bf   Thumb Code     0  startup_gd32f10x_hd.o(.text)
    EXTI0_IRQHandler                         0x080068bf   Thumb Code     0  startup_gd32f10x_hd.o(.text)
    EXTI10_15_IRQHandler                     0x080068bf   Thumb Code     0  startup_gd32f10x_hd.o(.text)
    EXTI1_IRQHandler                         0x080068bf   Thumb Code     0  startup_gd32f10x_hd.o(.text)
    EXTI2_IRQHandler                         0x080068bf   Thumb Code     0  startup_gd32f10x_hd.o(.text)
    EXTI3_IRQHandler                         0x080068bf   Thumb Code     0  startup_gd32f10x_hd.o(.text)
    EXTI4_IRQHandler                         0x080068bf   Thumb Code     0  startup_gd32f10x_hd.o(.text)
    EXTI5_9_IRQHandler                       0x080068bf   Thumb Code     0  startup_gd32f10x_hd.o(.text)
    FMC_IRQHandler                           0x080068bf   Thumb Code     0  startup_gd32f10x_hd.o(.text)
    I2C0_ER_IRQHandler                       0x080068bf   Thumb Code     0  startup_gd32f10x_hd.o(.text)
    I2C0_EV_IRQHandler                       0x080068bf   Thumb Code     0  startup_gd32f10x_hd.o(.text)
    I2C1_ER_IRQHandler                       0x080068bf   Thumb Code     0  startup_gd32f10x_hd.o(.text)
    I2C1_EV_IRQHandler                       0x080068bf   Thumb Code     0  startup_gd32f10x_hd.o(.text)
    LVD_IRQHandler                           0x080068bf   Thumb Code     0  startup_gd32f10x_hd.o(.text)
    RCU_IRQHandler                           0x080068bf   Thumb Code     0  startup_gd32f10x_hd.o(.text)
    RTC_Alarm_IRQHandler                     0x080068bf   Thumb Code     0  startup_gd32f10x_hd.o(.text)
    RTC_IRQHandler                           0x080068bf   Thumb Code     0  startup_gd32f10x_hd.o(.text)
    SDIO_IRQHandler                          0x080068bf   Thumb Code     0  startup_gd32f10x_hd.o(.text)
    SPI0_IRQHandler                          0x080068bf   Thumb Code     0  startup_gd32f10x_hd.o(.text)
    SPI1_IRQHandler                          0x080068bf   Thumb Code     0  startup_gd32f10x_hd.o(.text)
    SPI2_IRQHandler                          0x080068bf   Thumb Code     0  startup_gd32f10x_hd.o(.text)
    TAMPER_IRQHandler                        0x080068bf   Thumb Code     0  startup_gd32f10x_hd.o(.text)
    TIMER0_BRK_IRQHandler                    0x080068bf   Thumb Code     0  startup_gd32f10x_hd.o(.text)
    TIMER0_Channel_IRQHandler                0x080068bf   Thumb Code     0  startup_gd32f10x_hd.o(.text)
    TIMER0_TRG_CMT_IRQHandler                0x080068bf   Thumb Code     0  startup_gd32f10x_hd.o(.text)
    TIMER1_IRQHandler                        0x080068bf   Thumb Code     0  startup_gd32f10x_hd.o(.text)
    TIMER2_IRQHandler                        0x080068bf   Thumb Code     0  startup_gd32f10x_hd.o(.text)
    TIMER4_IRQHandler                        0x080068bf   Thumb Code     0  startup_gd32f10x_hd.o(.text)
    TIMER5_IRQHandler                        0x080068bf   Thumb Code     0  startup_gd32f10x_hd.o(.text)
    TIMER6_IRQHandler                        0x080068bf   Thumb Code     0  startup_gd32f10x_hd.o(.text)
    TIMER7_BRK_IRQHandler                    0x080068bf   Thumb Code     0  startup_gd32f10x_hd.o(.text)
    TIMER7_Channel_IRQHandler                0x080068bf   Thumb Code     0  startup_gd32f10x_hd.o(.text)
    TIMER7_TRG_CMT_IRQHandler                0x080068bf   Thumb Code     0  startup_gd32f10x_hd.o(.text)
    TIMER7_UP_IRQHandler                     0x080068bf   Thumb Code     0  startup_gd32f10x_hd.o(.text)
    UART3_IRQHandler                         0x080068bf   Thumb Code     0  startup_gd32f10x_hd.o(.text)
    UART4_IRQHandler                         0x080068bf   Thumb Code     0  startup_gd32f10x_hd.o(.text)
    USART0_IRQHandler                        0x080068bf   Thumb Code     0  startup_gd32f10x_hd.o(.text)
    USART1_IRQHandler                        0x080068bf   Thumb Code     0  startup_gd32f10x_hd.o(.text)
    USART2_IRQHandler                        0x080068bf   Thumb Code     0  startup_gd32f10x_hd.o(.text)
    USBD_HP_CAN0_TX_IRQHandler               0x080068bf   Thumb Code     0  startup_gd32f10x_hd.o(.text)
    USBD_LP_CAN0_RX0_IRQHandler              0x080068bf   Thumb Code     0  startup_gd32f10x_hd.o(.text)
    USBD_WKUP_IRQHandler                     0x080068bf   Thumb Code     0  startup_gd32f10x_hd.o(.text)
    WWDGT_IRQHandler                         0x080068bf   Thumb Code     0  startup_gd32f10x_hd.o(.text)
    SystemInit                               0x080068c9   Thumb Code   266  system_gd32f10x.o(.text)
    SystemCoreClockUpdate                    0x080069d5   Thumb Code    90  system_gd32f10x.o(.text)
    __aeabi_memcpy                           0x08006a2f   Thumb Code    36  memcpya.o(.text)
    __aeabi_memcpy4                          0x08006a2f   Thumb Code     0  memcpya.o(.text)
    __aeabi_memcpy8                          0x08006a2f   Thumb Code     0  memcpya.o(.text)
    __aeabi_memset                           0x08006a53   Thumb Code    14  memseta.o(.text)
    __aeabi_memset4                          0x08006a53   Thumb Code     0  memseta.o(.text)
    __aeabi_memset8                          0x08006a53   Thumb Code     0  memseta.o(.text)
    __aeabi_memclr                           0x08006a61   Thumb Code     4  memseta.o(.text)
    __aeabi_memclr4                          0x08006a61   Thumb Code     0  memseta.o(.text)
    __aeabi_memclr8                          0x08006a61   Thumb Code     0  memseta.o(.text)
    _memset$wrapper                          0x08006a65   Thumb Code    18  memseta.o(.text)
    strlen                                   0x08006a77   Thumb Code    14  strlen.o(.text)
    __aeabi_fadd                             0x08006a85   Thumb Code   164  fadd.o(.text)
    __aeabi_fsub                             0x08006b29   Thumb Code     6  fadd.o(.text)
    __aeabi_frsub                            0x08006b2f   Thumb Code     6  fadd.o(.text)
    __aeabi_fdiv                             0x08006b35   Thumb Code   124  fdiv.o(.text)
    __aeabi_dadd                             0x08006bb1   Thumb Code   322  dadd.o(.text)
    __aeabi_dsub                             0x08006cf3   Thumb Code     6  dadd.o(.text)
    __aeabi_drsub                            0x08006cf9   Thumb Code     6  dadd.o(.text)
    __aeabi_dmul                             0x08006cff   Thumb Code   228  dmul.o(.text)
    __aeabi_ddiv                             0x08006de3   Thumb Code   222  ddiv.o(.text)
    __aeabi_fcmple                           0x08006ec1   Thumb Code    28  fcmple.o(.text)
    __aeabi_fcmpge                           0x08006edd   Thumb Code    28  fcmpge.o(.text)
    __aeabi_fcmpgt                           0x08006ef9   Thumb Code    28  fcmpgt.o(.text)
    __aeabi_fcmpeq                           0x08006f15   Thumb Code    28  fcmpeq.o(.text)
    __aeabi_ui2f                             0x08006f31   Thumb Code    10  ffltui.o(.text)
    __aeabi_i2d                              0x08006f3b   Thumb Code    34  dflti.o(.text)
    __aeabi_ui2d                             0x08006f5d   Thumb Code    26  dfltui.o(.text)
    __aeabi_f2iz                             0x08006f77   Thumb Code    50  ffixi.o(.text)
    __aeabi_d2iz                             0x08006fa9   Thumb Code    62  dfixi.o(.text)
    __aeabi_f2d                              0x08006fe7   Thumb Code    38  f2d.o(.text)
    __aeabi_d2f                              0x0800700d   Thumb Code    56  d2f.o(.text)
    __aeabi_uidiv                            0x08007045   Thumb Code     0  uidiv.o(.text)
    __aeabi_uidivmod                         0x08007045   Thumb Code    44  uidiv.o(.text)
    __aeabi_uldivmod                         0x08007071   Thumb Code    98  uldiv.o(.text)
    __aeabi_llsl                             0x080070d3   Thumb Code    30  llshl.o(.text)
    _ll_shift_l                              0x080070d3   Thumb Code     0  llshl.o(.text)
    __aeabi_llsr                             0x080070f1   Thumb Code    32  llushr.o(.text)
    _ll_ushift_r                             0x080070f1   Thumb Code     0  llushr.o(.text)
    __aeabi_lasr                             0x08007111   Thumb Code    36  llsshr.o(.text)
    _ll_sshift_r                             0x08007111   Thumb Code     0  llsshr.o(.text)
    __I$use$fp                               0x08007135   Thumb Code     0  iusefp.o(.text)
    _float_round                             0x08007135   Thumb Code    18  fepilogue.o(.text)
    _float_epilogue                          0x08007147   Thumb Code    92  fepilogue.o(.text)
    _double_round                            0x080071a3   Thumb Code    30  depilogue.o(.text)
    _double_epilogue                         0x080071c1   Thumb Code   156  depilogue.o(.text)
    __aeabi_d2ulz                            0x0800725d   Thumb Code    48  dfixul.o(.text)
    __aeabi_cdrcmple                         0x0800728d   Thumb Code    48  cdrcmple.o(.text)
    __scatterload                            0x080072bd   Thumb Code    38  init.o(.text)
    __scatterload_rt2                        0x080072bd   Thumb Code     0  init.o(.text)
    __decompress                             0x080072ed   Thumb Code     0  __dczerorl2.o(.text)
    __decompress1                            0x080072ed   Thumb Code    86  __dczerorl2.o(.text)
    __0sprintf                               0x08007345   Thumb Code    34  printfa.o(i.__0sprintf)
    __1sprintf                               0x08007345   Thumb Code     0  printfa.o(i.__0sprintf)
    __2sprintf                               0x08007345   Thumb Code     0  printfa.o(i.__0sprintf)
    __c89sprintf                             0x08007345   Thumb Code     0  printfa.o(i.__0sprintf)
    sprintf                                  0x08007345   Thumb Code     0  printfa.o(i.__0sprintf)
    __scatterload_copy                       0x0800736d   Thumb Code    14  handlers.o(i.__scatterload_copy)
    __scatterload_null                       0x0800737b   Thumb Code     2  handlers.o(i.__scatterload_null)
    __scatterload_zeroinit                   0x0800737d   Thumb Code    14  handlers.o(i.__scatterload_zeroinit)
    hall_to_pos                              0x08007c5c   Data           8  bldc.o(.rodata.hall_to_pos)
    Region$$Table$$Base                      0x080080f8   Number         0  anon$$obj.o(Region$$Table)
    Region$$Table$$Limit                     0x08008118   Number         0  anon$$obj.o(Region$$Table)
    HALL_A                                   0x20000000   Data           4  remoteautodetect.o(.data.HALL_A)
    HALL_B                                   0x20000004   Data           4  remoteautodetect.o(.data.HALL_B)
    HALL_C                                   0x20000008   Data           4  remoteautodetect.o(.data.HALL_C)
    SystemCoreClock                          0x2000000c   Data           4  system_gd32f10x.o(.data.SystemCoreClock)
    aHallOrder                               0x20000010   Data          18  remoteautodetect.o(.data.aHallOrder)
    aoPin                                    0x20000022   Data         319  remoteautodetect.o(.data.aoPin)
    asScan                                   0x20000164   Data          72  remoteautodetect.o(.data.asScan)
    asStage                                  0x200001ac   Data          90  remoteautodetect.o(.data.asStage)
    bHallOld                                 0x20000206   Data           1  remoteautodetect.o(.data.bHallOld)
    cRxLast                                  0x20000207   Data           1  remoteautodetect.o(.data.cRxLast)
    currentDC                                0x20000208   Data           4  bldc.o(.data.currentDC)
    fVBattFound                              0x2000020c   Data           4  remoteautodetect.o(.data.fVBattFound)
    iAverageMax                              0x20000210   Data           2  remoteautodetect.o(.data.iAverageMax)
    iFILTER_SHIFT                            0x20000212   Data           1  bldc.o(.data.iFILTER_SHIFT)
    iHoldAutofind                            0x20000214   Data           2  remoteautodetect.o(.data.iHoldAutofind)
    iTestStart                               0x20000216   Data           1  remoteautodetect.o(.data.iTestStart)
    iVBatMinTest                             0x20000218   Data           2  remoteautodetect.o(.data.iVBatMinTest)
    oDataHeader                              0x2000021a   Data           2  remoteautodetect.o(.data.oDataHeader)
    posAuto                                  0x2000021c   Data           1  remoteautodetect.o(.data.posAuto)
    sTodoPin                                 0x20000220   Data           4  remoteautodetect.o(.data.sTodoPin)
    wMenuStage                               0x20000224   Data           2  remoteautodetect.o(.data.wMenuStage)
    wStage                                   0x20000226   Data           2  remoteautodetect.o(.data.wStage)
    wStageOld                                0x20000228   Data           2  remoteautodetect.o(.data.wStageOld)
    aBufferData                              0x20000230   Data          74  remoteautodetect.o(.bss.aBufferData)
    adc_buffer                               0x2000027a   Data           4  bldc.o(.bss.adc_buffer)
    aiPinScan                                0x20000280   Data          72  remoteautodetect.o(.bss.aiPinScan)
    bCurrentManualMode                       0x200002c8   Data           1  remoteautodetect.o(.bss.bCurrentManualMode)
    bMessageWait                             0x200002c9   Data           1  remoteautodetect.o(.bss.bMessageWait)
    bReturnToMenu                            0x200002ca   Data           1  remoteautodetect.o(.bss.bReturnToMenu)
    bWait4Enter                              0x200002cb   Data           1  remoteautodetect.o(.bss.bWait4Enter)
    bldc_enable                              0x200002cc   Data           1  bldc.o(.bss.bldc_enable)
    bldc_inputFilterPwm                      0x200002ce   Data           2  bldc.o(.bss.bldc_inputFilterPwm)
    bldc_outputFilterPwm                     0x200002d0   Data           2  bldc.o(.bss.bldc_outputFilterPwm)
    buzzerTimer                              0x200002d2   Data           2  bldc.o(.bss.buzzerTimer)
    cCommand                                 0x200002d4   Data           1  remoteautodetect.o(.bss.cCommand)
    dma_init_struct_adc                      0x200002d8   Data          28  setup.o(.bss.dma_init_struct_adc)
    dma_init_struct_usart                    0x200002f4   Data          28  setup.o(.bss.dma_init_struct_usart)
    fCurrentDC                               0x20000310   Data           4  remoteautodetect.o(.bss.fCurrentDC)
    fVBatt                                   0x20000314   Data           4  remoteautodetect.o(.bss.fVBatt)
    fVBattOld                                0x20000318   Data           4  remoteautodetect.o(.bss.fVBattOld)
    filter_reg                               0x2000031c   Data           4  bldc.o(.bss.filter_reg)
    hall                                     0x20000320   Data           1  bldc.o(.bss.hall)
    hall_a                                   0x20000321   Data           1  bldc.o(.bss.hall_a)
    hall_b                                   0x20000322   Data           1  bldc.o(.bss.hall_b)
    hall_c                                   0x20000323   Data           1  bldc.o(.bss.hall_c)
    iAdcCounter                              0x20000324   Data           4  it.o(.bss.iAdcCounter)
    iAdcTicks                                0x20000328   Data           4  it.o(.bss.iAdcTicks)
    iAdcTicks0                               0x2000032c   Data           4  it.o(.bss.iAdcTicks0)
    iAverage                                 0x20000330   Data           2  remoteautodetect.o(.bss.iAverage)
    iBufferData                              0x20000332   Data           1  remoteautodetect.o(.bss.iBufferData)
    iBug                                     0x20000334   Data           4  main.o(.bss.iBug)
    iBug2                                    0x20000338   Data           4  remoteautodetect.o(.bss.iBug2)
    iCounter2Usart0                          0x2000033c   Data           4  it.o(.bss.iCounter2Usart0)
    iCounterUsart0                           0x20000340   Data           4  it.o(.bss.iCounterUsart0)
    iOdom                                    0x20000344   Data           4  bldc.o(.bss.iOdom)
    iOffsetDC                                0x20000348   Data           2  remoteautodetect.o(.bss.iOffsetDC)
    iPhaseCurrent                            0x2000034a   Data           1  remoteautodetect.o(.bss.iPhaseCurrent)
    iPwmCounter                              0x2000034c   Data           4  it.o(.bss.iPwmCounter)
    iPwmTicks                                0x20000350   Data           4  it.o(.bss.iPwmTicks)
    iPwmTicks0                               0x20000354   Data           4  it.o(.bss.iPwmTicks0)
    iRepeat                                  0x20000358   Data           1  remoteautodetect.o(.bss.iRepeat)
    iTest                                    0x20000359   Data           1  remoteautodetect.o(.bss.iTest)
    iTestPin                                 0x2000035a   Data           1  remoteautodetect.o(.bss.iTestPin)
    iTimeNextLoop                            0x2000035c   Data           4  main.o(.bss.iTimeNextLoop)
    lastPos                                  0x20000360   Data           1  bldc.o(.bss.lastPos)
    msTicks                                  0x20000364   Data           4  it.o(.bss.msTicks)
    msTicksAuto                              0x20000368   Data           4  remoteautodetect.o(.bss.msTicksAuto)
    msTicksOld                               0x2000036c   Data           4  remoteautodetect.o(.bss.msTicksOld)
    msTicksTest                              0x20000370   Data           4  remoteautodetect.o(.bss.msTicksTest)
    msTicksTestNext                          0x20000374   Data           4  remoteautodetect.o(.bss.msTicksTestNext)
    msTicksWait                              0x20000378   Data           4  remoteautodetect.o(.bss.msTicksWait)
    oConfig                                  0x2000037c   Data          18  setup.o(.bss.oConfig)
    oHeaderRx                                0x2000038e   Data           2  remoteautodetect.o(.bss.oHeaderRx)
    pos                                      0x20000390   Data           1  bldc.o(.bss.pos)
    posOld                                   0x20000391   Data           1  remoteautodetect.o(.bss.posOld)
    realSpeed                                0x20000394   Data           4  bldc.o(.bss.realSpeed)
    sMessage                                 0x20000398   Data         512  remoteautodetect.o(.bss.sMessage)
    speed                                    0x20000598   Data           4  main.o(.bss.speed)
    speedCounter                             0x2000059c   Data           4  bldc.o(.bss.speedCounter)
    steer                                    0x200005a0   Data           4  main.o(.bss.steer)
    steerCounter                             0x200005a4   Data           4  main.o(.bss.steerCounter)
    timedOut                                 0x200005a8   Data           1  it.o(.bss.timedOut)
    timeoutCounter_ms                        0x200005ac   Data           4  it.o(.bss.timeoutCounter_ms)
    timeoutTimer_paramter_struct             0x200005b0   Data          16  setup.o(.bss.timeoutTimer_paramter_struct)
    timerBldc_break_parameter_struct         0x200005c0   Data          14  setup.o(.bss.timerBldc_break_parameter_struct)
    timerBldc_oc_parameter_struct            0x200005ce   Data          12  setup.o(.bss.timerBldc_oc_parameter_struct)
    timerBldc_paramter_struct                0x200005dc   Data          16  setup.o(.bss.timerBldc_paramter_struct)
    usart0_rx_buf                            0x200005ec   Data           1  setup.o(.bss.usart0_rx_buf)
    __initial_sp                             0x200025f0   Data           0  startup_gd32f10x_hd.o(STACK)



==============================================================================

Memory Map of the image

  Image Entry point : 0x08000131

  Load Region LR_IROM1 (Base: 0x08000000, Size: 0x00008348, Max: 0x00010000, ABSOLUTE, COMPRESSED[0x00008278])

    Execution Region ER_IROM1 (Exec base: 0x08000000, Load base: 0x08000000, Size: 0x00008118, Max: 0x00010000, ABSOLUTE)

    Exec Addr    Load Addr    Size         Type   Attr      Idx    E Section Name        Object

    0x08000000   0x08000000   0x00000130   Data   RO          292    RESET               startup_gd32f10x_hd.o
    0x08000130   0x08000130   0x00000000   Code   RO          308  * .ARM.Collect$$$$00000000  mc_w.l(entry.o)
    0x08000130   0x08000130   0x00000004   Code   RO          612    .ARM.Collect$$$$00000001  mc_w.l(entry2.o)
    0x08000134   0x08000134   0x00000004   Code   RO          615    .ARM.Collect$$$$00000004  mc_w.l(entry5.o)
    0x08000138   0x08000138   0x00000000   Code   RO          617    .ARM.Collect$$$$00000008  mc_w.l(entry7b.o)
    0x08000138   0x08000138   0x00000000   Code   RO          619    .ARM.Collect$$$$0000000A  mc_w.l(entry8b.o)
    0x08000138   0x08000138   0x00000008   Code   RO          620    .ARM.Collect$$$$0000000B  mc_w.l(entry9a.o)
    0x08000140   0x08000140   0x00000000   Code   RO          622    .ARM.Collect$$$$0000000D  mc_w.l(entry10a.o)
    0x08000140   0x08000140   0x00000000   Code   RO          624    .ARM.Collect$$$$0000000F  mc_w.l(entry11a.o)
    0x08000140   0x08000140   0x00000004   Code   RO          613    .ARM.Collect$$$$00002712  mc_w.l(entry2.o)
    0x08000144   0x08000144   0x000000de   Code   RO            1    .text               main.o
    0x08000222   0x08000222   0x00000002   PAD
    0x08000224   0x08000224   0x000003e8   Code   RO           24    .text               bldc.o
    0x0800060c   0x0800060c   0x0000006e   Code   RO           55    .text               bldcbc.o
    0x0800067a   0x0800067a   0x00000002   PAD
    0x0800067c   0x0800067c   0x000007da   Code   RO           64    .text               setup.o
    0x08000e56   0x08000e56   0x00000002   PAD
    0x08000e58   0x08000e58   0x000001ba   Code   RO           83    .text               it.o
    0x08001012   0x08001012   0x00000002   PAD
    0x08001014   0x08001014   0x0000007c   Code   RO          105    .text               comms.o
    0x08001090   0x08001090   0x00002498   Code   RO          125    .text               remoteautodetect.o
    0x08003528   0x08003528   0x00000490   Code   RO          183    .text               gd32f10x_adc.o
    0x080039b8   0x080039b8   0x00000402   Code   RO          191    .text               gd32f10x_dma.o
    0x08003dba   0x08003dba   0x00000002   PAD
    0x08003dbc   0x08003dbc   0x00001034   Code   RO          207    .text               gd32f10x_fmc.o
    0x08004df0   0x08004df0   0x000000b6   Code   RO          216    .text               gd32f10x_fwdgt.o
    0x08004ea6   0x08004ea6   0x00000002   PAD
    0x08004ea8   0x08004ea8   0x0000027c   Code   RO          224    .text               gd32f10x_gpio.o
    0x08005124   0x08005124   0x000000e8   Code   RO          240    .text               gd32f10x_misc.o
    0x0800520c   0x0800520c   0x000005d8   Code   RO          256    .text               gd32f10x_rcu.o
    0x080057e4   0x080057e4   0x00000d56   Code   RO          265    .text               gd32f10x_timer.o
    0x0800653a   0x0800653a   0x00000002   PAD
    0x0800653c   0x0800653c   0x00000368   Code   RO          274    .text               gd32f10x_usart.o
    0x080068a4   0x080068a4   0x00000024   Code   RO          293    .text               startup_gd32f10x_hd.o
    0x080068c8   0x080068c8   0x00000166   Code   RO          299    .text               system_gd32f10x.o
    0x08006a2e   0x08006a2e   0x00000024   Code   RO          311    .text               mc_w.l(memcpya.o)
    0x08006a52   0x08006a52   0x00000024   Code   RO          313    .text               mc_w.l(memseta.o)
    0x08006a76   0x08006a76   0x0000000e   Code   RO          315    .text               mc_w.l(strlen.o)
    0x08006a84   0x08006a84   0x000000b0   Code   RO          580    .text               mf_w.l(fadd.o)
    0x08006b34   0x08006b34   0x0000007c   Code   RO          582    .text               mf_w.l(fdiv.o)
    0x08006bb0   0x08006bb0   0x0000014e   Code   RO          584    .text               mf_w.l(dadd.o)
    0x08006cfe   0x08006cfe   0x000000e4   Code   RO          586    .text               mf_w.l(dmul.o)
    0x08006de2   0x08006de2   0x000000de   Code   RO          588    .text               mf_w.l(ddiv.o)
    0x08006ec0   0x08006ec0   0x0000001c   Code   RO          590    .text               mf_w.l(fcmple.o)
    0x08006edc   0x08006edc   0x0000001c   Code   RO          592    .text               mf_w.l(fcmpge.o)
    0x08006ef8   0x08006ef8   0x0000001c   Code   RO          594    .text               mf_w.l(fcmpgt.o)
    0x08006f14   0x08006f14   0x0000001c   Code   RO          596    .text               mf_w.l(fcmpeq.o)
    0x08006f30   0x08006f30   0x0000000a   Code   RO          598    .text               mf_w.l(ffltui.o)
    0x08006f3a   0x08006f3a   0x00000022   Code   RO          600    .text               mf_w.l(dflti.o)
    0x08006f5c   0x08006f5c   0x0000001a   Code   RO          602    .text               mf_w.l(dfltui.o)
    0x08006f76   0x08006f76   0x00000032   Code   RO          604    .text               mf_w.l(ffixi.o)
    0x08006fa8   0x08006fa8   0x0000003e   Code   RO          606    .text               mf_w.l(dfixi.o)
    0x08006fe6   0x08006fe6   0x00000026   Code   RO          608    .text               mf_w.l(f2d.o)
    0x0800700c   0x0800700c   0x00000038   Code   RO          610    .text               mf_w.l(d2f.o)
    0x08007044   0x08007044   0x0000002c   Code   RO          640    .text               mc_w.l(uidiv.o)
    0x08007070   0x08007070   0x00000062   Code   RO          642    .text               mc_w.l(uldiv.o)
    0x080070d2   0x080070d2   0x0000001e   Code   RO          644    .text               mc_w.l(llshl.o)
    0x080070f0   0x080070f0   0x00000020   Code   RO          646    .text               mc_w.l(llushr.o)
    0x08007110   0x08007110   0x00000024   Code   RO          648    .text               mc_w.l(llsshr.o)
    0x08007134   0x08007134   0x00000000   Code   RO          650    .text               mc_w.l(iusefp.o)
    0x08007134   0x08007134   0x0000006e   Code   RO          651    .text               mf_w.l(fepilogue.o)
    0x080071a2   0x080071a2   0x000000ba   Code   RO          653    .text               mf_w.l(depilogue.o)
    0x0800725c   0x0800725c   0x00000030   Code   RO          655    .text               mf_w.l(dfixul.o)
    0x0800728c   0x0800728c   0x00000030   Code   RO          657    .text               mf_w.l(cdrcmple.o)
    0x080072bc   0x080072bc   0x00000030   Code   RO          659    .text               mc_w.l(init.o)
    0x080072ec   0x080072ec   0x00000056   Code   RO          671    .text               mc_w.l(__dczerorl2.o)
    0x08007342   0x08007342   0x00000002   PAD
    0x08007344   0x08007344   0x00000028   Code   RO          554    i.__0sprintf        mc_w.l(printfa.o)
    0x0800736c   0x0800736c   0x0000000e   Code   RO          665    i.__scatterload_copy  mc_w.l(handlers.o)
    0x0800737a   0x0800737a   0x00000002   Code   RO          666    i.__scatterload_null  mc_w.l(handlers.o)
    0x0800737c   0x0800737c   0x0000000e   Code   RO          667    i.__scatterload_zeroinit  mc_w.l(handlers.o)
    0x0800738a   0x0800738a   0x00000002   PAD
    0x0800738c   0x0800738c   0x00000184   Code   RO          559    i._fp_digits        mc_w.l(printfa.o)
    0x08007510   0x08007510   0x000006dc   Code   RO          560    i._printf_core      mc_w.l(printfa.o)
    0x08007bec   0x08007bec   0x00000024   Code   RO          561    i._printf_post_padding  mc_w.l(printfa.o)
    0x08007c10   0x08007c10   0x0000002e   Code   RO          562    i._printf_pre_padding  mc_w.l(printfa.o)
    0x08007c3e   0x08007c3e   0x0000000a   Code   RO          564    i._sputc            mc_w.l(printfa.o)
    0x08007c48   0x08007c48   0x0000000c   Data   RO           39    .rodata..L__const.up_or_down.up_down  bldc.o
    0x08007c54   0x08007c54   0x00000008   Data   RO          258    .rodata.cst8        gd32f10x_rcu.o
    0x08007c5c   0x08007c5c   0x00000008   Data   RO           40    .rodata.hall_to_pos  bldc.o
    0x08007c64   0x08007c64   0x00000305   Data   RO          130    .rodata.str1.1      remoteautodetect.o
    0x08007f69   0x08007f69   0x00000003   PAD
    0x08007f6c   0x08007f6c   0x0000018a   Data   RO          167    .rodata.str1.4      remoteautodetect.o
    0x080080f6   0x080080f6   0x00000002   PAD
    0x080080f8   0x080080f8   0x00000020   Data   RO          664    Region$$Table       anon$$obj.o


    Execution Region RW_IRAM1 (Exec base: 0x20000000, Load base: 0x08008118, Size: 0x000025f0, Max: 0x00005000, ABSOLUTE, COMPRESSED[0x00000160])

    Exec Addr    Load Addr    Size         Type   Attr      Idx    E Section Name        Object

    0x20000000   COMPRESSED   0x00000004   Data   RW          144    .data.HALL_A        remoteautodetect.o
    0x20000004   COMPRESSED   0x00000004   Data   RW          145    .data.HALL_B        remoteautodetect.o
    0x20000008   COMPRESSED   0x00000004   Data   RW          146    .data.HALL_C        remoteautodetect.o
    0x2000000c   COMPRESSED   0x00000004   Data   RW          301    .data.SystemCoreClock  system_gd32f10x.o
    0x20000010   COMPRESSED   0x00000012   Data   RW          158    .data.aHallOrder    remoteautodetect.o
    0x20000022   COMPRESSED   0x0000013f   Data   RW          131    .data.aoPin         remoteautodetect.o
    0x20000161   COMPRESSED   0x00000003   PAD
    0x20000164   COMPRESSED   0x00000048   Data   RW          132    .data.asScan        remoteautodetect.o
    0x200001ac   COMPRESSED   0x0000005a   Data   RW          128    .data.asStage       remoteautodetect.o
    0x20000206   COMPRESSED   0x00000001   Data   RW          171    .data.bHallOld      remoteautodetect.o
    0x20000207   COMPRESSED   0x00000001   Data   RW          140    .data.cRxLast       remoteautodetect.o
    0x20000208   COMPRESSED   0x00000004   Data   RW           27    .data.currentDC     bldc.o
    0x2000020c   COMPRESSED   0x00000004   Data   RW          160    .data.fVBattFound   remoteautodetect.o
    0x20000210   COMPRESSED   0x00000002   Data   RW          154    .data.iAverageMax   remoteautodetect.o
    0x20000212   COMPRESSED   0x00000001   Data   RW           33    .data.iFILTER_SHIFT  bldc.o
    0x20000213   COMPRESSED   0x00000001   PAD
    0x20000214   COMPRESSED   0x00000002   Data   RW          161    .data.iHoldAutofind  remoteautodetect.o
    0x20000216   COMPRESSED   0x00000001   Data   RW          151    .data.iTestStart    remoteautodetect.o
    0x20000217   COMPRESSED   0x00000001   PAD
    0x20000218   COMPRESSED   0x00000002   Data   RW          159    .data.iVBatMinTest  remoteautodetect.o
    0x2000021a   COMPRESSED   0x00000002   Data   RW          137    .data.oDataHeader   remoteautodetect.o
    0x2000021c   COMPRESSED   0x00000001   Data   RW          173    .data.posAuto       remoteautodetect.o
    0x2000021d   COMPRESSED   0x00000003   PAD
    0x20000220   COMPRESSED   0x00000004   Data   RW          134    .data.sTodoPin      remoteautodetect.o
    0x20000224   COMPRESSED   0x00000002   Data   RW          129    .data.wMenuStage    remoteautodetect.o
    0x20000226   COMPRESSED   0x00000002   Data   RW          147    .data.wStage        remoteautodetect.o
    0x20000228   COMPRESSED   0x00000002   Data   RW          148    .data.wStageOld     remoteautodetect.o
    0x2000022a   COMPRESSED   0x00000006   PAD
    0x20000230        -       0x0000004a   Zero   RW          142    .bss.aBufferData    remoteautodetect.o
    0x2000027a        -       0x00000004   Zero   RW           47    .bss.adc_buffer     bldc.o
    0x2000027e   COMPRESSED   0x00000002   PAD
    0x20000280        -       0x00000048   Zero   RW          133    .bss.aiPinScan      remoteautodetect.o
    0x200002c8        -       0x00000001   Zero   RW          162    .bss.bCurrentManualMode  remoteautodetect.o
    0x200002c9        -       0x00000001   Zero   RW          135    .bss.bMessageWait   remoteautodetect.o
    0x200002ca        -       0x00000001   Zero   RW          157    .bss.bReturnToMenu  remoteautodetect.o
    0x200002cb        -       0x00000001   Zero   RW          165    .bss.bWait4Enter    remoteautodetect.o
    0x200002cc        -       0x00000001   Zero   RW           30    .bss.bldc_enable    bldc.o
    0x200002cd   COMPRESSED   0x00000001   PAD
    0x200002ce        -       0x00000002   Zero   RW           29    .bss.bldc_inputFilterPwm  bldc.o
    0x200002d0        -       0x00000002   Zero   RW           32    .bss.bldc_outputFilterPwm  bldc.o
    0x200002d2        -       0x00000002   Zero   RW           34    .bss.buzzerTimer    bldc.o
    0x200002d4        -       0x00000001   Zero   RW          139    .bss.cCommand       remoteautodetect.o
    0x200002d5   COMPRESSED   0x00000003   PAD
    0x200002d8        -       0x0000001c   Zero   RW           70    .bss.dma_init_struct_adc  setup.o
    0x200002f4        -       0x0000001c   Zero   RW           71    .bss.dma_init_struct_usart  setup.o
    0x20000310        -       0x00000004   Zero   RW          170    .bss.fCurrentDC     remoteautodetect.o
    0x20000314        -       0x00000004   Zero   RW          168    .bss.fVBatt         remoteautodetect.o
    0x20000318        -       0x00000004   Zero   RW          164    .bss.fVBattOld      remoteautodetect.o
    0x2000031c        -       0x00000004   Zero   RW           41    .bss.filter_reg     bldc.o
    0x20000320        -       0x00000001   Zero   RW           31    .bss.hall           bldc.o
    0x20000321        -       0x00000001   Zero   RW           42    .bss.hall_a         bldc.o
    0x20000322        -       0x00000001   Zero   RW           43    .bss.hall_b         bldc.o
    0x20000323        -       0x00000001   Zero   RW           44    .bss.hall_c         bldc.o
    0x20000324        -       0x00000004   Zero   RW           93    .bss.iAdcCounter    it.o
    0x20000328        -       0x00000004   Zero   RW           91    .bss.iAdcTicks      it.o
    0x2000032c        -       0x00000004   Zero   RW           92    .bss.iAdcTicks0     it.o
    0x20000330        -       0x00000002   Zero   RW          153    .bss.iAverage       remoteautodetect.o
    0x20000332        -       0x00000001   Zero   RW          141    .bss.iBufferData    remoteautodetect.o
    0x20000333   COMPRESSED   0x00000001   PAD
    0x20000334        -       0x00000004   Zero   RW            3    .bss.iBug           main.o
    0x20000338        -       0x00000004   Zero   RW          127    .bss.iBug2          remoteautodetect.o
    0x2000033c        -       0x00000004   Zero   RW           95    .bss.iCounter2Usart0  it.o
    0x20000340        -       0x00000004   Zero   RW           94    .bss.iCounterUsart0  it.o
    0x20000344        -       0x00000004   Zero   RW           38    .bss.iOdom          bldc.o
    0x20000348        -       0x00000002   Zero   RW          169    .bss.iOffsetDC      remoteautodetect.o
    0x2000034a        -       0x00000001   Zero   RW          155    .bss.iPhaseCurrent  remoteautodetect.o
    0x2000034b   COMPRESSED   0x00000001   PAD
    0x2000034c        -       0x00000004   Zero   RW           90    .bss.iPwmCounter    it.o
    0x20000350        -       0x00000004   Zero   RW           88    .bss.iPwmTicks      it.o
    0x20000354        -       0x00000004   Zero   RW           89    .bss.iPwmTicks0     it.o
    0x20000358        -       0x00000001   Zero   RW          152    .bss.iRepeat        remoteautodetect.o
    0x20000359        -       0x00000001   Zero   RW          149    .bss.iTest          remoteautodetect.o
    0x2000035a        -       0x00000001   Zero   RW          150    .bss.iTestPin       remoteautodetect.o
    0x2000035b   COMPRESSED   0x00000001   PAD
    0x2000035c        -       0x00000004   Zero   RW           16    .bss.iTimeNextLoop  main.o
    0x20000360        -       0x00000001   Zero   RW           46    .bss.lastPos        bldc.o
    0x20000361   COMPRESSED   0x00000003   PAD
    0x20000364        -       0x00000004   Zero   RW           87    .bss.msTicks        it.o
    0x20000368        -       0x00000004   Zero   RW          172    .bss.msTicksAuto    remoteautodetect.o
    0x2000036c        -       0x00000004   Zero   RW          175    .bss.msTicksOld     remoteautodetect.o
    0x20000370        -       0x00000004   Zero   RW          166    .bss.msTicksTest    remoteautodetect.o
    0x20000374        -       0x00000004   Zero   RW          163    .bss.msTicksTestNext  remoteautodetect.o
    0x20000378        -       0x00000004   Zero   RW          156    .bss.msTicksWait    remoteautodetect.o
    0x2000037c        -       0x00000012   Zero   RW           73    .bss.oConfig        setup.o
    0x2000038e        -       0x00000002   Zero   RW          143    .bss.oHeaderRx      remoteautodetect.o
    0x20000390        -       0x00000001   Zero   RW           45    .bss.pos            bldc.o
    0x20000391        -       0x00000001   Zero   RW          174    .bss.posOld         remoteautodetect.o
    0x20000392   COMPRESSED   0x00000002   PAD
    0x20000394        -       0x00000004   Zero   RW           28    .bss.realSpeed      bldc.o
    0x20000398        -       0x00000200   Zero   RW          136    .bss.sMessage       remoteautodetect.o
    0x20000598        -       0x00000004   Zero   RW            5    .bss.speed          main.o
    0x2000059c        -       0x00000004   Zero   RW           37    .bss.speedCounter   bldc.o
    0x200005a0        -       0x00000004   Zero   RW           10    .bss.steer          main.o
    0x200005a4        -       0x00000004   Zero   RW            4    .bss.steerCounter   main.o
    0x200005a8        -       0x00000001   Zero   RW           86    .bss.timedOut       it.o
    0x200005a9   COMPRESSED   0x00000003   PAD
    0x200005ac        -       0x00000004   Zero   RW           85    .bss.timeoutCounter_ms  it.o
    0x200005b0        -       0x00000010   Zero   RW           66    .bss.timeoutTimer_paramter_struct  setup.o
    0x200005c0        -       0x0000000e   Zero   RW           69    .bss.timerBldc_break_parameter_struct  setup.o
    0x200005ce        -       0x0000000c   Zero   RW           68    .bss.timerBldc_oc_parameter_struct  setup.o
    0x200005da   COMPRESSED   0x00000002   PAD
    0x200005dc        -       0x00000010   Zero   RW           67    .bss.timerBldc_paramter_struct  setup.o
    0x200005ec        -       0x00000001   Zero   RW           72    .bss.usart0_rx_buf  setup.o
    0x200005ed   COMPRESSED   0x00000003   PAD
    0x200005f0        -       0x00002000   Zero   RW          290    STACK               startup_gd32f10x_hd.o


==============================================================================

Image component sizes


      Code (inc. data)   RO Data    RW Data    ZI Data      Debug   Object Name

      1000          0         20          5         33       3625   bldc.o
       110          6          0          0          0        953   bldcbc.o
       124          0          0          0          0       1861   comms.o
      1168         12          0          0          0       8244   gd32f10x_adc.o
      1026          0          0          0          0       7161   gd32f10x_dma.o
      4148          0          0          0          0      20412   gd32f10x_fmc.o
       182          0          0          0          0       1773   gd32f10x_fwdgt.o
       636          0          0          0          0       5053   gd32f10x_gpio.o
       232          0          0          0          0       3268   gd32f10x_misc.o
      1496         20          8          0          0      11583   gd32f10x_rcu.o
      3414         40          0          0          0      18238   gd32f10x_timer.o
       872          0          0          0          0       8444   gd32f10x_usart.o
       442          0          0          0         41       2919   it.o
       222          0          0          0         20       4445   main.o
      9368        566       1167        537        711      17606   remoteautodetect.o
      2010          0          0          0        133       9099   setup.o
        36          8        304          0       8192        852   startup_gd32f10x_hd.o
       358          0          0          4          0       1467   system_gd32f10x.o

    ----------------------------------------------------------------------
     26858        652       1536        556       9156     127003   Object Totals
         0          0         32          0          0          0   (incl. Generated)
        14          0          5         10         26          0   (incl. Padding)

    ----------------------------------------------------------------------

      Code (inc. data)   RO Data    RW Data    ZI Data      Debug   Library Member Name

        86          0          0          0          0          0   __dczerorl2.o
         0          0          0          0          0          0   entry.o
         0          0          0          0          0          0   entry10a.o
         0          0          0          0          0          0   entry11a.o
         8          4          0          0          0          0   entry2.o
         4          0          0          0          0          0   entry5.o
         0          0          0          0          0          0   entry7b.o
         0          0          0          0          0          0   entry8b.o
         8          4          0          0          0          0   entry9a.o
        30          0          0          0          0          0   handlers.o
        48         10          0          0          0         68   init.o
         0          0          0          0          0          0   iusefp.o
        30          0          0          0          0         68   llshl.o
        36          0          0          0          0         68   llsshr.o
        32          0          0          0          0         68   llushr.o
        36          0          0          0          0         68   memcpya.o
        36          0          0          0          0        108   memseta.o
      2276         86          0          0          0        520   printfa.o
        14          0          0          0          0         68   strlen.o
        44          0          0          0          0         80   uidiv.o
        98          0          0          0          0         92   uldiv.o
        48          0          0          0          0         68   cdrcmple.o
        56          0          0          0          0         88   d2f.o
       334          0          0          0          0        148   dadd.o
       222          0          0          0          0        100   ddiv.o
       186          0          0          0          0        176   depilogue.o
        62          0          0          0          0         80   dfixi.o
        48          0          0          0          0         68   dfixul.o
        34          0          0          0          0         76   dflti.o
        26          0          0          0          0         76   dfltui.o
       228          0          0          0          0         96   dmul.o
        38          0          0          0          0         68   f2d.o
       176          0          0          0          0        140   fadd.o
        28          0          0          0          0         68   fcmpeq.o
        28          0          0          0          0         68   fcmpge.o
        28          0          0          0          0         68   fcmpgt.o
        28          0          0          0          0         68   fcmple.o
       124          0          0          0          0         88   fdiv.o
       110          0          0          0          0        168   fepilogue.o
        50          0          0          0          0         68   ffixi.o
        10          0          0          0          0         68   ffltui.o

    ----------------------------------------------------------------------
      4654        104          0          0          0       3056   Library Totals
         4          0          0          0          0          0   (incl. Padding)

    ----------------------------------------------------------------------

      Code (inc. data)   RO Data    RW Data    ZI Data      Debug   Library Name

      2786        104          0          0          0       1208   mc_w.l
      1864          0          0          0          0       1848   mf_w.l

    ----------------------------------------------------------------------
      4654        104          0          0          0       3056   Library Totals

    ----------------------------------------------------------------------

==============================================================================


      Code (inc. data)   RO Data    RW Data    ZI Data      Debug   

     31512        756       1536        556       9156     128307   Grand Totals
     31512        756       1536        352       9156     128307   ELF Image Totals (compressed)
     31512        756       1536        352          0          0   ROM Totals

==============================================================================

    Total RO  Size (Code + RO Data)                33048 (  32.27kB)
    Total RW  Size (RW Data + ZI Data)              9712 (   9.48kB)
    Total ROM Size (Code + RO Data + RW Data)      33400 (  32.62kB)

==============================================================================

