Component: Arm Compiler for Embedded 6.19 Tool: armlink [5e73cb00]

==============================================================================

Section Cross References

    main.o(.text) refers to main.o(.bss.iBug) for iBug
    main.o(.text) refers to setup.o(.text) for ConfigRead
    main.o(.text) refers to system_gd32f1x0.o(.text) for SystemCoreClockUpdate
    main.o(.text) refers to system_gd32f1x0.o(.data.SystemCoreClock) for SystemCoreClock
    main.o(.text) refers to gd32f1x0_gpio.o(.text) for gpio_bit_write
    main.o(.text) refers to bldcsine.o(.text) for InitBldc
    main.o(.text) refers to gd32f1x0_fwdgt.o(.text) for fwdgt_counter_reload
    main.o(.text) refers to bldc.o(.bss.buzzerFreq) for buzzerFreq
    main.o(.text) refers to it.o(.text) for Delay
    main.o(.text) refers to main.o(.bss.iTimeNextLoop) for iTimeNextLoop
    main.o(.text) refers to main.o(.bss.speedShutoff) for speedShutoff
    main.o(.text) refers to main.o(.data.wState) for wState
    main.o(.text) refers to main.o(.bss.enable) for enable
    main.o(.text) refers to bldc.o(.text) for SetEnable
    main.o(.text) refers to main.o(.bss.steerCounter) for steerCounter
    main.o(.text) refers to remotedummy.o(.text) for RemoteUpdate
    main.o(.text) refers to main.o(.bss.speed) for speed
    main.o(.text) refers to fflti.o(.text) for __aeabi_i2f
    main.o(.text) refers to f2d.o(.text) for __aeabi_f2d
    main.o(.text) refers to dmul.o(.text) for __aeabi_dmul
    main.o(.text) refers to ddiv.o(.text) for __aeabi_ddiv
    main.o(.text) refers to dadd.o(.text) for __aeabi_dadd
    main.o(.text) refers to d2f.o(.text) for __aeabi_d2f
    main.o(.text) refers to main.o(.data.speedLimit) for speedLimit
    main.o(.text) refers to main.o(.bss.steer) for steer
    main.o(.text) refers to fmul.o(.text) for __aeabi_fmul
    main.o(.text) refers to ffixi.o(.text) for __aeabi_f2iz
    main.o(.text) refers to fadd.o(.text) for __aeabi_fsub
    main.o(.text) refers to fdiv.o(.text) for __aeabi_fdiv
    main.o(.text) refers to main.o(.rodata.lookUpTableAngle) for lookUpTableAngle
    main.o(.text) refers to fcmplt.o(.text) for __aeabi_fcmplt
    main.o(.text) refers to main.o(.bss.pwmSlave) for pwmSlave
    main.o(.text) refers to bldc.o(.data.batteryVoltage) for batteryVoltage
    main.o(.text) refers to fcmple.o(.text) for __aeabi_fcmple
    main.o(.text) refers to main.o(.data.beepsBackwards) for beepsBackwards
    main.o(.text) refers to dcmple.o(.text) for __aeabi_dcmple
    main.o(.text) refers to bldc.o(.bss.buzzerPattern) for buzzerPattern
    main.o(.text) refers to main.o(.bss.inactivity_timeout_counter) for inactivity_timeout_counter
    main.o(.ARM.exidx) refers to main.o(.text) for [Anonymous Symbol]
    bldc.o(.text) refers to bldc.o(.rodata..L__const.up_or_down.up_down) for .L__const.up_or_down.up_down
    bldc.o(.text) refers to bldc.o(.bss.bldc_enable) for bldc_enable
    bldc.o(.text) refers to dflti.o(.text) for __aeabi_i2d
    bldc.o(.text) refers to ddiv.o(.text) for __aeabi_ddiv
    bldc.o(.text) refers to dmul.o(.text) for __aeabi_dmul
    bldc.o(.text) refers to dfixi.o(.text) for __aeabi_d2iz
    bldc.o(.text) refers to bldc.o(.bss.bldc_inputFilterPwm) for bldc_inputFilterPwm
    bldc.o(.text) refers to bldc.o(.data.iFILTER_SHIFT) for iFILTER_SHIFT
    bldc.o(.text) refers to bldc.o(.bss.bldc_outputFilterPwm) for bldc_outputFilterPwm
    bldc.o(.text) refers to bldc.o(.bss.filter_reg) for filter_reg
    bldc.o(.text) refers to bldc.o(.bss.offsetcount) for offsetcount
    bldc.o(.text) refers to bldc.o(.bss.adc_buffer) for adc_buffer
    bldc.o(.text) refers to bldc.o(.data.offsetdc) for offsetdc
    bldc.o(.text) refers to bldc.o(.bss.buzzerTimer) for buzzerTimer
    bldc.o(.text) refers to bldc.o(.data.batteryVoltage) for batteryVoltage
    bldc.o(.text) refers to f2d.o(.text) for __aeabi_f2d
    bldc.o(.text) refers to dfltui.o(.text) for __aeabi_ui2d
    bldc.o(.text) refers to dadd.o(.text) for __aeabi_dadd
    bldc.o(.text) refers to d2f.o(.text) for __aeabi_d2f
    bldc.o(.text) refers to main.o(.bss.iBug) for iBug
    bldc.o(.text) refers to bldc.o(.bss.buzzerFreq) for buzzerFreq
    bldc.o(.text) refers to bldc.o(.bss.buzzerPattern) for buzzerPattern
    bldc.o(.text) refers to gd32f1x0_gpio.o(.text) for gpio_bit_write
    bldc.o(.text) refers to bldc.o(.data.currentDC) for currentDC
    bldc.o(.text) refers to fcmpgt.o(.text) for __aeabi_fcmpgt
    bldc.o(.text) refers to it.o(.bss.timedOut) for timedOut
    bldc.o(.text) refers to gd32f1x0_timer.o(.text) for timer_automatic_output_enable
    bldc.o(.text) refers to bldc.o(.bss.hall_a) for hall_a
    bldc.o(.text) refers to bldc.o(.bss.hall_b) for hall_b
    bldc.o(.text) refers to bldc.o(.bss.hall_c) for hall_c
    bldc.o(.text) refers to bldc.o(.bss.hall) for hall
    bldc.o(.text) refers to bldc.o(.rodata.hall_to_pos) for hall_to_pos
    bldc.o(.text) refers to bldc.o(.bss.pos) for pos
    bldc.o(.text) refers to bldcsine.o(.text) for bldc_get_pwm
    bldc.o(.text) refers to bldc.o(.bss.lastPos) for lastPos
    bldc.o(.text) refers to bldc.o(.bss.iOdom) for iOdom
    bldc.o(.text) refers to bldc.o(.bss.speedCounter) for speedCounter
    bldc.o(.text) refers to ffltui.o(.text) for __aeabi_ui2f
    bldc.o(.text) refers to fdiv.o(.text) for __aeabi_fdiv
    bldc.o(.text) refers to bldc.o(.bss.realSpeed) for realSpeed
    bldc.o(.text) refers to bldc.o(.bss.buzzerToggle) for buzzerToggle
    bldc.o(.ARM.exidx) refers to bldc.o(.text) for [Anonymous Symbol]
    bldcsine.o(.text) refers to gd32f1x0_syscfg.o(.text) for syscfg_exti_line_config
    bldcsine.o(.text) refers to gd32f1x0_exti.o(.text) for exti_init
    bldcsine.o(.text) refers to gd32f1x0_misc.o(.text) for nvic_irq_enable
    bldcsine.o(.text) refers to gd32f1x0_rcu.o(.text) for rcu_periph_clock_enable
    bldcsine.o(.text) refers to bldcsine.o(.bss.aHallEXTI) for aHallEXTI
    bldcsine.o(.text) refers to bldc.o(.bss.buzzerTimer) for buzzerTimer
    bldcsine.o(.text) refers to bldcsine.o(.bss.hall_time_last) for hall_time_last
    bldcsine.o(.text) refers to bldcsine.o(.bss.hall_time_step) for hall_time_step
    bldcsine.o(.text) refers to bldc.o(.bss.hall) for hall
    bldcsine.o(.text) refers to bldcsine.o(.bss.hall_last) for hall_last
    bldcsine.o(.text) refers to bldcsine.o(.bss.bInterrupt) for bInterrupt
    bldcsine.o(.text) refers to gd32f1x0_gpio.o(.text) for gpio_input_bit_get
    bldcsine.o(.text) refers to bldcsine.o(.bss.pwmGo) for pwmGo
    bldcsine.o(.text) refers to bldcsine.o(.rodata.cst8) for hall_to_sector
    bldcsine.o(.text) refers to bldcsine.o(.bss.sector) for sector
    bldcsine.o(.text) refers to bldcsine.o(.bss.sector10x) for sector10x
    bldcsine.o(.text) refers to fflti.o(.text) for __aeabi_i2f
    bldcsine.o(.text) refers to fmul.o(.text) for __aeabi_fmul
    bldcsine.o(.text) refers to bldcsine.o(.bss.angle_deg) for angle_deg
    bldcsine.o(.text) refers to bldcsine.o(.bss.angle_deg_add) for angle_deg_add
    bldcsine.o(.text) refers to bldcsine.o(.bss.sectorChange) for sectorChange
    bldcsine.o(.text) refers to ffltui.o(.text) for __aeabi_ui2f
    bldcsine.o(.text) refers to fdiv.o(.text) for __aeabi_fdiv
    bldcsine.o(.text) refers to bldcsine.o(.bss.fDT) for fDT
    bldcsine.o(.text) refers to fcmpge.o(.text) for __aeabi_fcmpge
    bldcsine.o(.text) refers to fadd.o(.text) for __aeabi_fadd
    bldcsine.o(.text) refers to bldcsine.o(.bss.angle_deg_final) for angle_deg_final
    bldcsine.o(.text) refers to ffixi.o(.text) for __aeabi_f2iz
    bldcsine.o(.text) refers to bldcsine.o(.rodata.sine_table) for sine_table
    bldcsine.o(.text) refers to bldcsine.o(.bss.angle_idx) for angle_idx
    bldcsine.o(.ARM.exidx) refers to bldcsine.o(.text) for [Anonymous Symbol]
    setup.o(.text) refers to gd32f1x0_gpio.o(.text) for gpio_mode_set
    setup.o(.text) refers to gd32f1x0_misc.o(.text) for nvic_priority_group_set
    setup.o(.text) refers to gd32f1x0_rcu.o(.text) for rcu_flag_get
    setup.o(.text) refers to gd32f1x0_fwdgt.o(.text) for fwdgt_config
    setup.o(.text) refers to gd32f1x0_timer.o(.text) for timer_deinit
    setup.o(.text) refers to setup.o(.bss.timeoutTimer_paramter_struct) for timeoutTimer_paramter_struct
    setup.o(.text) refers to setup.o(.bss.timerBldc_paramter_struct) for timerBldc_paramter_struct
    setup.o(.text) refers to setup.o(.bss.timerBldc_oc_parameter_struct) for timerBldc_oc_parameter_struct
    setup.o(.text) refers to setup.o(.bss.timerBldc_break_parameter_struct) for timerBldc_break_parameter_struct
    setup.o(.text) refers to gd32f1x0_dma.o(.text) for dma_deinit
    setup.o(.text) refers to setup.o(.bss.dma_init_struct_adc) for dma_init_struct_adc
    setup.o(.text) refers to bldc.o(.bss.adc_buffer) for adc_buffer
    setup.o(.text) refers to gd32f1x0_adc.o(.text) for adc_channel_length_config
    setup.o(.text) refers to gd32f1x0_fmc.o(.text) for fmc_unlock
    setup.o(.text) refers to setup.o(.bss.oConfig) for oConfig
    setup.o(.ARM.exidx) refers to setup.o(.text) for [Anonymous Symbol]
    it.o(.text) refers to it.o(.bss.msTicks) for msTicks
    it.o(.text) refers to it.o(.bss.timeoutCounter_ms) for timeoutCounter_ms
    it.o(.text) refers to it.o(.bss.timedOut) for timedOut
    it.o(.text) refers to main.o(.bss.speed) for speed
    it.o(.text) refers to gd32f1x0_timer.o(.text) for timer_interrupt_flag_clear
    it.o(.text) refers to it.o(.bss.iPwmCounter) for iPwmCounter
    it.o(.text) refers to it.o(.bss.iPwmTicks0) for iPwmTicks0
    it.o(.text) refers to it.o(.bss.iPwmTicks) for iPwmTicks
    it.o(.text) refers to gd32f1x0_adc.o(.text) for adc_software_trigger_enable
    it.o(.text) refers to it.o(.bss.iAdcCounter) for iAdcCounter
    it.o(.text) refers to it.o(.bss.iAdcTicks0) for iAdcTicks0
    it.o(.text) refers to it.o(.bss.iAdcTicks) for iAdcTicks
    it.o(.text) refers to bldc.o(.text) for CalculateBLDC
    it.o(.text) refers to gd32f1x0_dma.o(.text) for dma_interrupt_flag_get
    it.o(.ARM.exidx) refers to it.o(.text) for [Anonymous Symbol]
    comms.o(.text) refers to gd32f1x0_usart.o(.text) for usart_data_transmit
    comms.o(.ARM.exidx) refers to comms.o(.text) for [Anonymous Symbol]
    remotedummy.o(.text) refers to it.o(.bss.msTicks) for msTicks
    remotedummy.o(.text) refers to main.o(.bss.speed) for speed
    remotedummy.o(.text) refers to it.o(.text) for ResetTimeout
    remotedummy.o(.ARM.exidx) refers to remotedummy.o(.text) for [Anonymous Symbol]
    gd32f1x0_adc.o(.text) refers to gd32f1x0_rcu.o(.text) for rcu_periph_reset_enable
    gd32f1x0_adc.o(.ARM.exidx) refers to gd32f1x0_adc.o(.text) for [Anonymous Symbol]
    gd32f1x0_dbg.o(.ARM.exidx) refers to gd32f1x0_dbg.o(.text) for [Anonymous Symbol]
    gd32f1x0_dma.o(.ARM.exidx) refers to gd32f1x0_dma.o(.text) for [Anonymous Symbol]
    gd32f1x0_exti.o(.ARM.exidx) refers to gd32f1x0_exti.o(.text) for [Anonymous Symbol]
    gd32f1x0_fmc.o(.ARM.exidx) refers to gd32f1x0_fmc.o(.text) for [Anonymous Symbol]
    gd32f1x0_fwdgt.o(.ARM.exidx) refers to gd32f1x0_fwdgt.o(.text) for [Anonymous Symbol]
    gd32f1x0_gpio.o(.text) refers to gd32f1x0_gpio.o(.rodata..Lswitch.table.gpio_deinit.1) for .Lswitch.table.gpio_deinit.1
    gd32f1x0_gpio.o(.text) refers to gd32f1x0_rcu.o(.text) for rcu_periph_reset_enable
    gd32f1x0_gpio.o(.ARM.exidx) refers to gd32f1x0_gpio.o(.text) for [Anonymous Symbol]
    gd32f1x0_i2c.o(.text) refers to gd32f1x0_rcu.o(.text) for rcu_periph_reset_enable
    gd32f1x0_i2c.o(.ARM.exidx) refers to gd32f1x0_i2c.o(.text) for [Anonymous Symbol]
    gd32f1x0_misc.o(.ARM.exidx) refers to gd32f1x0_misc.o(.text) for [Anonymous Symbol]
    gd32f1x0_pmu.o(.text) refers to gd32f1x0_rcu.o(.text) for rcu_periph_reset_enable
    gd32f1x0_pmu.o(.text) refers to gd32f1x0_pmu.o(.bss.pmu_to_deepsleepmode.reg_snap.1) for pmu_to_deepsleepmode.reg_snap.1
    gd32f1x0_pmu.o(.text) refers to gd32f1x0_pmu.o(.bss.pmu_to_deepsleepmode.reg_snap.0) for pmu_to_deepsleepmode.reg_snap.0
    gd32f1x0_pmu.o(.text) refers to gd32f1x0_pmu.o(.bss.pmu_to_deepsleepmode.reg_snap.2) for pmu_to_deepsleepmode.reg_snap.2
    gd32f1x0_pmu.o(.text) refers to gd32f1x0_pmu.o(.bss.pmu_to_deepsleepmode.reg_snap.3) for pmu_to_deepsleepmode.reg_snap.3
    gd32f1x0_pmu.o(.ARM.exidx) refers to gd32f1x0_pmu.o(.text) for [Anonymous Symbol]
    gd32f1x0_rcu.o(.text) refers to gd32f1x0_rcu.o(.rodata.cst8) for .L__const.rcu_clock_freq_get.apb2_exp
    gd32f1x0_rcu.o(.ARM.exidx) refers to gd32f1x0_rcu.o(.text) for [Anonymous Symbol]
    gd32f1x0_syscfg.o(.text) refers to gd32f1x0_rcu.o(.text) for rcu_periph_reset_enable
    gd32f1x0_syscfg.o(.ARM.exidx) refers to gd32f1x0_syscfg.o(.text) for [Anonymous Symbol]
    gd32f1x0_timer.o(.text) refers to gd32f1x0_rcu.o(.text) for rcu_periph_reset_enable
    gd32f1x0_timer.o(.ARM.exidx) refers to gd32f1x0_timer.o(.text) for [Anonymous Symbol]
    gd32f1x0_usart.o(.text) refers to gd32f1x0_rcu.o(.text) for rcu_periph_reset_enable
    gd32f1x0_usart.o(.ARM.exidx) refers to gd32f1x0_usart.o(.text) for [Anonymous Symbol]
    gd32f1x0_wwdgt.o(.text) refers to gd32f1x0_rcu.o(.text) for rcu_periph_reset_enable
    gd32f1x0_wwdgt.o(.ARM.exidx) refers to gd32f1x0_wwdgt.o(.text) for [Anonymous Symbol]
    startup_gd32f1x0.o(RESET) refers to startup_gd32f1x0.o(STACK) for __initial_sp
    startup_gd32f1x0.o(RESET) refers to startup_gd32f1x0.o(.text) for Reset_Handler
    startup_gd32f1x0.o(RESET) refers to it.o(.text) for NMI_Handler
    startup_gd32f1x0.o(RESET) refers to bldcsine.o(.text) for EXTI0_1_IRQHandler
    startup_gd32f1x0.o(.text) refers to system_gd32f1x0.o(.text) for SystemInit
    startup_gd32f1x0.o(.text) refers to entry.o(.ARM.Collect$$$$00000000) for __main
    system_gd32f1x0.o(.text) refers to system_gd32f1x0.o(.data.SystemCoreClock) for SystemCoreClock
    system_gd32f1x0.o(.ARM.exidx) refers to system_gd32f1x0.o(.text) for [Anonymous Symbol]
    entry.o(.ARM.Collect$$$$00000000) refers (Special) to entry10a.o(.ARM.Collect$$$$0000000D) for __rt_final_cpp
    entry.o(.ARM.Collect$$$$00000000) refers (Special) to entry11a.o(.ARM.Collect$$$$0000000F) for __rt_final_exit
    entry.o(.ARM.Collect$$$$00000000) refers (Special) to entry7b.o(.ARM.Collect$$$$00000008) for _main_clock
    entry.o(.ARM.Collect$$$$00000000) refers (Special) to entry8b.o(.ARM.Collect$$$$0000000A) for _main_cpp_init
    entry.o(.ARM.Collect$$$$00000000) refers (Special) to entry9a.o(.ARM.Collect$$$$0000000B) for _main_init
    entry.o(.ARM.Collect$$$$00000000) refers (Special) to entry5.o(.ARM.Collect$$$$00000004) for _main_scatterload
    entry.o(.ARM.Collect$$$$00000000) refers (Special) to entry2.o(.ARM.Collect$$$$00000001) for _main_stk
    fadd.o(.text) refers (Special) to iusefp.o(.text) for __I$use$fp
    fadd.o(.text) refers to fepilogue.o(.text) for _float_epilogue
    fmul.o(.text) refers (Special) to iusefp.o(.text) for __I$use$fp
    fdiv.o(.text) refers (Special) to iusefp.o(.text) for __I$use$fp
    fdiv.o(.text) refers to fepilogue.o(.text) for _float_round
    dadd.o(.text) refers (Special) to iusefp.o(.text) for __I$use$fp
    dadd.o(.text) refers to llshl.o(.text) for __aeabi_llsl
    dadd.o(.text) refers to llsshr.o(.text) for __aeabi_lasr
    dadd.o(.text) refers to depilogue.o(.text) for _double_epilogue
    dmul.o(.text) refers (Special) to iusefp.o(.text) for __I$use$fp
    dmul.o(.text) refers to depilogue.o(.text) for _double_epilogue
    ddiv.o(.text) refers (Special) to iusefp.o(.text) for __I$use$fp
    ddiv.o(.text) refers to depilogue.o(.text) for _double_round
    fcmple.o(.text) refers (Special) to iusefp.o(.text) for __I$use$fp
    fcmplt.o(.text) refers (Special) to iusefp.o(.text) for __I$use$fp
    fcmpge.o(.text) refers (Special) to iusefp.o(.text) for __I$use$fp
    fcmpgt.o(.text) refers (Special) to iusefp.o(.text) for __I$use$fp
    dcmple.o(.text) refers (Special) to iusefp.o(.text) for __I$use$fp
    fflti.o(.text) refers (Special) to iusefp.o(.text) for __I$use$fp
    fflti.o(.text) refers to fepilogue.o(.text) for _float_epilogue
    ffltui.o(.text) refers (Special) to iusefp.o(.text) for __I$use$fp
    ffltui.o(.text) refers to fepilogue.o(.text) for _float_epilogue
    dflti.o(.text) refers (Special) to iusefp.o(.text) for __I$use$fp
    dflti.o(.text) refers to depilogue.o(.text) for _double_epilogue
    dfltui.o(.text) refers (Special) to iusefp.o(.text) for __I$use$fp
    dfltui.o(.text) refers to depilogue.o(.text) for _double_epilogue
    ffixi.o(.text) refers (Special) to iusefp.o(.text) for __I$use$fp
    dfixi.o(.text) refers (Special) to iusefp.o(.text) for __I$use$fp
    dfixi.o(.text) refers to llushr.o(.text) for __aeabi_llsr
    f2d.o(.text) refers (Special) to iusefp.o(.text) for __I$use$fp
    d2f.o(.text) refers (Special) to iusefp.o(.text) for __I$use$fp
    d2f.o(.text) refers to fepilogue.o(.text) for _float_round
    entry2.o(.ARM.Collect$$$$00000001) refers to entry2.o(.ARM.Collect$$$$00002712) for __lit__00000000
    entry2.o(.ARM.Collect$$$$00002712) refers to startup_gd32f1x0.o(STACK) for __initial_sp
    entry2.o(__vectab_stack_and_reset_area) refers to startup_gd32f1x0.o(STACK) for __initial_sp
    entry2.o(__vectab_stack_and_reset_area) refers to entry.o(.ARM.Collect$$$$00000000) for __main
    entry5.o(.ARM.Collect$$$$00000004) refers to init.o(.text) for __scatterload
    entry9a.o(.ARM.Collect$$$$0000000B) refers to main.o(.text) for main
    entry9b.o(.ARM.Collect$$$$0000000C) refers to main.o(.text) for main
    fepilogue.o(.text) refers (Special) to iusefp.o(.text) for __I$use$fp
    depilogue.o(.text) refers (Special) to iusefp.o(.text) for __I$use$fp
    depilogue.o(.text) refers to llshl.o(.text) for __aeabi_llsl
    depilogue.o(.text) refers to llushr.o(.text) for __aeabi_llsr
    init.o(.text) refers to entry5.o(.ARM.Collect$$$$00000004) for __main_after_scatterload


==============================================================================

Removing Unused input sections from the image.

    Removing main.o(.ARM.exidx), (24 bytes).
    Removing main.o(.data.wStateSlave), (1 bytes).
    Removing main.o(.bss.activateWeakening), (1 bytes).
    Removing main.o(.bss.slaveError), (1 bytes).
    Removing main.o(.ARM.use_no_argv), (4 bytes).
    Removing bldc.o(.ARM.exidx), (48 bytes).
    Removing bldcbc.o(.text), (0 bytes).
    Removing bldcsine.o(.ARM.exidx), (56 bytes).
    Removing setup.o(.ARM.exidx), (168 bytes).
    Removing setup.o(.bss.dma_init_struct_usart), (36 bytes).
    Removing setup.o(.bss.usart0_rx_buf), (1 bytes).
    Removing setup.o(.bss.usart1_rx_buf), (1 bytes).
    Removing setup.o(.bss.usart2_rx_buf), (1 bytes).
    Removing it.o(.ARM.exidx), (120 bytes).
    Removing it.o(.bss.iCounterUsart0), (4 bytes).
    Removing it.o(.bss.iCounter2Usart0), (4 bytes).
    Removing it.o(.bss.iCounterUsart2), (4 bytes).
    Removing it.o(.bss.iCounter2Usart2), (4 bytes).
    Removing led.o(.text), (0 bytes).
    Removing comms.o(.text), (108 bytes).
    Removing comms.o(.ARM.exidx), (16 bytes).
    Removing remoteuart.o(.text), (0 bytes).
    Removing remotecrsf.o(.text), (0 bytes).
    Removing remotedummy.o(.ARM.exidx), (16 bytes).
    Removing remoteuartbus.o(.text), (0 bytes).
    Removing commsmasterslave.o(.text), (0 bytes).
    Removing commsmasterslave.o(.bss.mosfetOutMaster), (1 bytes).
    Removing commsmasterslave.o(.bss.beepsBackwardsMaster), (1 bytes).
    Removing remoteadc.o(.text), (0 bytes).
    Removing remoteautodetect.o(.text), (0 bytes).
    Removing gd32f1x0_adc.o(.ARM.exidx), (256 bytes).
    Removing gd32f1x0_dbg.o(.text), (128 bytes).
    Removing gd32f1x0_dbg.o(.ARM.exidx), (48 bytes).
    Removing gd32f1x0_dma.o(.ARM.exidx), (216 bytes).
    Removing gd32f1x0_exti.o(.ARM.exidx), (96 bytes).
    Removing gd32f1x0_fmc.o(.ARM.exidx), (216 bytes).
    Removing gd32f1x0_fwdgt.o(.ARM.exidx), (48 bytes).
    Removing gd32f1x0_gpio.o(.ARM.exidx), (104 bytes).
    Removing gd32f1x0_i2c.o(.text), (810 bytes).
    Removing gd32f1x0_i2c.o(.ARM.exidx), (248 bytes).
    Removing gd32f1x0_misc.o(.ARM.exidx), (56 bytes).
    Removing gd32f1x0_opa.o(.text), (0 bytes).
    Removing gd32f1x0_pmu.o(.text), (490 bytes).
    Removing gd32f1x0_pmu.o(.ARM.exidx), (96 bytes).
    Removing gd32f1x0_pmu.o(.bss.pmu_to_deepsleepmode.reg_snap.0), (4 bytes).
    Removing gd32f1x0_pmu.o(.bss.pmu_to_deepsleepmode.reg_snap.1), (4 bytes).
    Removing gd32f1x0_pmu.o(.bss.pmu_to_deepsleepmode.reg_snap.2), (4 bytes).
    Removing gd32f1x0_pmu.o(.bss.pmu_to_deepsleepmode.reg_snap.3), (4 bytes).
    Removing gd32f1x0_rcu.o(.ARM.exidx), (336 bytes).
    Removing gd32f1x0_syscfg.o(.ARM.exidx), (72 bytes).
    Removing gd32f1x0_timer.o(.ARM.exidx), (568 bytes).
    Removing gd32f1x0_usart.o(.text), (1598 bytes).
    Removing gd32f1x0_usart.o(.ARM.exidx), (544 bytes).
    Removing gd32f1x0_wwdgt.o(.text), (170 bytes).
    Removing gd32f1x0_wwdgt.o(.ARM.exidx), (56 bytes).
    Removing startup_gd32f1x0.o(HEAP), (1024 bytes).
    Removing system_gd32f1x0.o(.ARM.exidx), (16 bytes).

57 unused section(s) (total 7832 bytes) removed from the image.

==============================================================================

Image Symbol Table

    Local Symbols

    Symbol Name                              Value     Ov Type        Size  Object(Section)

    ../clib/microlib/init/entry.s            0x00000000   Number         0  entry.o ABSOLUTE
    ../clib/microlib/init/entry.s            0x00000000   Number         0  entry2.o ABSOLUTE
    ../clib/microlib/init/entry.s            0x00000000   Number         0  entry5.o ABSOLUTE
    ../clib/microlib/init/entry.s            0x00000000   Number         0  entry7a.o ABSOLUTE
    ../clib/microlib/init/entry.s            0x00000000   Number         0  entry7b.o ABSOLUTE
    ../clib/microlib/init/entry.s            0x00000000   Number         0  entry8a.o ABSOLUTE
    ../clib/microlib/init/entry.s            0x00000000   Number         0  entry8b.o ABSOLUTE
    ../clib/microlib/init/entry.s            0x00000000   Number         0  entry9a.o ABSOLUTE
    ../clib/microlib/init/entry.s            0x00000000   Number         0  entry9b.o ABSOLUTE
    ../clib/microlib/init/entry.s            0x00000000   Number         0  entry10a.o ABSOLUTE
    ../clib/microlib/init/entry.s            0x00000000   Number         0  entry10b.o ABSOLUTE
    ../clib/microlib/init/entry.s            0x00000000   Number         0  entry11a.o ABSOLUTE
    ../clib/microlib/init/entry.s            0x00000000   Number         0  entry11b.o ABSOLUTE
    ../clib/microlib/longlong.c              0x00000000   Number         0  llshl.o ABSOLUTE
    ../clib/microlib/longlong.c              0x00000000   Number         0  llushr.o ABSOLUTE
    ../clib/microlib/longlong.c              0x00000000   Number         0  llsshr.o ABSOLUTE
    ../clib/microlib/stubs.s                 0x00000000   Number         0  iusefp.o ABSOLUTE
    ../fplib/microlib/d2f.c                  0x00000000   Number         0  d2f.o ABSOLUTE
    ../fplib/microlib/f2d.c                  0x00000000   Number         0  f2d.o ABSOLUTE
    ../fplib/microlib/fpadd.c                0x00000000   Number         0  fadd.o ABSOLUTE
    ../fplib/microlib/fpadd.c                0x00000000   Number         0  dadd.o ABSOLUTE
    ../fplib/microlib/fpcmp.c                0x00000000   Number         0  fcmple.o ABSOLUTE
    ../fplib/microlib/fpcmp.c                0x00000000   Number         0  fcmplt.o ABSOLUTE
    ../fplib/microlib/fpcmp.c                0x00000000   Number         0  fcmpge.o ABSOLUTE
    ../fplib/microlib/fpcmp.c                0x00000000   Number         0  fcmpgt.o ABSOLUTE
    ../fplib/microlib/fpcmp.c                0x00000000   Number         0  dcmple.o ABSOLUTE
    ../fplib/microlib/fpdiv.c                0x00000000   Number         0  fdiv.o ABSOLUTE
    ../fplib/microlib/fpdiv.c                0x00000000   Number         0  ddiv.o ABSOLUTE
    ../fplib/microlib/fpepilogue.c           0x00000000   Number         0  fepilogue.o ABSOLUTE
    ../fplib/microlib/fpepilogue.c           0x00000000   Number         0  depilogue.o ABSOLUTE
    ../fplib/microlib/fpfix.c                0x00000000   Number         0  ffixi.o ABSOLUTE
    ../fplib/microlib/fpfix.c                0x00000000   Number         0  dfixi.o ABSOLUTE
    ../fplib/microlib/fpflt.c                0x00000000   Number         0  fflti.o ABSOLUTE
    ../fplib/microlib/fpflt.c                0x00000000   Number         0  ffltui.o ABSOLUTE
    ../fplib/microlib/fpflt.c                0x00000000   Number         0  dflti.o ABSOLUTE
    ../fplib/microlib/fpflt.c                0x00000000   Number         0  dfltui.o ABSOLUTE
    ../fplib/microlib/fpmul.c                0x00000000   Number         0  fmul.o ABSOLUTE
    ../fplib/microlib/fpmul.c                0x00000000   Number         0  dmul.o ABSOLUTE
    RTE/Device/GD32F130C8/startup_gd32f1x0.s 0x00000000   Number         0  startup_gd32f1x0.o ABSOLUTE
    RemoteAdc.c                              0x00000000   Number         0  remoteadc.o ABSOLUTE
    RemoteAutodetect.c                       0x00000000   Number         0  remoteautodetect.o ABSOLUTE
    bldc.c                                   0x00000000   Number         0  bldc.o ABSOLUTE
    bldcBC.c                                 0x00000000   Number         0  bldcbc.o ABSOLUTE
    bldcSINE.c                               0x00000000   Number         0  bldcsine.o ABSOLUTE
    comms.c                                  0x00000000   Number         0  comms.o ABSOLUTE
    commsMasterSlave.c                       0x00000000   Number         0  commsmasterslave.o ABSOLUTE
    dc.s                                     0x00000000   Number         0  dc.o ABSOLUTE
    gd32f1x0_adc.c                           0x00000000   Number         0  gd32f1x0_adc.o ABSOLUTE
    gd32f1x0_dbg.c                           0x00000000   Number         0  gd32f1x0_dbg.o ABSOLUTE
    gd32f1x0_dma.c                           0x00000000   Number         0  gd32f1x0_dma.o ABSOLUTE
    gd32f1x0_exti.c                          0x00000000   Number         0  gd32f1x0_exti.o ABSOLUTE
    gd32f1x0_fmc.c                           0x00000000   Number         0  gd32f1x0_fmc.o ABSOLUTE
    gd32f1x0_fwdgt.c                         0x00000000   Number         0  gd32f1x0_fwdgt.o ABSOLUTE
    gd32f1x0_gpio.c                          0x00000000   Number         0  gd32f1x0_gpio.o ABSOLUTE
    gd32f1x0_i2c.c                           0x00000000   Number         0  gd32f1x0_i2c.o ABSOLUTE
    gd32f1x0_misc.c                          0x00000000   Number         0  gd32f1x0_misc.o ABSOLUTE
    gd32f1x0_opa.c                           0x00000000   Number         0  gd32f1x0_opa.o ABSOLUTE
    gd32f1x0_pmu.c                           0x00000000   Number         0  gd32f1x0_pmu.o ABSOLUTE
    gd32f1x0_rcu.c                           0x00000000   Number         0  gd32f1x0_rcu.o ABSOLUTE
    gd32f1x0_syscfg.c                        0x00000000   Number         0  gd32f1x0_syscfg.o ABSOLUTE
    gd32f1x0_timer.c                         0x00000000   Number         0  gd32f1x0_timer.o ABSOLUTE
    gd32f1x0_usart.c                         0x00000000   Number         0  gd32f1x0_usart.o ABSOLUTE
    gd32f1x0_wwdgt.c                         0x00000000   Number         0  gd32f1x0_wwdgt.o ABSOLUTE
    handlers.s                               0x00000000   Number         0  handlers.o ABSOLUTE
    init.s                                   0x00000000   Number         0  init.o ABSOLUTE
    it.c                                     0x00000000   Number         0  it.o ABSOLUTE
    led.c                                    0x00000000   Number         0  led.o ABSOLUTE
    main.c                                   0x00000000   Number         0  main.o ABSOLUTE
    remoteCrsf.c                             0x00000000   Number         0  remotecrsf.o ABSOLUTE
    remoteDummy.c                            0x00000000   Number         0  remotedummy.o ABSOLUTE
    remoteUart.c                             0x00000000   Number         0  remoteuart.o ABSOLUTE
    remoteUartBus.c                          0x00000000   Number         0  remoteuartbus.o ABSOLUTE
    setup.c                                  0x00000000   Number         0  setup.o ABSOLUTE
    system_gd32f1x0.c                        0x00000000   Number         0  system_gd32f1x0.o ABSOLUTE
    RESET                                    0x08000000   Section      360  startup_gd32f1x0.o(RESET)
    .ARM.Collect$$$$00000000                 0x08000168   Section        0  entry.o(.ARM.Collect$$$$00000000)
    .ARM.Collect$$$$00000001                 0x08000168   Section        4  entry2.o(.ARM.Collect$$$$00000001)
    .ARM.Collect$$$$00000004                 0x0800016c   Section        4  entry5.o(.ARM.Collect$$$$00000004)
    .ARM.Collect$$$$00000008                 0x08000170   Section        0  entry7b.o(.ARM.Collect$$$$00000008)
    .ARM.Collect$$$$0000000A                 0x08000170   Section        0  entry8b.o(.ARM.Collect$$$$0000000A)
    .ARM.Collect$$$$0000000B                 0x08000170   Section        8  entry9a.o(.ARM.Collect$$$$0000000B)
    __lit__00000000                          0x08000178   Data           4  entry2.o(.ARM.Collect$$$$00002712)
    .ARM.Collect$$$$0000000D                 0x08000178   Section        0  entry10a.o(.ARM.Collect$$$$0000000D)
    .ARM.Collect$$$$0000000F                 0x08000178   Section        0  entry11a.o(.ARM.Collect$$$$0000000F)
    .ARM.Collect$$$$00002712                 0x08000178   Section        4  entry2.o(.ARM.Collect$$$$00002712)
    [Anonymous Symbol]                       0x0800017c   Section        0  main.o(.text)
    [Anonymous Symbol]                       0x08000934   Section        0  bldc.o(.text)
    [Anonymous Symbol]                       0x08000e68   Section        0  bldcsine.o(.text)
    [Anonymous Symbol]                       0x0800121c   Section        0  setup.o(.text)
    [Anonymous Symbol]                       0x08001b1c   Section        0  it.o(.text)
    [Anonymous Symbol]                       0x08001c88   Section        0  remotedummy.o(.text)
    [Anonymous Symbol]                       0x08001cfc   Section        0  gd32f1x0_adc.o(.text)
    [Anonymous Symbol]                       0x080022a4   Section        0  gd32f1x0_dma.o(.text)
    [Anonymous Symbol]                       0x080025f0   Section        0  gd32f1x0_exti.o(.text)
    [Anonymous Symbol]                       0x08002760   Section        0  gd32f1x0_fmc.o(.text)
    [Anonymous Symbol]                       0x08003134   Section        0  gd32f1x0_fwdgt.o(.text)
    [Anonymous Symbol]                       0x08003210   Section        0  gd32f1x0_gpio.o(.text)
    [Anonymous Symbol]                       0x080033a8   Section        0  gd32f1x0_misc.o(.text)
    [Anonymous Symbol]                       0x080034d8   Section        0  gd32f1x0_rcu.o(.text)
    [Anonymous Symbol]                       0x08003c08   Section        0  gd32f1x0_syscfg.o(.text)
    [Anonymous Symbol]                       0x08003d0c   Section        0  gd32f1x0_timer.o(.text)
    .text                                    0x08004a6c   Section       36  startup_gd32f1x0.o(.text)
    [Anonymous Symbol]                       0x08004a90   Section        0  system_gd32f1x0.o(.text)
    .text                                    0x08004bcc   Section        0  fadd.o(.text)
    .text                                    0x08004c7c   Section        0  fmul.o(.text)
    .text                                    0x08004ce0   Section        0  fdiv.o(.text)
    .text                                    0x08004d5c   Section        0  dadd.o(.text)
    .text                                    0x08004eaa   Section        0  dmul.o(.text)
    .text                                    0x08004f8e   Section        0  ddiv.o(.text)
    .text                                    0x0800506c   Section        0  fcmple.o(.text)
    .text                                    0x08005088   Section        0  fcmplt.o(.text)
    .text                                    0x080050a4   Section        0  fcmpge.o(.text)
    .text                                    0x080050c0   Section        0  fcmpgt.o(.text)
    .text                                    0x080050dc   Section        0  dcmple.o(.text)
    .text                                    0x08005112   Section        0  fflti.o(.text)
    .text                                    0x08005124   Section        0  ffltui.o(.text)
    .text                                    0x0800512e   Section        0  dflti.o(.text)
    .text                                    0x08005150   Section        0  dfltui.o(.text)
    .text                                    0x0800516a   Section        0  ffixi.o(.text)
    .text                                    0x0800519c   Section        0  dfixi.o(.text)
    .text                                    0x080051da   Section        0  f2d.o(.text)
    .text                                    0x08005200   Section        0  d2f.o(.text)
    .text                                    0x08005238   Section        0  llshl.o(.text)
    .text                                    0x08005256   Section        0  llushr.o(.text)
    .text                                    0x08005276   Section        0  llsshr.o(.text)
    .text                                    0x0800529a   Section        0  iusefp.o(.text)
    .text                                    0x0800529a   Section        0  fepilogue.o(.text)
    .text                                    0x08005308   Section        0  depilogue.o(.text)
    .text                                    0x080053c4   Section       36  init.o(.text)
    i.__scatterload_copy                     0x080053e8   Section       14  handlers.o(i.__scatterload_copy)
    i.__scatterload_null                     0x080053f6   Section        2  handlers.o(i.__scatterload_null)
    i.__scatterload_zeroinit                 0x080053f8   Section       14  handlers.o(i.__scatterload_zeroinit)
    .L__const.up_or_down.up_down             0x08005406   Data          12  bldc.o(.rodata..L__const.up_or_down.up_down)
    .Lswitch.table.gpio_deinit.1             0x08005412   Data          12  gd32f1x0_gpio.o(.rodata..Lswitch.table.gpio_deinit.1)
    hall_to_sector                           0x0800541e   Data           8  bldcsine.o(.rodata.cst8)
    [Anonymous Symbol]                       0x0800541e   Section        0  bldcsine.o(.rodata.cst8)
    .L__const.rcu_clock_freq_get.apb2_exp    0x08005426   Data           8  gd32f1x0_rcu.o(.rodata.cst8)
    sine_table                               0x0800570c   Data         720  bldcsine.o(.rodata.sine_table)
    [Anonymous Symbol]                       0x0800570c   Section        0  bldcsine.o(.rodata.sine_table)
    STACK                                    0x20000140   Section     1024  startup_gd32f1x0.o(STACK)

    Global Symbols

    Symbol Name                              Value     Ov Type        Size  Object(Section)

    BuildAttributes$$THM_ISAv4$P$D$K$B$S$PE$A:L22UL41UL21$X:L11$S22US41US21$IEEE1$IW$~IW$USESV6$~STKCKD$USESV7$~SHL$OTIME$ROPI$EBA8$MICROLIB$REQ8$PRES8$EABIv2 0x00000000   Number         0  anon$$obj.o ABSOLUTE
    __cpp_initialize__aeabi_                  - Undefined Weak Reference
    __cxa_finalize                            - Undefined Weak Reference
    __decompress                              - Undefined Weak Reference
    _clock_init                               - Undefined Weak Reference
    _microlib_exit                            - Undefined Weak Reference
    __Vectors_Size                           0x00000168   Number         0  startup_gd32f1x0.o ABSOLUTE
    __Vectors                                0x08000000   Data           4  startup_gd32f1x0.o(RESET)
    __Vectors_End                            0x08000168   Data           0  startup_gd32f1x0.o(RESET)
    __main                                   0x08000169   Thumb Code     0  entry.o(.ARM.Collect$$$$00000000)
    _main_stk                                0x08000169   Thumb Code     0  entry2.o(.ARM.Collect$$$$00000001)
    _main_scatterload                        0x0800016d   Thumb Code     0  entry5.o(.ARM.Collect$$$$00000004)
    __main_after_scatterload                 0x08000171   Thumb Code     0  entry5.o(.ARM.Collect$$$$00000004)
    _main_clock                              0x08000171   Thumb Code     0  entry7b.o(.ARM.Collect$$$$00000008)
    _main_cpp_init                           0x08000171   Thumb Code     0  entry8b.o(.ARM.Collect$$$$0000000A)
    _main_init                               0x08000171   Thumb Code     0  entry9a.o(.ARM.Collect$$$$0000000B)
    __rt_final_cpp                           0x08000179   Thumb Code     0  entry10a.o(.ARM.Collect$$$$0000000D)
    __rt_final_exit                          0x08000179   Thumb Code     0  entry11a.o(.ARM.Collect$$$$0000000F)
    main                                     0x0800017d   Thumb Code  1710  main.o(.text)
    ShutOff                                  0x0800082d   Thumb Code   116  main.o(.text)
    ShowBatteryState                         0x080008a1   Thumb Code   148  main.o(.text)
    modulo                                   0x08000935   Thumb Code    22  bldc.o(.text)
    up_or_down                               0x0800094d   Thumb Code    60  bldc.o(.text)
    SetEnable                                0x08000989   Thumb Code    12  bldc.o(.text)
    SetPWM                                   0x08000995   Thumb Code    74  bldc.o(.text)
    SetFilter                                0x080009e1   Thumb Code    46  bldc.o(.text)
    CalculateBLDC                            0x08000a11   Thumb Code  1110  bldc.o(.text)
    InitEXTI                                 0x08000e69   Thumb Code    62  bldcsine.o(.text)
    InitBldc                                 0x08000ea9   Thumb Code   134  bldcsine.o(.text)
    _HandleEXTI                              0x08000f31   Thumb Code   174  bldcsine.o(.text)
    EXTI0_1_IRQHandler                       0x08000fe1   Thumb Code     4  bldcsine.o(.text)
    EXTI2_3_IRQHandler                       0x08000fe5   Thumb Code     4  bldcsine.o(.text)
    EXTI4_15_IRQHandler                      0x08000fe9   Thumb Code     4  bldcsine.o(.text)
    bldc_get_pwm                             0x08000fed   Thumb Code   560  bldcsine.o(.text)
    pinMode                                  0x0800121d   Thumb Code    42  setup.o(.text)
    pinModePull                              0x08001249   Thumb Code    40  setup.o(.text)
    Interrupt_init                           0x08001271   Thumb Code     8  setup.o(.text)
    Watchdog_init                            0x08001279   Thumb Code    56  setup.o(.text)
    TimeoutTimer_init                        0x080012b1   Thumb Code    92  setup.o(.text)
    GPIO_init                                0x0800130d   Thumb Code   640  setup.o(.text)
    PWM_initOld                              0x0800158d   Thumb Code   368  setup.o(.text)
    PWM_init                                 0x080016fd   Thumb Code   368  setup.o(.text)
    ADC_init                                 0x0800186d   Thumb Code   234  setup.o(.text)
    USART0_Init                              0x08001959   Thumb Code     2  setup.o(.text)
    USART1_Init                              0x0800195d   Thumb Code     2  setup.o(.text)
    USART2_Init                              0x08001961   Thumb Code     2  setup.o(.text)
    flashErase                               0x08001965   Thumb Code    28  setup.o(.text)
    flashRead                                0x08001981   Thumb Code     4  setup.o(.text)
    flashWrite                               0x08001985   Thumb Code    38  setup.o(.text)
    flashWriteBuffer                         0x080019ad   Thumb Code    64  setup.o(.text)
    flashReadBuffer                          0x080019ed   Thumb Code    26  setup.o(.text)
    ConfigReset                              0x08001a09   Thumb Code    36  setup.o(.text)
    ConfigWrite                              0x08001a2d   Thumb Code    92  setup.o(.text)
    ConfigRead                               0x08001a89   Thumb Code   116  setup.o(.text)
    confErase                                0x08001afd   Thumb Code    32  setup.o(.text)
    SysTick_Handler                          0x08001b1d   Thumb Code    16  it.o(.text)
    ResetTimeout                             0x08001b2d   Thumb Code    14  it.o(.text)
    TIMER13_IRQHandler                       0x08001b3d   Thumb Code    76  it.o(.text)
    TIMER0_BRK_UP_TRG_COM_IRQHandler         0x08001b89   Thumb Code    88  it.o(.text)
    DMA_Channel0_IRQHandler                  0x08001be1   Thumb Code    94  it.o(.text)
    millis                                   0x08001c41   Thumb Code    12  it.o(.text)
    Delay                                    0x08001c4d   Thumb Code    28  it.o(.text)
    NMI_Handler                              0x08001c69   Thumb Code     2  it.o(.text)
    HardFault_Handler                        0x08001c6d   Thumb Code     2  it.o(.text)
    MemManage_Handler                        0x08001c71   Thumb Code     2  it.o(.text)
    BusFault_Handler                         0x08001c75   Thumb Code     2  it.o(.text)
    UsageFault_Handler                       0x08001c79   Thumb Code     2  it.o(.text)
    SVC_Handler                              0x08001c7d   Thumb Code     2  it.o(.text)
    DebugMon_Handler                         0x08001c81   Thumb Code     2  it.o(.text)
    PendSV_Handler                           0x08001c85   Thumb Code     2  it.o(.text)
    RemoteUpdate                             0x08001c89   Thumb Code   110  remotedummy.o(.text)
    RemoteCallback                           0x08001cf9   Thumb Code     2  remotedummy.o(.text)
    adc_deinit                               0x08001cfd   Thumb Code    22  gd32f1x0_adc.o(.text)
    adc_enable                               0x08001d15   Thumb Code    26  gd32f1x0_adc.o(.text)
    adc_disable                              0x08001d31   Thumb Code    18  gd32f1x0_adc.o(.text)
    adc_calibration_enable                   0x08001d45   Thumb Code    40  gd32f1x0_adc.o(.text)
    adc_dma_mode_enable                      0x08001d6d   Thumb Code    18  gd32f1x0_adc.o(.text)
    adc_dma_mode_disable                     0x08001d81   Thumb Code    18  gd32f1x0_adc.o(.text)
    adc_tempsensor_vrefint_enable            0x08001d95   Thumb Code    18  gd32f1x0_adc.o(.text)
    adc_tempsensor_vrefint_disable           0x08001da9   Thumb Code    18  gd32f1x0_adc.o(.text)
    adc_vbat_enable                          0x08001dbd   Thumb Code    18  gd32f1x0_adc.o(.text)
    adc_vbat_disable                         0x08001dd1   Thumb Code    18  gd32f1x0_adc.o(.text)
    adc_discontinuous_mode_config            0x08001de5   Thumb Code    68  gd32f1x0_adc.o(.text)
    adc_special_function_config              0x08001e29   Thumb Code   100  gd32f1x0_adc.o(.text)
    adc_data_alignment_config                0x08001e8d   Thumb Code    26  gd32f1x0_adc.o(.text)
    adc_channel_length_config                0x08001ea9   Thumb Code    82  gd32f1x0_adc.o(.text)
    adc_regular_channel_config               0x08001efd   Thumb Code   180  gd32f1x0_adc.o(.text)
    adc_inserted_channel_config              0x08001fb1   Thumb Code   114  gd32f1x0_adc.o(.text)
    adc_inserted_channel_offset_config       0x08002025   Thumb Code    32  gd32f1x0_adc.o(.text)
    adc_external_trigger_config              0x08002045   Thumb Code    72  gd32f1x0_adc.o(.text)
    adc_external_trigger_source_config       0x0800208d   Thumb Code    42  gd32f1x0_adc.o(.text)
    adc_software_trigger_enable              0x080020b9   Thumb Code    36  gd32f1x0_adc.o(.text)
    adc_regular_data_read                    0x080020dd   Thumb Code    14  gd32f1x0_adc.o(.text)
    adc_inserted_data_read                   0x080020ed   Thumb Code    74  gd32f1x0_adc.o(.text)
    adc_flag_get                             0x08002139   Thumb Code    18  gd32f1x0_adc.o(.text)
    adc_flag_clear                           0x0800214d   Thumb Code    18  gd32f1x0_adc.o(.text)
    adc_interrupt_flag_get                   0x08002161   Thumb Code    56  gd32f1x0_adc.o(.text)
    adc_interrupt_flag_clear                 0x08002199   Thumb Code    18  gd32f1x0_adc.o(.text)
    adc_interrupt_enable                     0x080021ad   Thumb Code    48  gd32f1x0_adc.o(.text)
    adc_interrupt_disable                    0x080021dd   Thumb Code    48  gd32f1x0_adc.o(.text)
    adc_watchdog_single_channel_enable       0x0800220d   Thumb Code    42  gd32f1x0_adc.o(.text)
    adc_watchdog_group_channel_enable        0x08002239   Thumb Code    48  gd32f1x0_adc.o(.text)
    adc_watchdog_disable                     0x08002275   Thumb Code    24  gd32f1x0_adc.o(.text)
    adc_watchdog_threshold_config            0x0800228d   Thumb Code    22  gd32f1x0_adc.o(.text)
    dma_deinit                               0x080022a5   Thumb Code    48  gd32f1x0_dma.o(.text)
    dma_struct_para_init                     0x080022d5   Thumb Code    24  gd32f1x0_dma.o(.text)
    dma_init                                 0x080022ed   Thumb Code   122  gd32f1x0_dma.o(.text)
    dma_circulation_enable                   0x08002369   Thumb Code    24  gd32f1x0_dma.o(.text)
    dma_circulation_disable                  0x08002381   Thumb Code    24  gd32f1x0_dma.o(.text)
    dma_memory_to_memory_enable              0x08002399   Thumb Code    24  gd32f1x0_dma.o(.text)
    dma_memory_to_memory_disable             0x080023b1   Thumb Code    24  gd32f1x0_dma.o(.text)
    dma_channel_enable                       0x080023c9   Thumb Code    24  gd32f1x0_dma.o(.text)
    dma_channel_disable                      0x080023e1   Thumb Code    24  gd32f1x0_dma.o(.text)
    dma_periph_address_config                0x080023f9   Thumb Code    16  gd32f1x0_dma.o(.text)
    dma_memory_address_config                0x08002409   Thumb Code    16  gd32f1x0_dma.o(.text)
    dma_transfer_number_config               0x08002419   Thumb Code    16  gd32f1x0_dma.o(.text)
    dma_transfer_number_get                  0x08002429   Thumb Code    16  gd32f1x0_dma.o(.text)
    dma_priority_config                      0x08002439   Thumb Code    26  gd32f1x0_dma.o(.text)
    dma_memory_width_config                  0x08002455   Thumb Code    26  gd32f1x0_dma.o(.text)
    dma_periph_width_config                  0x08002471   Thumb Code    26  gd32f1x0_dma.o(.text)
    dma_memory_increase_enable               0x0800248d   Thumb Code    24  gd32f1x0_dma.o(.text)
    dma_memory_increase_disable              0x080024a5   Thumb Code    24  gd32f1x0_dma.o(.text)
    dma_periph_increase_enable               0x080024bd   Thumb Code    24  gd32f1x0_dma.o(.text)
    dma_periph_increase_disable              0x080024d5   Thumb Code    24  gd32f1x0_dma.o(.text)
    dma_transfer_direction_config            0x080024ed   Thumb Code    30  gd32f1x0_dma.o(.text)
    dma_interrupt_flag_get                   0x0800250d   Thumb Code   116  gd32f1x0_dma.o(.text)
    dma_interrupt_flag_clear                 0x08002581   Thumb Code    20  gd32f1x0_dma.o(.text)
    dma_interrupt_enable                     0x08002595   Thumb Code    22  gd32f1x0_dma.o(.text)
    dma_interrupt_disable                    0x080025ad   Thumb Code    24  gd32f1x0_dma.o(.text)
    dma_flag_get                             0x080025c5   Thumb Code    22  gd32f1x0_dma.o(.text)
    dma_flag_clear                           0x080025dd   Thumb Code    20  gd32f1x0_dma.o(.text)
    exti_deinit                              0x080025f1   Thumb Code    26  gd32f1x0_exti.o(.text)
    exti_init                                0x0800260d   Thumb Code   156  gd32f1x0_exti.o(.text)
    exti_interrupt_enable                    0x080026a9   Thumb Code    16  gd32f1x0_exti.o(.text)
    exti_event_enable                        0x080026b9   Thumb Code    16  gd32f1x0_exti.o(.text)
    exti_interrupt_disable                   0x080026c9   Thumb Code    18  gd32f1x0_exti.o(.text)
    exti_event_disable                       0x080026dd   Thumb Code    18  gd32f1x0_exti.o(.text)
    exti_flag_get                            0x080026f1   Thumb Code    18  gd32f1x0_exti.o(.text)
    exti_flag_clear                          0x08002705   Thumb Code    12  gd32f1x0_exti.o(.text)
    exti_interrupt_flag_get                  0x08002711   Thumb Code    32  gd32f1x0_exti.o(.text)
    exti_interrupt_flag_clear                0x08002731   Thumb Code    12  gd32f1x0_exti.o(.text)
    exti_software_interrupt_enable           0x0800273d   Thumb Code    16  gd32f1x0_exti.o(.text)
    exti_software_interrupt_disable          0x0800274d   Thumb Code    18  gd32f1x0_exti.o(.text)
    fmc_unlock                               0x08002761   Thumb Code    38  gd32f1x0_fmc.o(.text)
    fmc_lock                                 0x08002789   Thumb Code    18  gd32f1x0_fmc.o(.text)
    fmc_wscnt_set                            0x0800279d   Thumb Code    20  gd32f1x0_fmc.o(.text)
    fmc_wait_state_enable                    0x080027b1   Thumb Code    18  gd32f1x0_fmc.o(.text)
    fmc_wait_state_disable                   0x080027c5   Thumb Code    18  gd32f1x0_fmc.o(.text)
    fmc_page_erase                           0x080027d9   Thumb Code   158  gd32f1x0_fmc.o(.text)
    fmc_mass_erase                           0x08002879   Thumb Code   150  gd32f1x0_fmc.o(.text)
    fmc_word_program                         0x08002911   Thumb Code   150  gd32f1x0_fmc.o(.text)
    fmc_halfword_program                     0x080029a9   Thumb Code   150  gd32f1x0_fmc.o(.text)
    ob_unlock                                0x08002a41   Thumb Code    38  gd32f1x0_fmc.o(.text)
    ob_lock                                  0x08002a69   Thumb Code    18  gd32f1x0_fmc.o(.text)
    ob_reset                                 0x08002a7d   Thumb Code    18  gd32f1x0_fmc.o(.text)
    ob_erase                                 0x08002a91   Thumb Code   294  gd32f1x0_fmc.o(.text)
    ob_obstat_plevel_get                     0x08002bb9   Thumb Code    16  gd32f1x0_fmc.o(.text)
    ob_write_protection_enable               0x08002bc9   Thumb Code   316  gd32f1x0_fmc.o(.text)
    ob_security_protection_config            0x08002d05   Thumb Code   304  gd32f1x0_fmc.o(.text)
    ob_user_write                            0x08002e35   Thumb Code   308  gd32f1x0_fmc.o(.text)
    ob_data_program                          0x08002f69   Thumb Code   304  gd32f1x0_fmc.o(.text)
    ob_user_get                              0x08003099   Thumb Code    16  gd32f1x0_fmc.o(.text)
    ob_data_get                              0x080030a9   Thumb Code    14  gd32f1x0_fmc.o(.text)
    ob_write_protection_get                  0x080030b9   Thumb Code    14  gd32f1x0_fmc.o(.text)
    fmc_interrupt_enable                     0x080030c9   Thumb Code    16  gd32f1x0_fmc.o(.text)
    fmc_interrupt_disable                    0x080030d9   Thumb Code    18  gd32f1x0_fmc.o(.text)
    fmc_flag_get                             0x080030ed   Thumb Code    18  gd32f1x0_fmc.o(.text)
    fmc_flag_clear                           0x08003101   Thumb Code    16  gd32f1x0_fmc.o(.text)
    fmc_interrupt_flag_get                   0x08003111   Thumb Code    18  gd32f1x0_fmc.o(.text)
    fmc_interrupt_flag_clear                 0x08003125   Thumb Code    16  gd32f1x0_fmc.o(.text)
    fwdgt_write_disable                      0x08003135   Thumb Code    14  gd32f1x0_fwdgt.o(.text)
    fwdgt_counter_reload                     0x08003145   Thumb Code    16  gd32f1x0_fwdgt.o(.text)
    fwdgt_enable                             0x08003155   Thumb Code    16  gd32f1x0_fwdgt.o(.text)
    fwdgt_window_value_config                0x08003165   Thumb Code    52  gd32f1x0_fwdgt.o(.text)
    fwdgt_config                             0x08003199   Thumb Code   100  gd32f1x0_fwdgt.o(.text)
    fwdgt_flag_get                           0x080031fd   Thumb Code    18  gd32f1x0_fwdgt.o(.text)
    gpio_deinit                              0x08003211   Thumb Code    58  gd32f1x0_gpio.o(.text)
    gpio_mode_set                            0x0800324d   Thumb Code    84  gd32f1x0_gpio.o(.text)
    gpio_output_options_set                  0x080032a1   Thumb Code    70  gd32f1x0_gpio.o(.text)
    gpio_bit_set                             0x080032e9   Thumb Code     4  gd32f1x0_gpio.o(.text)
    gpio_bit_reset                           0x080032ed   Thumb Code     4  gd32f1x0_gpio.o(.text)
    gpio_bit_write                           0x080032f1   Thumb Code    12  gd32f1x0_gpio.o(.text)
    gpio_port_write                          0x080032fd   Thumb Code     4  gd32f1x0_gpio.o(.text)
    gpio_input_bit_get                       0x08003301   Thumb Code    10  gd32f1x0_gpio.o(.text)
    gpio_input_port_get                      0x0800330d   Thumb Code     6  gd32f1x0_gpio.o(.text)
    gpio_output_bit_get                      0x08003315   Thumb Code    10  gd32f1x0_gpio.o(.text)
    gpio_output_port_get                     0x08003321   Thumb Code     6  gd32f1x0_gpio.o(.text)
    gpio_af_set                              0x08003329   Thumb Code   110  gd32f1x0_gpio.o(.text)
    gpio_pin_lock                            0x08003399   Thumb Code    16  gd32f1x0_gpio.o(.text)
    nvic_priority_group_set                  0x080033a9   Thumb Code    20  gd32f1x0_misc.o(.text)
    nvic_irq_enable                          0x080033bd   Thumb Code   168  gd32f1x0_misc.o(.text)
    nvic_irq_disable                         0x08003465   Thumb Code    30  gd32f1x0_misc.o(.text)
    nvic_vector_table_set                    0x08003485   Thumb Code    24  gd32f1x0_misc.o(.text)
    system_lowpower_set                      0x0800349d   Thumb Code    16  gd32f1x0_misc.o(.text)
    system_lowpower_reset                    0x080034ad   Thumb Code    18  gd32f1x0_misc.o(.text)
    systick_clksource_set                    0x080034c1   Thumb Code    24  gd32f1x0_misc.o(.text)
    rcu_deinit                               0x080034d9   Thumb Code   112  gd32f1x0_rcu.o(.text)
    rcu_periph_clock_enable                  0x08003549   Thumb Code    30  gd32f1x0_rcu.o(.text)
    rcu_periph_clock_disable                 0x08003569   Thumb Code    32  gd32f1x0_rcu.o(.text)
    rcu_periph_clock_sleep_enable            0x08003589   Thumb Code    30  gd32f1x0_rcu.o(.text)
    rcu_periph_clock_sleep_disable           0x080035a9   Thumb Code    32  gd32f1x0_rcu.o(.text)
    rcu_periph_reset_enable                  0x080035c9   Thumb Code    30  gd32f1x0_rcu.o(.text)
    rcu_periph_reset_disable                 0x080035e9   Thumb Code    32  gd32f1x0_rcu.o(.text)
    rcu_bkp_reset_enable                     0x08003609   Thumb Code    18  gd32f1x0_rcu.o(.text)
    rcu_bkp_reset_disable                    0x0800361d   Thumb Code    18  gd32f1x0_rcu.o(.text)
    rcu_system_clock_source_config           0x08003631   Thumb Code    20  gd32f1x0_rcu.o(.text)
    rcu_system_clock_source_get              0x08003645   Thumb Code    16  gd32f1x0_rcu.o(.text)
    rcu_ahb_clock_config                     0x08003655   Thumb Code    20  gd32f1x0_rcu.o(.text)
    rcu_apb1_clock_config                    0x08003669   Thumb Code    20  gd32f1x0_rcu.o(.text)
    rcu_apb2_clock_config                    0x0800367d   Thumb Code    20  gd32f1x0_rcu.o(.text)
    rcu_adc_clock_config                     0x08003691   Thumb Code    88  gd32f1x0_rcu.o(.text)
    rcu_usbd_clock_config                    0x080036e9   Thumb Code    24  gd32f1x0_rcu.o(.text)
    rcu_ckout_config                         0x08003701   Thumb Code    22  gd32f1x0_rcu.o(.text)
    rcu_pll_config                           0x08003719   Thumb Code    36  gd32f1x0_rcu.o(.text)
    rcu_usart_clock_config                   0x0800373d   Thumb Code    24  gd32f1x0_rcu.o(.text)
    rcu_cec_clock_config                     0x08003755   Thumb Code    24  gd32f1x0_rcu.o(.text)
    rcu_rtc_clock_config                     0x0800376d   Thumb Code    24  gd32f1x0_rcu.o(.text)
    rcu_hxtal_prediv_config                  0x08003785   Thumb Code    20  gd32f1x0_rcu.o(.text)
    rcu_lxtal_drive_capability_config        0x08003799   Thumb Code    24  gd32f1x0_rcu.o(.text)
    rcu_flag_get                             0x080037b1   Thumb Code    26  gd32f1x0_rcu.o(.text)
    rcu_all_reset_flag_clear                 0x080037cd   Thumb Code    18  gd32f1x0_rcu.o(.text)
    rcu_interrupt_flag_get                   0x080037e1   Thumb Code    18  gd32f1x0_rcu.o(.text)
    rcu_interrupt_flag_clear                 0x080037f5   Thumb Code    16  gd32f1x0_rcu.o(.text)
    rcu_interrupt_enable                     0x08003805   Thumb Code    16  gd32f1x0_rcu.o(.text)
    rcu_interrupt_disable                    0x08003815   Thumb Code    18  gd32f1x0_rcu.o(.text)
    rcu_osci_stab_wait                       0x08003829   Thumb Code   324  gd32f1x0_rcu.o(.text)
    rcu_osci_on                              0x0800396d   Thumb Code    30  gd32f1x0_rcu.o(.text)
    rcu_osci_off                             0x0800398d   Thumb Code    32  gd32f1x0_rcu.o(.text)
    rcu_osci_bypass_mode_enable              0x080039ad   Thumb Code    64  gd32f1x0_rcu.o(.text)
    rcu_osci_bypass_mode_disable             0x080039ed   Thumb Code    64  gd32f1x0_rcu.o(.text)
    rcu_hxtal_clock_monitor_enable           0x08003a2d   Thumb Code    18  gd32f1x0_rcu.o(.text)
    rcu_hxtal_clock_monitor_disable          0x08003a41   Thumb Code    18  gd32f1x0_rcu.o(.text)
    rcu_irc8m_adjust_value_set               0x08003a55   Thumb Code    22  gd32f1x0_rcu.o(.text)
    rcu_irc14m_adjust_value_set              0x08003a6d   Thumb Code    22  gd32f1x0_rcu.o(.text)
    rcu_voltage_key_unlock                   0x08003a85   Thumb Code    30  gd32f1x0_rcu.o(.text)
    rcu_deepsleep_voltage_set                0x08003aa5   Thumb Code    24  gd32f1x0_rcu.o(.text)
    rcu_power_down_voltage_set               0x08003abd   Thumb Code    24  gd32f1x0_rcu.o(.text)
    rcu_clock_freq_get                       0x08003ad5   Thumb Code   292  gd32f1x0_rcu.o(.text)
    syscfg_deinit                            0x08003c09   Thumb Code    22  gd32f1x0_syscfg.o(.text)
    syscfg_dma_remap_enable                  0x08003c21   Thumb Code    14  gd32f1x0_syscfg.o(.text)
    syscfg_dma_remap_disable                 0x08003c31   Thumb Code    16  gd32f1x0_syscfg.o(.text)
    syscfg_high_current_enable               0x08003c41   Thumb Code    16  gd32f1x0_syscfg.o(.text)
    syscfg_high_current_disable              0x08003c51   Thumb Code    16  gd32f1x0_syscfg.o(.text)
    syscfg_exti_line_config                  0x08003c61   Thumb Code   124  gd32f1x0_syscfg.o(.text)
    syscfg_lock_config                       0x08003cdd   Thumb Code    14  gd32f1x0_syscfg.o(.text)
    syscfg_flag_get                          0x08003ced   Thumb Code    16  gd32f1x0_syscfg.o(.text)
    syscfg_flag_clear                        0x08003cfd   Thumb Code    14  gd32f1x0_syscfg.o(.text)
    timer_deinit                             0x08003d0d   Thumb Code   194  gd32f1x0_timer.o(.text)
    timer_struct_para_init                   0x08003dd1   Thumb Code    16  gd32f1x0_timer.o(.text)
    timer_init                               0x08003de1   Thumb Code   212  gd32f1x0_timer.o(.text)
    timer_enable                             0x08003eb5   Thumb Code    10  gd32f1x0_timer.o(.text)
    timer_disable                            0x08003ec1   Thumb Code    10  gd32f1x0_timer.o(.text)
    timer_auto_reload_shadow_enable          0x08003ecd   Thumb Code    10  gd32f1x0_timer.o(.text)
    timer_auto_reload_shadow_disable         0x08003ed9   Thumb Code    10  gd32f1x0_timer.o(.text)
    timer_update_event_enable                0x08003ee5   Thumb Code    10  gd32f1x0_timer.o(.text)
    timer_update_event_disable               0x08003ef1   Thumb Code    10  gd32f1x0_timer.o(.text)
    timer_counter_alignment                  0x08003efd   Thumb Code    16  gd32f1x0_timer.o(.text)
    timer_counter_up_direction               0x08003f0d   Thumb Code    10  gd32f1x0_timer.o(.text)
    timer_counter_down_direction             0x08003f19   Thumb Code    10  gd32f1x0_timer.o(.text)
    timer_prescaler_config                   0x08003f25   Thumb Code    18  gd32f1x0_timer.o(.text)
    timer_repetition_value_config            0x08003f39   Thumb Code     4  gd32f1x0_timer.o(.text)
    timer_autoreload_value_config            0x08003f3d   Thumb Code     4  gd32f1x0_timer.o(.text)
    timer_counter_value_config               0x08003f41   Thumb Code     4  gd32f1x0_timer.o(.text)
    timer_counter_read                       0x08003f45   Thumb Code     4  gd32f1x0_timer.o(.text)
    timer_prescaler_read                     0x08003f49   Thumb Code     6  gd32f1x0_timer.o(.text)
    timer_single_pulse_mode_config           0x08003f51   Thumb Code    30  gd32f1x0_timer.o(.text)
    timer_update_source_config               0x08003f71   Thumb Code    30  gd32f1x0_timer.o(.text)
    timer_ocpre_clear_source_config          0x08003f91   Thumb Code    28  gd32f1x0_timer.o(.text)
    timer_interrupt_enable                   0x08003fad   Thumb Code     8  gd32f1x0_timer.o(.text)
    timer_interrupt_disable                  0x08003fb5   Thumb Code    10  gd32f1x0_timer.o(.text)
    timer_interrupt_flag_get                 0x08003fc1   Thumb Code    22  gd32f1x0_timer.o(.text)
    timer_interrupt_flag_clear               0x08003fd9   Thumb Code     6  gd32f1x0_timer.o(.text)
    timer_flag_get                           0x08003fe1   Thumb Code    10  gd32f1x0_timer.o(.text)
    timer_flag_clear                         0x08003fed   Thumb Code     6  gd32f1x0_timer.o(.text)
    timer_dma_enable                         0x08003ff5   Thumb Code     8  gd32f1x0_timer.o(.text)
    timer_dma_disable                        0x08003ffd   Thumb Code    10  gd32f1x0_timer.o(.text)
    timer_channel_dma_request_source_select  0x08004009   Thumb Code    30  gd32f1x0_timer.o(.text)
    timer_dma_transfer_config                0x08004029   Thumb Code    24  gd32f1x0_timer.o(.text)
    timer_event_software_generate            0x08004041   Thumb Code     8  gd32f1x0_timer.o(.text)
    timer_break_struct_para_init             0x08004049   Thumb Code    16  gd32f1x0_timer.o(.text)
    timer_break_config                       0x08004059   Thumb Code    36  gd32f1x0_timer.o(.text)
    timer_break_enable                       0x0800407d   Thumb Code    10  gd32f1x0_timer.o(.text)
    timer_break_disable                      0x08004089   Thumb Code    10  gd32f1x0_timer.o(.text)
    timer_automatic_output_enable            0x08004095   Thumb Code    10  gd32f1x0_timer.o(.text)
    timer_automatic_output_disable           0x080040a1   Thumb Code    10  gd32f1x0_timer.o(.text)
    timer_primary_output_config              0x080040ad   Thumb Code    18  gd32f1x0_timer.o(.text)
    timer_channel_control_shadow_config      0x080040c1   Thumb Code    16  gd32f1x0_timer.o(.text)
    timer_channel_control_shadow_update_config 0x080040d1   Thumb Code    30  gd32f1x0_timer.o(.text)
    timer_channel_output_struct_para_init    0x080040f1   Thumb Code    12  gd32f1x0_timer.o(.text)
    timer_channel_output_config              0x080040fd   Thumb Code   550  gd32f1x0_timer.o(.text)
    timer_channel_output_mode_config         0x08004325   Thumb Code    58  gd32f1x0_timer.o(.text)
    timer_channel_output_pulse_value_config  0x08004361   Thumb Code    12  gd32f1x0_timer.o(.text)
    timer_channel_output_shadow_config       0x0800436d   Thumb Code    58  gd32f1x0_timer.o(.text)
    timer_channel_output_fast_config         0x080043a9   Thumb Code    58  gd32f1x0_timer.o(.text)
    timer_channel_output_clear_config        0x080043e5   Thumb Code    58  gd32f1x0_timer.o(.text)
    timer_channel_output_polarity_config     0x08004421   Thumb Code    74  gd32f1x0_timer.o(.text)
    timer_channel_complementary_output_polarity_config 0x0800446d   Thumb Code    74  gd32f1x0_timer.o(.text)
    timer_channel_output_state_config        0x080044b9   Thumb Code    74  gd32f1x0_timer.o(.text)
    timer_channel_complementary_output_state_config 0x08004505   Thumb Code    60  gd32f1x0_timer.o(.text)
    timer_channel_input_struct_para_init     0x08004541   Thumb Code    12  gd32f1x0_timer.o(.text)
    timer_input_capture_config               0x0800454d   Thumb Code   346  gd32f1x0_timer.o(.text)
    timer_channel_input_capture_prescaler_config 0x080046a9   Thumb Code    58  gd32f1x0_timer.o(.text)
    timer_channel_capture_value_register_read 0x080046e5   Thumb Code    14  gd32f1x0_timer.o(.text)
    timer_input_pwm_capture_config           0x080046f5   Thumb Code   356  gd32f1x0_timer.o(.text)
    timer_hall_mode_config                   0x08004859   Thumb Code    30  gd32f1x0_timer.o(.text)
    timer_input_trigger_source_select        0x08004879   Thumb Code    16  gd32f1x0_timer.o(.text)
    timer_master_output_trigger_source_select 0x08004889   Thumb Code    16  gd32f1x0_timer.o(.text)
    timer_slave_mode_select                  0x08004899   Thumb Code    16  gd32f1x0_timer.o(.text)
    timer_master_slave_mode_config           0x080048a9   Thumb Code    30  gd32f1x0_timer.o(.text)
    timer_external_trigger_config            0x080048c9   Thumb Code    34  gd32f1x0_timer.o(.text)
    timer_quadrature_decoder_mode_config     0x080048ed   Thumb Code    78  gd32f1x0_timer.o(.text)
    timer_internal_clock_config              0x0800493d   Thumb Code    10  gd32f1x0_timer.o(.text)
    timer_internal_trigger_as_external_clock_config 0x08004949   Thumb Code    32  gd32f1x0_timer.o(.text)
    timer_external_trigger_as_external_clock_config 0x08004969   Thumb Code   148  gd32f1x0_timer.o(.text)
    timer_external_clock_mode0_config        0x080049fd   Thumb Code    50  gd32f1x0_timer.o(.text)
    timer_external_clock_mode1_config        0x08004a31   Thumb Code    42  gd32f1x0_timer.o(.text)
    timer_external_clock_mode1_disable       0x08004a5d   Thumb Code    10  gd32f1x0_timer.o(.text)
    timer_channel_remap_config               0x08004a69   Thumb Code     4  gd32f1x0_timer.o(.text)
    Reset_Handler                            0x08004a6d   Thumb Code     8  startup_gd32f1x0.o(.text)
    ADC_CMP_IRQHandler                       0x08004a87   Thumb Code     0  startup_gd32f1x0.o(.text)
    CAN0_RX0_IRQHandler                      0x08004a87   Thumb Code     0  startup_gd32f1x0.o(.text)
    CAN0_RX1_IRQHandler                      0x08004a87   Thumb Code     0  startup_gd32f1x0.o(.text)
    CAN0_SCE_IRQHandler                      0x08004a87   Thumb Code     0  startup_gd32f1x0.o(.text)
    CAN0_TX_IRQHandler                       0x08004a87   Thumb Code     0  startup_gd32f1x0.o(.text)
    CAN1_RX0_IRQHandler                      0x08004a87   Thumb Code     0  startup_gd32f1x0.o(.text)
    CAN1_RX1_IRQHandler                      0x08004a87   Thumb Code     0  startup_gd32f1x0.o(.text)
    CAN1_SCE_IRQHandler                      0x08004a87   Thumb Code     0  startup_gd32f1x0.o(.text)
    CAN1_TX_IRQHandler                       0x08004a87   Thumb Code     0  startup_gd32f1x0.o(.text)
    CEC_IRQHandler                           0x08004a87   Thumb Code     0  startup_gd32f1x0.o(.text)
    DMA_Channel1_2_IRQHandler                0x08004a87   Thumb Code     0  startup_gd32f1x0.o(.text)
    DMA_Channel3_4_IRQHandler                0x08004a87   Thumb Code     0  startup_gd32f1x0.o(.text)
    DMA_Channel5_6_IRQHandler                0x08004a87   Thumb Code     0  startup_gd32f1x0.o(.text)
    FMC_IRQHandler                           0x08004a87   Thumb Code     0  startup_gd32f1x0.o(.text)
    I2C0_ER_IRQHandler                       0x08004a87   Thumb Code     0  startup_gd32f1x0.o(.text)
    I2C0_EV_IRQHandler                       0x08004a87   Thumb Code     0  startup_gd32f1x0.o(.text)
    I2C1_ER_IRQHandler                       0x08004a87   Thumb Code     0  startup_gd32f1x0.o(.text)
    I2C1_EV_IRQHandler                       0x08004a87   Thumb Code     0  startup_gd32f1x0.o(.text)
    I2C2_ER_IRQHandler                       0x08004a87   Thumb Code     0  startup_gd32f1x0.o(.text)
    I2C2_EV_IRQHandler                       0x08004a87   Thumb Code     0  startup_gd32f1x0.o(.text)
    LVD_IRQHandler                           0x08004a87   Thumb Code     0  startup_gd32f1x0.o(.text)
    RCU_IRQHandler                           0x08004a87   Thumb Code     0  startup_gd32f1x0.o(.text)
    RTC_IRQHandler                           0x08004a87   Thumb Code     0  startup_gd32f1x0.o(.text)
    SLCD_IRQHandler                          0x08004a87   Thumb Code     0  startup_gd32f1x0.o(.text)
    SPI0_IRQHandler                          0x08004a87   Thumb Code     0  startup_gd32f1x0.o(.text)
    SPI1_IRQHandler                          0x08004a87   Thumb Code     0  startup_gd32f1x0.o(.text)
    SPI2_IRQHandler                          0x08004a87   Thumb Code     0  startup_gd32f1x0.o(.text)
    TIMER0_Channel_IRQHandler                0x08004a87   Thumb Code     0  startup_gd32f1x0.o(.text)
    TIMER14_IRQHandler                       0x08004a87   Thumb Code     0  startup_gd32f1x0.o(.text)
    TIMER15_IRQHandler                       0x08004a87   Thumb Code     0  startup_gd32f1x0.o(.text)
    TIMER16_IRQHandler                       0x08004a87   Thumb Code     0  startup_gd32f1x0.o(.text)
    TIMER1_IRQHandler                        0x08004a87   Thumb Code     0  startup_gd32f1x0.o(.text)
    TIMER2_IRQHandler                        0x08004a87   Thumb Code     0  startup_gd32f1x0.o(.text)
    TIMER5_DAC_IRQHandler                    0x08004a87   Thumb Code     0  startup_gd32f1x0.o(.text)
    TSI_IRQHandler                           0x08004a87   Thumb Code     0  startup_gd32f1x0.o(.text)
    USART0_IRQHandler                        0x08004a87   Thumb Code     0  startup_gd32f1x0.o(.text)
    USART1_IRQHandler                        0x08004a87   Thumb Code     0  startup_gd32f1x0.o(.text)
    USBDWakeUp_IRQHandler                    0x08004a87   Thumb Code     0  startup_gd32f1x0.o(.text)
    USBD_HP_IRQHandler                       0x08004a87   Thumb Code     0  startup_gd32f1x0.o(.text)
    USBD_LP_IRQHandler                       0x08004a87   Thumb Code     0  startup_gd32f1x0.o(.text)
    WWDGT_IRQHandler                         0x08004a87   Thumb Code     0  startup_gd32f1x0.o(.text)
    SystemInit                               0x08004a91   Thumb Code   188  system_gd32f1x0.o(.text)
    SystemCoreClockUpdate                    0x08004b4d   Thumb Code   112  system_gd32f1x0.o(.text)
    __aeabi_fadd                             0x08004bcd   Thumb Code   164  fadd.o(.text)
    __aeabi_fsub                             0x08004c71   Thumb Code     6  fadd.o(.text)
    __aeabi_frsub                            0x08004c77   Thumb Code     6  fadd.o(.text)
    __aeabi_fmul                             0x08004c7d   Thumb Code   100  fmul.o(.text)
    __aeabi_fdiv                             0x08004ce1   Thumb Code   124  fdiv.o(.text)
    __aeabi_dadd                             0x08004d5d   Thumb Code   322  dadd.o(.text)
    __aeabi_dsub                             0x08004e9f   Thumb Code     6  dadd.o(.text)
    __aeabi_drsub                            0x08004ea5   Thumb Code     6  dadd.o(.text)
    __aeabi_dmul                             0x08004eab   Thumb Code   228  dmul.o(.text)
    __aeabi_ddiv                             0x08004f8f   Thumb Code   222  ddiv.o(.text)
    __aeabi_fcmple                           0x0800506d   Thumb Code    28  fcmple.o(.text)
    __aeabi_fcmplt                           0x08005089   Thumb Code    28  fcmplt.o(.text)
    __aeabi_fcmpge                           0x080050a5   Thumb Code    28  fcmpge.o(.text)
    __aeabi_fcmpgt                           0x080050c1   Thumb Code    28  fcmpgt.o(.text)
    __aeabi_dcmple                           0x080050dd   Thumb Code    54  dcmple.o(.text)
    __aeabi_i2f                              0x08005113   Thumb Code    18  fflti.o(.text)
    __aeabi_ui2f                             0x08005125   Thumb Code    10  ffltui.o(.text)
    __aeabi_i2d                              0x0800512f   Thumb Code    34  dflti.o(.text)
    __aeabi_ui2d                             0x08005151   Thumb Code    26  dfltui.o(.text)
    __aeabi_f2iz                             0x0800516b   Thumb Code    50  ffixi.o(.text)
    __aeabi_d2iz                             0x0800519d   Thumb Code    62  dfixi.o(.text)
    __aeabi_f2d                              0x080051db   Thumb Code    38  f2d.o(.text)
    __aeabi_d2f                              0x08005201   Thumb Code    56  d2f.o(.text)
    __aeabi_llsl                             0x08005239   Thumb Code    30  llshl.o(.text)
    _ll_shift_l                              0x08005239   Thumb Code     0  llshl.o(.text)
    __aeabi_llsr                             0x08005257   Thumb Code    32  llushr.o(.text)
    _ll_ushift_r                             0x08005257   Thumb Code     0  llushr.o(.text)
    __aeabi_lasr                             0x08005277   Thumb Code    36  llsshr.o(.text)
    _ll_sshift_r                             0x08005277   Thumb Code     0  llsshr.o(.text)
    __I$use$fp                               0x0800529b   Thumb Code     0  iusefp.o(.text)
    _float_round                             0x0800529b   Thumb Code    18  fepilogue.o(.text)
    _float_epilogue                          0x080052ad   Thumb Code    92  fepilogue.o(.text)
    _double_round                            0x08005309   Thumb Code    30  depilogue.o(.text)
    _double_epilogue                         0x08005327   Thumb Code   156  depilogue.o(.text)
    __scatterload                            0x080053c5   Thumb Code    28  init.o(.text)
    __scatterload_rt2                        0x080053c5   Thumb Code     0  init.o(.text)
    __scatterload_copy                       0x080053e9   Thumb Code    14  handlers.o(i.__scatterload_copy)
    __scatterload_null                       0x080053f7   Thumb Code     2  handlers.o(i.__scatterload_null)
    __scatterload_zeroinit                   0x080053f9   Thumb Code    14  handlers.o(i.__scatterload_zeroinit)
    hall_to_pos                              0x0800542e   Data           8  bldc.o(.rodata.hall_to_pos)
    lookUpTableAngle                         0x08005438   Data         724  main.o(.rodata.lookUpTableAngle)
    Region$$Table$$Base                      0x080059dc   Number         0  anon$$obj.o(Region$$Table)
    Region$$Table$$Limit                     0x080059fc   Number         0  anon$$obj.o(Region$$Table)
    SystemCoreClock                          0x20000000   Data           4  system_gd32f1x0.o(.data.SystemCoreClock)
    batteryVoltage                           0x20000004   Data           4  bldc.o(.data.batteryVoltage)
    beepsBackwards                           0x20000008   Data           1  main.o(.data.beepsBackwards)
    currentDC                                0x2000000c   Data           4  bldc.o(.data.currentDC)
    iFILTER_SHIFT                            0x20000010   Data           1  bldc.o(.data.iFILTER_SHIFT)
    offsetdc                                 0x20000012   Data           2  bldc.o(.data.offsetdc)
    speedLimit                               0x20000014   Data           2  main.o(.data.speedLimit)
    wState                                   0x20000016   Data           1  main.o(.data.wState)
    aHallEXTI                                0x20000018   Data          12  bldcsine.o(.bss.aHallEXTI)
    adc_buffer                               0x20000024   Data           4  bldc.o(.bss.adc_buffer)
    angle_deg                                0x20000028   Data           4  bldcsine.o(.bss.angle_deg)
    angle_deg_add                            0x2000002c   Data           4  bldcsine.o(.bss.angle_deg_add)
    angle_deg_final                          0x20000030   Data           4  bldcsine.o(.bss.angle_deg_final)
    angle_idx                                0x20000034   Data           2  bldcsine.o(.bss.angle_idx)
    bInterrupt                               0x20000036   Data           1  bldcsine.o(.bss.bInterrupt)
    bldc_enable                              0x20000037   Data           1  bldc.o(.bss.bldc_enable)
    bldc_inputFilterPwm                      0x20000038   Data           2  bldc.o(.bss.bldc_inputFilterPwm)
    bldc_outputFilterPwm                     0x2000003a   Data           2  bldc.o(.bss.bldc_outputFilterPwm)
    buzzerFreq                               0x2000003c   Data           1  bldc.o(.bss.buzzerFreq)
    buzzerPattern                            0x2000003d   Data           1  bldc.o(.bss.buzzerPattern)
    buzzerTimer                              0x2000003e   Data           2  bldc.o(.bss.buzzerTimer)
    buzzerToggle                             0x20000040   Data           1  bldc.o(.bss.buzzerToggle)
    dma_init_struct_adc                      0x20000044   Data          36  setup.o(.bss.dma_init_struct_adc)
    enable                                   0x20000068   Data           1  main.o(.bss.enable)
    fDT                                      0x2000006c   Data           4  bldcsine.o(.bss.fDT)
    filter_reg                               0x20000070   Data           4  bldc.o(.bss.filter_reg)
    hall                                     0x20000074   Data           1  bldc.o(.bss.hall)
    hall_a                                   0x20000075   Data           1  bldc.o(.bss.hall_a)
    hall_b                                   0x20000076   Data           1  bldc.o(.bss.hall_b)
    hall_c                                   0x20000077   Data           1  bldc.o(.bss.hall_c)
    hall_last                                0x20000078   Data           1  bldcsine.o(.bss.hall_last)
    hall_time_last                           0x2000007a   Data           2  bldcsine.o(.bss.hall_time_last)
    hall_time_step                           0x2000007c   Data           2  bldcsine.o(.bss.hall_time_step)
    iAdcCounter                              0x20000080   Data           4  it.o(.bss.iAdcCounter)
    iAdcTicks                                0x20000084   Data           4  it.o(.bss.iAdcTicks)
    iAdcTicks0                               0x20000088   Data           4  it.o(.bss.iAdcTicks0)
    iBug                                     0x2000008c   Data           4  main.o(.bss.iBug)
    iOdom                                    0x20000090   Data           4  bldc.o(.bss.iOdom)
    iPwmCounter                              0x20000094   Data           4  it.o(.bss.iPwmCounter)
    iPwmTicks                                0x20000098   Data           4  it.o(.bss.iPwmTicks)
    iPwmTicks0                               0x2000009c   Data           4  it.o(.bss.iPwmTicks0)
    iTimeNextLoop                            0x200000a0   Data           4  main.o(.bss.iTimeNextLoop)
    inactivity_timeout_counter               0x200000a4   Data           4  main.o(.bss.inactivity_timeout_counter)
    lastPos                                  0x200000a8   Data           1  bldc.o(.bss.lastPos)
    msTicks                                  0x200000ac   Data           4  it.o(.bss.msTicks)
    oConfig                                  0x200000b0   Data          18  setup.o(.bss.oConfig)
    offsetcount                              0x200000c2   Data           2  bldc.o(.bss.offsetcount)
    pos                                      0x200000c4   Data           1  bldc.o(.bss.pos)
    pwmGo                                    0x200000c8   Data           4  bldcsine.o(.bss.pwmGo)
    pwmSlave                                 0x200000cc   Data           2  main.o(.bss.pwmSlave)
    realSpeed                                0x200000d0   Data           4  bldc.o(.bss.realSpeed)
    sector                                   0x200000d4   Data           1  bldcsine.o(.bss.sector)
    sector10x                                0x200000d5   Data           1  bldcsine.o(.bss.sector10x)
    sectorChange                             0x200000d6   Data           1  bldcsine.o(.bss.sectorChange)
    speed                                    0x200000d8   Data           4  main.o(.bss.speed)
    speedCounter                             0x200000dc   Data           4  bldc.o(.bss.speedCounter)
    speedShutoff                             0x200000e0   Data           4  main.o(.bss.speedShutoff)
    steer                                    0x200000e4   Data           4  main.o(.bss.steer)
    steerCounter                             0x200000e8   Data           4  main.o(.bss.steerCounter)
    timedOut                                 0x200000ec   Data           1  it.o(.bss.timedOut)
    timeoutCounter_ms                        0x200000f0   Data           4  it.o(.bss.timeoutCounter_ms)
    timeoutTimer_paramter_struct             0x200000f4   Data          16  setup.o(.bss.timeoutTimer_paramter_struct)
    timerBldc_break_parameter_struct         0x20000104   Data          24  setup.o(.bss.timerBldc_break_parameter_struct)
    timerBldc_oc_parameter_struct            0x2000011c   Data          16  setup.o(.bss.timerBldc_oc_parameter_struct)
    timerBldc_paramter_struct                0x2000012c   Data          16  setup.o(.bss.timerBldc_paramter_struct)
    __initial_sp                             0x20000540   Data           0  startup_gd32f1x0.o(STACK)



==============================================================================

Memory Map of the image

  Image Entry point : 0x08000169

  Load Region LR_IROM1 (Base: 0x08000000, Size: 0x00005a18, Max: 0x00010000, ABSOLUTE)

    Execution Region ER_IROM1 (Exec base: 0x08000000, Load base: 0x08000000, Size: 0x000059fc, Max: 0x00010000, ABSOLUTE)

    Exec Addr    Load Addr    Size         Type   Attr      Idx    E Section Name        Object

    0x08000000   0x08000000   0x00000168   Data   RO          286    RESET               startup_gd32f1x0.o
    0x08000168   0x08000168   0x00000000   Code   RO          303  * .ARM.Collect$$$$00000000  mc_w.l(entry.o)
    0x08000168   0x08000168   0x00000004   Code   RO          344    .ARM.Collect$$$$00000001  mc_w.l(entry2.o)
    0x0800016c   0x0800016c   0x00000004   Code   RO          347    .ARM.Collect$$$$00000004  mc_w.l(entry5.o)
    0x08000170   0x08000170   0x00000000   Code   RO          349    .ARM.Collect$$$$00000008  mc_w.l(entry7b.o)
    0x08000170   0x08000170   0x00000000   Code   RO          351    .ARM.Collect$$$$0000000A  mc_w.l(entry8b.o)
    0x08000170   0x08000170   0x00000008   Code   RO          352    .ARM.Collect$$$$0000000B  mc_w.l(entry9a.o)
    0x08000178   0x08000178   0x00000000   Code   RO          354    .ARM.Collect$$$$0000000D  mc_w.l(entry10a.o)
    0x08000178   0x08000178   0x00000000   Code   RO          356    .ARM.Collect$$$$0000000F  mc_w.l(entry11a.o)
    0x08000178   0x08000178   0x00000004   Code   RO          345    .ARM.Collect$$$$00002712  mc_w.l(entry2.o)
    0x0800017c   0x0800017c   0x000007b8   Code   RO            1    .text               main.o
    0x08000934   0x08000934   0x00000532   Code   RO           27    .text               bldc.o
    0x08000e66   0x08000e66   0x00000002   PAD
    0x08000e68   0x08000e68   0x000003b4   Code   RO           62    .text               bldcsine.o
    0x0800121c   0x0800121c   0x00000900   Code   RO           87    .text               setup.o
    0x08001b1c   0x08001b1c   0x0000016a   Code   RO          106    .text               it.o
    0x08001c86   0x08001c86   0x00000002   PAD
    0x08001c88   0x08001c88   0x00000072   Code   RO          138    .text               remotedummy.o
    0x08001cfa   0x08001cfa   0x00000002   PAD
    0x08001cfc   0x08001cfc   0x000005a6   Code   RO          155    .text               gd32f1x0_adc.o
    0x080022a2   0x080022a2   0x00000002   PAD
    0x080022a4   0x080022a4   0x0000034c   Code   RO          171    .text               gd32f1x0_dma.o
    0x080025f0   0x080025f0   0x0000016e   Code   RO          179    .text               gd32f1x0_exti.o
    0x0800275e   0x0800275e   0x00000002   PAD
    0x08002760   0x08002760   0x000009d4   Code   RO          187    .text               gd32f1x0_fmc.o
    0x08003134   0x08003134   0x000000da   Code   RO          196    .text               gd32f1x0_fwdgt.o
    0x0800320e   0x0800320e   0x00000002   PAD
    0x08003210   0x08003210   0x00000198   Code   RO          204    .text               gd32f1x0_gpio.o
    0x080033a8   0x080033a8   0x00000130   Code   RO          221    .text               gd32f1x0_misc.o
    0x080034d8   0x080034d8   0x00000730   Code   RO          242    .text               gd32f1x0_rcu.o
    0x08003c08   0x08003c08   0x00000102   Code   RO          251    .text               gd32f1x0_syscfg.o
    0x08003d0a   0x08003d0a   0x00000002   PAD
    0x08003d0c   0x08003d0c   0x00000d60   Code   RO          259    .text               gd32f1x0_timer.o
    0x08004a6c   0x08004a6c   0x00000024   Code   RO          287    .text               startup_gd32f1x0.o
    0x08004a90   0x08004a90   0x0000013c   Code   RO          293    .text               system_gd32f1x0.o
    0x08004bcc   0x08004bcc   0x000000b0   Code   RO          306    .text               mf_w.l(fadd.o)
    0x08004c7c   0x08004c7c   0x00000064   Code   RO          308    .text               mf_w.l(fmul.o)
    0x08004ce0   0x08004ce0   0x0000007c   Code   RO          310    .text               mf_w.l(fdiv.o)
    0x08004d5c   0x08004d5c   0x0000014e   Code   RO          312    .text               mf_w.l(dadd.o)
    0x08004eaa   0x08004eaa   0x000000e4   Code   RO          314    .text               mf_w.l(dmul.o)
    0x08004f8e   0x08004f8e   0x000000de   Code   RO          316    .text               mf_w.l(ddiv.o)
    0x0800506c   0x0800506c   0x0000001c   Code   RO          318    .text               mf_w.l(fcmple.o)
    0x08005088   0x08005088   0x0000001c   Code   RO          320    .text               mf_w.l(fcmplt.o)
    0x080050a4   0x080050a4   0x0000001c   Code   RO          322    .text               mf_w.l(fcmpge.o)
    0x080050c0   0x080050c0   0x0000001c   Code   RO          324    .text               mf_w.l(fcmpgt.o)
    0x080050dc   0x080050dc   0x00000036   Code   RO          326    .text               mf_w.l(dcmple.o)
    0x08005112   0x08005112   0x00000012   Code   RO          328    .text               mf_w.l(fflti.o)
    0x08005124   0x08005124   0x0000000a   Code   RO          330    .text               mf_w.l(ffltui.o)
    0x0800512e   0x0800512e   0x00000022   Code   RO          332    .text               mf_w.l(dflti.o)
    0x08005150   0x08005150   0x0000001a   Code   RO          334    .text               mf_w.l(dfltui.o)
    0x0800516a   0x0800516a   0x00000032   Code   RO          336    .text               mf_w.l(ffixi.o)
    0x0800519c   0x0800519c   0x0000003e   Code   RO          338    .text               mf_w.l(dfixi.o)
    0x080051da   0x080051da   0x00000026   Code   RO          340    .text               mf_w.l(f2d.o)
    0x08005200   0x08005200   0x00000038   Code   RO          342    .text               mf_w.l(d2f.o)
    0x08005238   0x08005238   0x0000001e   Code   RO          358    .text               mc_w.l(llshl.o)
    0x08005256   0x08005256   0x00000020   Code   RO          360    .text               mc_w.l(llushr.o)
    0x08005276   0x08005276   0x00000024   Code   RO          362    .text               mc_w.l(llsshr.o)
    0x0800529a   0x0800529a   0x00000000   Code   RO          364    .text               mc_w.l(iusefp.o)
    0x0800529a   0x0800529a   0x0000006e   Code   RO          365    .text               mf_w.l(fepilogue.o)
    0x08005308   0x08005308   0x000000ba   Code   RO          367    .text               mf_w.l(depilogue.o)
    0x080053c2   0x080053c2   0x00000002   PAD
    0x080053c4   0x080053c4   0x00000024   Code   RO          369    .text               mc_w.l(init.o)
    0x080053e8   0x080053e8   0x0000000e   Code   RO          373    i.__scatterload_copy  mc_w.l(handlers.o)
    0x080053f6   0x080053f6   0x00000002   Code   RO          374    i.__scatterload_null  mc_w.l(handlers.o)
    0x080053f8   0x080053f8   0x0000000e   Code   RO          375    i.__scatterload_zeroinit  mc_w.l(handlers.o)
    0x08005406   0x08005406   0x0000000c   Data   RO           45    .rodata..L__const.up_or_down.up_down  bldc.o
    0x08005412   0x08005412   0x0000000c   Data   RO          206    .rodata..Lswitch.table.gpio_deinit.1  gd32f1x0_gpio.o
    0x0800541e   0x0800541e   0x00000008   Data   RO           78    .rodata.cst8        bldcsine.o
    0x08005426   0x08005426   0x00000008   Data   RO          244    .rodata.cst8        gd32f1x0_rcu.o
    0x0800542e   0x0800542e   0x00000008   Data   RO           46    .rodata.hall_to_pos  bldc.o
    0x08005436   0x08005436   0x00000002   PAD
    0x08005438   0x08005438   0x000002d4   Data   RO           15    .rodata.lookUpTableAngle  main.o
    0x0800570c   0x0800570c   0x000002d0   Data   RO           79    .rodata.sine_table  bldcsine.o
    0x080059dc   0x080059dc   0x00000020   Data   RO          372    Region$$Table       anon$$obj.o


    Execution Region RW_IRAM1 (Exec base: 0x20000000, Load base: 0x08005a00, Size: 0x00000540, Max: 0x00002000, ABSOLUTE)

    Exec Addr    Load Addr    Size         Type   Attr      Idx    E Section Name        Object

    0x20000000   0x08005a00   0x00000004   Data   RW          295    .data.SystemCoreClock  system_gd32f1x0.o
    0x20000004   0x08005a04   0x00000004   Data   RW           29    .data.batteryVoltage  bldc.o
    0x20000008   0x08005a08   0x00000001   Data   RW           12    .data.beepsBackwards  main.o
    0x20000009   0x08005a09   0x00000003   PAD
    0x2000000c   0x08005a0c   0x00000004   Data   RW           30    .data.currentDC     bldc.o
    0x20000010   0x08005a10   0x00000001   Data   RW           36    .data.iFILTER_SHIFT  bldc.o
    0x20000011   0x08005a11   0x00000001   PAD
    0x20000012   0x08005a12   0x00000002   Data   RW           39    .data.offsetdc      bldc.o
    0x20000014   0x08005a14   0x00000002   Data   RW            7    .data.speedLimit    main.o
    0x20000016   0x08005a16   0x00000001   Data   RW            8    .data.wState        main.o
    0x20000017   0x08005a17   0x00000001   PAD
    0x20000018        -       0x0000000c   Zero   RW           73    .bss.aHallEXTI      bldcsine.o
    0x20000024        -       0x00000004   Zero   RW           48    .bss.adc_buffer     bldc.o
    0x20000028        -       0x00000004   Zero   RW           68    .bss.angle_deg      bldcsine.o
    0x2000002c        -       0x00000004   Zero   RW           69    .bss.angle_deg_add  bldcsine.o
    0x20000030        -       0x00000004   Zero   RW           70    .bss.angle_deg_final  bldcsine.o
    0x20000034        -       0x00000002   Zero   RW           71    .bss.angle_idx      bldcsine.o
    0x20000036        -       0x00000001   Zero   RW           74    .bss.bInterrupt     bldcsine.o
    0x20000037        -       0x00000001   Zero   RW           33    .bss.bldc_enable    bldc.o
    0x20000038        -       0x00000002   Zero   RW           32    .bss.bldc_inputFilterPwm  bldc.o
    0x2000003a        -       0x00000002   Zero   RW           35    .bss.bldc_outputFilterPwm  bldc.o
    0x2000003c        -       0x00000001   Zero   RW           42    .bss.buzzerFreq     bldc.o
    0x2000003d        -       0x00000001   Zero   RW           43    .bss.buzzerPattern  bldc.o
    0x2000003e        -       0x00000002   Zero   RW           37    .bss.buzzerTimer    bldc.o
    0x20000040        -       0x00000001   Zero   RW           41    .bss.buzzerToggle   bldc.o
    0x20000041   0x08005a17   0x00000003   PAD
    0x20000044        -       0x00000024   Zero   RW           93    .bss.dma_init_struct_adc  setup.o
    0x20000068        -       0x00000001   Zero   RW           16    .bss.enable         main.o
    0x20000069   0x08005a17   0x00000003   PAD
    0x2000006c        -       0x00000004   Zero   RW           67    .bss.fDT            bldcsine.o
    0x20000070        -       0x00000004   Zero   RW           47    .bss.filter_reg     bldc.o
    0x20000074        -       0x00000001   Zero   RW           34    .bss.hall           bldc.o
    0x20000075        -       0x00000001   Zero   RW           49    .bss.hall_a         bldc.o
    0x20000076        -       0x00000001   Zero   RW           50    .bss.hall_b         bldc.o
    0x20000077        -       0x00000001   Zero   RW           51    .bss.hall_c         bldc.o
    0x20000078        -       0x00000001   Zero   RW           77    .bss.hall_last      bldcsine.o
    0x20000079   0x08005a17   0x00000001   PAD
    0x2000007a        -       0x00000002   Zero   RW           75    .bss.hall_time_last  bldcsine.o
    0x2000007c        -       0x00000002   Zero   RW           76    .bss.hall_time_step  bldcsine.o
    0x2000007e   0x08005a17   0x00000002   PAD
    0x20000080        -       0x00000004   Zero   RW          116    .bss.iAdcCounter    it.o
    0x20000084        -       0x00000004   Zero   RW          114    .bss.iAdcTicks      it.o
    0x20000088        -       0x00000004   Zero   RW          115    .bss.iAdcTicks0     it.o
    0x2000008c        -       0x00000004   Zero   RW            3    .bss.iBug           main.o
    0x20000090        -       0x00000004   Zero   RW           44    .bss.iOdom          bldc.o
    0x20000094        -       0x00000004   Zero   RW          113    .bss.iPwmCounter    it.o
    0x20000098        -       0x00000004   Zero   RW          111    .bss.iPwmTicks      it.o
    0x2000009c        -       0x00000004   Zero   RW          112    .bss.iPwmTicks0     it.o
    0x200000a0        -       0x00000004   Zero   RW           18    .bss.iTimeNextLoop  main.o
    0x200000a4        -       0x00000004   Zero   RW           14    .bss.inactivity_timeout_counter  main.o
    0x200000a8        -       0x00000001   Zero   RW           53    .bss.lastPos        bldc.o
    0x200000a9   0x08005a17   0x00000003   PAD
    0x200000ac        -       0x00000004   Zero   RW          110    .bss.msTicks        it.o
    0x200000b0        -       0x00000012   Zero   RW           94    .bss.oConfig        setup.o
    0x200000c2        -       0x00000002   Zero   RW           38    .bss.offsetcount    bldc.o
    0x200000c4        -       0x00000001   Zero   RW           52    .bss.pos            bldc.o
    0x200000c5   0x08005a17   0x00000003   PAD
    0x200000c8        -       0x00000004   Zero   RW           72    .bss.pwmGo          bldcsine.o
    0x200000cc        -       0x00000002   Zero   RW           17    .bss.pwmSlave       main.o
    0x200000ce   0x08005a17   0x00000002   PAD
    0x200000d0        -       0x00000004   Zero   RW           31    .bss.realSpeed      bldc.o
    0x200000d4        -       0x00000001   Zero   RW           65    .bss.sector         bldcsine.o
    0x200000d5        -       0x00000001   Zero   RW           66    .bss.sector10x      bldcsine.o
    0x200000d6        -       0x00000001   Zero   RW           64    .bss.sectorChange   bldcsine.o
    0x200000d7   0x08005a17   0x00000001   PAD
    0x200000d8        -       0x00000004   Zero   RW            5    .bss.speed          main.o
    0x200000dc        -       0x00000004   Zero   RW           40    .bss.speedCounter   bldc.o
    0x200000e0        -       0x00000004   Zero   RW            6    .bss.speedShutoff   main.o
    0x200000e4        -       0x00000004   Zero   RW           10    .bss.steer          main.o
    0x200000e8        -       0x00000004   Zero   RW            4    .bss.steerCounter   main.o
    0x200000ec        -       0x00000001   Zero   RW          109    .bss.timedOut       it.o
    0x200000ed   0x08005a17   0x00000003   PAD
    0x200000f0        -       0x00000004   Zero   RW          108    .bss.timeoutCounter_ms  it.o
    0x200000f4        -       0x00000010   Zero   RW           89    .bss.timeoutTimer_paramter_struct  setup.o
    0x20000104        -       0x00000018   Zero   RW           92    .bss.timerBldc_break_parameter_struct  setup.o
    0x2000011c        -       0x00000010   Zero   RW           91    .bss.timerBldc_oc_parameter_struct  setup.o
    0x2000012c        -       0x00000010   Zero   RW           90    .bss.timerBldc_paramter_struct  setup.o
    0x2000013c   0x08005a17   0x00000004   PAD
    0x20000140        -       0x00000400   Zero   RW          284    STACK               startup_gd32f1x0.o


==============================================================================

Image component sizes


      Code (inc. data)   RO Data    RW Data    ZI Data      Debug   Object Name

      1330          0         20         11         38       4126   bldc.o
       948          0        728          0         43       6400   bldcsine.o
      1446         16          0          0          0       7602   gd32f1x0_adc.o
       844          8          0          0          0       6135   gd32f1x0_dma.o
       366          0          0          0          0       3198   gd32f1x0_exti.o
      2516          0          0          0          0      13249   gd32f1x0_fmc.o
       218          0          0          0          0       1996   gd32f1x0_fwdgt.o
       408          0         12          0          0       4211   gd32f1x0_gpio.o
       304          0          0          0          0       3163   gd32f1x0_misc.o
      1840         34          8          0          0      13480   gd32f1x0_rcu.o
       258          4          0          0          0       2965   gd32f1x0_syscfg.o
      3424         44          0          0          0      18343   gd32f1x0_timer.o
       362          0          0          0         33       2771   it.o
      1976          0        724          4         31       7222   main.o
       114          0          0          0          0        663   remotedummy.o
      2304          0          0          0        126       9621   setup.o
        36          8        360          0       1024        844   startup_gd32f1x0.o
       316         16          0          4          0       1592   system_gd32f1x0.o

    ----------------------------------------------------------------------
     19024        130       1886         24       1320     107581   Object Totals
         0          0         32          0          0          0   (incl. Generated)
        14          0          2          5         25          0   (incl. Padding)

    ----------------------------------------------------------------------

      Code (inc. data)   RO Data    RW Data    ZI Data      Debug   Library Member Name

         0          0          0          0          0          0   entry.o
         0          0          0          0          0          0   entry10a.o
         0          0          0          0          0          0   entry11a.o
         8          4          0          0          0          0   entry2.o
         4          0          0          0          0          0   entry5.o
         0          0          0          0          0          0   entry7b.o
         0          0          0          0          0          0   entry8b.o
         8          4          0          0          0          0   entry9a.o
        30          0          0          0          0          0   handlers.o
        36          8          0          0          0         68   init.o
         0          0          0          0          0          0   iusefp.o
        30          0          0          0          0         68   llshl.o
        36          0          0          0          0         68   llsshr.o
        32          0          0          0          0         68   llushr.o
        56          0          0          0          0         88   d2f.o
       334          0          0          0          0        148   dadd.o
        54          0          0          0          0         80   dcmple.o
       222          0          0          0          0        100   ddiv.o
       186          0          0          0          0        176   depilogue.o
        62          0          0          0          0         80   dfixi.o
        34          0          0          0          0         76   dflti.o
        26          0          0          0          0         76   dfltui.o
       228          0          0          0          0         96   dmul.o
        38          0          0          0          0         68   f2d.o
       176          0          0          0          0        140   fadd.o
        28          0          0          0          0         68   fcmpge.o
        28          0          0          0          0         68   fcmpgt.o
        28          0          0          0          0         68   fcmple.o
        28          0          0          0          0         68   fcmplt.o
       124          0          0          0          0         88   fdiv.o
       110          0          0          0          0        168   fepilogue.o
        50          0          0          0          0         68   ffixi.o
        18          0          0          0          0         68   fflti.o
        10          0          0          0          0         68   ffltui.o
       100          0          0          0          0         76   fmul.o

    ----------------------------------------------------------------------
      2126         16          0          0          0       2208   Library Totals
         2          0          0          0          0          0   (incl. Padding)

    ----------------------------------------------------------------------

      Code (inc. data)   RO Data    RW Data    ZI Data      Debug   Library Name

       184         16          0          0          0        272   mc_w.l
      1940          0          0          0          0       1936   mf_w.l

    ----------------------------------------------------------------------
      2126         16          0          0          0       2208   Library Totals

    ----------------------------------------------------------------------

==============================================================================


      Code (inc. data)   RO Data    RW Data    ZI Data      Debug   

     21150        146       1886         24       1320     108477   Grand Totals
     21150        146       1886         24       1320     108477   ELF Image Totals
     21150        146       1886         24          0          0   ROM Totals

==============================================================================

    Total RO  Size (Code + RO Data)                23036 (  22.50kB)
    Total RW  Size (RW Data + ZI Data)              1344 (   1.31kB)
    Total ROM Size (Code + RO Data + RW Data)      23060 (  22.52kB)

==============================================================================

