Component: Arm Compiler for Embedded 6.19 Tool: armlink [5e73cb00]

==============================================================================

Section Cross References

    main.o(.text) refers to system_gd32f1x0.o(.text) for SystemCoreClockUpdate
    main.o(.text) refers to system_gd32f1x0.o(.data.SystemCoreClock) for SystemCoreClock
    main.o(.text) refers to setup.o(.text) for Watchdog_init
    main.o(.text) refers to gd32f1x0_gpio.o(.text) for gpio_bit_write
    main.o(.text) refers to gd32f1x0_fwdgt.o(.text) for fwdgt_counter_reload
    main.o(.text) refers to bldc.o(.bss.buzzerFreq) for buzzerFreq
    main.o(.text) refers to it.o(.text) for Delay
    main.o(.text) refers to main.o(.bss.iTimeNextLoop) for iTimeNextLoop
    main.o(.text) refers to main.o(.bss.steerCounter) for steerCounter
    main.o(.text) refers to remoteuartbus.o(.text) for RemoteUpdate
    main.o(.text) refers to main.o(.bss.speed) for speed
    main.o(.text) refers to fflt_clz.o(x$fpl$fflt) for __aeabi_i2f
    main.o(.text) refers to f2d.o(x$fpl$f2d) for __aeabi_f2d
    main.o(.text) refers to dmul.o(x$fpl$dmul) for __aeabi_dmul
    main.o(.text) refers to ddiv.o(x$fpl$ddiv) for __aeabi_ddiv
    main.o(.text) refers to daddsub_clz.o(x$fpl$dadd) for __aeabi_dadd
    main.o(.text) refers to d2f.o(x$fpl$d2f) for __aeabi_d2f
    main.o(.text) refers to main.o(.data.speedLimit) for speedLimit
    main.o(.text) refers to main.o(.bss.steer) for steer
    main.o(.text) refers to fmul.o(x$fpl$fmul) for __aeabi_fmul
    main.o(.text) refers to ffix.o(x$fpl$ffix) for __aeabi_f2iz
    main.o(.text) refers to faddsub_clz.o(x$fpl$fsub) for __aeabi_fsub
    main.o(.text) refers to fdiv.o(x$fpl$fdiv) for __aeabi_fdiv
    main.o(.text) refers to faddsub_clz.o(x$fpl$fadd) for __aeabi_fadd
    main.o(.text) refers to main.o(.rodata.lookUpTableAngle) for lookUpTableAngle
    main.o(.text) refers to fcmp.o(x$fpl$fcmp) for __aeabi_fcmplt
    main.o(.text) refers to main.o(.bss.pwmSlave) for pwmSlave
    main.o(.text) refers to bldc.o(.text) for SetPWM
    main.o(.text) refers to bldc.o(.data.batteryVoltage) for batteryVoltage
    main.o(.text) refers to main.o(.data.beepsBackwards) for beepsBackwards
    main.o(.text) refers to bldc.o(.bss.buzzerPattern) for buzzerPattern
    main.o(.text) refers to main.o(.bss.inactivity_timeout_counter) for inactivity_timeout_counter
    main.o(.text) refers to main.o(.data.wState) for wState
    main.o(.text) refers to main.o(.bss.enable) for enable
    main.o(.ARM.exidx) refers to main.o(.text) for [Anonymous Symbol]
    bldc.o(.text) refers to bldc.o(.rodata..L__const.up_or_down.up_down) for .L__const.up_or_down.up_down
    bldc.o(.text) refers to bldc.o(.bss.bldc_enable) for bldc_enable
    bldc.o(.text) refers to dflt_clz.o(x$fpl$dflt) for __aeabi_i2d
    bldc.o(.text) refers to dmul.o(x$fpl$dmul) for __aeabi_dmul
    bldc.o(.text) refers to dcmp.o(x$fpl$fcmp) for __aeabi_dcmplt
    bldc.o(.text) refers to dfix.o(x$fpl$dfix) for __aeabi_d2iz
    bldc.o(.text) refers to bldc.o(.bss.bldc_inputFilterPwm) for bldc_inputFilterPwm
    bldc.o(.text) refers to bldc.o(.bss.offsetcount) for offsetcount
    bldc.o(.text) refers to bldc.o(.bss.adc_buffer) for adc_buffer
    bldc.o(.text) refers to bldc.o(.data.offsetdc) for offsetdc
    bldc.o(.text) refers to bldc.o(.bss.buzzerTimer) for buzzerTimer
    bldc.o(.text) refers to bldc.o(.data.batteryVoltage) for batteryVoltage
    bldc.o(.text) refers to f2d.o(x$fpl$f2d) for __aeabi_f2d
    bldc.o(.text) refers to dflt_clz.o(x$fpl$dfltu) for __aeabi_ui2d
    bldc.o(.text) refers to daddsub_clz.o(x$fpl$dadd) for __aeabi_dadd
    bldc.o(.text) refers to d2f.o(x$fpl$d2f) for __aeabi_d2f
    bldc.o(.text) refers to bldc.o(.bss.buzzerFreq) for buzzerFreq
    bldc.o(.text) refers to bldc.o(.bss.buzzerPattern) for buzzerPattern
    bldc.o(.text) refers to gd32f1x0_gpio.o(.text) for gpio_bit_write
    bldc.o(.text) refers to bldc.o(.data.currentDC) for currentDC
    bldc.o(.text) refers to fcmp.o(x$fpl$fcmp) for __aeabi_fcmpgt
    bldc.o(.text) refers to it.o(.bss.timedOut) for timedOut
    bldc.o(.text) refers to gd32f1x0_timer.o(.text) for timer_automatic_output_enable
    bldc.o(.text) refers to bldc.o(.bss.hall_a) for hall_a
    bldc.o(.text) refers to bldc.o(.bss.hall_b) for hall_b
    bldc.o(.text) refers to bldc.o(.bss.hall_c) for hall_c
    bldc.o(.text) refers to bldc.o(.bss.hall) for hall
    bldc.o(.text) refers to bldc.o(.rodata.hall_to_pos) for hall_to_pos
    bldc.o(.text) refers to bldc.o(.bss.filter_reg) for filter_reg
    bldc.o(.text) refers to bldc.o(.bss.pos) for pos
    bldc.o(.text) refers to bldc.o(.bss.bldc_outputFilterPwm) for bldc_outputFilterPwm
    bldc.o(.text) refers to bldc.o(.bss.buzzerToggle) for buzzerToggle
    bldc.o(.text) refers to bldc.o(.bss.lastPos) for lastPos
    bldc.o(.text) refers to bldc.o(.bss.iOdom) for iOdom
    bldc.o(.text) refers to bldc.o(.bss.speedCounter) for speedCounter
    bldc.o(.text) refers to fflt_clz.o(x$fpl$ffltu) for __aeabi_ui2f
    bldc.o(.text) refers to fdiv.o(x$fpl$fdiv) for __aeabi_fdiv
    bldc.o(.text) refers to bldc.o(.bss.realSpeed) for realSpeed
    bldc.o(.ARM.exidx) refers to bldc.o(.text) for [Anonymous Symbol]
    setup.o(.text) refers to gd32f1x0_misc.o(.text) for nvic_priority_group_set
    setup.o(.text) refers to gd32f1x0_rcu.o(.text) for rcu_flag_get
    setup.o(.text) refers to gd32f1x0_fwdgt.o(.text) for fwdgt_config
    setup.o(.text) refers to gd32f1x0_timer.o(.text) for timer_deinit
    setup.o(.text) refers to setup.o(.bss.timeoutTimer_paramter_struct) for timeoutTimer_paramter_struct
    setup.o(.text) refers to gd32f1x0_gpio.o(.text) for gpio_mode_set
    setup.o(.text) refers to setup.o(.bss.timerBldc_paramter_struct) for timerBldc_paramter_struct
    setup.o(.text) refers to setup.o(.bss.timerBldc_oc_parameter_struct) for timerBldc_oc_parameter_struct
    setup.o(.text) refers to setup.o(.bss.timerBldc_break_parameter_struct) for timerBldc_break_parameter_struct
    setup.o(.text) refers to gd32f1x0_dma.o(.text) for dma_deinit
    setup.o(.text) refers to setup.o(.bss.dma_init_struct_adc) for dma_init_struct_adc
    setup.o(.text) refers to bldc.o(.bss.adc_buffer) for adc_buffer
    setup.o(.text) refers to gd32f1x0_adc.o(.text) for adc_channel_length_config
    setup.o(.text) refers to gd32f1x0_usart.o(.text) for usart_baudrate_set
    setup.o(.text) refers to setup.o(.bss.dma_init_struct_usart) for dma_init_struct_usart
    setup.o(.text) refers to setup.o(.bss.usart1_rx_buf) for usart1_rx_buf
    setup.o(.text) refers to setup.o(.bss.usart0_rx_buf) for usart0_rx_buf
    setup.o(.ARM.exidx) refers to setup.o(.text) for [Anonymous Symbol]
    it.o(.text) refers to it.o(.bss.msTicks) for msTicks
    it.o(.text) refers to it.o(.bss.timeoutCounter_ms) for timeoutCounter_ms
    it.o(.text) refers to it.o(.bss.timedOut) for timedOut
    it.o(.text) refers to bldc.o(.text) for SetPWM
    it.o(.text) refers to gd32f1x0_timer.o(.text) for timer_interrupt_flag_clear
    it.o(.text) refers to gd32f1x0_adc.o(.text) for adc_software_trigger_enable
    it.o(.text) refers to gd32f1x0_dma.o(.text) for dma_interrupt_flag_get
    it.o(.text) refers to remoteuartbus.o(.text) for RemoteCallback
    it.o(.ARM.exidx) refers to it.o(.text) for [Anonymous Symbol]
    remoteuartbus.o(.text) refers to it.o(.text) for millis
    remoteuartbus.o(.text) refers to remoteuartbus.o(.bss.iTimeLastRx) for iTimeLastRx
    remoteuartbus.o(.text) refers to main.o(.bss.steer) for steer
    remoteuartbus.o(.text) refers to main.o(.bss.speed) for speed
    remoteuartbus.o(.text) refers to bldc.o(.data.batteryVoltage) for batteryVoltage
    remoteuartbus.o(.text) refers to fmul.o(x$fpl$fmul) for __aeabi_fmul
    remoteuartbus.o(.text) refers to ffix.o(x$fpl$ffix) for __aeabi_f2iz
    remoteuartbus.o(.text) refers to bldc.o(.data.currentDC) for currentDC
    remoteuartbus.o(.text) refers to bldc.o(.bss.realSpeed) for realSpeed
    remoteuartbus.o(.text) refers to remoteuartbus.o(.bss.iAnswerMaster) for iAnswerMaster
    remoteuartbus.o(.text) refers to commsmasterslave.o(.text) for CalcCRC
    remoteuartbus.o(.text) refers to remoteuartbus.o(.bss.iReceivePos) for iReceivePos
    remoteuartbus.o(.text) refers to setup.o(.bss.usart1_rx_buf) for usart1_rx_buf
    remoteuartbus.o(.text) refers to remoteuartbus.o(.bss.aReceiveBuffer) for aReceiveBuffer
    remoteuartbus.o(.text) refers to remoteuartbus.o(.bss.iRxDataType) for iRxDataType
    remoteuartbus.o(.text) refers to remoteuartbus.o(.bss.iRxDataSize) for iRxDataSize
    remoteuartbus.o(.text) refers to main.o(.data.wState) for wState
    remoteuartbus.o(.text) refers to main.o(.data.wStateSlave) for wStateSlave
    remoteuartbus.o(.ARM.exidx) refers to remoteuartbus.o(.text) for [Anonymous Symbol]
    commsmasterslave.o(.text) refers to gd32f1x0_usart.o(.text) for usart_data_transmit
    commsmasterslave.o(.text) refers to commsmasterslave.o(.bss.beepsBackwardsMaster) for beepsBackwardsMaster
    commsmasterslave.o(.ARM.exidx) refers to commsmasterslave.o(.text) for [Anonymous Symbol]
    gd32f1x0_adc.o(.text) refers to gd32f1x0_rcu.o(.text) for rcu_periph_reset_enable
    gd32f1x0_adc.o(.ARM.exidx) refers to gd32f1x0_adc.o(.text) for [Anonymous Symbol]
    gd32f1x0_dbg.o(.ARM.exidx) refers to gd32f1x0_dbg.o(.text) for [Anonymous Symbol]
    gd32f1x0_dma.o(.ARM.exidx) refers to gd32f1x0_dma.o(.text) for [Anonymous Symbol]
    gd32f1x0_fwdgt.o(.ARM.exidx) refers to gd32f1x0_fwdgt.o(.text) for [Anonymous Symbol]
    gd32f1x0_gpio.o(.text) refers to gd32f1x0_gpio.o(.rodata..Lswitch.table.gpio_deinit.1) for .Lswitch.table.gpio_deinit.1
    gd32f1x0_gpio.o(.text) refers to gd32f1x0_rcu.o(.text) for rcu_periph_reset_enable
    gd32f1x0_gpio.o(.ARM.exidx) refers to gd32f1x0_gpio.o(.text) for [Anonymous Symbol]
    gd32f1x0_i2c.o(.text) refers to gd32f1x0_rcu.o(.text) for rcu_periph_reset_enable
    gd32f1x0_i2c.o(.ARM.exidx) refers to gd32f1x0_i2c.o(.text) for [Anonymous Symbol]
    gd32f1x0_misc.o(.ARM.exidx) refers to gd32f1x0_misc.o(.text) for [Anonymous Symbol]
    gd32f1x0_pmu.o(.text) refers to gd32f1x0_rcu.o(.text) for rcu_periph_reset_enable
    gd32f1x0_pmu.o(.text) refers to gd32f1x0_pmu.o(.bss.pmu_to_deepsleepmode.reg_snap.1) for pmu_to_deepsleepmode.reg_snap.1
    gd32f1x0_pmu.o(.text) refers to gd32f1x0_pmu.o(.bss.pmu_to_deepsleepmode.reg_snap.0) for pmu_to_deepsleepmode.reg_snap.0
    gd32f1x0_pmu.o(.text) refers to gd32f1x0_pmu.o(.bss.pmu_to_deepsleepmode.reg_snap.2) for pmu_to_deepsleepmode.reg_snap.2
    gd32f1x0_pmu.o(.text) refers to gd32f1x0_pmu.o(.bss.pmu_to_deepsleepmode.reg_snap.3) for pmu_to_deepsleepmode.reg_snap.3
    gd32f1x0_pmu.o(.ARM.exidx) refers to gd32f1x0_pmu.o(.text) for [Anonymous Symbol]
    gd32f1x0_rcu.o(.text) refers to gd32f1x0_rcu.o(.rodata.cst8) for .L__const.rcu_clock_freq_get.apb2_exp
    gd32f1x0_rcu.o(.ARM.exidx) refers to gd32f1x0_rcu.o(.text) for [Anonymous Symbol]
    gd32f1x0_syscfg.o(.text) refers to gd32f1x0_rcu.o(.text) for rcu_periph_reset_enable
    gd32f1x0_syscfg.o(.ARM.exidx) refers to gd32f1x0_syscfg.o(.text) for [Anonymous Symbol]
    gd32f1x0_timer.o(.text) refers to gd32f1x0_rcu.o(.text) for rcu_periph_reset_enable
    gd32f1x0_timer.o(.ARM.exidx) refers to gd32f1x0_timer.o(.text) for [Anonymous Symbol]
    gd32f1x0_usart.o(.text) refers to gd32f1x0_rcu.o(.text) for rcu_periph_reset_enable
    gd32f1x0_usart.o(.ARM.exidx) refers to gd32f1x0_usart.o(.text) for [Anonymous Symbol]
    gd32f1x0_wwdgt.o(.text) refers to gd32f1x0_rcu.o(.text) for rcu_periph_reset_enable
    gd32f1x0_wwdgt.o(.ARM.exidx) refers to gd32f1x0_wwdgt.o(.text) for [Anonymous Symbol]
    startup_gd32f1x0.o(STACK) refers (Special) to heapauxi.o(.text) for __use_two_region_memory
    startup_gd32f1x0.o(HEAP) refers (Special) to heapauxi.o(.text) for __use_two_region_memory
    startup_gd32f1x0.o(RESET) refers (Special) to heapauxi.o(.text) for __use_two_region_memory
    startup_gd32f1x0.o(RESET) refers to startup_gd32f1x0.o(STACK) for __initial_sp
    startup_gd32f1x0.o(RESET) refers to startup_gd32f1x0.o(.text) for Reset_Handler
    startup_gd32f1x0.o(RESET) refers to it.o(.text) for NMI_Handler
    startup_gd32f1x0.o(.text) refers (Special) to heapauxi.o(.text) for __use_two_region_memory
    startup_gd32f1x0.o(.text) refers to system_gd32f1x0.o(.text) for SystemInit
    startup_gd32f1x0.o(.text) refers to __main.o(!!!main) for __main
    startup_gd32f1x0.o(.text) refers to startup_gd32f1x0.o(HEAP) for Heap_Mem
    startup_gd32f1x0.o(.text) refers to startup_gd32f1x0.o(STACK) for Stack_Mem
    system_gd32f1x0.o(.text) refers to system_gd32f1x0.o(.data.SystemCoreClock) for SystemCoreClock
    system_gd32f1x0.o(.ARM.exidx) refers to system_gd32f1x0.o(.text) for [Anonymous Symbol]
    __main.o(!!!main) refers to __rtentry.o(.ARM.Collect$$rtentry$$00000000) for __rt_entry
    d2f.o(x$fpl$d2f) refers (Special) to usenofp.o(x$fpl$usenofp) for __I$use$fp
    d2f.o(x$fpl$d2f) refers to fretinf.o(x$fpl$fretinf) for __fpl_fretinf
    d2f.o(x$fpl$d2f) refers to dnaninf.o(x$fpl$dnaninf) for __fpl_dnaninf
    daddsub_clz.o(x$fpl$dadd) refers (Special) to usenofp.o(x$fpl$usenofp) for __I$use$fp
    daddsub_clz.o(x$fpl$dadd) refers to daddsub_clz.o(x$fpl$dsub) for _dsub1
    daddsub_clz.o(x$fpl$dadd) refers to dretinf.o(x$fpl$dretinf) for __fpl_dretinf
    daddsub_clz.o(x$fpl$dadd) refers to dnaninf.o(x$fpl$dnaninf) for __fpl_dnaninf
    daddsub_clz.o(x$fpl$drsb) refers (Special) to usenofp.o(x$fpl$usenofp) for __I$use$fp
    daddsub_clz.o(x$fpl$drsb) refers to daddsub_clz.o(x$fpl$dadd) for _dadd1
    daddsub_clz.o(x$fpl$drsb) refers to daddsub_clz.o(x$fpl$dsub) for _dsub1
    daddsub_clz.o(x$fpl$dsub) refers (Special) to usenofp.o(x$fpl$usenofp) for __I$use$fp
    daddsub_clz.o(x$fpl$dsub) refers to daddsub_clz.o(x$fpl$dadd) for _dadd1
    daddsub_clz.o(x$fpl$dsub) refers to dnaninf.o(x$fpl$dnaninf) for __fpl_dnaninf
    dcmp.o(x$fpl$fcmp) refers (Special) to usenofp.o(x$fpl$usenofp) for __I$use$fp
    dcmp.o(x$fpl$fcmp) refers to deqf.o(x$fpl$deqf) for _dcmpeq
    dcmp.o(x$fpl$fcmp) refers to dgeqf.o(x$fpl$dgeqf) for _dcmpge
    dcmp.o(x$fpl$fcmp) refers to dleqf.o(x$fpl$dleqf) for _dcmple
    ddiv.o(x$fpl$drdiv) refers (Special) to usenofp.o(x$fpl$usenofp) for __I$use$fp
    ddiv.o(x$fpl$drdiv) refers to ddiv.o(x$fpl$ddiv) for ddiv_entry
    ddiv.o(x$fpl$ddiv) refers (Special) to usenofp.o(x$fpl$usenofp) for __I$use$fp
    ddiv.o(x$fpl$ddiv) refers to dretinf.o(x$fpl$dretinf) for __fpl_dretinf
    ddiv.o(x$fpl$ddiv) refers to dnaninf.o(x$fpl$dnaninf) for __fpl_dnaninf
    dfix.o(x$fpl$dfix) refers (Special) to usenofp.o(x$fpl$usenofp) for __I$use$fp
    dfix.o(x$fpl$dfix) refers to dnaninf.o(x$fpl$dnaninf) for __fpl_dnaninf
    dfix.o(x$fpl$dfixr) refers (Special) to usenofp.o(x$fpl$usenofp) for __I$use$fp
    dfix.o(x$fpl$dfixr) refers to dnaninf.o(x$fpl$dnaninf) for __fpl_dnaninf
    dflt_clz.o(x$fpl$dfltu) refers (Special) to usenofp.o(x$fpl$usenofp) for __I$use$fp
    dflt_clz.o(x$fpl$dflt) refers (Special) to usenofp.o(x$fpl$usenofp) for __I$use$fp
    dflt_clz.o(x$fpl$dfltn) refers (Special) to usenofp.o(x$fpl$usenofp) for __I$use$fp
    dmul.o(x$fpl$dmul) refers (Special) to usenofp.o(x$fpl$usenofp) for __I$use$fp
    dmul.o(x$fpl$dmul) refers to dretinf.o(x$fpl$dretinf) for __fpl_dretinf
    dmul.o(x$fpl$dmul) refers to dnaninf.o(x$fpl$dnaninf) for __fpl_dnaninf
    f2d.o(x$fpl$f2d) refers (Special) to usenofp.o(x$fpl$usenofp) for __I$use$fp
    f2d.o(x$fpl$f2d) refers to fnaninf.o(x$fpl$fnaninf) for __fpl_fnaninf
    f2d.o(x$fpl$f2d) refers to dretinf.o(x$fpl$dretinf) for __fpl_dretinf
    faddsub_clz.o(x$fpl$fadd) refers (Special) to usenofp.o(x$fpl$usenofp) for __I$use$fp
    faddsub_clz.o(x$fpl$fadd) refers to faddsub_clz.o(x$fpl$fsub) for _fsub1
    faddsub_clz.o(x$fpl$fadd) refers to fretinf.o(x$fpl$fretinf) for __fpl_fretinf
    faddsub_clz.o(x$fpl$fadd) refers to fnaninf.o(x$fpl$fnaninf) for __fpl_fnaninf
    faddsub_clz.o(x$fpl$frsb) refers (Special) to usenofp.o(x$fpl$usenofp) for __I$use$fp
    faddsub_clz.o(x$fpl$frsb) refers to faddsub_clz.o(x$fpl$fadd) for _fadd1
    faddsub_clz.o(x$fpl$frsb) refers to faddsub_clz.o(x$fpl$fsub) for _fsub1
    faddsub_clz.o(x$fpl$fsub) refers (Special) to usenofp.o(x$fpl$usenofp) for __I$use$fp
    faddsub_clz.o(x$fpl$fsub) refers to faddsub_clz.o(x$fpl$fadd) for _fadd1
    faddsub_clz.o(x$fpl$fsub) refers to fnaninf.o(x$fpl$fnaninf) for __fpl_fnaninf
    fcmp.o(x$fpl$fcmp) refers (Special) to usenofp.o(x$fpl$usenofp) for __I$use$fp
    fcmp.o(x$fpl$fcmp) refers to feqf.o(x$fpl$feqf) for _fcmpeq
    fcmp.o(x$fpl$fcmp) refers to fgeqf.o(x$fpl$fgeqf) for _fcmpge
    fcmp.o(x$fpl$fcmp) refers to fleqf.o(x$fpl$fleqf) for _fcmple
    fdiv.o(x$fpl$frdiv) refers (Special) to usenofp.o(x$fpl$usenofp) for __I$use$fp
    fdiv.o(x$fpl$frdiv) refers to fdiv.o(x$fpl$fdiv) for _fdiv1
    fdiv.o(x$fpl$fdiv) refers (Special) to usenofp.o(x$fpl$usenofp) for __I$use$fp
    fdiv.o(x$fpl$fdiv) refers to fretinf.o(x$fpl$fretinf) for __fpl_fretinf
    fdiv.o(x$fpl$fdiv) refers to fnaninf.o(x$fpl$fnaninf) for __fpl_fnaninf
    ffix.o(x$fpl$ffix) refers (Special) to usenofp.o(x$fpl$usenofp) for __I$use$fp
    ffix.o(x$fpl$ffix) refers to fnaninf.o(x$fpl$fnaninf) for __fpl_fnaninf
    ffix.o(x$fpl$ffixr) refers (Special) to usenofp.o(x$fpl$usenofp) for __I$use$fp
    ffix.o(x$fpl$ffixr) refers to fnaninf.o(x$fpl$fnaninf) for __fpl_fnaninf
    fflt_clz.o(x$fpl$ffltu) refers (Special) to usenofp.o(x$fpl$usenofp) for __I$use$fp
    fflt_clz.o(x$fpl$fflt) refers (Special) to usenofp.o(x$fpl$usenofp) for __I$use$fp
    fflt_clz.o(x$fpl$ffltn) refers (Special) to usenofp.o(x$fpl$usenofp) for __I$use$fp
    fmul.o(x$fpl$fmul) refers (Special) to usenofp.o(x$fpl$usenofp) for __I$use$fp
    fmul.o(x$fpl$fmul) refers to fretinf.o(x$fpl$fretinf) for __fpl_fretinf
    fmul.o(x$fpl$fmul) refers to fnaninf.o(x$fpl$fnaninf) for __fpl_fnaninf
    __rtentry.o(.ARM.Collect$$rtentry$$00000000) refers (Special) to __rtentry2.o(.ARM.Collect$$rtentry$$0000000A) for __rt_entry_li
    __rtentry.o(.ARM.Collect$$rtentry$$00000000) refers (Special) to __rtentry2.o(.ARM.Collect$$rtentry$$0000000D) for __rt_entry_main
    __rtentry.o(.ARM.Collect$$rtentry$$00000000) refers (Special) to __rtentry2.o(.ARM.Collect$$rtentry$$0000000C) for __rt_entry_postli_1
    __rtentry.o(.ARM.Collect$$rtentry$$00000000) refers (Special) to __rtentry2.o(.ARM.Collect$$rtentry$$00000009) for __rt_entry_postsh_1
    __rtentry.o(.ARM.Collect$$rtentry$$00000000) refers (Special) to __rtentry2.o(.ARM.Collect$$rtentry$$00000002) for __rt_entry_presh_1
    __rtentry.o(.ARM.Collect$$rtentry$$00000000) refers (Special) to __rtentry4.o(.ARM.Collect$$rtentry$$00000004) for __rt_entry_sh
    deqf.o(x$fpl$deqf) refers (Special) to usenofp.o(x$fpl$usenofp) for __I$use$fp
    deqf.o(x$fpl$deqf) refers to dnaninf.o(x$fpl$dnaninf) for __fpl_dnaninf
    deqf.o(x$fpl$deqf) refers to dcmpi.o(x$fpl$dcmpinf) for __fpl_dcmp_Inf
    dgeqf.o(x$fpl$dgeqf) refers (Special) to usenofp.o(x$fpl$usenofp) for __I$use$fp
    dgeqf.o(x$fpl$dgeqf) refers to dnaninf.o(x$fpl$dnaninf) for __fpl_dnaninf
    dgeqf.o(x$fpl$dgeqf) refers to dcmpi.o(x$fpl$dcmpinf) for __fpl_dcmp_Inf
    dleqf.o(x$fpl$dleqf) refers (Special) to usenofp.o(x$fpl$usenofp) for __I$use$fp
    dleqf.o(x$fpl$dleqf) refers to dnaninf.o(x$fpl$dnaninf) for __fpl_dnaninf
    dleqf.o(x$fpl$dleqf) refers to dcmpi.o(x$fpl$dcmpinf) for __fpl_dcmp_Inf
    dnaninf.o(x$fpl$dnaninf) refers (Special) to usenofp.o(x$fpl$usenofp) for __I$use$fp
    dretinf.o(x$fpl$dretinf) refers (Special) to usenofp.o(x$fpl$usenofp) for __I$use$fp
    feqf.o(x$fpl$feqf) refers (Special) to usenofp.o(x$fpl$usenofp) for __I$use$fp
    feqf.o(x$fpl$feqf) refers to fnaninf.o(x$fpl$fnaninf) for __fpl_fnaninf
    feqf.o(x$fpl$feqf) refers to fcmpi.o(x$fpl$fcmpinf) for __fpl_fcmp_Inf
    fgeqf.o(x$fpl$fgeqf) refers (Special) to usenofp.o(x$fpl$usenofp) for __I$use$fp
    fgeqf.o(x$fpl$fgeqf) refers to fnaninf.o(x$fpl$fnaninf) for __fpl_fnaninf
    fgeqf.o(x$fpl$fgeqf) refers to fcmpi.o(x$fpl$fcmpinf) for __fpl_fcmp_Inf
    fleqf.o(x$fpl$fleqf) refers (Special) to usenofp.o(x$fpl$usenofp) for __I$use$fp
    fleqf.o(x$fpl$fleqf) refers to fnaninf.o(x$fpl$fnaninf) for __fpl_fnaninf
    fleqf.o(x$fpl$fleqf) refers to fcmpi.o(x$fpl$fcmpinf) for __fpl_fcmp_Inf
    fnaninf.o(x$fpl$fnaninf) refers (Special) to usenofp.o(x$fpl$usenofp) for __I$use$fp
    fretinf.o(x$fpl$fretinf) refers (Special) to usenofp.o(x$fpl$usenofp) for __I$use$fp
    __rtentry2.o(.ARM.Collect$$rtentry$$00000008) refers to boardinit2.o(.text) for _platform_post_stackheap_init
    __rtentry2.o(.ARM.Collect$$rtentry$$0000000A) refers to libinit.o(.ARM.Collect$$libinit$$00000000) for __rt_lib_init
    __rtentry2.o(.ARM.Collect$$rtentry$$0000000B) refers to boardinit3.o(.text) for _platform_post_lib_init
    __rtentry2.o(.ARM.Collect$$rtentry$$0000000D) refers to main.o(.text) for main
    __rtentry2.o(.ARM.Collect$$rtentry$$0000000D) refers to exit.o(.text) for exit
    __rtentry2.o(.ARM.exidx) refers to __rtentry2.o(.ARM.Collect$$rtentry$$00000001) for .ARM.Collect$$rtentry$$00000001
    __rtentry2.o(.ARM.exidx) refers to __rtentry2.o(.ARM.Collect$$rtentry$$00000008) for .ARM.Collect$$rtentry$$00000008
    __rtentry2.o(.ARM.exidx) refers to __rtentry2.o(.ARM.Collect$$rtentry$$0000000A) for .ARM.Collect$$rtentry$$0000000A
    __rtentry2.o(.ARM.exidx) refers to __rtentry2.o(.ARM.Collect$$rtentry$$0000000B) for .ARM.Collect$$rtentry$$0000000B
    __rtentry2.o(.ARM.exidx) refers to __rtentry2.o(.ARM.Collect$$rtentry$$0000000D) for .ARM.Collect$$rtentry$$0000000D
    __rtentry4.o(.ARM.Collect$$rtentry$$00000004) refers to sys_stackheap_outer.o(.text) for __user_setup_stackheap
    __rtentry4.o(.ARM.exidx) refers to __rtentry4.o(.ARM.Collect$$rtentry$$00000004) for .ARM.Collect$$rtentry$$00000004
    dcmpi.o(x$fpl$dcmpinf) refers (Special) to usenofp.o(x$fpl$usenofp) for __I$use$fp
    fcmpi.o(x$fpl$fcmpinf) refers (Special) to usenofp.o(x$fpl$usenofp) for __I$use$fp
    sys_stackheap_outer.o(.text) refers to libspace.o(.text) for __user_perproc_libspace
    sys_stackheap_outer.o(.text) refers to startup_gd32f1x0.o(.text) for __user_initial_stackheap
    exit.o(.text) refers to rtexit.o(.ARM.Collect$$rtexit$$00000000) for __rt_exit
    libinit.o(.ARM.Collect$$libinit$$00000000) refers (Special) to libinit2.o(.ARM.Collect$$libinit$$00000030) for __rt_lib_init_alloca_1
    libinit.o(.ARM.Collect$$libinit$$00000000) refers (Special) to libinit2.o(.ARM.Collect$$libinit$$0000002E) for __rt_lib_init_argv_1
    libinit.o(.ARM.Collect$$libinit$$00000000) refers (Special) to libinit2.o(.ARM.Collect$$libinit$$0000001D) for __rt_lib_init_atexit_1
    libinit.o(.ARM.Collect$$libinit$$00000000) refers (Special) to libinit2.o(.ARM.Collect$$libinit$$00000023) for __rt_lib_init_clock_1
    libinit.o(.ARM.Collect$$libinit$$00000000) refers (Special) to libinit2.o(.ARM.Collect$$libinit$$00000034) for __rt_lib_init_cpp_1
    libinit.o(.ARM.Collect$$libinit$$00000000) refers (Special) to libinit2.o(.ARM.Collect$$libinit$$00000032) for __rt_lib_init_exceptions_1
    libinit.o(.ARM.Collect$$libinit$$00000000) refers (Special) to libinit2.o(.ARM.Collect$$libinit$$00000002) for __rt_lib_init_fp_1
    libinit.o(.ARM.Collect$$libinit$$00000000) refers (Special) to libinit2.o(.ARM.Collect$$libinit$$00000021) for __rt_lib_init_fp_trap_1
    libinit.o(.ARM.Collect$$libinit$$00000000) refers (Special) to libinit2.o(.ARM.Collect$$libinit$$00000025) for __rt_lib_init_getenv_1
    libinit.o(.ARM.Collect$$libinit$$00000000) refers (Special) to libinit2.o(.ARM.Collect$$libinit$$0000000C) for __rt_lib_init_heap_1
    libinit.o(.ARM.Collect$$libinit$$00000000) refers (Special) to libinit2.o(.ARM.Collect$$libinit$$00000013) for __rt_lib_init_lc_collate_1
    libinit.o(.ARM.Collect$$libinit$$00000000) refers (Special) to libinit2.o(.ARM.Collect$$libinit$$00000015) for __rt_lib_init_lc_ctype_1
    libinit.o(.ARM.Collect$$libinit$$00000000) refers (Special) to libinit2.o(.ARM.Collect$$libinit$$00000017) for __rt_lib_init_lc_monetary_1
    libinit.o(.ARM.Collect$$libinit$$00000000) refers (Special) to libinit2.o(.ARM.Collect$$libinit$$00000019) for __rt_lib_init_lc_numeric_1
    libinit.o(.ARM.Collect$$libinit$$00000000) refers (Special) to libinit2.o(.ARM.Collect$$libinit$$0000001B) for __rt_lib_init_lc_time_1
    libinit.o(.ARM.Collect$$libinit$$00000000) refers (Special) to libinit2.o(.ARM.Collect$$libinit$$00000006) for __rt_lib_init_preinit_1
    libinit.o(.ARM.Collect$$libinit$$00000000) refers (Special) to libinit2.o(.ARM.Collect$$libinit$$00000010) for __rt_lib_init_rand_1
    libinit.o(.ARM.Collect$$libinit$$00000000) refers (Special) to libinit2.o(.ARM.Collect$$libinit$$00000004) for __rt_lib_init_relocate_pie_1
    libinit.o(.ARM.Collect$$libinit$$00000000) refers (Special) to libinit2.o(.ARM.Collect$$libinit$$00000035) for __rt_lib_init_return
    libinit.o(.ARM.Collect$$libinit$$00000000) refers (Special) to libinit2.o(.ARM.Collect$$libinit$$0000001F) for __rt_lib_init_signal_1
    libinit.o(.ARM.Collect$$libinit$$00000000) refers (Special) to libinit2.o(.ARM.Collect$$libinit$$00000027) for __rt_lib_init_stdio_1
    libinit.o(.ARM.Collect$$libinit$$00000000) refers (Special) to libinit2.o(.ARM.Collect$$libinit$$0000000E) for __rt_lib_init_user_alloc_1
    libspace.o(.text) refers to libspace.o(.bss) for __libspace_start
    rtexit.o(.ARM.Collect$$rtexit$$00000000) refers (Special) to rtexit2.o(.ARM.Collect$$rtexit$$00000004) for __rt_exit_exit
    rtexit.o(.ARM.Collect$$rtexit$$00000000) refers (Special) to rtexit2.o(.ARM.Collect$$rtexit$$00000003) for __rt_exit_ls
    rtexit.o(.ARM.Collect$$rtexit$$00000000) refers (Special) to rtexit2.o(.ARM.Collect$$rtexit$$00000002) for __rt_exit_prels_1
    rtexit.o(.ARM.exidx) refers (Special) to rtexit2.o(.ARM.Collect$$rtexit$$00000004) for __rt_exit_exit
    rtexit.o(.ARM.exidx) refers (Special) to rtexit2.o(.ARM.Collect$$rtexit$$00000003) for __rt_exit_ls
    rtexit.o(.ARM.exidx) refers (Special) to rtexit2.o(.ARM.Collect$$rtexit$$00000002) for __rt_exit_prels_1
    rtexit.o(.ARM.exidx) refers to rtexit.o(.ARM.Collect$$rtexit$$00000000) for .ARM.Collect$$rtexit$$00000000
    libinit2.o(.ARM.Collect$$libinit$$00000012) refers to libinit2.o(.ARM.Collect$$libinit$$00000011) for .ARM.Collect$$libinit$$00000011
    libinit2.o(.ARM.Collect$$libinit$$00000014) refers to libinit2.o(.ARM.Collect$$libinit$$00000011) for .ARM.Collect$$libinit$$00000011
    libinit2.o(.ARM.Collect$$libinit$$00000016) refers to libinit2.o(.ARM.Collect$$libinit$$00000011) for .ARM.Collect$$libinit$$00000011
    libinit2.o(.ARM.Collect$$libinit$$00000018) refers to libinit2.o(.ARM.Collect$$libinit$$00000011) for .ARM.Collect$$libinit$$00000011
    libinit2.o(.ARM.Collect$$libinit$$0000001A) refers to libinit2.o(.ARM.Collect$$libinit$$00000011) for .ARM.Collect$$libinit$$00000011
    libinit2.o(.ARM.Collect$$libinit$$00000028) refers to argv_veneer.o(.emb_text) for __ARM_argv_veneer
    libinit2.o(.ARM.Collect$$libinit$$00000029) refers to argv_veneer.o(.emb_text) for __ARM_argv_veneer
    rtexit2.o(.ARM.Collect$$rtexit$$00000003) refers to libshutdown.o(.ARM.Collect$$libshutdown$$00000000) for __rt_lib_shutdown
    rtexit2.o(.ARM.Collect$$rtexit$$00000004) refers to sys_exit.o(.text) for _sys_exit
    rtexit2.o(.ARM.exidx) refers to rtexit2.o(.ARM.Collect$$rtexit$$00000001) for .ARM.Collect$$rtexit$$00000001
    rtexit2.o(.ARM.exidx) refers to rtexit2.o(.ARM.Collect$$rtexit$$00000003) for .ARM.Collect$$rtexit$$00000003
    rtexit2.o(.ARM.exidx) refers to rtexit2.o(.ARM.Collect$$rtexit$$00000004) for .ARM.Collect$$rtexit$$00000004
    argv_veneer.o(.emb_text) refers to no_argv.o(.text) for __ARM_get_argv
    sys_exit.o(.text) refers (Special) to use_no_semi.o(.text) for __I$use$semihosting
    sys_exit.o(.text) refers (Special) to indicate_semi.o(.text) for __semihosting_library_function
    sys_exit_hlt.o(.text) refers (Special) to use_no_semi.o(.text) for __I$use$semihosting
    sys_exit_hlt.o(.text) refers (Special) to indicate_semi.o(.text) for __semihosting_library_function
    _get_argv_nomalloc.o(.text) refers (Special) to hrguard.o(.text) for __heap_region$guard
    _get_argv_nomalloc.o(.text) refers to defsig_rtmem_outer.o(.text) for __rt_SIGRTMEM
    _get_argv_nomalloc.o(.text) refers to sys_command.o(.text) for _sys_command_string
    libshutdown.o(.ARM.Collect$$libshutdown$$00000000) refers (Special) to libshutdown2.o(.ARM.Collect$$libshutdown$$00000002) for __rt_lib_shutdown_cpp_1
    libshutdown.o(.ARM.Collect$$libshutdown$$00000000) refers (Special) to libshutdown2.o(.ARM.Collect$$libshutdown$$00000007) for __rt_lib_shutdown_fp_trap_1
    libshutdown.o(.ARM.Collect$$libshutdown$$00000000) refers (Special) to libshutdown2.o(.ARM.Collect$$libshutdown$$0000000F) for __rt_lib_shutdown_heap_1
    libshutdown.o(.ARM.Collect$$libshutdown$$00000000) refers (Special) to libshutdown2.o(.ARM.Collect$$libshutdown$$00000010) for __rt_lib_shutdown_return
    libshutdown.o(.ARM.Collect$$libshutdown$$00000000) refers (Special) to libshutdown2.o(.ARM.Collect$$libshutdown$$0000000A) for __rt_lib_shutdown_signal_1
    libshutdown.o(.ARM.Collect$$libshutdown$$00000000) refers (Special) to libshutdown2.o(.ARM.Collect$$libshutdown$$00000004) for __rt_lib_shutdown_stdio_1
    libshutdown.o(.ARM.Collect$$libshutdown$$00000000) refers (Special) to libshutdown2.o(.ARM.Collect$$libshutdown$$0000000C) for __rt_lib_shutdown_user_alloc_1
    sys_command.o(.text) refers (Special) to use_no_semi.o(.text) for __I$use$semihosting
    sys_command.o(.text) refers (Special) to indicate_semi.o(.text) for __semihosting_library_function
    sys_command_hlt.o(.text) refers (Special) to use_no_semi.o(.text) for __I$use$semihosting
    sys_command_hlt.o(.text) refers (Special) to indicate_semi.o(.text) for __semihosting_library_function
    defsig_rtmem_outer.o(.text) refers to defsig_rtmem_inner.o(.text) for __rt_SIGRTMEM_inner
    defsig_rtmem_outer.o(.text) refers to defsig_exit.o(.text) for __sig_exit
    defsig_rtmem_formal.o(.text) refers to rt_raise.o(.text) for __rt_raise
    rt_raise.o(.text) refers to __raise.o(.text) for __raise
    rt_raise.o(.text) refers to sys_exit.o(.text) for _sys_exit
    defsig_exit.o(.text) refers to sys_exit.o(.text) for _sys_exit
    defsig_rtmem_inner.o(.text) refers to defsig_general.o(.text) for __default_signal_display
    __raise.o(.text) refers to defsig.o(CL$$defsig) for __default_signal_handler
    defsig_general.o(.text) refers to sys_wrch.o(.text) for _ttywrch
    sys_wrch.o(.text) refers (Special) to use_no_semi.o(.text) for __I$use$semihosting
    sys_wrch.o(.text) refers (Special) to indicate_semi.o(.text) for __semihosting_library_function
    sys_wrch_hlt.o(.text) refers (Special) to use_no_semi.o(.text) for __I$use$semihosting
    sys_wrch_hlt.o(.text) refers (Special) to indicate_semi.o(.text) for __semihosting_library_function
    defsig.o(CL$$defsig) refers to defsig_rtmem_inner.o(.text) for __rt_SIGRTMEM_inner
    defsig_abrt_inner.o(.text) refers to defsig_general.o(.text) for __default_signal_display
    defsig_fpe_inner.o(.text) refers to defsig_general.o(.text) for __default_signal_display
    defsig_rtred_inner.o(.text) refers to defsig_general.o(.text) for __default_signal_display
    defsig_stak_inner.o(.text) refers to defsig_general.o(.text) for __default_signal_display
    defsig_pvfn_inner.o(.text) refers to defsig_general.o(.text) for __default_signal_display
    defsig_cppl_inner.o(.text) refers to defsig_general.o(.text) for __default_signal_display
    defsig_segv_inner.o(.text) refers to defsig_general.o(.text) for __default_signal_display
    defsig_other.o(.text) refers to defsig_general.o(.text) for __default_signal_display


==============================================================================

Removing Unused input sections from the image.

    Removing main.o(.ARM.exidx), (32 bytes).
    Removing main.o(.bss.activateWeakening), (1 bytes).
    Removing main.o(.bss.slaveError), (1 bytes).
    Removing main.o(.ARM.use_no_argv), (4 bytes).
    Removing bldc.o(.ARM.exidx), (40 bytes).
    Removing bldc.o(.rodata.pwm_res), (2 bytes).
    Removing setup.o(.ARM.exidx), (64 bytes).
    Removing it.o(.ARM.exidx), (136 bytes).
    Removing it.o(.bss.iUartCounter), (2 bytes).
    Removing led.o(.text), (0 bytes).
    Removing remoteuart.o(.text), (0 bytes).
    Removing remotecrsf.o(.text), (0 bytes).
    Removing remotedummy.o(.text), (0 bytes).
    Removing remoteuartbus.o(.ARM.exidx), (24 bytes).
    Removing commsmasterslave.o(.ARM.exidx), (32 bytes).
    Removing commsmasterslave.o(.bss.mosfetOutMaster), (1 bytes).
    Removing remoteautodetect.o(.text), (0 bytes).
    Removing gd32f1x0_adc.o(.ARM.exidx), (256 bytes).
    Removing gd32f1x0_dbg.o(.text), (128 bytes).
    Removing gd32f1x0_dbg.o(.ARM.exidx), (48 bytes).
    Removing gd32f1x0_dma.o(.ARM.exidx), (216 bytes).
    Removing gd32f1x0_fwdgt.o(.ARM.exidx), (48 bytes).
    Removing gd32f1x0_gpio.o(.ARM.exidx), (104 bytes).
    Removing gd32f1x0_i2c.o(.text), (810 bytes).
    Removing gd32f1x0_i2c.o(.ARM.exidx), (248 bytes).
    Removing gd32f1x0_misc.o(.ARM.exidx), (56 bytes).
    Removing gd32f1x0_opa.o(.text), (0 bytes).
    Removing gd32f1x0_pmu.o(.text), (490 bytes).
    Removing gd32f1x0_pmu.o(.ARM.exidx), (96 bytes).
    Removing gd32f1x0_pmu.o(.bss.pmu_to_deepsleepmode.reg_snap.0), (4 bytes).
    Removing gd32f1x0_pmu.o(.bss.pmu_to_deepsleepmode.reg_snap.1), (4 bytes).
    Removing gd32f1x0_pmu.o(.bss.pmu_to_deepsleepmode.reg_snap.2), (4 bytes).
    Removing gd32f1x0_pmu.o(.bss.pmu_to_deepsleepmode.reg_snap.3), (4 bytes).
    Removing gd32f1x0_rcu.o(.ARM.exidx), (336 bytes).
    Removing gd32f1x0_syscfg.o(.text), (254 bytes).
    Removing gd32f1x0_syscfg.o(.ARM.exidx), (72 bytes).
    Removing gd32f1x0_timer.o(.ARM.exidx), (568 bytes).
    Removing gd32f1x0_usart.o(.ARM.exidx), (544 bytes).
    Removing gd32f1x0_wwdgt.o(.text), (170 bytes).
    Removing gd32f1x0_wwdgt.o(.ARM.exidx), (56 bytes).
    Removing system_gd32f1x0.o(.ARM.exidx), (16 bytes).

41 unused section(s) (total 4871 bytes) removed from the image.

==============================================================================

Image Symbol Table

    Local Symbols

    Symbol Name                              Value     Ov Type        Size  Object(Section)

    ../clib/angel/boardlib.s                 0x00000000   Number         0  boardinit1.o ABSOLUTE
    ../clib/angel/boardlib.s                 0x00000000   Number         0  boardinit2.o ABSOLUTE
    ../clib/angel/boardlib.s                 0x00000000   Number         0  boardinit3.o ABSOLUTE
    ../clib/angel/boardlib.s                 0x00000000   Number         0  boardshut.o ABSOLUTE
    ../clib/angel/handlers.s                 0x00000000   Number         0  __scatter_copy.o ABSOLUTE
    ../clib/angel/handlers.s                 0x00000000   Number         0  __scatter_zi.o ABSOLUTE
    ../clib/angel/kernel.s                   0x00000000   Number         0  __rtentry.o ABSOLUTE
    ../clib/angel/kernel.s                   0x00000000   Number         0  __rtentry2.o ABSOLUTE
    ../clib/angel/kernel.s                   0x00000000   Number         0  __rtentry4.o ABSOLUTE
    ../clib/angel/kernel.s                   0x00000000   Number         0  rtexit.o ABSOLUTE
    ../clib/angel/kernel.s                   0x00000000   Number         0  rtexit2.o ABSOLUTE
    ../clib/angel/rt.s                       0x00000000   Number         0  rt_raise.o ABSOLUTE
    ../clib/angel/scatter.s                  0x00000000   Number         0  __scatter.o ABSOLUTE
    ../clib/angel/startup.s                  0x00000000   Number         0  __main.o ABSOLUTE
    ../clib/angel/sys.s                      0x00000000   Number         0  sys_stackheap_outer.o ABSOLUTE
    ../clib/angel/sys.s                      0x00000000   Number         0  libspace.o ABSOLUTE
    ../clib/angel/sys.s                      0x00000000   Number         0  use_no_semi.o ABSOLUTE
    ../clib/angel/sys.s                      0x00000000   Number         0  indicate_semi.o ABSOLUTE
    ../clib/angel/sysapp.c                   0x00000000   Number         0  sys_exit.o ABSOLUTE
    ../clib/angel/sysapp.c                   0x00000000   Number         0  sys_exit_hlt.o ABSOLUTE
    ../clib/angel/sysapp.c                   0x00000000   Number         0  sys_command.o ABSOLUTE
    ../clib/angel/sysapp.c                   0x00000000   Number         0  sys_command_hlt.o ABSOLUTE
    ../clib/angel/sysapp.c                   0x00000000   Number         0  sys_wrch.o ABSOLUTE
    ../clib/angel/sysapp.c                   0x00000000   Number         0  sys_wrch_hlt.o ABSOLUTE
    ../clib/armsys.c                         0x00000000   Number         0  argv_veneer.o ABSOLUTE
    ../clib/armsys.c                         0x00000000   Number         0  argv_veneer.o ABSOLUTE
    ../clib/armsys.c                         0x00000000   Number         0  _get_argv_nomalloc.o ABSOLUTE
    ../clib/armsys.c                         0x00000000   Number         0  no_argv.o ABSOLUTE
    ../clib/heapalloc.c                      0x00000000   Number         0  hrguard.o ABSOLUTE
    ../clib/heapaux.c                        0x00000000   Number         0  heapauxi.o ABSOLUTE
    ../clib/libinit.s                        0x00000000   Number         0  libinit.o ABSOLUTE
    ../clib/libinit.s                        0x00000000   Number         0  libinit2.o ABSOLUTE
    ../clib/libinit.s                        0x00000000   Number         0  libshutdown.o ABSOLUTE
    ../clib/libinit.s                        0x00000000   Number         0  libshutdown2.o ABSOLUTE
    ../clib/signal.c                         0x00000000   Number         0  defsig_rtmem_outer.o ABSOLUTE
    ../clib/signal.c                         0x00000000   Number         0  defsig_rtmem_formal.o ABSOLUTE
    ../clib/signal.c                         0x00000000   Number         0  defsig_exit.o ABSOLUTE
    ../clib/signal.c                         0x00000000   Number         0  defsig_rtmem_inner.o ABSOLUTE
    ../clib/signal.c                         0x00000000   Number         0  __raise.o ABSOLUTE
    ../clib/signal.c                         0x00000000   Number         0  defsig_general.o ABSOLUTE
    ../clib/signal.c                         0x00000000   Number         0  defsig_abrt_inner.o ABSOLUTE
    ../clib/signal.c                         0x00000000   Number         0  defsig_fpe_inner.o ABSOLUTE
    ../clib/signal.c                         0x00000000   Number         0  defsig_rtred_inner.o ABSOLUTE
    ../clib/signal.c                         0x00000000   Number         0  defsig_stak_inner.o ABSOLUTE
    ../clib/signal.c                         0x00000000   Number         0  defsig_pvfn_inner.o ABSOLUTE
    ../clib/signal.c                         0x00000000   Number         0  defsig_cppl_inner.o ABSOLUTE
    ../clib/signal.c                         0x00000000   Number         0  defsig_segv_inner.o ABSOLUTE
    ../clib/signal.c                         0x00000000   Number         0  defsig_other.o ABSOLUTE
    ../clib/signal.s                         0x00000000   Number         0  defsig.o ABSOLUTE
    ../clib/stdlib.c                         0x00000000   Number         0  exit.o ABSOLUTE
    ../fplib/d2f.s                           0x00000000   Number         0  d2f.o ABSOLUTE
    ../fplib/daddsub.s                       0x00000000   Number         0  daddsub_clz.o ABSOLUTE
    ../fplib/dcmp.s                          0x00000000   Number         0  dcmp.o ABSOLUTE
    ../fplib/dcmpi.s                         0x00000000   Number         0  dcmpi.o ABSOLUTE
    ../fplib/ddiv.s                          0x00000000   Number         0  ddiv.o ABSOLUTE
    ../fplib/deqf.s                          0x00000000   Number         0  deqf.o ABSOLUTE
    ../fplib/dfix.s                          0x00000000   Number         0  dfix.o ABSOLUTE
    ../fplib/dflt.s                          0x00000000   Number         0  dflt_clz.o ABSOLUTE
    ../fplib/dgeqf.s                         0x00000000   Number         0  dgeqf.o ABSOLUTE
    ../fplib/dleqf.s                         0x00000000   Number         0  dleqf.o ABSOLUTE
    ../fplib/dmul.s                          0x00000000   Number         0  dmul.o ABSOLUTE
    ../fplib/dnaninf.s                       0x00000000   Number         0  dnaninf.o ABSOLUTE
    ../fplib/dretinf.s                       0x00000000   Number         0  dretinf.o ABSOLUTE
    ../fplib/f2d.s                           0x00000000   Number         0  f2d.o ABSOLUTE
    ../fplib/faddsub.s                       0x00000000   Number         0  faddsub_clz.o ABSOLUTE
    ../fplib/fcmp.s                          0x00000000   Number         0  fcmp.o ABSOLUTE
    ../fplib/fcmpi.s                         0x00000000   Number         0  fcmpi.o ABSOLUTE
    ../fplib/fdiv.s                          0x00000000   Number         0  fdiv.o ABSOLUTE
    ../fplib/feqf.s                          0x00000000   Number         0  feqf.o ABSOLUTE
    ../fplib/ffix.s                          0x00000000   Number         0  ffix.o ABSOLUTE
    ../fplib/fflt.s                          0x00000000   Number         0  fflt_clz.o ABSOLUTE
    ../fplib/fgeqf.s                         0x00000000   Number         0  fgeqf.o ABSOLUTE
    ../fplib/fleqf.s                         0x00000000   Number         0  fleqf.o ABSOLUTE
    ../fplib/fmul.s                          0x00000000   Number         0  fmul.o ABSOLUTE
    ../fplib/fnaninf.s                       0x00000000   Number         0  fnaninf.o ABSOLUTE
    ../fplib/fpinit.s                        0x00000000   Number         0  fpinit.o ABSOLUTE
    ../fplib/fpinit_empty.s                  0x00000000   Number         0  fpinit_empty.o ABSOLUTE
    ../fplib/fretinf.s                       0x00000000   Number         0  fretinf.o ABSOLUTE
    ../fplib/usenofp.s                       0x00000000   Number         0  usenofp.o ABSOLUTE
    RTE/Device/GD32F130C8/startup_gd32f1x0.s 0x00000000   Number         0  startup_gd32f1x0.o ABSOLUTE
    RemoteAutodetect.c                       0x00000000   Number         0  remoteautodetect.o ABSOLUTE
    bldc.c                                   0x00000000   Number         0  bldc.o ABSOLUTE
    commsMasterSlave.c                       0x00000000   Number         0  commsmasterslave.o ABSOLUTE
    dc.s                                     0x00000000   Number         0  dc.o ABSOLUTE
    gd32f1x0_adc.c                           0x00000000   Number         0  gd32f1x0_adc.o ABSOLUTE
    gd32f1x0_dbg.c                           0x00000000   Number         0  gd32f1x0_dbg.o ABSOLUTE
    gd32f1x0_dma.c                           0x00000000   Number         0  gd32f1x0_dma.o ABSOLUTE
    gd32f1x0_fwdgt.c                         0x00000000   Number         0  gd32f1x0_fwdgt.o ABSOLUTE
    gd32f1x0_gpio.c                          0x00000000   Number         0  gd32f1x0_gpio.o ABSOLUTE
    gd32f1x0_i2c.c                           0x00000000   Number         0  gd32f1x0_i2c.o ABSOLUTE
    gd32f1x0_misc.c                          0x00000000   Number         0  gd32f1x0_misc.o ABSOLUTE
    gd32f1x0_opa.c                           0x00000000   Number         0  gd32f1x0_opa.o ABSOLUTE
    gd32f1x0_pmu.c                           0x00000000   Number         0  gd32f1x0_pmu.o ABSOLUTE
    gd32f1x0_rcu.c                           0x00000000   Number         0  gd32f1x0_rcu.o ABSOLUTE
    gd32f1x0_syscfg.c                        0x00000000   Number         0  gd32f1x0_syscfg.o ABSOLUTE
    gd32f1x0_timer.c                         0x00000000   Number         0  gd32f1x0_timer.o ABSOLUTE
    gd32f1x0_usart.c                         0x00000000   Number         0  gd32f1x0_usart.o ABSOLUTE
    gd32f1x0_wwdgt.c                         0x00000000   Number         0  gd32f1x0_wwdgt.o ABSOLUTE
    it.c                                     0x00000000   Number         0  it.o ABSOLUTE
    led.c                                    0x00000000   Number         0  led.o ABSOLUTE
    main.c                                   0x00000000   Number         0  main.o ABSOLUTE
    remoteCrsf.c                             0x00000000   Number         0  remotecrsf.o ABSOLUTE
    remoteDummy.c                            0x00000000   Number         0  remotedummy.o ABSOLUTE
    remoteUart.c                             0x00000000   Number         0  remoteuart.o ABSOLUTE
    remoteUartBus.c                          0x00000000   Number         0  remoteuartbus.o ABSOLUTE
    setup.c                                  0x00000000   Number         0  setup.o ABSOLUTE
    system_gd32f1x0.c                        0x00000000   Number         0  system_gd32f1x0.o ABSOLUTE
    RESET                                    0x08000000   Section      360  startup_gd32f1x0.o(RESET)
    !!!main                                  0x08000168   Section        8  __main.o(!!!main)
    !!!scatter                               0x08000170   Section       52  __scatter.o(!!!scatter)
    !!handler_copy                           0x080001a4   Section       26  __scatter_copy.o(!!handler_copy)
    !!handler_zi                             0x080001c0   Section       28  __scatter_zi.o(!!handler_zi)
    .ARM.Collect$$libinit$$00000000          0x080001dc   Section        2  libinit.o(.ARM.Collect$$libinit$$00000000)
    .ARM.Collect$$libinit$$00000002          0x080001de   Section        0  libinit2.o(.ARM.Collect$$libinit$$00000002)
    .ARM.Collect$$libinit$$00000004          0x080001de   Section        0  libinit2.o(.ARM.Collect$$libinit$$00000004)
    .ARM.Collect$$libinit$$00000006          0x080001de   Section        0  libinit2.o(.ARM.Collect$$libinit$$00000006)
    .ARM.Collect$$libinit$$0000000C          0x080001de   Section        0  libinit2.o(.ARM.Collect$$libinit$$0000000C)
    .ARM.Collect$$libinit$$0000000E          0x080001de   Section        0  libinit2.o(.ARM.Collect$$libinit$$0000000E)
    .ARM.Collect$$libinit$$00000010          0x080001de   Section        0  libinit2.o(.ARM.Collect$$libinit$$00000010)
    .ARM.Collect$$libinit$$00000013          0x080001de   Section        0  libinit2.o(.ARM.Collect$$libinit$$00000013)
    .ARM.Collect$$libinit$$00000015          0x080001de   Section        0  libinit2.o(.ARM.Collect$$libinit$$00000015)
    .ARM.Collect$$libinit$$00000017          0x080001de   Section        0  libinit2.o(.ARM.Collect$$libinit$$00000017)
    .ARM.Collect$$libinit$$00000019          0x080001de   Section        0  libinit2.o(.ARM.Collect$$libinit$$00000019)
    .ARM.Collect$$libinit$$0000001B          0x080001de   Section        0  libinit2.o(.ARM.Collect$$libinit$$0000001B)
    .ARM.Collect$$libinit$$0000001D          0x080001de   Section        0  libinit2.o(.ARM.Collect$$libinit$$0000001D)
    .ARM.Collect$$libinit$$0000001F          0x080001de   Section        0  libinit2.o(.ARM.Collect$$libinit$$0000001F)
    .ARM.Collect$$libinit$$00000021          0x080001de   Section        0  libinit2.o(.ARM.Collect$$libinit$$00000021)
    .ARM.Collect$$libinit$$00000023          0x080001de   Section        0  libinit2.o(.ARM.Collect$$libinit$$00000023)
    .ARM.Collect$$libinit$$00000025          0x080001de   Section        0  libinit2.o(.ARM.Collect$$libinit$$00000025)
    .ARM.Collect$$libinit$$00000027          0x080001de   Section        0  libinit2.o(.ARM.Collect$$libinit$$00000027)
    .ARM.Collect$$libinit$$0000002E          0x080001de   Section        0  libinit2.o(.ARM.Collect$$libinit$$0000002E)
    .ARM.Collect$$libinit$$00000030          0x080001de   Section        0  libinit2.o(.ARM.Collect$$libinit$$00000030)
    .ARM.Collect$$libinit$$00000032          0x080001de   Section        0  libinit2.o(.ARM.Collect$$libinit$$00000032)
    .ARM.Collect$$libinit$$00000034          0x080001de   Section        0  libinit2.o(.ARM.Collect$$libinit$$00000034)
    .ARM.Collect$$libinit$$00000035          0x080001de   Section        2  libinit2.o(.ARM.Collect$$libinit$$00000035)
    .ARM.Collect$$libshutdown$$00000000      0x080001e0   Section        2  libshutdown.o(.ARM.Collect$$libshutdown$$00000000)
    .ARM.Collect$$libshutdown$$00000002      0x080001e2   Section        0  libshutdown2.o(.ARM.Collect$$libshutdown$$00000002)
    .ARM.Collect$$libshutdown$$00000004      0x080001e2   Section        0  libshutdown2.o(.ARM.Collect$$libshutdown$$00000004)
    .ARM.Collect$$libshutdown$$00000007      0x080001e2   Section        0  libshutdown2.o(.ARM.Collect$$libshutdown$$00000007)
    .ARM.Collect$$libshutdown$$0000000A      0x080001e2   Section        0  libshutdown2.o(.ARM.Collect$$libshutdown$$0000000A)
    .ARM.Collect$$libshutdown$$0000000C      0x080001e2   Section        0  libshutdown2.o(.ARM.Collect$$libshutdown$$0000000C)
    .ARM.Collect$$libshutdown$$0000000F      0x080001e2   Section        0  libshutdown2.o(.ARM.Collect$$libshutdown$$0000000F)
    .ARM.Collect$$libshutdown$$00000010      0x080001e2   Section        2  libshutdown2.o(.ARM.Collect$$libshutdown$$00000010)
    .ARM.Collect$$rtentry$$00000000          0x080001e4   Section        0  __rtentry.o(.ARM.Collect$$rtentry$$00000000)
    .ARM.Collect$$rtentry$$00000002          0x080001e4   Section        0  __rtentry2.o(.ARM.Collect$$rtentry$$00000002)
    .ARM.Collect$$rtentry$$00000004          0x080001e4   Section        6  __rtentry4.o(.ARM.Collect$$rtentry$$00000004)
    .ARM.Collect$$rtentry$$00000009          0x080001ea   Section        0  __rtentry2.o(.ARM.Collect$$rtentry$$00000009)
    .ARM.Collect$$rtentry$$0000000A          0x080001ea   Section        4  __rtentry2.o(.ARM.Collect$$rtentry$$0000000A)
    .ARM.Collect$$rtentry$$0000000C          0x080001ee   Section        0  __rtentry2.o(.ARM.Collect$$rtentry$$0000000C)
    .ARM.Collect$$rtentry$$0000000D          0x080001ee   Section        8  __rtentry2.o(.ARM.Collect$$rtentry$$0000000D)
    .ARM.Collect$$rtexit$$00000000           0x080001f6   Section        2  rtexit.o(.ARM.Collect$$rtexit$$00000000)
    .ARM.Collect$$rtexit$$00000002           0x080001f8   Section        0  rtexit2.o(.ARM.Collect$$rtexit$$00000002)
    .ARM.Collect$$rtexit$$00000003           0x080001f8   Section        4  rtexit2.o(.ARM.Collect$$rtexit$$00000003)
    .ARM.Collect$$rtexit$$00000004           0x080001fc   Section        6  rtexit2.o(.ARM.Collect$$rtexit$$00000004)
    [Anonymous Symbol]                       0x08000204   Section        0  main.o(.text)
    [Anonymous Symbol]                       0x080007c8   Section        0  bldc.o(.text)
    [Anonymous Symbol]                       0x08000c74   Section        0  setup.o(.text)
    [Anonymous Symbol]                       0x0800145c   Section        0  it.o(.text)
    [Anonymous Symbol]                       0x08001588   Section        0  remoteuartbus.o(.text)
    [Anonymous Symbol]                       0x0800181c   Section        0  commsmasterslave.o(.text)
    [Anonymous Symbol]                       0x080018a0   Section        0  gd32f1x0_adc.o(.text)
    [Anonymous Symbol]                       0x08001e48   Section        0  gd32f1x0_dma.o(.text)
    [Anonymous Symbol]                       0x08002194   Section        0  gd32f1x0_fwdgt.o(.text)
    [Anonymous Symbol]                       0x08002270   Section        0  gd32f1x0_gpio.o(.text)
    [Anonymous Symbol]                       0x08002408   Section        0  gd32f1x0_misc.o(.text)
    [Anonymous Symbol]                       0x08002538   Section        0  gd32f1x0_rcu.o(.text)
    [Anonymous Symbol]                       0x08002c68   Section        0  gd32f1x0_timer.o(.text)
    [Anonymous Symbol]                       0x080039c8   Section        0  gd32f1x0_usart.o(.text)
    .text                                    0x08004008   Section       64  startup_gd32f1x0.o(.text)
    [Anonymous Symbol]                       0x08004048   Section        0  system_gd32f1x0.o(.text)
    .text                                    0x08004184   Section        0  heapauxi.o(.text)
    .text                                    0x0800418a   Section       74  sys_stackheap_outer.o(.text)
    .text                                    0x080041d4   Section        0  exit.o(.text)
    .text                                    0x080041e8   Section        8  libspace.o(.text)
    .text                                    0x080041f0   Section        0  sys_exit.o(.text)
    .text                                    0x080041fc   Section        2  use_no_semi.o(.text)
    .text                                    0x080041fe   Section        0  indicate_semi.o(.text)
    x$fpl$d2f                                0x08004200   Section       98  d2f.o(x$fpl$d2f)
    x$fpl$dadd                               0x08004264   Section      336  daddsub_clz.o(x$fpl$dadd)
    _dadd1                                   0x08004275   Thumb Code     0  daddsub_clz.o(x$fpl$dadd)
    x$fpl$dcmpinf                            0x080043b4   Section       24  dcmpi.o(x$fpl$dcmpinf)
    x$fpl$ddiv                               0x080043cc   Section      692  ddiv.o(x$fpl$ddiv)
    ddiv_entry                               0x080043d3   Thumb Code     0  ddiv.o(x$fpl$ddiv)
    x$fpl$deqf                               0x08004680   Section      120  deqf.o(x$fpl$deqf)
    x$fpl$dfix                               0x080046f8   Section       94  dfix.o(x$fpl$dfix)
    x$fpl$dflt                               0x08004756   Section       46  dflt_clz.o(x$fpl$dflt)
    x$fpl$dfltu                              0x08004784   Section       38  dflt_clz.o(x$fpl$dfltu)
    x$fpl$dgeqf                              0x080047ac   Section      120  dgeqf.o(x$fpl$dgeqf)
    x$fpl$dleqf                              0x08004824   Section      120  dleqf.o(x$fpl$dleqf)
    x$fpl$dmul                               0x0800489c   Section      340  dmul.o(x$fpl$dmul)
    x$fpl$dnaninf                            0x080049f0   Section      156  dnaninf.o(x$fpl$dnaninf)
    x$fpl$dretinf                            0x08004a8c   Section       12  dretinf.o(x$fpl$dretinf)
    x$fpl$dsub                               0x08004a98   Section      476  daddsub_clz.o(x$fpl$dsub)
    _dsub1                                   0x08004aa9   Thumb Code     0  daddsub_clz.o(x$fpl$dsub)
    x$fpl$f2d                                0x08004c74   Section       86  f2d.o(x$fpl$f2d)
    x$fpl$fadd                               0x08004ccc   Section      196  faddsub_clz.o(x$fpl$fadd)
    _fadd1                                   0x08004cdb   Thumb Code     0  faddsub_clz.o(x$fpl$fadd)
    x$fpl$fcmp                               0x08004d90   Section       84  dcmp.o(x$fpl$fcmp)
    x$fpl$fcmp                               0x08004de4   Section       84  fcmp.o(x$fpl$fcmp)
    x$fpl$fcmpinf                            0x08004e38   Section       24  fcmpi.o(x$fpl$fcmpinf)
    _fdiv1                                   0x08004e51   Thumb Code     0  fdiv.o(x$fpl$fdiv)
    x$fpl$fdiv                               0x08004e50   Section      388  fdiv.o(x$fpl$fdiv)
    x$fpl$feqf                               0x08004fd4   Section      104  feqf.o(x$fpl$feqf)
    x$fpl$ffix                               0x0800503c   Section       54  ffix.o(x$fpl$ffix)
    x$fpl$fflt                               0x08005074   Section       48  fflt_clz.o(x$fpl$fflt)
    x$fpl$ffltu                              0x080050a4   Section       38  fflt_clz.o(x$fpl$ffltu)
    x$fpl$fgeqf                              0x080050cc   Section      104  fgeqf.o(x$fpl$fgeqf)
    x$fpl$fleqf                              0x08005134   Section      104  fleqf.o(x$fpl$fleqf)
    x$fpl$fmul                               0x0800519c   Section      258  fmul.o(x$fpl$fmul)
    x$fpl$fnaninf                            0x0800529e   Section      140  fnaninf.o(x$fpl$fnaninf)
    x$fpl$fretinf                            0x0800532a   Section       10  fretinf.o(x$fpl$fretinf)
    x$fpl$fsub                               0x08005334   Section      234  faddsub_clz.o(x$fpl$fsub)
    _fsub1                                   0x08005343   Thumb Code     0  faddsub_clz.o(x$fpl$fsub)
    .L__const.up_or_down.up_down             0x0800541e   Data          12  bldc.o(.rodata..L__const.up_or_down.up_down)
    x$fpl$usenofp                            0x0800541e   Section        0  usenofp.o(x$fpl$usenofp)
    .Lswitch.table.gpio_deinit.1             0x0800542a   Data          12  gd32f1x0_gpio.o(.rodata..Lswitch.table.gpio_deinit.1)
    .L__const.rcu_clock_freq_get.apb2_exp    0x08005436   Data           8  gd32f1x0_rcu.o(.rodata.cst8)
    .bss                                     0x20000018   Section       96  libspace.o(.bss)
    aReceiveBuffer                           0x20000078   Data         255  remoteuartbus.o(.bss.aReceiveBuffer)
    iReceivePos                              0x200001e4   Data           2  remoteuartbus.o(.bss.iReceivePos)
    Heap_Mem                                 0x20000270   Data        1024  startup_gd32f1x0.o(HEAP)
    HEAP                                     0x20000270   Section     1024  startup_gd32f1x0.o(HEAP)
    Stack_Mem                                0x20000670   Data        1024  startup_gd32f1x0.o(STACK)
    STACK                                    0x20000670   Section     1024  startup_gd32f1x0.o(STACK)
    __initial_sp                             0x20000a70   Data           0  startup_gd32f1x0.o(STACK)

    Global Symbols

    Symbol Name                              Value     Ov Type        Size  Object(Section)

    BuildAttributes$$THM_ISAv4$P$D$K$B$S$PE$A:L22UL41UL21$X:L11$S22US41US21$IEEE1$IW$~IW$USESV6$~STKCKD$USESV7$~SHL$OTIME$ROPI$EBA8$UX$STANDARDLIB$REQ8$PRES8$EABIv2 0x00000000   Number         0  anon$$obj.o ABSOLUTE
    __fp_init_empty                          0x00000000   Number         0  fpinit_empty.o ABSOLUTE
    __ARM_exceptions_init                     - Undefined Weak Reference
    __alloca_initialize                       - Undefined Weak Reference
    __arm_preinit_                            - Undefined Weak Reference
    __arm_relocate_pie_                       - Undefined Weak Reference
    __cpp_initialize__aeabi_                  - Undefined Weak Reference
    __cxa_finalize                            - Undefined Weak Reference
    __rt_locale                               - Undefined Weak Reference
    __sigvec_lookup                           - Undefined Weak Reference
    _atexit_init                              - Undefined Weak Reference
    _call_atexit_fns                          - Undefined Weak Reference
    _clock_init                               - Undefined Weak Reference
    _fp_trap_init                             - Undefined Weak Reference
    _fp_trap_shutdown                         - Undefined Weak Reference
    _get_lc_collate                           - Undefined Weak Reference
    _get_lc_ctype                             - Undefined Weak Reference
    _get_lc_monetary                          - Undefined Weak Reference
    _get_lc_numeric                           - Undefined Weak Reference
    _get_lc_time                              - Undefined Weak Reference
    _getenv_init                              - Undefined Weak Reference
    _handle_redirection                       - Undefined Weak Reference
    _init_alloc                               - Undefined Weak Reference
    _init_user_alloc                          - Undefined Weak Reference
    _initio                                   - Undefined Weak Reference
    _rand_init                                - Undefined Weak Reference
    _signal_finish                            - Undefined Weak Reference
    _signal_init                              - Undefined Weak Reference
    _terminate_alloc                          - Undefined Weak Reference
    _terminate_user_alloc                     - Undefined Weak Reference
    _terminateio                              - Undefined Weak Reference
    __Vectors_Size                           0x00000168   Number         0  startup_gd32f1x0.o ABSOLUTE
    __Vectors                                0x08000000   Data           4  startup_gd32f1x0.o(RESET)
    __Vectors_End                            0x08000168   Data           0  startup_gd32f1x0.o(RESET)
    __main                                   0x08000169   Thumb Code     8  __main.o(!!!main)
    __scatterload                            0x08000171   Thumb Code     0  __scatter.o(!!!scatter)
    __scatterload_rt2                        0x08000171   Thumb Code    44  __scatter.o(!!!scatter)
    __scatterload_rt2_thumb_only             0x08000171   Thumb Code     0  __scatter.o(!!!scatter)
    __scatterload_null                       0x0800017f   Thumb Code     0  __scatter.o(!!!scatter)
    __scatterload_copy                       0x080001a5   Thumb Code    26  __scatter_copy.o(!!handler_copy)
    __scatterload_zeroinit                   0x080001c1   Thumb Code    28  __scatter_zi.o(!!handler_zi)
    __rt_lib_init                            0x080001dd   Thumb Code     0  libinit.o(.ARM.Collect$$libinit$$00000000)
    __rt_lib_init_alloca_1                   0x080001df   Thumb Code     0  libinit2.o(.ARM.Collect$$libinit$$00000030)
    __rt_lib_init_argv_1                     0x080001df   Thumb Code     0  libinit2.o(.ARM.Collect$$libinit$$0000002E)
    __rt_lib_init_atexit_1                   0x080001df   Thumb Code     0  libinit2.o(.ARM.Collect$$libinit$$0000001D)
    __rt_lib_init_clock_1                    0x080001df   Thumb Code     0  libinit2.o(.ARM.Collect$$libinit$$00000023)
    __rt_lib_init_cpp_1                      0x080001df   Thumb Code     0  libinit2.o(.ARM.Collect$$libinit$$00000034)
    __rt_lib_init_exceptions_1               0x080001df   Thumb Code     0  libinit2.o(.ARM.Collect$$libinit$$00000032)
    __rt_lib_init_fp_1                       0x080001df   Thumb Code     0  libinit2.o(.ARM.Collect$$libinit$$00000002)
    __rt_lib_init_fp_trap_1                  0x080001df   Thumb Code     0  libinit2.o(.ARM.Collect$$libinit$$00000021)
    __rt_lib_init_getenv_1                   0x080001df   Thumb Code     0  libinit2.o(.ARM.Collect$$libinit$$00000025)
    __rt_lib_init_heap_1                     0x080001df   Thumb Code     0  libinit2.o(.ARM.Collect$$libinit$$0000000C)
    __rt_lib_init_lc_collate_1               0x080001df   Thumb Code     0  libinit2.o(.ARM.Collect$$libinit$$00000013)
    __rt_lib_init_lc_ctype_1                 0x080001df   Thumb Code     0  libinit2.o(.ARM.Collect$$libinit$$00000015)
    __rt_lib_init_lc_monetary_1              0x080001df   Thumb Code     0  libinit2.o(.ARM.Collect$$libinit$$00000017)
    __rt_lib_init_lc_numeric_1               0x080001df   Thumb Code     0  libinit2.o(.ARM.Collect$$libinit$$00000019)
    __rt_lib_init_lc_time_1                  0x080001df   Thumb Code     0  libinit2.o(.ARM.Collect$$libinit$$0000001B)
    __rt_lib_init_preinit_1                  0x080001df   Thumb Code     0  libinit2.o(.ARM.Collect$$libinit$$00000006)
    __rt_lib_init_rand_1                     0x080001df   Thumb Code     0  libinit2.o(.ARM.Collect$$libinit$$00000010)
    __rt_lib_init_relocate_pie_1             0x080001df   Thumb Code     0  libinit2.o(.ARM.Collect$$libinit$$00000004)
    __rt_lib_init_return                     0x080001df   Thumb Code     0  libinit2.o(.ARM.Collect$$libinit$$00000035)
    __rt_lib_init_signal_1                   0x080001df   Thumb Code     0  libinit2.o(.ARM.Collect$$libinit$$0000001F)
    __rt_lib_init_stdio_1                    0x080001df   Thumb Code     0  libinit2.o(.ARM.Collect$$libinit$$00000027)
    __rt_lib_init_user_alloc_1               0x080001df   Thumb Code     0  libinit2.o(.ARM.Collect$$libinit$$0000000E)
    __rt_lib_shutdown                        0x080001e1   Thumb Code     0  libshutdown.o(.ARM.Collect$$libshutdown$$00000000)
    __rt_lib_shutdown_cpp_1                  0x080001e3   Thumb Code     0  libshutdown2.o(.ARM.Collect$$libshutdown$$00000002)
    __rt_lib_shutdown_fp_trap_1              0x080001e3   Thumb Code     0  libshutdown2.o(.ARM.Collect$$libshutdown$$00000007)
    __rt_lib_shutdown_heap_1                 0x080001e3   Thumb Code     0  libshutdown2.o(.ARM.Collect$$libshutdown$$0000000F)
    __rt_lib_shutdown_return                 0x080001e3   Thumb Code     0  libshutdown2.o(.ARM.Collect$$libshutdown$$00000010)
    __rt_lib_shutdown_signal_1               0x080001e3   Thumb Code     0  libshutdown2.o(.ARM.Collect$$libshutdown$$0000000A)
    __rt_lib_shutdown_stdio_1                0x080001e3   Thumb Code     0  libshutdown2.o(.ARM.Collect$$libshutdown$$00000004)
    __rt_lib_shutdown_user_alloc_1           0x080001e3   Thumb Code     0  libshutdown2.o(.ARM.Collect$$libshutdown$$0000000C)
    __rt_entry                               0x080001e5   Thumb Code     0  __rtentry.o(.ARM.Collect$$rtentry$$00000000)
    __rt_entry_presh_1                       0x080001e5   Thumb Code     0  __rtentry2.o(.ARM.Collect$$rtentry$$00000002)
    __rt_entry_sh                            0x080001e5   Thumb Code     0  __rtentry4.o(.ARM.Collect$$rtentry$$00000004)
    __rt_entry_li                            0x080001eb   Thumb Code     0  __rtentry2.o(.ARM.Collect$$rtentry$$0000000A)
    __rt_entry_postsh_1                      0x080001eb   Thumb Code     0  __rtentry2.o(.ARM.Collect$$rtentry$$00000009)
    __rt_entry_main                          0x080001ef   Thumb Code     0  __rtentry2.o(.ARM.Collect$$rtentry$$0000000D)
    __rt_entry_postli_1                      0x080001ef   Thumb Code     0  __rtentry2.o(.ARM.Collect$$rtentry$$0000000C)
    __rt_exit                                0x080001f7   Thumb Code     0  rtexit.o(.ARM.Collect$$rtexit$$00000000)
    __rt_exit_ls                             0x080001f9   Thumb Code     0  rtexit2.o(.ARM.Collect$$rtexit$$00000003)
    __rt_exit_prels_1                        0x080001f9   Thumb Code     0  rtexit2.o(.ARM.Collect$$rtexit$$00000002)
    __rt_exit_exit                           0x080001fd   Thumb Code     0  rtexit2.o(.ARM.Collect$$rtexit$$00000004)
    main                                     0x08000205   Thumb Code  1342  main.o(.text)
    ShowBatteryState                         0x08000745   Thumb Code     2  main.o(.text)
    BeepsBackwards                           0x08000749   Thumb Code    60  main.o(.text)
    ShutOff                                  0x08000785   Thumb Code    66  main.o(.text)
    modulo                                   0x080007c9   Thumb Code    22  bldc.o(.text)
    up_or_down                               0x080007e1   Thumb Code    60  bldc.o(.text)
    SetEnable                                0x0800081d   Thumb Code    12  bldc.o(.text)
    SetPWM                                   0x08000829   Thumb Code   120  bldc.o(.text)
    CalculateBLDC                            0x080008a1   Thumb Code   978  bldc.o(.text)
    Interrupt_init                           0x08000c75   Thumb Code     8  setup.o(.text)
    Watchdog_init                            0x08000c7d   Thumb Code    56  setup.o(.text)
    TimeoutTimer_init                        0x08000cb5   Thumb Code    92  setup.o(.text)
    GPIO_init                                0x08000d11   Thumb Code   692  setup.o(.text)
    PWM_init                                 0x08000fc5   Thumb Code   368  setup.o(.text)
    ADC_init                                 0x08001135   Thumb Code   234  setup.o(.text)
    USART1_Init                              0x08001221   Thumb Code   286  setup.o(.text)
    USART0_Init                              0x08001341   Thumb Code   284  setup.o(.text)
    SysTick_Handler                          0x0800145d   Thumb Code    16  it.o(.text)
    ResetTimeout                             0x0800146d   Thumb Code    14  it.o(.text)
    TIMER13_IRQHandler                       0x0800147d   Thumb Code    76  it.o(.text)
    TIMER0_BRK_UP_TRG_COM_IRQHandler         0x080014c9   Thumb Code    26  it.o(.text)
    DMA_Channel0_IRQHandler                  0x080014e5   Thumb Code    32  it.o(.text)
    DMA_Channel1_2_IRQHandler                0x08001505   Thumb Code    28  it.o(.text)
    DMA_Channel3_4_IRQHandler                0x08001521   Thumb Code    32  it.o(.text)
    millis                                   0x08001541   Thumb Code    12  it.o(.text)
    Delay                                    0x0800154d   Thumb Code    28  it.o(.text)
    NMI_Handler                              0x08001569   Thumb Code     2  it.o(.text)
    HardFault_Handler                        0x0800156d   Thumb Code     2  it.o(.text)
    MemManage_Handler                        0x08001571   Thumb Code     2  it.o(.text)
    BusFault_Handler                         0x08001575   Thumb Code     2  it.o(.text)
    UsageFault_Handler                       0x08001579   Thumb Code     2  it.o(.text)
    SVC_Handler                              0x0800157d   Thumb Code     2  it.o(.text)
    DebugMon_Handler                         0x08001581   Thumb Code     2  it.o(.text)
    PendSV_Handler                           0x08001585   Thumb Code     2  it.o(.text)
    RemoteUpdate                             0x08001589   Thumb Code    50  remoteuartbus.o(.text)
    AnswerMaster                             0x080015bd   Thumb Code   152  remoteuartbus.o(.text)
    RemoteCallback                           0x08001655   Thumb Code   454  remoteuartbus.o(.text)
    SendBuffer                               0x0800181d   Thumb Code    48  commsmasterslave.o(.text)
    CalcCRC                                  0x0800184d   Thumb Code    60  commsmasterslave.o(.text)
    SetBeepsBackwardsMaster                  0x08001889   Thumb Code    12  commsmasterslave.o(.text)
    GetBeepsBackwardsMaster                  0x08001895   Thumb Code    12  commsmasterslave.o(.text)
    adc_deinit                               0x080018a1   Thumb Code    22  gd32f1x0_adc.o(.text)
    adc_enable                               0x080018b9   Thumb Code    26  gd32f1x0_adc.o(.text)
    adc_disable                              0x080018d5   Thumb Code    18  gd32f1x0_adc.o(.text)
    adc_calibration_enable                   0x080018e9   Thumb Code    40  gd32f1x0_adc.o(.text)
    adc_dma_mode_enable                      0x08001911   Thumb Code    18  gd32f1x0_adc.o(.text)
    adc_dma_mode_disable                     0x08001925   Thumb Code    18  gd32f1x0_adc.o(.text)
    adc_tempsensor_vrefint_enable            0x08001939   Thumb Code    18  gd32f1x0_adc.o(.text)
    adc_tempsensor_vrefint_disable           0x0800194d   Thumb Code    18  gd32f1x0_adc.o(.text)
    adc_vbat_enable                          0x08001961   Thumb Code    18  gd32f1x0_adc.o(.text)
    adc_vbat_disable                         0x08001975   Thumb Code    18  gd32f1x0_adc.o(.text)
    adc_discontinuous_mode_config            0x08001989   Thumb Code    68  gd32f1x0_adc.o(.text)
    adc_special_function_config              0x080019cd   Thumb Code   100  gd32f1x0_adc.o(.text)
    adc_data_alignment_config                0x08001a31   Thumb Code    26  gd32f1x0_adc.o(.text)
    adc_channel_length_config                0x08001a4d   Thumb Code    82  gd32f1x0_adc.o(.text)
    adc_regular_channel_config               0x08001aa1   Thumb Code   180  gd32f1x0_adc.o(.text)
    adc_inserted_channel_config              0x08001b55   Thumb Code   114  gd32f1x0_adc.o(.text)
    adc_inserted_channel_offset_config       0x08001bc9   Thumb Code    32  gd32f1x0_adc.o(.text)
    adc_external_trigger_config              0x08001be9   Thumb Code    72  gd32f1x0_adc.o(.text)
    adc_external_trigger_source_config       0x08001c31   Thumb Code    42  gd32f1x0_adc.o(.text)
    adc_software_trigger_enable              0x08001c5d   Thumb Code    36  gd32f1x0_adc.o(.text)
    adc_regular_data_read                    0x08001c81   Thumb Code    14  gd32f1x0_adc.o(.text)
    adc_inserted_data_read                   0x08001c91   Thumb Code    74  gd32f1x0_adc.o(.text)
    adc_flag_get                             0x08001cdd   Thumb Code    18  gd32f1x0_adc.o(.text)
    adc_flag_clear                           0x08001cf1   Thumb Code    18  gd32f1x0_adc.o(.text)
    adc_interrupt_flag_get                   0x08001d05   Thumb Code    56  gd32f1x0_adc.o(.text)
    adc_interrupt_flag_clear                 0x08001d3d   Thumb Code    18  gd32f1x0_adc.o(.text)
    adc_interrupt_enable                     0x08001d51   Thumb Code    48  gd32f1x0_adc.o(.text)
    adc_interrupt_disable                    0x08001d81   Thumb Code    48  gd32f1x0_adc.o(.text)
    adc_watchdog_single_channel_enable       0x08001db1   Thumb Code    42  gd32f1x0_adc.o(.text)
    adc_watchdog_group_channel_enable        0x08001ddd   Thumb Code    48  gd32f1x0_adc.o(.text)
    adc_watchdog_disable                     0x08001e19   Thumb Code    24  gd32f1x0_adc.o(.text)
    adc_watchdog_threshold_config            0x08001e31   Thumb Code    22  gd32f1x0_adc.o(.text)
    dma_deinit                               0x08001e49   Thumb Code    48  gd32f1x0_dma.o(.text)
    dma_struct_para_init                     0x08001e79   Thumb Code    24  gd32f1x0_dma.o(.text)
    dma_init                                 0x08001e91   Thumb Code   122  gd32f1x0_dma.o(.text)
    dma_circulation_enable                   0x08001f0d   Thumb Code    24  gd32f1x0_dma.o(.text)
    dma_circulation_disable                  0x08001f25   Thumb Code    24  gd32f1x0_dma.o(.text)
    dma_memory_to_memory_enable              0x08001f3d   Thumb Code    24  gd32f1x0_dma.o(.text)
    dma_memory_to_memory_disable             0x08001f55   Thumb Code    24  gd32f1x0_dma.o(.text)
    dma_channel_enable                       0x08001f6d   Thumb Code    24  gd32f1x0_dma.o(.text)
    dma_channel_disable                      0x08001f85   Thumb Code    24  gd32f1x0_dma.o(.text)
    dma_periph_address_config                0x08001f9d   Thumb Code    16  gd32f1x0_dma.o(.text)
    dma_memory_address_config                0x08001fad   Thumb Code    16  gd32f1x0_dma.o(.text)
    dma_transfer_number_config               0x08001fbd   Thumb Code    16  gd32f1x0_dma.o(.text)
    dma_transfer_number_get                  0x08001fcd   Thumb Code    16  gd32f1x0_dma.o(.text)
    dma_priority_config                      0x08001fdd   Thumb Code    26  gd32f1x0_dma.o(.text)
    dma_memory_width_config                  0x08001ff9   Thumb Code    26  gd32f1x0_dma.o(.text)
    dma_periph_width_config                  0x08002015   Thumb Code    26  gd32f1x0_dma.o(.text)
    dma_memory_increase_enable               0x08002031   Thumb Code    24  gd32f1x0_dma.o(.text)
    dma_memory_increase_disable              0x08002049   Thumb Code    24  gd32f1x0_dma.o(.text)
    dma_periph_increase_enable               0x08002061   Thumb Code    24  gd32f1x0_dma.o(.text)
    dma_periph_increase_disable              0x08002079   Thumb Code    24  gd32f1x0_dma.o(.text)
    dma_transfer_direction_config            0x08002091   Thumb Code    30  gd32f1x0_dma.o(.text)
    dma_interrupt_flag_get                   0x080020b1   Thumb Code   116  gd32f1x0_dma.o(.text)
    dma_interrupt_flag_clear                 0x08002125   Thumb Code    20  gd32f1x0_dma.o(.text)
    dma_interrupt_enable                     0x08002139   Thumb Code    22  gd32f1x0_dma.o(.text)
    dma_interrupt_disable                    0x08002151   Thumb Code    24  gd32f1x0_dma.o(.text)
    dma_flag_get                             0x08002169   Thumb Code    22  gd32f1x0_dma.o(.text)
    dma_flag_clear                           0x08002181   Thumb Code    20  gd32f1x0_dma.o(.text)
    fwdgt_write_disable                      0x08002195   Thumb Code    14  gd32f1x0_fwdgt.o(.text)
    fwdgt_counter_reload                     0x080021a5   Thumb Code    16  gd32f1x0_fwdgt.o(.text)
    fwdgt_enable                             0x080021b5   Thumb Code    16  gd32f1x0_fwdgt.o(.text)
    fwdgt_window_value_config                0x080021c5   Thumb Code    52  gd32f1x0_fwdgt.o(.text)
    fwdgt_config                             0x080021f9   Thumb Code   100  gd32f1x0_fwdgt.o(.text)
    fwdgt_flag_get                           0x0800225d   Thumb Code    18  gd32f1x0_fwdgt.o(.text)
    gpio_deinit                              0x08002271   Thumb Code    58  gd32f1x0_gpio.o(.text)
    gpio_mode_set                            0x080022ad   Thumb Code    84  gd32f1x0_gpio.o(.text)
    gpio_output_options_set                  0x08002301   Thumb Code    70  gd32f1x0_gpio.o(.text)
    gpio_bit_set                             0x08002349   Thumb Code     4  gd32f1x0_gpio.o(.text)
    gpio_bit_reset                           0x0800234d   Thumb Code     4  gd32f1x0_gpio.o(.text)
    gpio_bit_write                           0x08002351   Thumb Code    12  gd32f1x0_gpio.o(.text)
    gpio_port_write                          0x0800235d   Thumb Code     4  gd32f1x0_gpio.o(.text)
    gpio_input_bit_get                       0x08002361   Thumb Code    10  gd32f1x0_gpio.o(.text)
    gpio_input_port_get                      0x0800236d   Thumb Code     6  gd32f1x0_gpio.o(.text)
    gpio_output_bit_get                      0x08002375   Thumb Code    10  gd32f1x0_gpio.o(.text)
    gpio_output_port_get                     0x08002381   Thumb Code     6  gd32f1x0_gpio.o(.text)
    gpio_af_set                              0x08002389   Thumb Code   110  gd32f1x0_gpio.o(.text)
    gpio_pin_lock                            0x080023f9   Thumb Code    16  gd32f1x0_gpio.o(.text)
    nvic_priority_group_set                  0x08002409   Thumb Code    20  gd32f1x0_misc.o(.text)
    nvic_irq_enable                          0x0800241d   Thumb Code   168  gd32f1x0_misc.o(.text)
    nvic_irq_disable                         0x080024c5   Thumb Code    30  gd32f1x0_misc.o(.text)
    nvic_vector_table_set                    0x080024e5   Thumb Code    24  gd32f1x0_misc.o(.text)
    system_lowpower_set                      0x080024fd   Thumb Code    16  gd32f1x0_misc.o(.text)
    system_lowpower_reset                    0x0800250d   Thumb Code    18  gd32f1x0_misc.o(.text)
    systick_clksource_set                    0x08002521   Thumb Code    24  gd32f1x0_misc.o(.text)
    rcu_deinit                               0x08002539   Thumb Code   112  gd32f1x0_rcu.o(.text)
    rcu_periph_clock_enable                  0x080025a9   Thumb Code    30  gd32f1x0_rcu.o(.text)
    rcu_periph_clock_disable                 0x080025c9   Thumb Code    32  gd32f1x0_rcu.o(.text)
    rcu_periph_clock_sleep_enable            0x080025e9   Thumb Code    30  gd32f1x0_rcu.o(.text)
    rcu_periph_clock_sleep_disable           0x08002609   Thumb Code    32  gd32f1x0_rcu.o(.text)
    rcu_periph_reset_enable                  0x08002629   Thumb Code    30  gd32f1x0_rcu.o(.text)
    rcu_periph_reset_disable                 0x08002649   Thumb Code    32  gd32f1x0_rcu.o(.text)
    rcu_bkp_reset_enable                     0x08002669   Thumb Code    18  gd32f1x0_rcu.o(.text)
    rcu_bkp_reset_disable                    0x0800267d   Thumb Code    18  gd32f1x0_rcu.o(.text)
    rcu_system_clock_source_config           0x08002691   Thumb Code    20  gd32f1x0_rcu.o(.text)
    rcu_system_clock_source_get              0x080026a5   Thumb Code    16  gd32f1x0_rcu.o(.text)
    rcu_ahb_clock_config                     0x080026b5   Thumb Code    20  gd32f1x0_rcu.o(.text)
    rcu_apb1_clock_config                    0x080026c9   Thumb Code    20  gd32f1x0_rcu.o(.text)
    rcu_apb2_clock_config                    0x080026dd   Thumb Code    20  gd32f1x0_rcu.o(.text)
    rcu_adc_clock_config                     0x080026f1   Thumb Code    88  gd32f1x0_rcu.o(.text)
    rcu_usbd_clock_config                    0x08002749   Thumb Code    24  gd32f1x0_rcu.o(.text)
    rcu_ckout_config                         0x08002761   Thumb Code    22  gd32f1x0_rcu.o(.text)
    rcu_pll_config                           0x08002779   Thumb Code    36  gd32f1x0_rcu.o(.text)
    rcu_usart_clock_config                   0x0800279d   Thumb Code    24  gd32f1x0_rcu.o(.text)
    rcu_cec_clock_config                     0x080027b5   Thumb Code    24  gd32f1x0_rcu.o(.text)
    rcu_rtc_clock_config                     0x080027cd   Thumb Code    24  gd32f1x0_rcu.o(.text)
    rcu_hxtal_prediv_config                  0x080027e5   Thumb Code    20  gd32f1x0_rcu.o(.text)
    rcu_lxtal_drive_capability_config        0x080027f9   Thumb Code    24  gd32f1x0_rcu.o(.text)
    rcu_flag_get                             0x08002811   Thumb Code    26  gd32f1x0_rcu.o(.text)
    rcu_all_reset_flag_clear                 0x0800282d   Thumb Code    18  gd32f1x0_rcu.o(.text)
    rcu_interrupt_flag_get                   0x08002841   Thumb Code    18  gd32f1x0_rcu.o(.text)
    rcu_interrupt_flag_clear                 0x08002855   Thumb Code    16  gd32f1x0_rcu.o(.text)
    rcu_interrupt_enable                     0x08002865   Thumb Code    16  gd32f1x0_rcu.o(.text)
    rcu_interrupt_disable                    0x08002875   Thumb Code    18  gd32f1x0_rcu.o(.text)
    rcu_osci_stab_wait                       0x08002889   Thumb Code   324  gd32f1x0_rcu.o(.text)
    rcu_osci_on                              0x080029cd   Thumb Code    30  gd32f1x0_rcu.o(.text)
    rcu_osci_off                             0x080029ed   Thumb Code    32  gd32f1x0_rcu.o(.text)
    rcu_osci_bypass_mode_enable              0x08002a0d   Thumb Code    64  gd32f1x0_rcu.o(.text)
    rcu_osci_bypass_mode_disable             0x08002a4d   Thumb Code    64  gd32f1x0_rcu.o(.text)
    rcu_hxtal_clock_monitor_enable           0x08002a8d   Thumb Code    18  gd32f1x0_rcu.o(.text)
    rcu_hxtal_clock_monitor_disable          0x08002aa1   Thumb Code    18  gd32f1x0_rcu.o(.text)
    rcu_irc8m_adjust_value_set               0x08002ab5   Thumb Code    22  gd32f1x0_rcu.o(.text)
    rcu_irc14m_adjust_value_set              0x08002acd   Thumb Code    22  gd32f1x0_rcu.o(.text)
    rcu_voltage_key_unlock                   0x08002ae5   Thumb Code    30  gd32f1x0_rcu.o(.text)
    rcu_deepsleep_voltage_set                0x08002b05   Thumb Code    24  gd32f1x0_rcu.o(.text)
    rcu_power_down_voltage_set               0x08002b1d   Thumb Code    24  gd32f1x0_rcu.o(.text)
    rcu_clock_freq_get                       0x08002b35   Thumb Code   292  gd32f1x0_rcu.o(.text)
    timer_deinit                             0x08002c69   Thumb Code   194  gd32f1x0_timer.o(.text)
    timer_struct_para_init                   0x08002d2d   Thumb Code    16  gd32f1x0_timer.o(.text)
    timer_init                               0x08002d3d   Thumb Code   212  gd32f1x0_timer.o(.text)
    timer_enable                             0x08002e11   Thumb Code    10  gd32f1x0_timer.o(.text)
    timer_disable                            0x08002e1d   Thumb Code    10  gd32f1x0_timer.o(.text)
    timer_auto_reload_shadow_enable          0x08002e29   Thumb Code    10  gd32f1x0_timer.o(.text)
    timer_auto_reload_shadow_disable         0x08002e35   Thumb Code    10  gd32f1x0_timer.o(.text)
    timer_update_event_enable                0x08002e41   Thumb Code    10  gd32f1x0_timer.o(.text)
    timer_update_event_disable               0x08002e4d   Thumb Code    10  gd32f1x0_timer.o(.text)
    timer_counter_alignment                  0x08002e59   Thumb Code    16  gd32f1x0_timer.o(.text)
    timer_counter_up_direction               0x08002e69   Thumb Code    10  gd32f1x0_timer.o(.text)
    timer_counter_down_direction             0x08002e75   Thumb Code    10  gd32f1x0_timer.o(.text)
    timer_prescaler_config                   0x08002e81   Thumb Code    18  gd32f1x0_timer.o(.text)
    timer_repetition_value_config            0x08002e95   Thumb Code     4  gd32f1x0_timer.o(.text)
    timer_autoreload_value_config            0x08002e99   Thumb Code     4  gd32f1x0_timer.o(.text)
    timer_counter_value_config               0x08002e9d   Thumb Code     4  gd32f1x0_timer.o(.text)
    timer_counter_read                       0x08002ea1   Thumb Code     4  gd32f1x0_timer.o(.text)
    timer_prescaler_read                     0x08002ea5   Thumb Code     6  gd32f1x0_timer.o(.text)
    timer_single_pulse_mode_config           0x08002ead   Thumb Code    30  gd32f1x0_timer.o(.text)
    timer_update_source_config               0x08002ecd   Thumb Code    30  gd32f1x0_timer.o(.text)
    timer_ocpre_clear_source_config          0x08002eed   Thumb Code    28  gd32f1x0_timer.o(.text)
    timer_interrupt_enable                   0x08002f09   Thumb Code     8  gd32f1x0_timer.o(.text)
    timer_interrupt_disable                  0x08002f11   Thumb Code    10  gd32f1x0_timer.o(.text)
    timer_interrupt_flag_get                 0x08002f1d   Thumb Code    22  gd32f1x0_timer.o(.text)
    timer_interrupt_flag_clear               0x08002f35   Thumb Code     6  gd32f1x0_timer.o(.text)
    timer_flag_get                           0x08002f3d   Thumb Code    10  gd32f1x0_timer.o(.text)
    timer_flag_clear                         0x08002f49   Thumb Code     6  gd32f1x0_timer.o(.text)
    timer_dma_enable                         0x08002f51   Thumb Code     8  gd32f1x0_timer.o(.text)
    timer_dma_disable                        0x08002f59   Thumb Code    10  gd32f1x0_timer.o(.text)
    timer_channel_dma_request_source_select  0x08002f65   Thumb Code    30  gd32f1x0_timer.o(.text)
    timer_dma_transfer_config                0x08002f85   Thumb Code    24  gd32f1x0_timer.o(.text)
    timer_event_software_generate            0x08002f9d   Thumb Code     8  gd32f1x0_timer.o(.text)
    timer_break_struct_para_init             0x08002fa5   Thumb Code    16  gd32f1x0_timer.o(.text)
    timer_break_config                       0x08002fb5   Thumb Code    36  gd32f1x0_timer.o(.text)
    timer_break_enable                       0x08002fd9   Thumb Code    10  gd32f1x0_timer.o(.text)
    timer_break_disable                      0x08002fe5   Thumb Code    10  gd32f1x0_timer.o(.text)
    timer_automatic_output_enable            0x08002ff1   Thumb Code    10  gd32f1x0_timer.o(.text)
    timer_automatic_output_disable           0x08002ffd   Thumb Code    10  gd32f1x0_timer.o(.text)
    timer_primary_output_config              0x08003009   Thumb Code    18  gd32f1x0_timer.o(.text)
    timer_channel_control_shadow_config      0x0800301d   Thumb Code    16  gd32f1x0_timer.o(.text)
    timer_channel_control_shadow_update_config 0x0800302d   Thumb Code    30  gd32f1x0_timer.o(.text)
    timer_channel_output_struct_para_init    0x0800304d   Thumb Code    12  gd32f1x0_timer.o(.text)
    timer_channel_output_config              0x08003059   Thumb Code   550  gd32f1x0_timer.o(.text)
    timer_channel_output_mode_config         0x08003281   Thumb Code    58  gd32f1x0_timer.o(.text)
    timer_channel_output_pulse_value_config  0x080032bd   Thumb Code    12  gd32f1x0_timer.o(.text)
    timer_channel_output_shadow_config       0x080032c9   Thumb Code    58  gd32f1x0_timer.o(.text)
    timer_channel_output_fast_config         0x08003305   Thumb Code    58  gd32f1x0_timer.o(.text)
    timer_channel_output_clear_config        0x08003341   Thumb Code    58  gd32f1x0_timer.o(.text)
    timer_channel_output_polarity_config     0x0800337d   Thumb Code    74  gd32f1x0_timer.o(.text)
    timer_channel_complementary_output_polarity_config 0x080033c9   Thumb Code    74  gd32f1x0_timer.o(.text)
    timer_channel_output_state_config        0x08003415   Thumb Code    74  gd32f1x0_timer.o(.text)
    timer_channel_complementary_output_state_config 0x08003461   Thumb Code    60  gd32f1x0_timer.o(.text)
    timer_channel_input_struct_para_init     0x0800349d   Thumb Code    12  gd32f1x0_timer.o(.text)
    timer_input_capture_config               0x080034a9   Thumb Code   346  gd32f1x0_timer.o(.text)
    timer_channel_input_capture_prescaler_config 0x08003605   Thumb Code    58  gd32f1x0_timer.o(.text)
    timer_channel_capture_value_register_read 0x08003641   Thumb Code    14  gd32f1x0_timer.o(.text)
    timer_input_pwm_capture_config           0x08003651   Thumb Code   356  gd32f1x0_timer.o(.text)
    timer_hall_mode_config                   0x080037b5   Thumb Code    30  gd32f1x0_timer.o(.text)
    timer_input_trigger_source_select        0x080037d5   Thumb Code    16  gd32f1x0_timer.o(.text)
    timer_master_output_trigger_source_select 0x080037e5   Thumb Code    16  gd32f1x0_timer.o(.text)
    timer_slave_mode_select                  0x080037f5   Thumb Code    16  gd32f1x0_timer.o(.text)
    timer_master_slave_mode_config           0x08003805   Thumb Code    30  gd32f1x0_timer.o(.text)
    timer_external_trigger_config            0x08003825   Thumb Code    34  gd32f1x0_timer.o(.text)
    timer_quadrature_decoder_mode_config     0x08003849   Thumb Code    78  gd32f1x0_timer.o(.text)
    timer_internal_clock_config              0x08003899   Thumb Code    10  gd32f1x0_timer.o(.text)
    timer_internal_trigger_as_external_clock_config 0x080038a5   Thumb Code    32  gd32f1x0_timer.o(.text)
    timer_external_trigger_as_external_clock_config 0x080038c5   Thumb Code   148  gd32f1x0_timer.o(.text)
    timer_external_clock_mode0_config        0x08003959   Thumb Code    50  gd32f1x0_timer.o(.text)
    timer_external_clock_mode1_config        0x0800398d   Thumb Code    42  gd32f1x0_timer.o(.text)
    timer_external_clock_mode1_disable       0x080039b9   Thumb Code    10  gd32f1x0_timer.o(.text)
    timer_channel_remap_config               0x080039c5   Thumb Code     4  gd32f1x0_timer.o(.text)
    usart_deinit                             0x080039c9   Thumb Code    54  gd32f1x0_usart.o(.text)
    usart_baudrate_set                       0x08003a01   Thumb Code    90  gd32f1x0_usart.o(.text)
    usart_parity_config                      0x08003a5d   Thumb Code    24  gd32f1x0_usart.o(.text)
    usart_word_length_set                    0x08003a75   Thumb Code    24  gd32f1x0_usart.o(.text)
    usart_stop_bit_set                       0x08003a8d   Thumb Code    24  gd32f1x0_usart.o(.text)
    usart_enable                             0x08003aa5   Thumb Code    10  gd32f1x0_usart.o(.text)
    usart_disable                            0x08003ab1   Thumb Code    10  gd32f1x0_usart.o(.text)
    usart_transmit_config                    0x08003abd   Thumb Code    16  gd32f1x0_usart.o(.text)
    usart_receive_config                     0x08003acd   Thumb Code    16  gd32f1x0_usart.o(.text)
    usart_data_transmit                      0x08003add   Thumb Code     8  gd32f1x0_usart.o(.text)
    usart_data_receive                       0x08003ae5   Thumb Code     8  gd32f1x0_usart.o(.text)
    usart_data_first_config                  0x08003aed   Thumb Code    28  gd32f1x0_usart.o(.text)
    usart_invert_config                      0x08003b09   Thumb Code   106  gd32f1x0_usart.o(.text)
    usart_overrun_enable                     0x08003b75   Thumb Code    18  gd32f1x0_usart.o(.text)
    usart_overrun_disable                    0x08003b89   Thumb Code    18  gd32f1x0_usart.o(.text)
    usart_oversample_config                  0x08003b9d   Thumb Code    24  gd32f1x0_usart.o(.text)
    usart_sample_bit_config                  0x08003bb5   Thumb Code    24  gd32f1x0_usart.o(.text)
    usart_autobaud_detection_enable          0x08003bcd   Thumb Code    10  gd32f1x0_usart.o(.text)
    usart_autobaud_detection_disable         0x08003bd9   Thumb Code    10  gd32f1x0_usart.o(.text)
    usart_autobaud_detection_mode_config     0x08003be5   Thumb Code    16  gd32f1x0_usart.o(.text)
    usart_mute_mode_enable                   0x08003bf5   Thumb Code    10  gd32f1x0_usart.o(.text)
    usart_mute_mode_disable                  0x08003c01   Thumb Code    10  gd32f1x0_usart.o(.text)
    usart_mute_mode_wakeup_config            0x08003c0d   Thumb Code    24  gd32f1x0_usart.o(.text)
    usart_address_detection_mode_config      0x08003c25   Thumb Code    28  gd32f1x0_usart.o(.text)
    usart_address_config                     0x08003c41   Thumb Code    26  gd32f1x0_usart.o(.text)
    usart_receiver_timeout_enable            0x08003c5d   Thumb Code    10  gd32f1x0_usart.o(.text)
    usart_receiver_timeout_disable           0x08003c69   Thumb Code    10  gd32f1x0_usart.o(.text)
    usart_receiver_timeout_config            0x08003c75   Thumb Code    16  gd32f1x0_usart.o(.text)
    usart_lin_mode_enable                    0x08003c85   Thumb Code    18  gd32f1x0_usart.o(.text)
    usart_lin_mode_disable                   0x08003c99   Thumb Code    18  gd32f1x0_usart.o(.text)
    usart_lin_break_detection_length_config  0x08003cad   Thumb Code    20  gd32f1x0_usart.o(.text)
    usart_halfduplex_enable                  0x08003cc1   Thumb Code    18  gd32f1x0_usart.o(.text)
    usart_halfduplex_disable                 0x08003cd5   Thumb Code    18  gd32f1x0_usart.o(.text)
    usart_clock_enable                       0x08003ce9   Thumb Code    18  gd32f1x0_usart.o(.text)
    usart_clock_disable                      0x08003cfd   Thumb Code    18  gd32f1x0_usart.o(.text)
    usart_synchronous_clock_config           0x08003d11   Thumb Code    60  gd32f1x0_usart.o(.text)
    usart_smartcard_mode_enable              0x08003d4d   Thumb Code    18  gd32f1x0_usart.o(.text)
    usart_smartcard_mode_disable             0x08003d61   Thumb Code    18  gd32f1x0_usart.o(.text)
    usart_smartcard_mode_nack_enable         0x08003d75   Thumb Code    18  gd32f1x0_usart.o(.text)
    usart_smartcard_mode_nack_disable        0x08003d89   Thumb Code    18  gd32f1x0_usart.o(.text)
    usart_guard_time_config                  0x08003d9d   Thumb Code    28  gd32f1x0_usart.o(.text)
    usart_block_length_config                0x08003db9   Thumb Code    18  gd32f1x0_usart.o(.text)
    usart_smartcard_autoretry_config         0x08003dcd   Thumb Code    30  gd32f1x0_usart.o(.text)
    usart_irda_mode_enable                   0x08003ded   Thumb Code    18  gd32f1x0_usart.o(.text)
    usart_irda_mode_disable                  0x08003e01   Thumb Code    18  gd32f1x0_usart.o(.text)
    usart_irda_lowpower_config               0x08003e15   Thumb Code    20  gd32f1x0_usart.o(.text)
    usart_prescaler_config                   0x08003e29   Thumb Code    24  gd32f1x0_usart.o(.text)
    usart_hardware_flow_rts_config           0x08003e41   Thumb Code    24  gd32f1x0_usart.o(.text)
    usart_hardware_flow_cts_config           0x08003e59   Thumb Code    24  gd32f1x0_usart.o(.text)
    usart_rs485_driver_enable                0x08003e71   Thumb Code    18  gd32f1x0_usart.o(.text)
    usart_rs485_driver_disable               0x08003e85   Thumb Code    18  gd32f1x0_usart.o(.text)
    usart_driver_assertime_config            0x08003e99   Thumb Code    30  gd32f1x0_usart.o(.text)
    usart_driver_deassertime_config          0x08003eb9   Thumb Code    30  gd32f1x0_usart.o(.text)
    usart_depolarity_config                  0x08003ed9   Thumb Code    28  gd32f1x0_usart.o(.text)
    usart_dma_receive_config                 0x08003ef5   Thumb Code    16  gd32f1x0_usart.o(.text)
    usart_dma_transmit_config                0x08003f05   Thumb Code    16  gd32f1x0_usart.o(.text)
    usart_reception_error_dma_disable        0x08003f15   Thumb Code    18  gd32f1x0_usart.o(.text)
    usart_reception_error_dma_enable         0x08003f29   Thumb Code    18  gd32f1x0_usart.o(.text)
    usart_wakeup_enable                      0x08003f3d   Thumb Code    10  gd32f1x0_usart.o(.text)
    usart_wakeup_disable                     0x08003f49   Thumb Code    10  gd32f1x0_usart.o(.text)
    usart_wakeup_mode_config                 0x08003f55   Thumb Code    28  gd32f1x0_usart.o(.text)
    usart_flag_get                           0x08003f71   Thumb Code    16  gd32f1x0_usart.o(.text)
    usart_flag_clear                         0x08003f81   Thumb Code    18  gd32f1x0_usart.o(.text)
    usart_interrupt_enable                   0x08003f95   Thumb Code    24  gd32f1x0_usart.o(.text)
    usart_interrupt_disable                  0x08003fad   Thumb Code    26  gd32f1x0_usart.o(.text)
    usart_command_enable                     0x08003fc9   Thumb Code     8  gd32f1x0_usart.o(.text)
    usart_interrupt_flag_get                 0x08003fd1   Thumb Code    34  gd32f1x0_usart.o(.text)
    usart_interrupt_flag_clear               0x08003ff5   Thumb Code    18  gd32f1x0_usart.o(.text)
    Reset_Handler                            0x08004009   Thumb Code     8  startup_gd32f1x0.o(.text)
    ADC_CMP_IRQHandler                       0x08004023   Thumb Code     0  startup_gd32f1x0.o(.text)
    CAN0_RX0_IRQHandler                      0x08004023   Thumb Code     0  startup_gd32f1x0.o(.text)
    CAN0_RX1_IRQHandler                      0x08004023   Thumb Code     0  startup_gd32f1x0.o(.text)
    CAN0_SCE_IRQHandler                      0x08004023   Thumb Code     0  startup_gd32f1x0.o(.text)
    CAN0_TX_IRQHandler                       0x08004023   Thumb Code     0  startup_gd32f1x0.o(.text)
    CAN1_RX0_IRQHandler                      0x08004023   Thumb Code     0  startup_gd32f1x0.o(.text)
    CAN1_RX1_IRQHandler                      0x08004023   Thumb Code     0  startup_gd32f1x0.o(.text)
    CAN1_SCE_IRQHandler                      0x08004023   Thumb Code     0  startup_gd32f1x0.o(.text)
    CAN1_TX_IRQHandler                       0x08004023   Thumb Code     0  startup_gd32f1x0.o(.text)
    CEC_IRQHandler                           0x08004023   Thumb Code     0  startup_gd32f1x0.o(.text)
    DMA_Channel5_6_IRQHandler                0x08004023   Thumb Code     0  startup_gd32f1x0.o(.text)
    EXTI0_1_IRQHandler                       0x08004023   Thumb Code     0  startup_gd32f1x0.o(.text)
    EXTI2_3_IRQHandler                       0x08004023   Thumb Code     0  startup_gd32f1x0.o(.text)
    EXTI4_15_IRQHandler                      0x08004023   Thumb Code     0  startup_gd32f1x0.o(.text)
    FMC_IRQHandler                           0x08004023   Thumb Code     0  startup_gd32f1x0.o(.text)
    I2C0_ER_IRQHandler                       0x08004023   Thumb Code     0  startup_gd32f1x0.o(.text)
    I2C0_EV_IRQHandler                       0x08004023   Thumb Code     0  startup_gd32f1x0.o(.text)
    I2C1_ER_IRQHandler                       0x08004023   Thumb Code     0  startup_gd32f1x0.o(.text)
    I2C1_EV_IRQHandler                       0x08004023   Thumb Code     0  startup_gd32f1x0.o(.text)
    I2C2_ER_IRQHandler                       0x08004023   Thumb Code     0  startup_gd32f1x0.o(.text)
    I2C2_EV_IRQHandler                       0x08004023   Thumb Code     0  startup_gd32f1x0.o(.text)
    LVD_IRQHandler                           0x08004023   Thumb Code     0  startup_gd32f1x0.o(.text)
    RCU_IRQHandler                           0x08004023   Thumb Code     0  startup_gd32f1x0.o(.text)
    RTC_IRQHandler                           0x08004023   Thumb Code     0  startup_gd32f1x0.o(.text)
    SLCD_IRQHandler                          0x08004023   Thumb Code     0  startup_gd32f1x0.o(.text)
    SPI0_IRQHandler                          0x08004023   Thumb Code     0  startup_gd32f1x0.o(.text)
    SPI1_IRQHandler                          0x08004023   Thumb Code     0  startup_gd32f1x0.o(.text)
    SPI2_IRQHandler                          0x08004023   Thumb Code     0  startup_gd32f1x0.o(.text)
    TIMER0_Channel_IRQHandler                0x08004023   Thumb Code     0  startup_gd32f1x0.o(.text)
    TIMER14_IRQHandler                       0x08004023   Thumb Code     0  startup_gd32f1x0.o(.text)
    TIMER15_IRQHandler                       0x08004023   Thumb Code     0  startup_gd32f1x0.o(.text)
    TIMER16_IRQHandler                       0x08004023   Thumb Code     0  startup_gd32f1x0.o(.text)
    TIMER1_IRQHandler                        0x08004023   Thumb Code     0  startup_gd32f1x0.o(.text)
    TIMER2_IRQHandler                        0x08004023   Thumb Code     0  startup_gd32f1x0.o(.text)
    TIMER5_DAC_IRQHandler                    0x08004023   Thumb Code     0  startup_gd32f1x0.o(.text)
    TSI_IRQHandler                           0x08004023   Thumb Code     0  startup_gd32f1x0.o(.text)
    USART0_IRQHandler                        0x08004023   Thumb Code     0  startup_gd32f1x0.o(.text)
    USART1_IRQHandler                        0x08004023   Thumb Code     0  startup_gd32f1x0.o(.text)
    USBDWakeUp_IRQHandler                    0x08004023   Thumb Code     0  startup_gd32f1x0.o(.text)
    USBD_HP_IRQHandler                       0x08004023   Thumb Code     0  startup_gd32f1x0.o(.text)
    USBD_LP_IRQHandler                       0x08004023   Thumb Code     0  startup_gd32f1x0.o(.text)
    WWDGT_IRQHandler                         0x08004023   Thumb Code     0  startup_gd32f1x0.o(.text)
    __user_initial_stackheap                 0x08004025   Thumb Code    10  startup_gd32f1x0.o(.text)
    SystemInit                               0x08004049   Thumb Code   188  system_gd32f1x0.o(.text)
    SystemCoreClockUpdate                    0x08004105   Thumb Code   112  system_gd32f1x0.o(.text)
    __use_two_region_memory                  0x08004185   Thumb Code     2  heapauxi.o(.text)
    __rt_heap_escrow$2region                 0x08004187   Thumb Code     2  heapauxi.o(.text)
    __rt_heap_expand$2region                 0x08004189   Thumb Code     2  heapauxi.o(.text)
    __user_setup_stackheap                   0x0800418b   Thumb Code    74  sys_stackheap_outer.o(.text)
    exit                                     0x080041d5   Thumb Code    18  exit.o(.text)
    __user_libspace                          0x080041e9   Thumb Code     8  libspace.o(.text)
    __user_perproc_libspace                  0x080041e9   Thumb Code     0  libspace.o(.text)
    __user_perthread_libspace                0x080041e9   Thumb Code     0  libspace.o(.text)
    _sys_exit                                0x080041f1   Thumb Code     8  sys_exit.o(.text)
    __I$use$semihosting                      0x080041fd   Thumb Code     0  use_no_semi.o(.text)
    __use_no_semihosting_swi                 0x080041fd   Thumb Code     2  use_no_semi.o(.text)
    __semihosting_library_function           0x080041ff   Thumb Code     0  indicate_semi.o(.text)
    __aeabi_d2f                              0x08004201   Thumb Code     0  d2f.o(x$fpl$d2f)
    _d2f                                     0x08004201   Thumb Code    98  d2f.o(x$fpl$d2f)
    __aeabi_dadd                             0x08004265   Thumb Code     0  daddsub_clz.o(x$fpl$dadd)
    _dadd                                    0x08004265   Thumb Code   332  daddsub_clz.o(x$fpl$dadd)
    __fpl_dcmp_Inf                           0x080043b5   Thumb Code    24  dcmpi.o(x$fpl$dcmpinf)
    __aeabi_ddiv                             0x080043cd   Thumb Code     0  ddiv.o(x$fpl$ddiv)
    _ddiv                                    0x080043cd   Thumb Code   556  ddiv.o(x$fpl$ddiv)
    __aeabi_cdcmpeq                          0x08004681   Thumb Code     0  deqf.o(x$fpl$deqf)
    _dcmpeq                                  0x08004681   Thumb Code   120  deqf.o(x$fpl$deqf)
    __aeabi_d2iz                             0x080046f9   Thumb Code     0  dfix.o(x$fpl$dfix)
    _dfix                                    0x080046f9   Thumb Code    94  dfix.o(x$fpl$dfix)
    __aeabi_i2d                              0x08004757   Thumb Code     0  dflt_clz.o(x$fpl$dflt)
    _dflt                                    0x08004757   Thumb Code    46  dflt_clz.o(x$fpl$dflt)
    __aeabi_ui2d                             0x08004785   Thumb Code     0  dflt_clz.o(x$fpl$dfltu)
    _dfltu                                   0x08004785   Thumb Code    38  dflt_clz.o(x$fpl$dfltu)
    __aeabi_cdcmpge                          0x080047ad   Thumb Code     0  dgeqf.o(x$fpl$dgeqf)
    _dcmpge                                  0x080047ad   Thumb Code   120  dgeqf.o(x$fpl$dgeqf)
    __aeabi_cdcmple                          0x08004825   Thumb Code     0  dleqf.o(x$fpl$dleqf)
    _dcmple                                  0x08004825   Thumb Code   120  dleqf.o(x$fpl$dleqf)
    __fpl_dcmple_InfNaN                      0x08004887   Thumb Code     0  dleqf.o(x$fpl$dleqf)
    __aeabi_dmul                             0x0800489d   Thumb Code     0  dmul.o(x$fpl$dmul)
    _dmul                                    0x0800489d   Thumb Code   332  dmul.o(x$fpl$dmul)
    __fpl_dnaninf                            0x080049f1   Thumb Code   156  dnaninf.o(x$fpl$dnaninf)
    __fpl_dretinf                            0x08004a8d   Thumb Code    12  dretinf.o(x$fpl$dretinf)
    __aeabi_dsub                             0x08004a99   Thumb Code     0  daddsub_clz.o(x$fpl$dsub)
    _dsub                                    0x08004a99   Thumb Code   472  daddsub_clz.o(x$fpl$dsub)
    __aeabi_f2d                              0x08004c75   Thumb Code     0  f2d.o(x$fpl$f2d)
    _f2d                                     0x08004c75   Thumb Code    86  f2d.o(x$fpl$f2d)
    __aeabi_fadd                             0x08004ccd   Thumb Code     0  faddsub_clz.o(x$fpl$fadd)
    _fadd                                    0x08004ccd   Thumb Code   196  faddsub_clz.o(x$fpl$fadd)
    __aeabi_dcmpeq                           0x08004d91   Thumb Code     0  dcmp.o(x$fpl$fcmp)
    _deq                                     0x08004d91   Thumb Code    14  dcmp.o(x$fpl$fcmp)
    _dneq                                    0x08004d9f   Thumb Code    14  dcmp.o(x$fpl$fcmp)
    __aeabi_dcmpgt                           0x08004dad   Thumb Code     0  dcmp.o(x$fpl$fcmp)
    _dgr                                     0x08004dad   Thumb Code    14  dcmp.o(x$fpl$fcmp)
    __aeabi_dcmpge                           0x08004dbb   Thumb Code     0  dcmp.o(x$fpl$fcmp)
    _dgeq                                    0x08004dbb   Thumb Code    14  dcmp.o(x$fpl$fcmp)
    __aeabi_dcmple                           0x08004dc9   Thumb Code     0  dcmp.o(x$fpl$fcmp)
    _dleq                                    0x08004dc9   Thumb Code    14  dcmp.o(x$fpl$fcmp)
    __aeabi_dcmplt                           0x08004dd7   Thumb Code     0  dcmp.o(x$fpl$fcmp)
    _dls                                     0x08004dd7   Thumb Code    14  dcmp.o(x$fpl$fcmp)
    __aeabi_fcmpeq                           0x08004de5   Thumb Code     0  fcmp.o(x$fpl$fcmp)
    _feq                                     0x08004de5   Thumb Code    14  fcmp.o(x$fpl$fcmp)
    _fneq                                    0x08004df3   Thumb Code    14  fcmp.o(x$fpl$fcmp)
    __aeabi_fcmpgt                           0x08004e01   Thumb Code     0  fcmp.o(x$fpl$fcmp)
    _fgr                                     0x08004e01   Thumb Code    14  fcmp.o(x$fpl$fcmp)
    __aeabi_fcmpge                           0x08004e0f   Thumb Code     0  fcmp.o(x$fpl$fcmp)
    _fgeq                                    0x08004e0f   Thumb Code    14  fcmp.o(x$fpl$fcmp)
    __aeabi_fcmple                           0x08004e1d   Thumb Code     0  fcmp.o(x$fpl$fcmp)
    _fleq                                    0x08004e1d   Thumb Code    14  fcmp.o(x$fpl$fcmp)
    __aeabi_fcmplt                           0x08004e2b   Thumb Code     0  fcmp.o(x$fpl$fcmp)
    _fls                                     0x08004e2b   Thumb Code    14  fcmp.o(x$fpl$fcmp)
    __fpl_fcmp_Inf                           0x08004e39   Thumb Code    24  fcmpi.o(x$fpl$fcmpinf)
    __aeabi_fdiv                             0x08004e51   Thumb Code     0  fdiv.o(x$fpl$fdiv)
    _fdiv                                    0x08004e51   Thumb Code   384  fdiv.o(x$fpl$fdiv)
    __aeabi_cfcmpeq                          0x08004fd5   Thumb Code     0  feqf.o(x$fpl$feqf)
    _fcmpeq                                  0x08004fd5   Thumb Code   104  feqf.o(x$fpl$feqf)
    __aeabi_f2iz                             0x0800503d   Thumb Code     0  ffix.o(x$fpl$ffix)
    _ffix                                    0x0800503d   Thumb Code    54  ffix.o(x$fpl$ffix)
    __aeabi_i2f                              0x08005075   Thumb Code     0  fflt_clz.o(x$fpl$fflt)
    _fflt                                    0x08005075   Thumb Code    48  fflt_clz.o(x$fpl$fflt)
    __aeabi_ui2f                             0x080050a5   Thumb Code     0  fflt_clz.o(x$fpl$ffltu)
    _ffltu                                   0x080050a5   Thumb Code    38  fflt_clz.o(x$fpl$ffltu)
    _fcmpge                                  0x080050cd   Thumb Code   104  fgeqf.o(x$fpl$fgeqf)
    __aeabi_cfcmple                          0x08005135   Thumb Code     0  fleqf.o(x$fpl$fleqf)
    _fcmple                                  0x08005135   Thumb Code   104  fleqf.o(x$fpl$fleqf)
    __fpl_fcmple_InfNaN                      0x08005187   Thumb Code     0  fleqf.o(x$fpl$fleqf)
    __aeabi_fmul                             0x0800519d   Thumb Code     0  fmul.o(x$fpl$fmul)
    _fmul                                    0x0800519d   Thumb Code   258  fmul.o(x$fpl$fmul)
    __fpl_fnaninf                            0x0800529f   Thumb Code   140  fnaninf.o(x$fpl$fnaninf)
    __fpl_fretinf                            0x0800532b   Thumb Code    10  fretinf.o(x$fpl$fretinf)
    __aeabi_fsub                             0x08005335   Thumb Code     0  faddsub_clz.o(x$fpl$fsub)
    _fsub                                    0x08005335   Thumb Code   234  faddsub_clz.o(x$fpl$fsub)
    __I$use$fp                               0x0800541e   Number         0  usenofp.o(x$fpl$usenofp)
    hall_to_pos                              0x0800543e   Data           8  bldc.o(.rodata.hall_to_pos)
    lookUpTableAngle                         0x08005448   Data         724  main.o(.rodata.lookUpTableAngle)
    Region$$Table$$Base                      0x0800571c   Number         0  anon$$obj.o(Region$$Table)
    Region$$Table$$Limit                     0x0800573c   Number         0  anon$$obj.o(Region$$Table)
    SystemCoreClock                          0x20000000   Data           4  system_gd32f1x0.o(.data.SystemCoreClock)
    batteryVoltage                           0x20000004   Data           4  bldc.o(.data.batteryVoltage)
    beepsBackwards                           0x20000008   Data           1  main.o(.data.beepsBackwards)
    currentDC                                0x2000000c   Data           4  bldc.o(.data.currentDC)
    offsetdc                                 0x20000010   Data           2  bldc.o(.data.offsetdc)
    speedLimit                               0x20000012   Data           2  main.o(.data.speedLimit)
    wState                                   0x20000014   Data           1  main.o(.data.wState)
    wStateSlave                              0x20000015   Data           1  main.o(.data.wStateSlave)
    __libspace_start                         0x20000018   Data          96  libspace.o(.bss)
    __temporary_stack_top$libspace           0x20000078   Data           0  libspace.o(.bss)
    adc_buffer                               0x20000178   Data           4  bldc.o(.bss.adc_buffer)
    beepsBackwardsMaster                     0x2000017c   Data           1  commsmasterslave.o(.bss.beepsBackwardsMaster)
    bldc_enable                              0x2000017d   Data           1  bldc.o(.bss.bldc_enable)
    bldc_inputFilterPwm                      0x2000017e   Data           2  bldc.o(.bss.bldc_inputFilterPwm)
    bldc_outputFilterPwm                     0x20000180   Data           2  bldc.o(.bss.bldc_outputFilterPwm)
    buzzerFreq                               0x20000182   Data           1  bldc.o(.bss.buzzerFreq)
    buzzerPattern                            0x20000183   Data           1  bldc.o(.bss.buzzerPattern)
    buzzerTimer                              0x20000184   Data           2  bldc.o(.bss.buzzerTimer)
    buzzerToggle                             0x20000186   Data           1  bldc.o(.bss.buzzerToggle)
    dma_init_struct_adc                      0x20000188   Data          36  setup.o(.bss.dma_init_struct_adc)
    dma_init_struct_usart                    0x200001ac   Data          36  setup.o(.bss.dma_init_struct_usart)
    enable                                   0x200001d0   Data           1  main.o(.bss.enable)
    filter_reg                               0x200001d4   Data           4  bldc.o(.bss.filter_reg)
    hall                                     0x200001d8   Data           1  bldc.o(.bss.hall)
    hall_a                                   0x200001d9   Data           1  bldc.o(.bss.hall_a)
    hall_b                                   0x200001da   Data           1  bldc.o(.bss.hall_b)
    hall_c                                   0x200001db   Data           1  bldc.o(.bss.hall_c)
    iAnswerMaster                            0x200001dc   Data           4  remoteuartbus.o(.bss.iAnswerMaster)
    iOdom                                    0x200001e0   Data           4  bldc.o(.bss.iOdom)
    iRxDataSize                              0x200001e6   Data           1  remoteuartbus.o(.bss.iRxDataSize)
    iRxDataType                              0x200001e7   Data           1  remoteuartbus.o(.bss.iRxDataType)
    iTimeLastRx                              0x200001e8   Data           4  remoteuartbus.o(.bss.iTimeLastRx)
    iTimeNextLoop                            0x200001ec   Data           4  main.o(.bss.iTimeNextLoop)
    inactivity_timeout_counter               0x200001f0   Data           4  main.o(.bss.inactivity_timeout_counter)
    lastPos                                  0x200001f4   Data           1  bldc.o(.bss.lastPos)
    msTicks                                  0x200001f8   Data           4  it.o(.bss.msTicks)
    offsetcount                              0x200001fc   Data           2  bldc.o(.bss.offsetcount)
    pos                                      0x200001fe   Data           1  bldc.o(.bss.pos)
    pwmSlave                                 0x20000200   Data           2  main.o(.bss.pwmSlave)
    realSpeed                                0x20000204   Data           4  bldc.o(.bss.realSpeed)
    speed                                    0x20000208   Data           4  main.o(.bss.speed)
    speedCounter                             0x2000020c   Data           4  bldc.o(.bss.speedCounter)
    steer                                    0x20000210   Data           4  main.o(.bss.steer)
    steerCounter                             0x20000214   Data           4  main.o(.bss.steerCounter)
    timedOut                                 0x20000218   Data           1  it.o(.bss.timedOut)
    timeoutCounter_ms                        0x2000021c   Data           4  it.o(.bss.timeoutCounter_ms)
    timeoutTimer_paramter_struct             0x20000220   Data          16  setup.o(.bss.timeoutTimer_paramter_struct)
    timerBldc_break_parameter_struct         0x20000230   Data          24  setup.o(.bss.timerBldc_break_parameter_struct)
    timerBldc_oc_parameter_struct            0x20000248   Data          16  setup.o(.bss.timerBldc_oc_parameter_struct)
    timerBldc_paramter_struct                0x20000258   Data          16  setup.o(.bss.timerBldc_paramter_struct)
    usart0_rx_buf                            0x20000268   Data           1  setup.o(.bss.usart0_rx_buf)
    usart1_rx_buf                            0x20000269   Data           1  setup.o(.bss.usart1_rx_buf)



==============================================================================

Memory Map of the image

  Image Entry point : 0x08000169

  Load Region LR_IROM1 (Base: 0x08000000, Size: 0x00005758, Max: 0x00010000, ABSOLUTE)

    Execution Region ER_IROM1 (Exec base: 0x08000000, Load base: 0x08000000, Size: 0x0000573c, Max: 0x00010000, ABSOLUTE)

    Exec Addr    Load Addr    Size         Type   Attr      Idx    E Section Name        Object

    0x08000000   0x08000000   0x00000168   Data   RO          113    RESET               startup_gd32f1x0.o
    0x08000168   0x08000168   0x00000008   Code   RO          121  * !!!main             c_w.l(__main.o)
    0x08000170   0x08000170   0x00000034   Code   RO          290    !!!scatter          c_w.l(__scatter.o)
    0x080001a4   0x080001a4   0x0000001a   Code   RO          291    !!handler_copy      c_w.l(__scatter_copy.o)
    0x080001be   0x080001be   0x00000002   PAD
    0x080001c0   0x080001c0   0x0000001c   Code   RO          292    !!handler_zi        c_w.l(__scatter_zi.o)
    0x080001dc   0x080001dc   0x00000002   Code   RO          182    .ARM.Collect$$libinit$$00000000  c_w.l(libinit.o)
    0x080001de   0x080001de   0x00000000   Code   RO          188    .ARM.Collect$$libinit$$00000002  c_w.l(libinit2.o)
    0x080001de   0x080001de   0x00000000   Code   RO          190    .ARM.Collect$$libinit$$00000004  c_w.l(libinit2.o)
    0x080001de   0x080001de   0x00000000   Code   RO          192    .ARM.Collect$$libinit$$00000006  c_w.l(libinit2.o)
    0x080001de   0x080001de   0x00000000   Code   RO          195    .ARM.Collect$$libinit$$0000000C  c_w.l(libinit2.o)
    0x080001de   0x080001de   0x00000000   Code   RO          197    .ARM.Collect$$libinit$$0000000E  c_w.l(libinit2.o)
    0x080001de   0x080001de   0x00000000   Code   RO          199    .ARM.Collect$$libinit$$00000010  c_w.l(libinit2.o)
    0x080001de   0x080001de   0x00000000   Code   RO          202    .ARM.Collect$$libinit$$00000013  c_w.l(libinit2.o)
    0x080001de   0x080001de   0x00000000   Code   RO          204    .ARM.Collect$$libinit$$00000015  c_w.l(libinit2.o)
    0x080001de   0x080001de   0x00000000   Code   RO          206    .ARM.Collect$$libinit$$00000017  c_w.l(libinit2.o)
    0x080001de   0x080001de   0x00000000   Code   RO          208    .ARM.Collect$$libinit$$00000019  c_w.l(libinit2.o)
    0x080001de   0x080001de   0x00000000   Code   RO          210    .ARM.Collect$$libinit$$0000001B  c_w.l(libinit2.o)
    0x080001de   0x080001de   0x00000000   Code   RO          212    .ARM.Collect$$libinit$$0000001D  c_w.l(libinit2.o)
    0x080001de   0x080001de   0x00000000   Code   RO          214    .ARM.Collect$$libinit$$0000001F  c_w.l(libinit2.o)
    0x080001de   0x080001de   0x00000000   Code   RO          216    .ARM.Collect$$libinit$$00000021  c_w.l(libinit2.o)
    0x080001de   0x080001de   0x00000000   Code   RO          218    .ARM.Collect$$libinit$$00000023  c_w.l(libinit2.o)
    0x080001de   0x080001de   0x00000000   Code   RO          220    .ARM.Collect$$libinit$$00000025  c_w.l(libinit2.o)
    0x080001de   0x080001de   0x00000000   Code   RO          222    .ARM.Collect$$libinit$$00000027  c_w.l(libinit2.o)
    0x080001de   0x080001de   0x00000000   Code   RO          226    .ARM.Collect$$libinit$$0000002E  c_w.l(libinit2.o)
    0x080001de   0x080001de   0x00000000   Code   RO          228    .ARM.Collect$$libinit$$00000030  c_w.l(libinit2.o)
    0x080001de   0x080001de   0x00000000   Code   RO          230    .ARM.Collect$$libinit$$00000032  c_w.l(libinit2.o)
    0x080001de   0x080001de   0x00000000   Code   RO          232    .ARM.Collect$$libinit$$00000034  c_w.l(libinit2.o)
    0x080001de   0x080001de   0x00000002   Code   RO          233    .ARM.Collect$$libinit$$00000035  c_w.l(libinit2.o)
    0x080001e0   0x080001e0   0x00000002   Code   RO          248    .ARM.Collect$$libshutdown$$00000000  c_w.l(libshutdown.o)
    0x080001e2   0x080001e2   0x00000000   Code   RO          257    .ARM.Collect$$libshutdown$$00000002  c_w.l(libshutdown2.o)
    0x080001e2   0x080001e2   0x00000000   Code   RO          259    .ARM.Collect$$libshutdown$$00000004  c_w.l(libshutdown2.o)
    0x080001e2   0x080001e2   0x00000000   Code   RO          262    .ARM.Collect$$libshutdown$$00000007  c_w.l(libshutdown2.o)
    0x080001e2   0x080001e2   0x00000000   Code   RO          265    .ARM.Collect$$libshutdown$$0000000A  c_w.l(libshutdown2.o)
    0x080001e2   0x080001e2   0x00000000   Code   RO          267    .ARM.Collect$$libshutdown$$0000000C  c_w.l(libshutdown2.o)
    0x080001e2   0x080001e2   0x00000000   Code   RO          270    .ARM.Collect$$libshutdown$$0000000F  c_w.l(libshutdown2.o)
    0x080001e2   0x080001e2   0x00000002   Code   RO          271    .ARM.Collect$$libshutdown$$00000010  c_w.l(libshutdown2.o)
    0x080001e4   0x080001e4   0x00000000   Code   RO          148    .ARM.Collect$$rtentry$$00000000  c_w.l(__rtentry.o)
    0x080001e4   0x080001e4   0x00000000   Code   RO          161    .ARM.Collect$$rtentry$$00000002  c_w.l(__rtentry2.o)
    0x080001e4   0x080001e4   0x00000006   Code   RO          173    .ARM.Collect$$rtentry$$00000004  c_w.l(__rtentry4.o)
    0x080001ea   0x080001ea   0x00000000   Code   RO          163    .ARM.Collect$$rtentry$$00000009  c_w.l(__rtentry2.o)
    0x080001ea   0x080001ea   0x00000004   Code   RO          164    .ARM.Collect$$rtentry$$0000000A  c_w.l(__rtentry2.o)
    0x080001ee   0x080001ee   0x00000000   Code   RO          166    .ARM.Collect$$rtentry$$0000000C  c_w.l(__rtentry2.o)
    0x080001ee   0x080001ee   0x00000008   Code   RO          167    .ARM.Collect$$rtentry$$0000000D  c_w.l(__rtentry2.o)
    0x080001f6   0x080001f6   0x00000002   Code   RO          185    .ARM.Collect$$rtexit$$00000000  c_w.l(rtexit.o)
    0x080001f8   0x080001f8   0x00000000   Code   RO          235    .ARM.Collect$$rtexit$$00000002  c_w.l(rtexit2.o)
    0x080001f8   0x080001f8   0x00000004   Code   RO          236    .ARM.Collect$$rtexit$$00000003  c_w.l(rtexit2.o)
    0x080001fc   0x080001fc   0x00000006   Code   RO          237    .ARM.Collect$$rtexit$$00000004  c_w.l(rtexit2.o)
    0x08000202   0x08000202   0x00000002   PAD
    0x08000204   0x08000204   0x000005c2   Code   RO            1    .text               main.o
    0x080007c6   0x080007c6   0x00000002   PAD
    0x080007c8   0x080007c8   0x000004aa   Code   RO           18    .text               bldc.o
    0x08000c72   0x08000c72   0x00000002   PAD
    0x08000c74   0x08000c74   0x000007e8   Code   RO           45    .text               setup.o
    0x0800145c   0x0800145c   0x0000012a   Code   RO           55    .text               it.o
    0x08001586   0x08001586   0x00000002   PAD
    0x08001588   0x08001588   0x00000292   Code   RO           65    .text               remoteuartbus.o
    0x0800181a   0x0800181a   0x00000002   PAD
    0x0800181c   0x0800181c   0x00000084   Code   RO           73    .text               commsmasterslave.o
    0x080018a0   0x080018a0   0x000005a6   Code   RO           78    .text               gd32f1x0_adc.o
    0x08001e46   0x08001e46   0x00000002   PAD
    0x08001e48   0x08001e48   0x0000034c   Code   RO           82    .text               gd32f1x0_dma.o
    0x08002194   0x08002194   0x000000da   Code   RO           84    .text               gd32f1x0_fwdgt.o
    0x0800226e   0x0800226e   0x00000002   PAD
    0x08002270   0x08002270   0x00000198   Code   RO           86    .text               gd32f1x0_gpio.o
    0x08002408   0x08002408   0x00000130   Code   RO           91    .text               gd32f1x0_misc.o
    0x08002538   0x08002538   0x00000730   Code   RO          100    .text               gd32f1x0_rcu.o
    0x08002c68   0x08002c68   0x00000d60   Code   RO          105    .text               gd32f1x0_timer.o
    0x080039c8   0x080039c8   0x0000063e   Code   RO          107    .text               gd32f1x0_usart.o
    0x08004006   0x08004006   0x00000002   PAD
    0x08004008   0x08004008   0x00000040   Code   RO          114    .text               startup_gd32f1x0.o
    0x08004048   0x08004048   0x0000013c   Code   RO          115    .text               system_gd32f1x0.o
    0x08004184   0x08004184   0x00000006   Code   RO          120    .text               c_w.l(heapauxi.o)
    0x0800418a   0x0800418a   0x0000004a   Code   RO          177    .text               c_w.l(sys_stackheap_outer.o)
    0x080041d4   0x080041d4   0x00000012   Code   RO          178    .text               c_w.l(exit.o)
    0x080041e6   0x080041e6   0x00000002   PAD
    0x080041e8   0x080041e8   0x00000008   Code   RO          183    .text               c_w.l(libspace.o)
    0x080041f0   0x080041f0   0x0000000c   Code   RO          243    .text               c_w.l(sys_exit.o)
    0x080041fc   0x080041fc   0x00000002   Code   RO          251    .text               c_w.l(use_no_semi.o)
    0x080041fe   0x080041fe   0x00000000   Code   RO          252    .text               c_w.l(indicate_semi.o)
    0x080041fe   0x080041fe   0x00000002   PAD
    0x08004200   0x08004200   0x00000062   Code   RO          122    x$fpl$d2f           fz_ws.l(d2f.o)
    0x08004262   0x08004262   0x00000002   PAD
    0x08004264   0x08004264   0x00000150   Code   RO          123    x$fpl$dadd          fz_ws.l(daddsub_clz.o)
    0x080043b4   0x080043b4   0x00000018   Code   RO          175    x$fpl$dcmpinf       fz_ws.l(dcmpi.o)
    0x080043cc   0x080043cc   0x000002b4   Code   RO          128    x$fpl$ddiv          fz_ws.l(ddiv.o)
    0x08004680   0x08004680   0x00000078   Code   RO          149    x$fpl$deqf          fz_ws.l(deqf.o)
    0x080046f8   0x080046f8   0x0000005e   Code   RO          129    x$fpl$dfix          fz_ws.l(dfix.o)
    0x08004756   0x08004756   0x0000002e   Code   RO          132    x$fpl$dflt          fz_ws.l(dflt_clz.o)
    0x08004784   0x08004784   0x00000026   Code   RO          131    x$fpl$dfltu         fz_ws.l(dflt_clz.o)
    0x080047aa   0x080047aa   0x00000002   PAD
    0x080047ac   0x080047ac   0x00000078   Code   RO          150    x$fpl$dgeqf         fz_ws.l(dgeqf.o)
    0x08004824   0x08004824   0x00000078   Code   RO          151    x$fpl$dleqf         fz_ws.l(dleqf.o)
    0x0800489c   0x0800489c   0x00000154   Code   RO          134    x$fpl$dmul          fz_ws.l(dmul.o)
    0x080049f0   0x080049f0   0x0000009c   Code   RO          152    x$fpl$dnaninf       fz_ws.l(dnaninf.o)
    0x08004a8c   0x08004a8c   0x0000000c   Code   RO          153    x$fpl$dretinf       fz_ws.l(dretinf.o)
    0x08004a98   0x08004a98   0x000001dc   Code   RO          125    x$fpl$dsub          fz_ws.l(daddsub_clz.o)
    0x08004c74   0x08004c74   0x00000056   Code   RO          135    x$fpl$f2d           fz_ws.l(f2d.o)
    0x08004cca   0x08004cca   0x00000002   PAD
    0x08004ccc   0x08004ccc   0x000000c4   Code   RO          136    x$fpl$fadd          fz_ws.l(faddsub_clz.o)
    0x08004d90   0x08004d90   0x00000054   Code   RO          126    x$fpl$fcmp          fz_ws.l(dcmp.o)
    0x08004de4   0x08004de4   0x00000054   Code   RO          139    x$fpl$fcmp          fz_ws.l(fcmp.o)
    0x08004e38   0x08004e38   0x00000018   Code   RO          176    x$fpl$fcmpinf       fz_ws.l(fcmpi.o)
    0x08004e50   0x08004e50   0x00000184   Code   RO          141    x$fpl$fdiv          fz_ws.l(fdiv.o)
    0x08004fd4   0x08004fd4   0x00000068   Code   RO          154    x$fpl$feqf          fz_ws.l(feqf.o)
    0x0800503c   0x0800503c   0x00000036   Code   RO          142    x$fpl$ffix          fz_ws.l(ffix.o)
    0x08005072   0x08005072   0x00000002   PAD
    0x08005074   0x08005074   0x00000030   Code   RO          145    x$fpl$fflt          fz_ws.l(fflt_clz.o)
    0x080050a4   0x080050a4   0x00000026   Code   RO          144    x$fpl$ffltu         fz_ws.l(fflt_clz.o)
    0x080050ca   0x080050ca   0x00000002   PAD
    0x080050cc   0x080050cc   0x00000068   Code   RO          155    x$fpl$fgeqf         fz_ws.l(fgeqf.o)
    0x08005134   0x08005134   0x00000068   Code   RO          156    x$fpl$fleqf         fz_ws.l(fleqf.o)
    0x0800519c   0x0800519c   0x00000102   Code   RO          147    x$fpl$fmul          fz_ws.l(fmul.o)
    0x0800529e   0x0800529e   0x0000008c   Code   RO          157    x$fpl$fnaninf       fz_ws.l(fnaninf.o)
    0x0800532a   0x0800532a   0x0000000a   Code   RO          158    x$fpl$fretinf       fz_ws.l(fretinf.o)
    0x08005334   0x08005334   0x000000ea   Code   RO          138    x$fpl$fsub          fz_ws.l(faddsub_clz.o)
    0x0800541e   0x0800541e   0x00000000   Code   RO          159    x$fpl$usenofp       fz_ws.l(usenofp.o)
    0x0800541e   0x0800541e   0x0000000c   Data   RO           35    .rodata..L__const.up_or_down.up_down  bldc.o
    0x0800542a   0x0800542a   0x0000000c   Data   RO           88    .rodata..Lswitch.table.gpio_deinit.1  gd32f1x0_gpio.o
    0x08005436   0x08005436   0x00000008   Data   RO          102    .rodata.cst8        gd32f1x0_rcu.o
    0x0800543e   0x0800543e   0x00000008   Data   RO           36    .rodata.hall_to_pos  bldc.o
    0x08005446   0x08005446   0x00000002   PAD
    0x08005448   0x08005448   0x000002d4   Data   RO           13    .rodata.lookUpTableAngle  main.o
    0x0800571c   0x0800571c   0x00000020   Data   RO          289    Region$$Table       anon$$obj.o


    Execution Region RW_IRAM1 (Exec base: 0x20000000, Load base: 0x08005740, Size: 0x00000a70, Max: 0x00002000, ABSOLUTE)

    Exec Addr    Load Addr    Size         Type   Attr      Idx    E Section Name        Object

    0x20000000   0x08005740   0x00000004   Data   RW          117    .data.SystemCoreClock  system_gd32f1x0.o
    0x20000004   0x08005744   0x00000004   Data   RW           21    .data.batteryVoltage  bldc.o
    0x20000008   0x08005748   0x00000001   Data   RW           10    .data.beepsBackwards  main.o
    0x20000009   0x08005749   0x00000003   PAD
    0x2000000c   0x0800574c   0x00000004   Data   RW           22    .data.currentDC     bldc.o
    0x20000010   0x08005750   0x00000002   Data   RW           29    .data.offsetdc      bldc.o
    0x20000012   0x08005752   0x00000002   Data   RW            5    .data.speedLimit    main.o
    0x20000014   0x08005754   0x00000001   Data   RW            6    .data.wState        main.o
    0x20000015   0x08005755   0x00000001   Data   RW            7    .data.wStateSlave   main.o
    0x20000016   0x08005756   0x00000002   PAD
    0x20000018        -       0x00000060   Zero   RW          184    .bss                c_w.l(libspace.o)
    0x20000078        -       0x000000ff   Zero   RW           70    .bss.aReceiveBuffer  remoteuartbus.o
    0x20000177   0x08005756   0x00000001   PAD
    0x20000178        -       0x00000004   Zero   RW           37    .bss.adc_buffer     bldc.o
    0x2000017c        -       0x00000001   Zero   RW           76    .bss.beepsBackwardsMaster  commsmasterslave.o
    0x2000017d        -       0x00000001   Zero   RW           25    .bss.bldc_enable    bldc.o
    0x2000017e        -       0x00000002   Zero   RW           24    .bss.bldc_inputFilterPwm  bldc.o
    0x20000180        -       0x00000002   Zero   RW           26    .bss.bldc_outputFilterPwm  bldc.o
    0x20000182        -       0x00000001   Zero   RW           32    .bss.buzzerFreq     bldc.o
    0x20000183        -       0x00000001   Zero   RW           33    .bss.buzzerPattern  bldc.o
    0x20000184        -       0x00000002   Zero   RW           27    .bss.buzzerTimer    bldc.o
    0x20000186        -       0x00000001   Zero   RW           31    .bss.buzzerToggle   bldc.o
    0x20000187   0x08005756   0x00000001   PAD
    0x20000188        -       0x00000024   Zero   RW           51    .bss.dma_init_struct_adc  setup.o
    0x200001ac        -       0x00000024   Zero   RW           52    .bss.dma_init_struct_usart  setup.o
    0x200001d0        -       0x00000001   Zero   RW           14    .bss.enable         main.o
    0x200001d1   0x08005756   0x00000003   PAD
    0x200001d4        -       0x00000004   Zero   RW           43    .bss.filter_reg     bldc.o
    0x200001d8        -       0x00000001   Zero   RW           41    .bss.hall           bldc.o
    0x200001d9        -       0x00000001   Zero   RW           38    .bss.hall_a         bldc.o
    0x200001da        -       0x00000001   Zero   RW           39    .bss.hall_b         bldc.o
    0x200001db        -       0x00000001   Zero   RW           40    .bss.hall_c         bldc.o
    0x200001dc        -       0x00000004   Zero   RW           68    .bss.iAnswerMaster  remoteuartbus.o
    0x200001e0        -       0x00000004   Zero   RW           34    .bss.iOdom          bldc.o
    0x200001e4        -       0x00000002   Zero   RW           69    .bss.iReceivePos    remoteuartbus.o
    0x200001e6        -       0x00000001   Zero   RW           72    .bss.iRxDataSize    remoteuartbus.o
    0x200001e7        -       0x00000001   Zero   RW           71    .bss.iRxDataType    remoteuartbus.o
    0x200001e8        -       0x00000004   Zero   RW           67    .bss.iTimeLastRx    remoteuartbus.o
    0x200001ec        -       0x00000004   Zero   RW           16    .bss.iTimeNextLoop  main.o
    0x200001f0        -       0x00000004   Zero   RW           12    .bss.inactivity_timeout_counter  main.o
    0x200001f4        -       0x00000001   Zero   RW           44    .bss.lastPos        bldc.o
    0x200001f5   0x08005756   0x00000003   PAD
    0x200001f8        -       0x00000004   Zero   RW           59    .bss.msTicks        it.o
    0x200001fc        -       0x00000002   Zero   RW           28    .bss.offsetcount    bldc.o
    0x200001fe        -       0x00000001   Zero   RW           42    .bss.pos            bldc.o
    0x200001ff   0x08005756   0x00000001   PAD
    0x20000200        -       0x00000002   Zero   RW           15    .bss.pwmSlave       main.o
    0x20000202   0x08005756   0x00000002   PAD
    0x20000204        -       0x00000004   Zero   RW           23    .bss.realSpeed      bldc.o
    0x20000208        -       0x00000004   Zero   RW            4    .bss.speed          main.o
    0x2000020c        -       0x00000004   Zero   RW           30    .bss.speedCounter   bldc.o
    0x20000210        -       0x00000004   Zero   RW            8    .bss.steer          main.o
    0x20000214        -       0x00000004   Zero   RW            3    .bss.steerCounter   main.o
    0x20000218        -       0x00000001   Zero   RW           58    .bss.timedOut       it.o
    0x20000219   0x08005756   0x00000003   PAD
    0x2000021c        -       0x00000004   Zero   RW           57    .bss.timeoutCounter_ms  it.o
    0x20000220        -       0x00000010   Zero   RW           47    .bss.timeoutTimer_paramter_struct  setup.o
    0x20000230        -       0x00000018   Zero   RW           50    .bss.timerBldc_break_parameter_struct  setup.o
    0x20000248        -       0x00000010   Zero   RW           49    .bss.timerBldc_oc_parameter_struct  setup.o
    0x20000258        -       0x00000010   Zero   RW           48    .bss.timerBldc_paramter_struct  setup.o
    0x20000268        -       0x00000001   Zero   RW           54    .bss.usart0_rx_buf  setup.o
    0x20000269        -       0x00000001   Zero   RW           53    .bss.usart1_rx_buf  setup.o
    0x2000026a   0x08005756   0x00000006   PAD
    0x20000270        -       0x00000400   Zero   RW          112    HEAP                startup_gd32f1x0.o
    0x20000670        -       0x00000400   Zero   RW          111    STACK               startup_gd32f1x0.o


==============================================================================

Image component sizes


      Code (inc. data)   RO Data    RW Data    ZI Data      Debug   Object Name

      1194          6         20         10         38          0   bldc.o
       132          0          0          0          1          0   commsmasterslave.o
      1446         16          0          0          0          0   gd32f1x0_adc.o
       844          8          0          0          0          0   gd32f1x0_dma.o
       218          0          0          0          0          0   gd32f1x0_fwdgt.o
       408          0         12          0          0          0   gd32f1x0_gpio.o
       304          0          0          0          0          0   gd32f1x0_misc.o
      1840         34          8          0          0          0   gd32f1x0_rcu.o
      3424         44          0          0          0          0   gd32f1x0_timer.o
      1598          8          0          0          0          0   gd32f1x0_usart.o
       298          0          0          0          9          0   it.o
      1474          0        724          5         23          0   main.o
       658          0          0          0        267          0   remoteuartbus.o
      2024          0          0          0        146          0   setup.o
        64         26        360          0       2048          0   startup_gd32f1x0.o
       316         16          0          4          0          0   system_gd32f1x0.o

    ----------------------------------------------------------------------
     16256        158       1158         24       2552          0   Object Totals
         0          0         32          0          0          0   (incl. Generated)
        14          0          2          5         20          0   (incl. Padding)

    ----------------------------------------------------------------------

      Code (inc. data)   RO Data    RW Data    ZI Data      Debug   Library Member Name

         8          0          0          0          0          0   __main.o
         0          0          0          0          0          0   __rtentry.o
        12          0          0          0          0          0   __rtentry2.o
         6          0          0          0          0          0   __rtentry4.o
        52          8          0          0          0          0   __scatter.o
        26          0          0          0          0          0   __scatter_copy.o
        28          0          0          0          0          0   __scatter_zi.o
        18          0          0          0          0          0   exit.o
         6          0          0          0          0          0   heapauxi.o
         0          0          0          0          0          0   indicate_semi.o
         2          0          0          0          0          0   libinit.o
         2          0          0          0          0          0   libinit2.o
         2          0          0          0          0          0   libshutdown.o
         2          0          0          0          0          0   libshutdown2.o
         8          4          0          0         96          0   libspace.o
         2          0          0          0          0          0   rtexit.o
        10          0          0          0          0          0   rtexit2.o
        12          4          0          0          0          0   sys_exit.o
        74          0          0          0          0          0   sys_stackheap_outer.o
         2          0          0          0          0          0   use_no_semi.o
        98          4          0          0          0          0   d2f.o
       812         16          0          0          0          0   daddsub_clz.o
        84          0          0          0          0          0   dcmp.o
        24          0          0          0          0          0   dcmpi.o
       692        140          0          0          0          0   ddiv.o
       120          4          0          0          0          0   deqf.o
        94          4          0          0          0          0   dfix.o
        84          0          0          0          0          0   dflt_clz.o
       120          4          0          0          0          0   dgeqf.o
       120          4          0          0          0          0   dleqf.o
       340         12          0          0          0          0   dmul.o
       156          4          0          0          0          0   dnaninf.o
        12          0          0          0          0          0   dretinf.o
        86          4          0          0          0          0   f2d.o
       430          8          0          0          0          0   faddsub_clz.o
        84          0          0          0          0          0   fcmp.o
        24          0          0          0          0          0   fcmpi.o
       388         76          0          0          0          0   fdiv.o
       104          4          0          0          0          0   feqf.o
        54          4          0          0          0          0   ffix.o
        86          0          0          0          0          0   fflt_clz.o
       104          4          0          0          0          0   fgeqf.o
       104          4          0          0          0          0   fleqf.o
       258          4          0          0          0          0   fmul.o
       140          4          0          0          0          0   fnaninf.o
        10          0          0          0          0          0   fretinf.o
         0          0          0          0          0          0   usenofp.o

    ----------------------------------------------------------------------
      4918        320          0          0         96          0   Library Totals
        18          0          0          0          0          0   (incl. Padding)

    ----------------------------------------------------------------------

      Code (inc. data)   RO Data    RW Data    ZI Data      Debug   Library Name

       272         16          0          0         96          0   c_w.l
      4628        304          0          0          0          0   fz_ws.l

    ----------------------------------------------------------------------
      4918        320          0          0         96          0   Library Totals

    ----------------------------------------------------------------------

==============================================================================


      Code (inc. data)   RO Data    RW Data    ZI Data      Debug   

     21174        478       1158         24       2648          0   Grand Totals
     21174        478       1158         24       2648          0   ELF Image Totals
     21174        478       1158         24          0          0   ROM Totals

==============================================================================

    Total RO  Size (Code + RO Data)                22332 (  21.81kB)
    Total RW  Size (RW Data + ZI Data)              2672 (   2.61kB)
    Total ROM Size (Code + RO Data + RW Data)      22356 (  21.83kB)

==============================================================================

