Component: Arm Compiler for Embedded 6.23 Tool: armlink [5f102400]

==============================================================================

Section Cross References

    main.o(.text) refers to main.o(.bss.iBug) for iBug
    main.o(.text) refers to setup.o(.text) for ConfigRead
    main.o(.text) refers to system_gd32f1x0.o(.data.SystemCoreClock) for SystemCoreClock
    main.o(.text) refers to gd32f1x0_gpio.o(.text) for gpio_bit_write
    main.o(.text) refers to bldcsine.o(.text) for InitBldc
    main.o(.text) refers to main.o(.bss.iDrivingMode) for iDrivingMode
    main.o(.text) refers to driver.o(.text) for DriverInit
    main.o(.text) refers to gd32f1x0_fwdgt.o(.text) for fwdgt_counter_reload
    main.o(.text) refers to bldc.o(.bss.buzzerFreq) for buzzerFreq
    main.o(.text) refers to it.o(.text) for Delay
    main.o(.text) refers to main.o(.bss.iTimeNextLoop) for iTimeNextLoop
    main.o(.text) refers to main.o(.bss.speed) for speed
    main.o(.text) refers to bldc.o(.text) for SetEnable
    main.o(.text) refers to main.o(.data.wState) for wState
    main.o(.text) refers to main.o(.bss.steerCounter) for steerCounter
    main.o(.text) refers to remotedummy.o(.text) for RemoteUpdate
    main.o(.text) refers to main.o(.bss.speedShutoff) for speedShutoff
    main.o(.text) refers to dflti.o(.text) for __aeabi_i2d
    main.o(.text) refers to main.o(.bss.steer) for steer
    main.o(.text) refers to ddiv.o(.text) for __aeabi_ddiv
    main.o(.text) refers to dadd.o(.text) for __aeabi_dadd
    main.o(.text) refers to dmul.o(.text) for __aeabi_dmul
    main.o(.text) refers to dfixi.o(.text) for __aeabi_d2iz
    main.o(.text) refers to main.o(.bss.pwmSlave) for pwmSlave
    main.o(.text) refers to ffltui.o(.text) for __aeabi_ui2f
    main.o(.text) refers to f2d.o(.text) for __aeabi_f2d
    main.o(.text) refers to d2f.o(.text) for __aeabi_d2f
    main.o(.text) refers to main.o(.data.speedLimit) for speedLimit
    main.o(.text) refers to fflti.o(.text) for __aeabi_i2f
    main.o(.text) refers to fmul.o(.text) for __aeabi_fmul
    main.o(.text) refers to ffixi.o(.text) for __aeabi_f2iz
    main.o(.text) refers to fadd.o(.text) for __aeabi_fsub
    main.o(.text) refers to fdiv.o(.text) for __aeabi_fdiv
    main.o(.text) refers to main.o(.rodata.lookUpTableAngle) for lookUpTableAngle
    main.o(.text) refers to fcmplt.o(.text) for __aeabi_fcmplt
    main.o(.text) refers to bldc.o(.data.batteryVoltage) for batteryVoltage
    main.o(.text) refers to fcmple.o(.text) for __aeabi_fcmple
    main.o(.text) refers to main.o(.data.beepsBackwards) for beepsBackwards
    main.o(.text) refers to bldc.o(.bss.buzzerPattern) for buzzerPattern
    main.o(.text) refers to main.o(.bss.enable) for enable
    main.o(.text) refers to main.o(.bss.inactivity_timeout_counter) for inactivity_timeout_counter
    main.o(.text) refers to main.o(.bss.bRemoteTimeout) for bRemoteTimeout
    main.o(.text) refers to main.o(.bss.bPilotTimeout) for bPilotTimeout
    main.o(.ARM.exidx) refers to main.o(.text) for [Anonymous Symbol]
    bldc.o(.text) refers to bldc.o(.rodata..L__const.up_or_down.up_down) for .L__const.up_or_down.up_down
    bldc.o(.text) refers to bldc.o(.bss.bldc_enable) for bldc_enable
    bldc.o(.text) refers to main.o(.bss.iDrivingMode) for iDrivingMode
    bldc.o(.text) refers to system_gd32f1x0.o(.data.SystemCoreClock) for SystemCoreClock
    bldc.o(.text) refers to dflti.o(.text) for __aeabi_i2d
    bldc.o(.text) refers to ddiv.o(.text) for __aeabi_ddiv
    bldc.o(.text) refers to dmul.o(.text) for __aeabi_dmul
    bldc.o(.text) refers to dfixi.o(.text) for __aeabi_d2iz
    bldc.o(.text) refers to bldc.o(.bss.iBldcInput) for iBldcInput
    bldc.o(.text) refers to bldc.o(.data.iFILTER_SHIFT) for iFILTER_SHIFT
    bldc.o(.text) refers to bldc.o(.bss.bldc_outputFilterPwm) for bldc_outputFilterPwm
    bldc.o(.text) refers to bldc.o(.bss.filter_reg) for filter_reg
    bldc.o(.text) refers to bldc.o(.bss.offsetcount) for offsetcount
    bldc.o(.text) refers to bldc.o(.bss.adc_buffer) for adc_buffer
    bldc.o(.text) refers to bldc.o(.data.offsetdc) for offsetdc
    bldc.o(.text) refers to bldc.o(.bss.buzzerTimer) for buzzerTimer
    bldc.o(.text) refers to bldc.o(.data.batteryVoltage) for batteryVoltage
    bldc.o(.text) refers to f2d.o(.text) for __aeabi_f2d
    bldc.o(.text) refers to dfltui.o(.text) for __aeabi_ui2d
    bldc.o(.text) refers to dadd.o(.text) for __aeabi_dadd
    bldc.o(.text) refers to d2f.o(.text) for __aeabi_d2f
    bldc.o(.text) refers to it.o(.bss.msTicks) for msTicks
    bldc.o(.text) refers to bldc.o(.bss.iBuzzTime) for iBuzzTime
    bldc.o(.text) refers to bldc.o(.bss.iBuzzCounter) for iBuzzCounter
    bldc.o(.text) refers to bldc.o(.bss.iBuzzRate) for iBuzzRate
    bldc.o(.text) refers to bldc.o(.bss.buzzerFreq) for buzzerFreq
    bldc.o(.text) refers to bldc.o(.bss.buzzerPattern) for buzzerPattern
    bldc.o(.text) refers to gd32f1x0_gpio.o(.text) for gpio_bit_write
    bldc.o(.text) refers to bldc.o(.data.currentDC) for currentDC
    bldc.o(.text) refers to fcmpgt.o(.text) for __aeabi_fcmpgt
    bldc.o(.text) refers to it.o(.bss.timedOut) for timedOut
    bldc.o(.text) refers to gd32f1x0_timer.o(.text) for timer_automatic_output_enable
    bldc.o(.text) refers to bldc.o(.bss.iDrivingModeOverride) for iDrivingModeOverride
    bldc.o(.text) refers to bldc.o(.bss.bldc_inputFilterPwm) for bldc_inputFilterPwm
    bldc.o(.text) refers to bldc.o(.bss.hall_a) for hall_a
    bldc.o(.text) refers to bldc.o(.bss.hall_b) for hall_b
    bldc.o(.text) refers to bldc.o(.bss.hall_c) for hall_c
    bldc.o(.text) refers to bldc.o(.bss.hall) for hall
    bldc.o(.text) refers to bldc.o(.rodata.hall_to_pos) for hall_to_pos
    bldc.o(.text) refers to bldc.o(.bss.pos) for pos
    bldc.o(.text) refers to driver.o(.text) for Driver
    bldc.o(.text) refers to bldcsine.o(.text) for bldc_get_pwm
    bldc.o(.text) refers to bldc.o(.bss.lastPos) for lastPos
    bldc.o(.text) refers to bldc.o(.bss.iOdom) for iOdom
    bldc.o(.text) refers to bldc.o(.bss.speedCounterSlow) for speedCounterSlow
    bldc.o(.text) refers to bldc.o(.bss.iOdomLast) for iOdomLast
    bldc.o(.text) refers to bldc.o(.bss.torque32_reg) for torque32_reg
    bldc.o(.text) refers to bldc.o(.bss.torque32) for torque32
    bldc.o(.text) refers to bldc.o(.bss.revs32_reg) for revs32_reg
    bldc.o(.text) refers to bldc.o(.bss.revs32) for revs32
    bldc.o(.text) refers to bldc.o(.bss.buzzerToggle) for buzzerToggle
    bldc.o(.text) refers to bldc.o(.data.revs32ScaleSlow) for revs32ScaleSlow
    bldc.o(.text) refers to bldc.o(.bss.speedCounterSlowLog) for speedCounterSlowLog
    bldc.o(.text) refers to bldc.o(.bss.speedCounter) for speedCounter
    bldc.o(.text) refers to ffltui.o(.text) for __aeabi_ui2f
    bldc.o(.text) refers to fdiv.o(.text) for __aeabi_fdiv
    bldc.o(.text) refers to bldc.o(.data.revs32Scale) for revs32Scale
    bldc.o(.text) refers to bldc.o(.bss.realSpeed) for realSpeed
    bldc.o(.text) refers to bldc.o(.bss.revs32x) for revs32x
    bldc.o(.text) refers to bldc.o(.bss.speedCounterLog) for speedCounterLog
    bldc.o(.ARM.exidx) refers to bldc.o(.text) for [Anonymous Symbol]
    driver.o(.text) refers to fmul.o(.text) for __aeabi_fmul
    driver.o(.text) refers to ffixi.o(.text) for __aeabi_f2iz
    driver.o(.text) refers to fdiv.o(.text) for __aeabi_fdiv
    driver.o(.text) refers to ffixl.o(.text) for __aeabi_f2lz
    driver.o(.text) refers to main.o(.bss.iDrivingMode) for iDrivingMode
    driver.o(.text) refers to driver.o(.data.aoPIDInit) for aoPIDInit
    driver.o(.text) refers to driver.o(.bss.pid) for pid
    driver.o(.text) refers to bldc.o(.bss.revs32) for revs32
    driver.o(.text) refers to bldc.o(.bss.torque32) for torque32
    driver.o(.text) refers to bldc.o(.bss.iOdom) for iOdom
    driver.o(.ARM.exidx) refers to driver.o(.text) for [Anonymous Symbol]
    bldcsine.o(.text) refers to gd32f1x0_syscfg.o(.text) for syscfg_exti_line_config
    bldcsine.o(.text) refers to gd32f1x0_exti.o(.text) for exti_init
    bldcsine.o(.text) refers to gd32f1x0_misc.o(.text) for nvic_irq_enable
    bldcsine.o(.text) refers to gd32f1x0_rcu.o(.text) for rcu_periph_clock_enable
    bldcsine.o(.text) refers to bldcsine.o(.bss.aHallEXTI) for aHallEXTI
    bldcsine.o(.text) refers to bldcsine.o(.bss.bInterrupt) for bInterrupt
    bldcsine.o(.text) refers to bldc.o(.bss.buzzerTimer) for buzzerTimer
    bldcsine.o(.text) refers to bldcsine.o(.bss.hall_time_last) for hall_time_last
    bldcsine.o(.text) refers to bldc.o(.bss.hall) for hall
    bldcsine.o(.text) refers to bldcsine.o(.bss.hall_time_step) for hall_time_step
    bldcsine.o(.text) refers to bldcsine.o(.bss.hall_last) for hall_last
    bldcsine.o(.text) refers to gd32f1x0_gpio.o(.text) for gpio_input_bit_get
    bldcsine.o(.text) refers to bldcsine.o(.bss.pwmGo) for pwmGo
    bldcsine.o(.text) refers to bldcsine.o(.rodata.cst8) for hall_to_sector
    bldcsine.o(.text) refers to bldcsine.o(.bss.sector) for sector
    bldcsine.o(.text) refers to bldcsine.o(.bss.sector10x) for sector10x
    bldcsine.o(.text) refers to bldcsine.o(.bss.angle_deg) for angle_deg
    bldcsine.o(.text) refers to bldcsine.o(.bss.hall_time_step_LPR) for hall_time_step_LPR
    bldcsine.o(.text) refers to bldcsine.o(.bss.angle_deg_add) for angle_deg_add
    bldcsine.o(.text) refers to bldcsine.o(.bss.sectorChange) for sectorChange
    bldcsine.o(.text) refers to bldcsine.o(.bss.hall_time_step_LP) for hall_time_step_LP
    bldcsine.o(.text) refers to bldcsine.o(.bss.iDT) for iDT
    bldcsine.o(.text) refers to bldcsine.o(.bss.iAdd) for iAdd
    bldcsine.o(.text) refers to bldcsine.o(.bss.angle_deg_final) for angle_deg_final
    bldcsine.o(.text) refers to bldcsine.o(.rodata.sine_table) for sine_table
    bldcsine.o(.text) refers to bldcsine.o(.bss.angle_idx) for angle_idx
    bldcsine.o(.ARM.exidx) refers to bldcsine.o(.text) for [Anonymous Symbol]
    setup.o(.text) refers to gd32f1x0_gpio.o(.text) for gpio_mode_set
    setup.o(.text) refers to gd32f1x0_misc.o(.text) for nvic_priority_group_set
    setup.o(.text) refers to gd32f1x0_rcu.o(.text) for rcu_flag_get
    setup.o(.text) refers to gd32f1x0_fwdgt.o(.text) for fwdgt_config
    setup.o(.text) refers to gd32f1x0_timer.o(.text) for timer_deinit
    setup.o(.text) refers to system_gd32f1x0.o(.data.SystemCoreClock) for SystemCoreClock
    setup.o(.text) refers to setup.o(.bss.timeoutTimer_paramter_struct) for timeoutTimer_paramter_struct
    setup.o(.text) refers to setup.o(.bss.timerBldc_paramter_struct) for timerBldc_paramter_struct
    setup.o(.text) refers to setup.o(.bss.timerBldc_oc_parameter_struct) for timerBldc_oc_parameter_struct
    setup.o(.text) refers to setup.o(.bss.timerBldc_break_parameter_struct) for timerBldc_break_parameter_struct
    setup.o(.text) refers to gd32f1x0_dma.o(.text) for dma_deinit
    setup.o(.text) refers to setup.o(.bss.dma_init_struct_adc) for dma_init_struct_adc
    setup.o(.text) refers to bldc.o(.bss.adc_buffer) for adc_buffer
    setup.o(.text) refers to gd32f1x0_adc.o(.text) for adc_channel_length_config
    setup.o(.text) refers to gd32f1x0_fmc.o(.text) for fmc_unlock
    setup.o(.text) refers to setup.o(.bss.oConfig) for oConfig
    setup.o(.text) refers to setup.o(.bss.dev_id) for dev_id
    setup.o(.text) refers to system_gd32f1x0.o(.text) for SystemCoreClockUpdate
    setup.o(.text) refers to setup.o(.bss.pll_mul) for pll_mul
    setup.o(.text) refers to it.o(.text) for millis
    setup.o(.text) refers to setup.o(.bss.iTestClock) for iTestClock
    setup.o(.ARM.exidx) refers to setup.o(.text) for [Anonymous Symbol]
    it.o(.text) refers to it.o(.bss.msTicks) for msTicks
    it.o(.text) refers to it.o(.bss.timeoutCounter_ms) for timeoutCounter_ms
    it.o(.text) refers to it.o(.bss.timedOut) for timedOut
    it.o(.text) refers to main.o(.bss.speed) for speed
    it.o(.text) refers to gd32f1x0_timer.o(.text) for timer_interrupt_flag_clear
    it.o(.text) refers to it.o(.bss.TIMER0_BRK_UP_TRG_COM_IRQHandler.interrupt_toggle) for TIMER0_BRK_UP_TRG_COM_IRQHandler.interrupt_toggle
    it.o(.text) refers to it.o(.bss.iPwmTime) for iPwmTime
    it.o(.text) refers to it.o(.bss.iPwmCounter) for iPwmCounter
    it.o(.text) refers to it.o(.bss.iPwmRate) for iPwmRate
    it.o(.text) refers to gd32f1x0_adc.o(.text) for adc_software_trigger_enable
    it.o(.text) refers to gd32f1x0_dma.o(.text) for dma_interrupt_flag_get
    it.o(.text) refers to it.o(.bss.iAdcTime) for iAdcTime
    it.o(.text) refers to it.o(.bss.iAdcCounter) for iAdcCounter
    it.o(.text) refers to it.o(.bss.iAdcRate) for iAdcRate
    it.o(.text) refers to bldc.o(.text) for CalculateBLDC
    it.o(.ARM.exidx) refers to it.o(.text) for [Anonymous Symbol]
    comms.o(.text) refers to gd32f1x0_usart.o(.text) for usart_data_transmit
    comms.o(.ARM.exidx) refers to comms.o(.text) for [Anonymous Symbol]
    remotedummy.o(.text) refers to strcmp.o(.text) for strcmp
    remotedummy.o(.text) refers to remotedummy.o(.bss.sMessage) for sMessage
    remotedummy.o(.text) refers to printfa.o(i.__0sprintf) for __2sprintf
    remotedummy.o(.text) refers to sscanf.o(.text) for sscanf
    remotedummy.o(.text) refers to main.o(.bss.iDrivingMode) for iDrivingMode
    remotedummy.o(.text) refers to driver.o(.data.aoPIDInit) for aoPIDInit
    remotedummy.o(.text) refers to ffixi.o(.text) for __aeabi_f2iz
    remotedummy.o(.text) refers to remotedummy.o(.bss.iRemoteMax) for iRemoteMax
    remotedummy.o(.text) refers to it.o(.bss.msTicks) for msTicks
    remotedummy.o(.text) refers to remotedummy.o(.bss.iTimeNextLog) for iTimeNextLog
    remotedummy.o(.text) refers to remotedummy.o(.data.iRemotePeriod) for iRemotePeriod
    remotedummy.o(.text) refers to fcmplt.o(.text) for __aeabi_fcmplt
    remotedummy.o(.text) refers to segger_rtt.o(.text) for SEGGER_RTT_GetKey
    remotedummy.o(.text) refers to remotedummy.o(.bss.buffer_index) for buffer_index
    remotedummy.o(.text) refers to remotedummy.o(.bss.message_buffer) for message_buffer
    remotedummy.o(.text) refers to remotedummy.o(.bss.iOldDrivingMode) for iOldDrivingMode
    remotedummy.o(.text) refers to remotedummy.o(.bss.aoPIDInitOld) for aoPIDInitOld
    remotedummy.o(.text) refers to memcmp.o(.text) for memcmp
    remotedummy.o(.text) refers to driver.o(.text) for DriverInit
    remotedummy.o(.text) refers to remotedummy.o(.data.iOldRemotePeriod) for iOldRemotePeriod
    remotedummy.o(.text) refers to remotedummy.o(.bss.msTicksInit) for msTicksInit
    remotedummy.o(.text) refers to remotedummy.o(.data.bRemoteInit) for bRemoteInit
    remotedummy.o(.text) refers to remotedummy.o(.data.fRemoteScaleMax) for fRemoteScaleMax
    remotedummy.o(.text) refers to dfltui.o(.text) for __aeabi_ui2d
    remotedummy.o(.text) refers to ddiv.o(.text) for __aeabi_ddiv
    remotedummy.o(.text) refers to dmul.o(.text) for __aeabi_dmul
    remotedummy.o(.text) refers to d2f.o(.text) for __aeabi_d2f
    remotedummy.o(.text) refers to main.o(.bss.steer) for steer
    remotedummy.o(.text) refers to fflti.o(.text) for __aeabi_i2f
    remotedummy.o(.text) refers to fmul.o(.text) for __aeabi_fmul
    remotedummy.o(.text) refers to fdiv.o(.text) for __aeabi_fdiv
    remotedummy.o(.text) refers to fcmpgt.o(.text) for __aeabi_fcmpgt
    remotedummy.o(.text) refers to main.o(.bss.speed) for speed
    remotedummy.o(.text) refers to remotedummy.o(.bss.iCounterLog) for iCounterLog
    remotedummy.o(.text) refers to bldc.o(.data.batteryVoltage) for batteryVoltage
    remotedummy.o(.text) refers to f2d.o(.text) for __aeabi_f2d
    remotedummy.o(.text) refers to bldc.o(.data.currentDC) for currentDC
    remotedummy.o(.text) refers to bldc.o(.bss.iOdom) for iOdom
    remotedummy.o(.text) refers to bldc.o(.bss.revs32) for revs32
    remotedummy.o(.text) refers to bldc.o(.bss.torque32) for torque32
    remotedummy.o(.text) refers to it.o(.text) for ResetTimeout
    remotedummy.o(.ARM.exidx) refers to remotedummy.o(.text) for [Anonymous Symbol]
    segger_rtt.o(.text) refers to segger_rtt.o(.bss._SEGGER_RTT) for _SEGGER_RTT
    segger_rtt.o(.text) refers to memseta.o(.text) for __aeabi_memclr4
    segger_rtt.o(.text) refers to segger_rtt.o(.rodata.str1.1) for .L.str
    segger_rtt.o(.text) refers to segger_rtt.o(.bss._acUpBuffer) for _acUpBuffer
    segger_rtt.o(.text) refers to segger_rtt.o(.bss._acDownBuffer) for _acDownBuffer
    segger_rtt.o(.text) refers to segger_rtt.o(.rodata._DoInit._aInitStr) for _DoInit._aInitStr
    segger_rtt.o(.text) refers to memcpya.o(.text) for __aeabi_memcpy
    segger_rtt.o(.text) refers to strlen.o(.text) for strlen
    segger_rtt.o(.text) refers to segger_rtt.o(.rodata.cst16) for _aTerminalId
    segger_rtt.o(.text) refers to segger_rtt.o(.bss._ActiveTerminal) for _ActiveTerminal
    segger_rtt.o(.ARM.exidx) refers to segger_rtt.o(.text) for [Anonymous Symbol]
    gd32f1x0_adc.o(.text) refers to gd32f1x0_rcu.o(.text) for rcu_periph_reset_enable
    gd32f1x0_adc.o(.ARM.exidx) refers to gd32f1x0_adc.o(.text) for [Anonymous Symbol]
    gd32f1x0_dbg.o(.ARM.exidx) refers to gd32f1x0_dbg.o(.text) for [Anonymous Symbol]
    gd32f1x0_dma.o(.ARM.exidx) refers to gd32f1x0_dma.o(.text) for [Anonymous Symbol]
    gd32f1x0_exti.o(.ARM.exidx) refers to gd32f1x0_exti.o(.text) for [Anonymous Symbol]
    gd32f1x0_fmc.o(.ARM.exidx) refers to gd32f1x0_fmc.o(.text) for [Anonymous Symbol]
    gd32f1x0_fwdgt.o(.ARM.exidx) refers to gd32f1x0_fwdgt.o(.text) for [Anonymous Symbol]
    gd32f1x0_gpio.o(.text) refers to gd32f1x0_gpio.o(.rodata..Lswitch.table.gpio_deinit.1) for .Lswitch.table.gpio_deinit.1
    gd32f1x0_gpio.o(.text) refers to gd32f1x0_rcu.o(.text) for rcu_periph_reset_enable
    gd32f1x0_gpio.o(.ARM.exidx) refers to gd32f1x0_gpio.o(.text) for [Anonymous Symbol]
    gd32f1x0_i2c.o(.text) refers to gd32f1x0_rcu.o(.text) for rcu_periph_reset_enable
    gd32f1x0_i2c.o(.ARM.exidx) refers to gd32f1x0_i2c.o(.text) for [Anonymous Symbol]
    gd32f1x0_misc.o(.ARM.exidx) refers to gd32f1x0_misc.o(.text) for [Anonymous Symbol]
    gd32f1x0_pmu.o(.text) refers to gd32f1x0_rcu.o(.text) for rcu_periph_reset_enable
    gd32f1x0_pmu.o(.text) refers to gd32f1x0_pmu.o(.bss.pmu_to_deepsleepmode.reg_snap.1) for pmu_to_deepsleepmode.reg_snap.1
    gd32f1x0_pmu.o(.text) refers to gd32f1x0_pmu.o(.bss.pmu_to_deepsleepmode.reg_snap.0) for pmu_to_deepsleepmode.reg_snap.0
    gd32f1x0_pmu.o(.text) refers to gd32f1x0_pmu.o(.bss.pmu_to_deepsleepmode.reg_snap.2) for pmu_to_deepsleepmode.reg_snap.2
    gd32f1x0_pmu.o(.text) refers to gd32f1x0_pmu.o(.bss.pmu_to_deepsleepmode.reg_snap.3) for pmu_to_deepsleepmode.reg_snap.3
    gd32f1x0_pmu.o(.ARM.exidx) refers to gd32f1x0_pmu.o(.text) for [Anonymous Symbol]
    gd32f1x0_rcu.o(.text) refers to gd32f1x0_rcu.o(.rodata.cst8) for .L__const.rcu_clock_freq_get.apb2_exp
    gd32f1x0_rcu.o(.ARM.exidx) refers to gd32f1x0_rcu.o(.text) for [Anonymous Symbol]
    gd32f1x0_syscfg.o(.text) refers to gd32f1x0_rcu.o(.text) for rcu_periph_reset_enable
    gd32f1x0_syscfg.o(.ARM.exidx) refers to gd32f1x0_syscfg.o(.text) for [Anonymous Symbol]
    gd32f1x0_timer.o(.text) refers to gd32f1x0_rcu.o(.text) for rcu_periph_reset_enable
    gd32f1x0_timer.o(.ARM.exidx) refers to gd32f1x0_timer.o(.text) for [Anonymous Symbol]
    gd32f1x0_usart.o(.text) refers to gd32f1x0_rcu.o(.text) for rcu_periph_reset_enable
    gd32f1x0_usart.o(.ARM.exidx) refers to gd32f1x0_usart.o(.text) for [Anonymous Symbol]
    gd32f1x0_wwdgt.o(.text) refers to gd32f1x0_rcu.o(.text) for rcu_periph_reset_enable
    gd32f1x0_wwdgt.o(.ARM.exidx) refers to gd32f1x0_wwdgt.o(.text) for [Anonymous Symbol]
    startup_gd32f1x0.o(RESET) refers to startup_gd32f1x0.o(STACK) for __initial_sp
    startup_gd32f1x0.o(RESET) refers to startup_gd32f1x0.o(.text) for Reset_Handler
    startup_gd32f1x0.o(RESET) refers to it.o(.text) for NMI_Handler
    startup_gd32f1x0.o(RESET) refers to bldcsine.o(.text) for EXTI0_1_IRQHandler
    startup_gd32f1x0.o(.text) refers to system_gd32f1x0.o(.text) for SystemInit
    startup_gd32f1x0.o(.text) refers to entry.o(.ARM.Collect$$$$00000000) for __main
    system_gd32f1x0.o(.text) refers to system_gd32f1x0.o(.data.SystemCoreClock) for SystemCoreClock
    system_gd32f1x0.o(.ARM.exidx) refers to system_gd32f1x0.o(.text) for [Anonymous Symbol]
    entry.o(.ARM.Collect$$$$00000000) refers (Special) to entry10a.o(.ARM.Collect$$$$0000000D) for __rt_final_cpp
    entry.o(.ARM.Collect$$$$00000000) refers (Special) to entry11a.o(.ARM.Collect$$$$0000000F) for __rt_final_exit
    entry.o(.ARM.Collect$$$$00000000) refers (Special) to entry7b.o(.ARM.Collect$$$$00000008) for _main_clock
    entry.o(.ARM.Collect$$$$00000000) refers (Special) to entry8b.o(.ARM.Collect$$$$0000000A) for _main_cpp_init
    entry.o(.ARM.Collect$$$$00000000) refers (Special) to entry9a.o(.ARM.Collect$$$$0000000B) for _main_init
    entry.o(.ARM.Collect$$$$00000000) refers (Special) to entry5.o(.ARM.Collect$$$$00000004) for _main_scatterload
    entry.o(.ARM.Collect$$$$00000000) refers (Special) to entry2.o(.ARM.Collect$$$$00000001) for _main_stk
    printfb.o(i.__0fprintf$bare) refers to printfb.o(i._printf_core) for _printf_core
    printfb.o(i.__0fprintf$bare) refers to fputc.o(i.fputc) for fputc
    printfb.o(i.__0printf$bare) refers to printfb.o(i._printf_core) for _printf_core
    printfb.o(i.__0printf$bare) refers to fputc.o(i.fputc) for fputc
    printfb.o(i.__0printf$bare) refers to stdout.o(.data) for __stdout
    printfb.o(i.__0snprintf$bare) refers to printfb.o(i._printf_core) for _printf_core
    printfb.o(i.__0snprintf$bare) refers to printfb.o(i._snputc) for _snputc
    printfb.o(i.__0sprintf$bare) refers to printfb.o(i._printf_core) for _printf_core
    printfb.o(i.__0sprintf$bare) refers to printfb.o(i._sputc) for _sputc
    printfb.o(i.__0vfprintf$bare) refers to printfb.o(i._printf_core) for _printf_core
    printfb.o(i.__0vfprintf$bare) refers to fputc.o(i.fputc) for fputc
    printfb.o(i.__0vprintf$bare) refers to printfb.o(i._printf_core) for _printf_core
    printfb.o(i.__0vprintf$bare) refers to fputc.o(i.fputc) for fputc
    printfb.o(i.__0vprintf$bare) refers to stdout.o(.data) for __stdout
    printfb.o(i.__0vsnprintf$bare) refers to printfb.o(i._printf_core) for _printf_core
    printfb.o(i.__0vsnprintf$bare) refers to printfb.o(i._snputc) for _snputc
    printfb.o(i.__0vsprintf$bare) refers to printfb.o(i._printf_core) for _printf_core
    printfb.o(i.__0vsprintf$bare) refers to printfb.o(i._sputc) for _sputc
    printf0.o(i.__0fprintf$0) refers to printf0.o(i._printf_core) for _printf_core
    printf0.o(i.__0fprintf$0) refers to fputc.o(i.fputc) for fputc
    printf0.o(i.__0printf$0) refers to printf0.o(i._printf_core) for _printf_core
    printf0.o(i.__0printf$0) refers to fputc.o(i.fputc) for fputc
    printf0.o(i.__0printf$0) refers to stdout.o(.data) for __stdout
    printf0.o(i.__0snprintf$0) refers to printf0.o(i._printf_core) for _printf_core
    printf0.o(i.__0snprintf$0) refers to printf0.o(i._snputc) for _snputc
    printf0.o(i.__0sprintf$0) refers to printf0.o(i._printf_core) for _printf_core
    printf0.o(i.__0sprintf$0) refers to printf0.o(i._sputc) for _sputc
    printf0.o(i.__0vfprintf$0) refers to printf0.o(i._printf_core) for _printf_core
    printf0.o(i.__0vfprintf$0) refers to fputc.o(i.fputc) for fputc
    printf0.o(i.__0vprintf$0) refers to printf0.o(i._printf_core) for _printf_core
    printf0.o(i.__0vprintf$0) refers to fputc.o(i.fputc) for fputc
    printf0.o(i.__0vprintf$0) refers to stdout.o(.data) for __stdout
    printf0.o(i.__0vsnprintf$0) refers to printf0.o(i._printf_core) for _printf_core
    printf0.o(i.__0vsnprintf$0) refers to printf0.o(i._snputc) for _snputc
    printf0.o(i.__0vsprintf$0) refers to printf0.o(i._printf_core) for _printf_core
    printf0.o(i.__0vsprintf$0) refers to printf0.o(i._sputc) for _sputc
    printf1.o(i.__0fprintf$1) refers to printf1.o(i._printf_core) for _printf_core
    printf1.o(i.__0fprintf$1) refers to fputc.o(i.fputc) for fputc
    printf1.o(i.__0printf$1) refers to printf1.o(i._printf_core) for _printf_core
    printf1.o(i.__0printf$1) refers to fputc.o(i.fputc) for fputc
    printf1.o(i.__0printf$1) refers to stdout.o(.data) for __stdout
    printf1.o(i.__0snprintf$1) refers to printf1.o(i._printf_core) for _printf_core
    printf1.o(i.__0snprintf$1) refers to printf1.o(i._snputc) for _snputc
    printf1.o(i.__0sprintf$1) refers to printf1.o(i._printf_core) for _printf_core
    printf1.o(i.__0sprintf$1) refers to printf1.o(i._sputc) for _sputc
    printf1.o(i.__0vfprintf$1) refers to printf1.o(i._printf_core) for _printf_core
    printf1.o(i.__0vfprintf$1) refers to fputc.o(i.fputc) for fputc
    printf1.o(i.__0vprintf$1) refers to printf1.o(i._printf_core) for _printf_core
    printf1.o(i.__0vprintf$1) refers to fputc.o(i.fputc) for fputc
    printf1.o(i.__0vprintf$1) refers to stdout.o(.data) for __stdout
    printf1.o(i.__0vsnprintf$1) refers to printf1.o(i._printf_core) for _printf_core
    printf1.o(i.__0vsnprintf$1) refers to printf1.o(i._snputc) for _snputc
    printf1.o(i.__0vsprintf$1) refers to printf1.o(i._printf_core) for _printf_core
    printf1.o(i.__0vsprintf$1) refers to printf1.o(i._sputc) for _sputc
    printf1.o(i._printf_core) refers to uidiv.o(.text) for __aeabi_uidivmod
    printf2.o(i.__0fprintf$2) refers to printf2.o(i._printf_core) for _printf_core
    printf2.o(i.__0fprintf$2) refers to fputc.o(i.fputc) for fputc
    printf2.o(i.__0printf$2) refers to printf2.o(i._printf_core) for _printf_core
    printf2.o(i.__0printf$2) refers to fputc.o(i.fputc) for fputc
    printf2.o(i.__0printf$2) refers to stdout.o(.data) for __stdout
    printf2.o(i.__0snprintf$2) refers to printf2.o(i._printf_core) for _printf_core
    printf2.o(i.__0snprintf$2) refers to printf2.o(i._snputc) for _snputc
    printf2.o(i.__0sprintf$2) refers to printf2.o(i._printf_core) for _printf_core
    printf2.o(i.__0sprintf$2) refers to printf2.o(i._sputc) for _sputc
    printf2.o(i.__0vfprintf$2) refers to printf2.o(i._printf_core) for _printf_core
    printf2.o(i.__0vfprintf$2) refers to fputc.o(i.fputc) for fputc
    printf2.o(i.__0vprintf$2) refers to printf2.o(i._printf_core) for _printf_core
    printf2.o(i.__0vprintf$2) refers to fputc.o(i.fputc) for fputc
    printf2.o(i.__0vprintf$2) refers to stdout.o(.data) for __stdout
    printf2.o(i.__0vsnprintf$2) refers to printf2.o(i._printf_core) for _printf_core
    printf2.o(i.__0vsnprintf$2) refers to printf2.o(i._snputc) for _snputc
    printf2.o(i.__0vsprintf$2) refers to printf2.o(i._printf_core) for _printf_core
    printf2.o(i.__0vsprintf$2) refers to printf2.o(i._sputc) for _sputc
    printf3.o(i.__0fprintf$3) refers to printf3.o(i._printf_core) for _printf_core
    printf3.o(i.__0fprintf$3) refers to fputc.o(i.fputc) for fputc
    printf3.o(i.__0printf$3) refers to printf3.o(i._printf_core) for _printf_core
    printf3.o(i.__0printf$3) refers to fputc.o(i.fputc) for fputc
    printf3.o(i.__0printf$3) refers to stdout.o(.data) for __stdout
    printf3.o(i.__0snprintf$3) refers to printf3.o(i._printf_core) for _printf_core
    printf3.o(i.__0snprintf$3) refers to printf3.o(i._snputc) for _snputc
    printf3.o(i.__0sprintf$3) refers to printf3.o(i._printf_core) for _printf_core
    printf3.o(i.__0sprintf$3) refers to printf3.o(i._sputc) for _sputc
    printf3.o(i.__0vfprintf$3) refers to printf3.o(i._printf_core) for _printf_core
    printf3.o(i.__0vfprintf$3) refers to fputc.o(i.fputc) for fputc
    printf3.o(i.__0vprintf$3) refers to printf3.o(i._printf_core) for _printf_core
    printf3.o(i.__0vprintf$3) refers to fputc.o(i.fputc) for fputc
    printf3.o(i.__0vprintf$3) refers to stdout.o(.data) for __stdout
    printf3.o(i.__0vsnprintf$3) refers to printf3.o(i._printf_core) for _printf_core
    printf3.o(i.__0vsnprintf$3) refers to printf3.o(i._snputc) for _snputc
    printf3.o(i.__0vsprintf$3) refers to printf3.o(i._printf_core) for _printf_core
    printf3.o(i.__0vsprintf$3) refers to printf3.o(i._sputc) for _sputc
    printf3.o(i._printf_core) refers to uidiv.o(.text) for __aeabi_uidivmod
    printf4.o(i.__0fprintf$4) refers to printf4.o(i._printf_core) for _printf_core
    printf4.o(i.__0fprintf$4) refers to fputc.o(i.fputc) for fputc
    printf4.o(i.__0printf$4) refers to printf4.o(i._printf_core) for _printf_core
    printf4.o(i.__0printf$4) refers to fputc.o(i.fputc) for fputc
    printf4.o(i.__0printf$4) refers to stdout.o(.data) for __stdout
    printf4.o(i.__0snprintf$4) refers to printf4.o(i._printf_core) for _printf_core
    printf4.o(i.__0snprintf$4) refers to printf4.o(i._snputc) for _snputc
    printf4.o(i.__0sprintf$4) refers to printf4.o(i._printf_core) for _printf_core
    printf4.o(i.__0sprintf$4) refers to printf4.o(i._sputc) for _sputc
    printf4.o(i.__0vfprintf$4) refers to printf4.o(i._printf_core) for _printf_core
    printf4.o(i.__0vfprintf$4) refers to fputc.o(i.fputc) for fputc
    printf4.o(i.__0vprintf$4) refers to printf4.o(i._printf_core) for _printf_core
    printf4.o(i.__0vprintf$4) refers to fputc.o(i.fputc) for fputc
    printf4.o(i.__0vprintf$4) refers to stdout.o(.data) for __stdout
    printf4.o(i.__0vsnprintf$4) refers to printf4.o(i._printf_core) for _printf_core
    printf4.o(i.__0vsnprintf$4) refers to printf4.o(i._snputc) for _snputc
    printf4.o(i.__0vsprintf$4) refers to printf4.o(i._printf_core) for _printf_core
    printf4.o(i.__0vsprintf$4) refers to printf4.o(i._sputc) for _sputc
    printf4.o(i._printf_core) refers to uldiv.o(.text) for __aeabi_uldivmod
    printf5.o(i.__0fprintf$5) refers to printf5.o(i._printf_core) for _printf_core
    printf5.o(i.__0fprintf$5) refers to fputc.o(i.fputc) for fputc
    printf5.o(i.__0printf$5) refers to printf5.o(i._printf_core) for _printf_core
    printf5.o(i.__0printf$5) refers to fputc.o(i.fputc) for fputc
    printf5.o(i.__0printf$5) refers to stdout.o(.data) for __stdout
    printf5.o(i.__0snprintf$5) refers to printf5.o(i._printf_core) for _printf_core
    printf5.o(i.__0snprintf$5) refers to printf5.o(i._snputc) for _snputc
    printf5.o(i.__0sprintf$5) refers to printf5.o(i._printf_core) for _printf_core
    printf5.o(i.__0sprintf$5) refers to printf5.o(i._sputc) for _sputc
    printf5.o(i.__0vfprintf$5) refers to printf5.o(i._printf_core) for _printf_core
    printf5.o(i.__0vfprintf$5) refers to fputc.o(i.fputc) for fputc
    printf5.o(i.__0vprintf$5) refers to printf5.o(i._printf_core) for _printf_core
    printf5.o(i.__0vprintf$5) refers to fputc.o(i.fputc) for fputc
    printf5.o(i.__0vprintf$5) refers to stdout.o(.data) for __stdout
    printf5.o(i.__0vsnprintf$5) refers to printf5.o(i._printf_core) for _printf_core
    printf5.o(i.__0vsnprintf$5) refers to printf5.o(i._snputc) for _snputc
    printf5.o(i.__0vsprintf$5) refers to printf5.o(i._printf_core) for _printf_core
    printf5.o(i.__0vsprintf$5) refers to printf5.o(i._sputc) for _sputc
    printf5.o(i._printf_core) refers to uldiv.o(.text) for __aeabi_uldivmod
    printf6.o(i.__0fprintf$6) refers to printf6.o(i._printf_core) for _printf_core
    printf6.o(i.__0fprintf$6) refers to fputc.o(i.fputc) for fputc
    printf6.o(i.__0printf$6) refers to printf6.o(i._printf_core) for _printf_core
    printf6.o(i.__0printf$6) refers to fputc.o(i.fputc) for fputc
    printf6.o(i.__0printf$6) refers to stdout.o(.data) for __stdout
    printf6.o(i.__0snprintf$6) refers to printf6.o(i._printf_core) for _printf_core
    printf6.o(i.__0snprintf$6) refers to printf6.o(i._snputc) for _snputc
    printf6.o(i.__0sprintf$6) refers to printf6.o(i._printf_core) for _printf_core
    printf6.o(i.__0sprintf$6) refers to printf6.o(i._sputc) for _sputc
    printf6.o(i.__0vfprintf$6) refers to printf6.o(i._printf_core) for _printf_core
    printf6.o(i.__0vfprintf$6) refers to fputc.o(i.fputc) for fputc
    printf6.o(i.__0vprintf$6) refers to printf6.o(i._printf_core) for _printf_core
    printf6.o(i.__0vprintf$6) refers to fputc.o(i.fputc) for fputc
    printf6.o(i.__0vprintf$6) refers to stdout.o(.data) for __stdout
    printf6.o(i.__0vsnprintf$6) refers to printf6.o(i._printf_core) for _printf_core
    printf6.o(i.__0vsnprintf$6) refers to printf6.o(i._snputc) for _snputc
    printf6.o(i.__0vsprintf$6) refers to printf6.o(i._printf_core) for _printf_core
    printf6.o(i.__0vsprintf$6) refers to printf6.o(i._sputc) for _sputc
    printf6.o(i._printf_core) refers to printf6.o(i._printf_pre_padding) for _printf_pre_padding
    printf6.o(i._printf_core) refers to uidiv.o(.text) for __aeabi_uidivmod
    printf6.o(i._printf_core) refers to printf6.o(i._printf_post_padding) for _printf_post_padding
    printf7.o(i.__0fprintf$7) refers to printf7.o(i._printf_core) for _printf_core
    printf7.o(i.__0fprintf$7) refers to fputc.o(i.fputc) for fputc
    printf7.o(i.__0printf$7) refers to printf7.o(i._printf_core) for _printf_core
    printf7.o(i.__0printf$7) refers to fputc.o(i.fputc) for fputc
    printf7.o(i.__0printf$7) refers to stdout.o(.data) for __stdout
    printf7.o(i.__0snprintf$7) refers to printf7.o(i._printf_core) for _printf_core
    printf7.o(i.__0snprintf$7) refers to printf7.o(i._snputc) for _snputc
    printf7.o(i.__0sprintf$7) refers to printf7.o(i._printf_core) for _printf_core
    printf7.o(i.__0sprintf$7) refers to printf7.o(i._sputc) for _sputc
    printf7.o(i.__0vfprintf$7) refers to printf7.o(i._printf_core) for _printf_core
    printf7.o(i.__0vfprintf$7) refers to fputc.o(i.fputc) for fputc
    printf7.o(i.__0vprintf$7) refers to printf7.o(i._printf_core) for _printf_core
    printf7.o(i.__0vprintf$7) refers to fputc.o(i.fputc) for fputc
    printf7.o(i.__0vprintf$7) refers to stdout.o(.data) for __stdout
    printf7.o(i.__0vsnprintf$7) refers to printf7.o(i._printf_core) for _printf_core
    printf7.o(i.__0vsnprintf$7) refers to printf7.o(i._snputc) for _snputc
    printf7.o(i.__0vsprintf$7) refers to printf7.o(i._printf_core) for _printf_core
    printf7.o(i.__0vsprintf$7) refers to printf7.o(i._sputc) for _sputc
    printf7.o(i._printf_core) refers to printf7.o(i._printf_pre_padding) for _printf_pre_padding
    printf7.o(i._printf_core) refers to uldiv.o(.text) for __aeabi_uldivmod
    printf7.o(i._printf_core) refers to printf7.o(i._printf_post_padding) for _printf_post_padding
    printf8.o(i.__0fprintf$8) refers to printf8.o(i._printf_core) for _printf_core
    printf8.o(i.__0fprintf$8) refers to fputc.o(i.fputc) for fputc
    printf8.o(i.__0printf$8) refers to printf8.o(i._printf_core) for _printf_core
    printf8.o(i.__0printf$8) refers to fputc.o(i.fputc) for fputc
    printf8.o(i.__0printf$8) refers to stdout.o(.data) for __stdout
    printf8.o(i.__0snprintf$8) refers to printf8.o(i._printf_core) for _printf_core
    printf8.o(i.__0snprintf$8) refers to printf8.o(i._snputc) for _snputc
    printf8.o(i.__0sprintf$8) refers to printf8.o(i._printf_core) for _printf_core
    printf8.o(i.__0sprintf$8) refers to printf8.o(i._sputc) for _sputc
    printf8.o(i.__0vfprintf$8) refers to printf8.o(i._printf_core) for _printf_core
    printf8.o(i.__0vfprintf$8) refers to fputc.o(i.fputc) for fputc
    printf8.o(i.__0vprintf$8) refers to printf8.o(i._printf_core) for _printf_core
    printf8.o(i.__0vprintf$8) refers to fputc.o(i.fputc) for fputc
    printf8.o(i.__0vprintf$8) refers to stdout.o(.data) for __stdout
    printf8.o(i.__0vsnprintf$8) refers to printf8.o(i._printf_core) for _printf_core
    printf8.o(i.__0vsnprintf$8) refers to printf8.o(i._snputc) for _snputc
    printf8.o(i.__0vsprintf$8) refers to printf8.o(i._printf_core) for _printf_core
    printf8.o(i.__0vsprintf$8) refers to printf8.o(i._sputc) for _sputc
    printf8.o(i._printf_core) refers to printf8.o(i._printf_pre_padding) for _printf_pre_padding
    printf8.o(i._printf_core) refers to uldiv.o(.text) for __aeabi_uldivmod
    printf8.o(i._printf_core) refers to printf8.o(i._printf_post_padding) for _printf_post_padding
    printfa.o(i.__0fprintf) refers (Special) to iusefp.o(.text) for __I$use$fp
    printfa.o(i.__0fprintf) refers to printfa.o(i._printf_core) for _printf_core
    printfa.o(i.__0fprintf) refers to fputc.o(i.fputc) for fputc
    printfa.o(i.__0printf) refers (Special) to iusefp.o(.text) for __I$use$fp
    printfa.o(i.__0printf) refers to printfa.o(i._printf_core) for _printf_core
    printfa.o(i.__0printf) refers to fputc.o(i.fputc) for fputc
    printfa.o(i.__0printf) refers to stdout.o(.data) for __stdout
    printfa.o(i.__0snprintf) refers (Special) to iusefp.o(.text) for __I$use$fp
    printfa.o(i.__0snprintf) refers to printfa.o(i._printf_core) for _printf_core
    printfa.o(i.__0snprintf) refers to printfa.o(i._snputc) for _snputc
    printfa.o(i.__0sprintf) refers (Special) to iusefp.o(.text) for __I$use$fp
    printfa.o(i.__0sprintf) refers to printfa.o(i._printf_core) for _printf_core
    printfa.o(i.__0sprintf) refers to printfa.o(i._sputc) for _sputc
    printfa.o(i.__0vfprintf) refers (Special) to iusefp.o(.text) for __I$use$fp
    printfa.o(i.__0vfprintf) refers to printfa.o(i._printf_core) for _printf_core
    printfa.o(i.__0vfprintf) refers to fputc.o(i.fputc) for fputc
    printfa.o(i.__0vprintf) refers (Special) to iusefp.o(.text) for __I$use$fp
    printfa.o(i.__0vprintf) refers to printfa.o(i._printf_core) for _printf_core
    printfa.o(i.__0vprintf) refers to fputc.o(i.fputc) for fputc
    printfa.o(i.__0vprintf) refers to stdout.o(.data) for __stdout
    printfa.o(i.__0vsnprintf) refers (Special) to iusefp.o(.text) for __I$use$fp
    printfa.o(i.__0vsnprintf) refers to printfa.o(i._printf_core) for _printf_core
    printfa.o(i.__0vsnprintf) refers to printfa.o(i._snputc) for _snputc
    printfa.o(i.__0vsprintf) refers (Special) to iusefp.o(.text) for __I$use$fp
    printfa.o(i.__0vsprintf) refers to printfa.o(i._printf_core) for _printf_core
    printfa.o(i.__0vsprintf) refers to printfa.o(i._sputc) for _sputc
    printfa.o(i._fp_digits) refers (Special) to iusefp.o(.text) for __I$use$fp
    printfa.o(i._fp_digits) refers to dmul.o(.text) for __aeabi_dmul
    printfa.o(i._fp_digits) refers to ddiv.o(.text) for __aeabi_ddiv
    printfa.o(i._fp_digits) refers to cdrcmple.o(.text) for __aeabi_cdrcmple
    printfa.o(i._fp_digits) refers to dadd.o(.text) for __aeabi_dadd
    printfa.o(i._fp_digits) refers to dfixul.o(.text) for __aeabi_d2ulz
    printfa.o(i._fp_digits) refers to uldiv.o(.text) for __aeabi_uldivmod
    printfa.o(i._printf_core) refers (Special) to iusefp.o(.text) for __I$use$fp
    printfa.o(i._printf_core) refers to printfa.o(i._printf_pre_padding) for _printf_pre_padding
    printfa.o(i._printf_core) refers to uldiv.o(.text) for __aeabi_uldivmod
    printfa.o(i._printf_core) refers to printfa.o(i._printf_post_padding) for _printf_post_padding
    printfa.o(i._printf_core) refers to printfa.o(i._fp_digits) for _fp_digits
    printfa.o(i._printf_core) refers to uidiv.o(.text) for __aeabi_uidivmod
    printfa.o(i._printf_post_padding) refers (Special) to iusefp.o(.text) for __I$use$fp
    printfa.o(i._printf_pre_padding) refers (Special) to iusefp.o(.text) for __I$use$fp
    printfa.o(i._snputc) refers (Special) to iusefp.o(.text) for __I$use$fp
    printfa.o(i._sputc) refers (Special) to iusefp.o(.text) for __I$use$fp
    sscanf.o(.text) refers (Special) to _scanf_int.o(.text) for _scanf_int
    sscanf.o(.text) refers (Special) to _scanf_longlong.o(.text) for _scanf_longlong
    sscanf.o(.text) refers (Special) to scanf_fp.o(.text) for _scanf_real
    sscanf.o(.text) refers (Special) to _scanf_str.o(.text) for _scanf_string
    sscanf.o(.text) refers to scanf_char.o(.text) for __vfscanf_char
    sscanf.o(.text) refers to _sgetc.o(.text) for _sgetc
    fadd.o(.text) refers (Special) to iusefp.o(.text) for __I$use$fp
    fadd.o(.text) refers to fepilogue.o(.text) for _float_epilogue
    fmul.o(.text) refers (Special) to iusefp.o(.text) for __I$use$fp
    fdiv.o(.text) refers (Special) to iusefp.o(.text) for __I$use$fp
    fdiv.o(.text) refers to fepilogue.o(.text) for _float_round
    dadd.o(.text) refers (Special) to iusefp.o(.text) for __I$use$fp
    dadd.o(.text) refers to llshl.o(.text) for __aeabi_llsl
    dadd.o(.text) refers to llsshr.o(.text) for __aeabi_lasr
    dadd.o(.text) refers to depilogue.o(.text) for _double_epilogue
    dmul.o(.text) refers (Special) to iusefp.o(.text) for __I$use$fp
    dmul.o(.text) refers to depilogue.o(.text) for _double_epilogue
    ddiv.o(.text) refers (Special) to iusefp.o(.text) for __I$use$fp
    ddiv.o(.text) refers to depilogue.o(.text) for _double_round
    fcmple.o(.text) refers (Special) to iusefp.o(.text) for __I$use$fp
    fcmplt.o(.text) refers (Special) to iusefp.o(.text) for __I$use$fp
    fcmpgt.o(.text) refers (Special) to iusefp.o(.text) for __I$use$fp
    fflti.o(.text) refers (Special) to iusefp.o(.text) for __I$use$fp
    fflti.o(.text) refers to fepilogue.o(.text) for _float_epilogue
    ffltui.o(.text) refers (Special) to iusefp.o(.text) for __I$use$fp
    ffltui.o(.text) refers to fepilogue.o(.text) for _float_epilogue
    dflti.o(.text) refers (Special) to iusefp.o(.text) for __I$use$fp
    dflti.o(.text) refers to depilogue.o(.text) for _double_epilogue
    dfltui.o(.text) refers (Special) to iusefp.o(.text) for __I$use$fp
    dfltui.o(.text) refers to depilogue.o(.text) for _double_epilogue
    ffixi.o(.text) refers (Special) to iusefp.o(.text) for __I$use$fp
    ffixl.o(.text) refers (Special) to iusefp.o(.text) for __I$use$fp
    ffixl.o(.text) refers to llshl.o(.text) for __aeabi_llsl
    dfixi.o(.text) refers (Special) to iusefp.o(.text) for __I$use$fp
    dfixi.o(.text) refers to llushr.o(.text) for __aeabi_llsr
    f2d.o(.text) refers (Special) to iusefp.o(.text) for __I$use$fp
    d2f.o(.text) refers (Special) to iusefp.o(.text) for __I$use$fp
    d2f.o(.text) refers to fepilogue.o(.text) for _float_round
    entry2.o(.ARM.Collect$$$$00000001) refers to entry2.o(.ARM.Collect$$$$00002712) for __lit__00000000
    entry2.o(.ARM.Collect$$$$00002712) refers to startup_gd32f1x0.o(STACK) for __initial_sp
    entry2.o(__vectab_stack_and_reset_area) refers to startup_gd32f1x0.o(STACK) for __initial_sp
    entry2.o(__vectab_stack_and_reset_area) refers to entry.o(.ARM.Collect$$$$00000000) for __main
    entry5.o(.ARM.Collect$$$$00000004) refers to init.o(.text) for __scatterload
    entry9a.o(.ARM.Collect$$$$0000000B) refers to main.o(.text) for main
    entry9b.o(.ARM.Collect$$$$0000000C) refers to main.o(.text) for main
    fputc.o(i.fputc) refers (Special) to iusesemip.o(.text) for __I$use$semihosting$fputc
    fputc.o(i.fputc) refers (Special) to semi.o(.text) for __semihosting_library_function
    fputc_h.o(i._fputc$hlt) refers (Special) to iusesemip.o(.text) for __I$use$semihosting$fputc
    fputc_h.o(i._fputc$hlt) refers (Special) to semi.o(.text) for __semihosting_library_function
    uldiv.o(.text) refers to llushr.o(.text) for __aeabi_llsr
    uldiv.o(.text) refers to llshl.o(.text) for __aeabi_llsl
    _scanf_longlong.o(.text) refers to _chval.o(.text) for _chval
    _scanf_int.o(.text) refers to _chval.o(.text) for _chval
    scanf_fp.o(.text) refers (Special) to iusefp.o(.text) for __I$use$fp
    scanf_fp.o(.text) refers to dfltul.o(.text) for __aeabi_ul2d
    scanf_fp.o(.text) refers to dmul.o(.text) for __aeabi_dmul
    scanf_fp.o(.text) refers to ddiv.o(.text) for __aeabi_ddiv
    scanf_fp.o(.text) refers to scanf_fp.o(i._is_digit) for _is_digit
    scanf_fp.o(.text) refers to d2f.o(.text) for __aeabi_d2f
    scanf_char.o(.text) refers to _scanf.o(.text) for __vfscanf
    scanf_char.o(.text) refers to isspace_c.o(.text) for isspace
    fepilogue.o(.text) refers (Special) to iusefp.o(.text) for __I$use$fp
    depilogue.o(.text) refers (Special) to iusefp.o(.text) for __I$use$fp
    depilogue.o(.text) refers to llshl.o(.text) for __aeabi_llsl
    depilogue.o(.text) refers to llushr.o(.text) for __aeabi_llsr
    dfixul.o(.text) refers (Special) to iusefp.o(.text) for __I$use$fp
    dfixul.o(.text) refers to llushr.o(.text) for __aeabi_llsr
    dfixul.o(.text) refers to llshl.o(.text) for __aeabi_llsl
    cdrcmple.o(.text) refers (Special) to iusefp.o(.text) for __I$use$fp
    init.o(.text) refers to entry5.o(.ARM.Collect$$$$00000004) for __main_after_scatterload
    isspace_c.o(.text) refers to ctype_c.o(.text) for __ctype_lookup
    _scanf.o(.text) refers (Weak) to scanf_fp.o(.text) for _scanf_real
    _scanf.o(.text) refers (Weak) to _scanf_longlong.o(.text) for _scanf_longlong
    _scanf.o(.text) refers (Weak) to _scanf_int.o(.text) for _scanf_int
    _scanf.o(.text) refers (Weak) to _scanf_str.o(.text) for _scanf_string
    dfltul.o(.text) refers (Special) to iusefp.o(.text) for __I$use$fp
    dfltul.o(.text) refers to depilogue.o(.text) for _double_epilogue
    ctype_c.o(.text) refers to ctype_c.o(.constdata) for .constdata
    scanf_fp.o(i._is_digit) refers (Special) to iusefp.o(.text) for __I$use$fp


==============================================================================

Removing Unused input sections from the image.

    Removing main.o(.ARM.exidx), (24 bytes).
    Removing main.o(.data.iBug8), (1 bytes).
    Removing main.o(.data.wStateSlave), (1 bytes).
    Removing main.o(.bss.activateWeakening), (1 bytes).
    Removing main.o(.bss.slaveError), (1 bytes).
    Removing main.o(.ARM.use_no_argv), (4 bytes).
    Removing bldc.o(.ARM.exidx), (48 bytes).
    Removing bldc.o(.bss.realSpeed32_reg), (4 bytes).
    Removing driver.o(.ARM.exidx), (32 bytes).
    Removing bldcbc.o(.text), (0 bytes).
    Removing bldcsine.o(.ARM.exidx), (56 bytes).
    Removing bldcsine.o(.bss.fGradient), (4 bytes).
    Removing bldcsine.o(.bss.fGradientX), (4 bytes).
    Removing setup.o(.ARM.exidx), (168 bytes).
    Removing setup.o(.bss.dma_init_struct_usart), (36 bytes).
    Removing setup.o(.bss.usart0_rx_buf), (1 bytes).
    Removing setup.o(.bss.usart1_rx_buf), (1 bytes).
    Removing setup.o(.bss.usart2_rx_buf), (1 bytes).
    Removing it.o(.ARM.exidx), (120 bytes).
    Removing it.o(.bss.iPwmTicks), (4 bytes).
    Removing it.o(.bss.iPwmTicks0), (4 bytes).
    Removing it.o(.bss.iAdcTicks), (4 bytes).
    Removing it.o(.bss.iAdcTicks0), (4 bytes).
    Removing it.o(.bss.iCounterUsart0), (4 bytes).
    Removing it.o(.bss.iCounter2Usart0), (4 bytes).
    Removing it.o(.bss.iCounterUsart1), (4 bytes).
    Removing it.o(.bss.iCounter2Usart1), (4 bytes).
    Removing it.o(.bss.iCounterUsart2), (4 bytes).
    Removing it.o(.bss.iCounter2Usart2), (4 bytes).
    Removing led.o(.text), (0 bytes).
    Removing comms.o(.text), (124 bytes).
    Removing comms.o(.ARM.exidx), (16 bytes).
    Removing remoteuart.o(.text), (0 bytes).
    Removing remotecrsf.o(.text), (0 bytes).
    Removing remotedummy.o(.ARM.exidx), (48 bytes).
    Removing remoteuartbus.o(.text), (0 bytes).
    Removing commsmasterslave.o(.text), (0 bytes).
    Removing commsmasterslave.o(.bss.mosfetOutMaster), (1 bytes).
    Removing commsmasterslave.o(.bss.beepsBackwardsMaster), (1 bytes).
    Removing remoteadc.o(.text), (0 bytes).
    Removing remoteautodetect.o(.text), (0 bytes).
    Removing remoteautodetect.o(.bss.i), (2 bytes).
    Removing remoteros2.o(.text), (0 bytes).
    Removing i2c.o(.text), (0 bytes).
    Removing mpu6050.o(.text), (0 bytes).
    Removing imumpu6050.o(.text), (0 bytes).
    Removing bmi160.o(.text), (0 bytes).
    Removing pilothoverbike.o(.text), (0 bytes).
    Removing pilotuser.o(.text), (0 bytes).
    Removing segger_rtt.o(.ARM.exidx), (248 bytes).
    Removing remoteoptimizepid.o(.text), (0 bytes).
    Removing gd32f1x0_adc.o(.ARM.exidx), (256 bytes).
    Removing gd32f1x0_dbg.o(.text), (128 bytes).
    Removing gd32f1x0_dbg.o(.ARM.exidx), (48 bytes).
    Removing gd32f1x0_dma.o(.ARM.exidx), (216 bytes).
    Removing gd32f1x0_exti.o(.ARM.exidx), (96 bytes).
    Removing gd32f1x0_fmc.o(.ARM.exidx), (216 bytes).
    Removing gd32f1x0_fwdgt.o(.ARM.exidx), (48 bytes).
    Removing gd32f1x0_gpio.o(.ARM.exidx), (104 bytes).
    Removing gd32f1x0_i2c.o(.text), (802 bytes).
    Removing gd32f1x0_i2c.o(.ARM.exidx), (248 bytes).
    Removing gd32f1x0_misc.o(.ARM.exidx), (56 bytes).
    Removing gd32f1x0_opa.o(.text), (0 bytes).
    Removing gd32f1x0_pmu.o(.text), (490 bytes).
    Removing gd32f1x0_pmu.o(.ARM.exidx), (96 bytes).
    Removing gd32f1x0_pmu.o(.bss.pmu_to_deepsleepmode.reg_snap.0), (4 bytes).
    Removing gd32f1x0_pmu.o(.bss.pmu_to_deepsleepmode.reg_snap.1), (4 bytes).
    Removing gd32f1x0_pmu.o(.bss.pmu_to_deepsleepmode.reg_snap.2), (4 bytes).
    Removing gd32f1x0_pmu.o(.bss.pmu_to_deepsleepmode.reg_snap.3), (4 bytes).
    Removing gd32f1x0_rcu.o(.ARM.exidx), (336 bytes).
    Removing gd32f1x0_syscfg.o(.ARM.exidx), (72 bytes).
    Removing gd32f1x0_timer.o(.ARM.exidx), (568 bytes).
    Removing gd32f1x0_usart.o(.text), (1602 bytes).
    Removing gd32f1x0_usart.o(.ARM.exidx), (544 bytes).
    Removing gd32f1x0_wwdgt.o(.text), (170 bytes).
    Removing gd32f1x0_wwdgt.o(.ARM.exidx), (56 bytes).
    Removing startup_gd32f1x0.o(HEAP), (1024 bytes).
    Removing system_gd32f1x0.o(.ARM.exidx), (16 bytes).

78 unused section(s) (total 8195 bytes) removed from the image.

==============================================================================

Image Symbol Table

    Local Symbols

    Symbol Name                              Value     Ov Type        Size  Object(Section)

    ../clib/division.s                       0x00000000   Number         0  aeabi_sdiv.o ABSOLUTE
    ../clib/microlib/ctype/ctype.c           0x00000000   Number         0  isspace_c.o ABSOLUTE
    ../clib/microlib/ctype/ctype.c           0x00000000   Number         0  ctype_c.o ABSOLUTE
    ../clib/microlib/division.c              0x00000000   Number         0  uidiv.o ABSOLUTE
    ../clib/microlib/division.c              0x00000000   Number         0  uldiv.o ABSOLUTE
    ../clib/microlib/init/entry.s            0x00000000   Number         0  entry.o ABSOLUTE
    ../clib/microlib/init/entry.s            0x00000000   Number         0  entry2.o ABSOLUTE
    ../clib/microlib/init/entry.s            0x00000000   Number         0  entry5.o ABSOLUTE
    ../clib/microlib/init/entry.s            0x00000000   Number         0  entry7a.o ABSOLUTE
    ../clib/microlib/init/entry.s            0x00000000   Number         0  entry7b.o ABSOLUTE
    ../clib/microlib/init/entry.s            0x00000000   Number         0  entry8a.o ABSOLUTE
    ../clib/microlib/init/entry.s            0x00000000   Number         0  entry8b.o ABSOLUTE
    ../clib/microlib/init/entry.s            0x00000000   Number         0  entry9a.o ABSOLUTE
    ../clib/microlib/init/entry.s            0x00000000   Number         0  entry9b.o ABSOLUTE
    ../clib/microlib/init/entry.s            0x00000000   Number         0  entry10a.o ABSOLUTE
    ../clib/microlib/init/entry.s            0x00000000   Number         0  entry10b.o ABSOLUTE
    ../clib/microlib/init/entry.s            0x00000000   Number         0  entry11a.o ABSOLUTE
    ../clib/microlib/init/entry.s            0x00000000   Number         0  entry11b.o ABSOLUTE
    ../clib/microlib/longlong.c              0x00000000   Number         0  llshl.o ABSOLUTE
    ../clib/microlib/longlong.c              0x00000000   Number         0  llushr.o ABSOLUTE
    ../clib/microlib/longlong.c              0x00000000   Number         0  llsshr.o ABSOLUTE
    ../clib/microlib/printf/printf.c         0x00000000   Number         0  printfb.o ABSOLUTE
    ../clib/microlib/printf/printf.c         0x00000000   Number         0  printf0.o ABSOLUTE
    ../clib/microlib/printf/printf.c         0x00000000   Number         0  printf1.o ABSOLUTE
    ../clib/microlib/printf/printf.c         0x00000000   Number         0  printf2.o ABSOLUTE
    ../clib/microlib/printf/printf.c         0x00000000   Number         0  printf3.o ABSOLUTE
    ../clib/microlib/printf/printf.c         0x00000000   Number         0  printf4.o ABSOLUTE
    ../clib/microlib/printf/printf.c         0x00000000   Number         0  printf5.o ABSOLUTE
    ../clib/microlib/printf/printf.c         0x00000000   Number         0  printf6.o ABSOLUTE
    ../clib/microlib/printf/printf.c         0x00000000   Number         0  printf7.o ABSOLUTE
    ../clib/microlib/printf/printf.c         0x00000000   Number         0  printf8.o ABSOLUTE
    ../clib/microlib/printf/printf.c         0x00000000   Number         0  printfa.o ABSOLUTE
    ../clib/microlib/printf/stubs.s          0x00000000   Number         0  printfstubs.o ABSOLUTE
    ../clib/microlib/stdio/fputc.c           0x00000000   Number         0  fputc.o ABSOLUTE
    ../clib/microlib/stdio/fputc.c           0x00000000   Number         0  fputc_h.o ABSOLUTE
    ../clib/microlib/stdio/semi.s            0x00000000   Number         0  semi.o ABSOLUTE
    ../clib/microlib/stdio/streams.c         0x00000000   Number         0  stdout.o ABSOLUTE
    ../clib/microlib/string/memcmp.c         0x00000000   Number         0  memcmp.o ABSOLUTE
    ../clib/microlib/string/memcpy.c         0x00000000   Number         0  memcpya.o ABSOLUTE
    ../clib/microlib/string/memcpy.c         0x00000000   Number         0  memcpyb.o ABSOLUTE
    ../clib/microlib/string/memset.c         0x00000000   Number         0  memseta.o ABSOLUTE
    ../clib/microlib/string/strcmp.c         0x00000000   Number         0  strcmp.o ABSOLUTE
    ../clib/microlib/string/strlen.c         0x00000000   Number         0  strlen.o ABSOLUTE
    ../clib/microlib/stubs.s                 0x00000000   Number         0  iusefp.o ABSOLUTE
    ../clib/microlib/stubs.s                 0x00000000   Number         0  iusesemip.o ABSOLUTE
    ../clib/scanf.c                          0x00000000   Number         0  sscanf.o ABSOLUTE
    ../clib/scanf.c                          0x00000000   Number         0  _scanf_longlong.o ABSOLUTE
    ../clib/scanf.c                          0x00000000   Number         0  _scanf_int.o ABSOLUTE
    ../clib/scanf.c                          0x00000000   Number         0  _scanf_str.o ABSOLUTE
    ../clib/scanf.c                          0x00000000   Number         0  scanf_fp.o ABSOLUTE
    ../clib/scanf.c                          0x00000000   Number         0  scanf_char.o ABSOLUTE
    ../clib/scanf.c                          0x00000000   Number         0  _sgetc.o ABSOLUTE
    ../clib/scanf.c                          0x00000000   Number         0  _chval.o ABSOLUTE
    ../clib/scanf.c                          0x00000000   Number         0  _scanf.o ABSOLUTE
    ../fplib/microlib/d2f.c                  0x00000000   Number         0  d2f.o ABSOLUTE
    ../fplib/microlib/f2d.c                  0x00000000   Number         0  f2d.o ABSOLUTE
    ../fplib/microlib/fpadd.c                0x00000000   Number         0  fadd.o ABSOLUTE
    ../fplib/microlib/fpadd.c                0x00000000   Number         0  dadd.o ABSOLUTE
    ../fplib/microlib/fpcmp.c                0x00000000   Number         0  fcmple.o ABSOLUTE
    ../fplib/microlib/fpcmp.c                0x00000000   Number         0  fcmplt.o ABSOLUTE
    ../fplib/microlib/fpcmp.c                0x00000000   Number         0  fcmpgt.o ABSOLUTE
    ../fplib/microlib/fpdiv.c                0x00000000   Number         0  fdiv.o ABSOLUTE
    ../fplib/microlib/fpdiv.c                0x00000000   Number         0  ddiv.o ABSOLUTE
    ../fplib/microlib/fpepilogue.c           0x00000000   Number         0  fepilogue.o ABSOLUTE
    ../fplib/microlib/fpepilogue.c           0x00000000   Number         0  depilogue.o ABSOLUTE
    ../fplib/microlib/fpfix.c                0x00000000   Number         0  ffixi.o ABSOLUTE
    ../fplib/microlib/fpfix.c                0x00000000   Number         0  ffixl.o ABSOLUTE
    ../fplib/microlib/fpfix.c                0x00000000   Number         0  dfixi.o ABSOLUTE
    ../fplib/microlib/fpfix.c                0x00000000   Number         0  dfixul.o ABSOLUTE
    ../fplib/microlib/fpflt.c                0x00000000   Number         0  fflti.o ABSOLUTE
    ../fplib/microlib/fpflt.c                0x00000000   Number         0  ffltui.o ABSOLUTE
    ../fplib/microlib/fpflt.c                0x00000000   Number         0  dflti.o ABSOLUTE
    ../fplib/microlib/fpflt.c                0x00000000   Number         0  dfltui.o ABSOLUTE
    ../fplib/microlib/fpflt.c                0x00000000   Number         0  dfltul.o ABSOLUTE
    ../fplib/microlib/fpmul.c                0x00000000   Number         0  fmul.o ABSOLUTE
    ../fplib/microlib/fpmul.c                0x00000000   Number         0  dmul.o ABSOLUTE
    PilotHoverbike.c                         0x00000000   Number         0  pilothoverbike.o ABSOLUTE
    PilotUser.c                              0x00000000   Number         0  pilotuser.o ABSOLUTE
    RTE/Device/GD32F130C8/startup_gd32f1x0.s 0x00000000   Number         0  startup_gd32f1x0.o ABSOLUTE
    RemoteAdc.c                              0x00000000   Number         0  remoteadc.o ABSOLUTE
    RemoteAutodetect.c                       0x00000000   Number         0  remoteautodetect.o ABSOLUTE
    RemoteROS2.c                             0x00000000   Number         0  remoteros2.o ABSOLUTE
    SEGGER_RTT.c                             0x00000000   Number         0  segger_rtt.o ABSOLUTE
    bldc.c                                   0x00000000   Number         0  bldc.o ABSOLUTE
    bldcBC.c                                 0x00000000   Number         0  bldcbc.o ABSOLUTE
    bldcSINE.c                               0x00000000   Number         0  bldcsine.o ABSOLUTE
    bmi160.c                                 0x00000000   Number         0  bmi160.o ABSOLUTE
    cdrcmple.s                               0x00000000   Number         0  cdrcmple.o ABSOLUTE
    comms.c                                  0x00000000   Number         0  comms.o ABSOLUTE
    commsMasterSlave.c                       0x00000000   Number         0  commsmasterslave.o ABSOLUTE
    dc.s                                     0x00000000   Number         0  dc.o ABSOLUTE
    driver.c                                 0x00000000   Number         0  driver.o ABSOLUTE
    gd32f1x0_adc.c                           0x00000000   Number         0  gd32f1x0_adc.o ABSOLUTE
    gd32f1x0_dbg.c                           0x00000000   Number         0  gd32f1x0_dbg.o ABSOLUTE
    gd32f1x0_dma.c                           0x00000000   Number         0  gd32f1x0_dma.o ABSOLUTE
    gd32f1x0_exti.c                          0x00000000   Number         0  gd32f1x0_exti.o ABSOLUTE
    gd32f1x0_fmc.c                           0x00000000   Number         0  gd32f1x0_fmc.o ABSOLUTE
    gd32f1x0_fwdgt.c                         0x00000000   Number         0  gd32f1x0_fwdgt.o ABSOLUTE
    gd32f1x0_gpio.c                          0x00000000   Number         0  gd32f1x0_gpio.o ABSOLUTE
    gd32f1x0_i2c.c                           0x00000000   Number         0  gd32f1x0_i2c.o ABSOLUTE
    gd32f1x0_misc.c                          0x00000000   Number         0  gd32f1x0_misc.o ABSOLUTE
    gd32f1x0_opa.c                           0x00000000   Number         0  gd32f1x0_opa.o ABSOLUTE
    gd32f1x0_pmu.c                           0x00000000   Number         0  gd32f1x0_pmu.o ABSOLUTE
    gd32f1x0_rcu.c                           0x00000000   Number         0  gd32f1x0_rcu.o ABSOLUTE
    gd32f1x0_syscfg.c                        0x00000000   Number         0  gd32f1x0_syscfg.o ABSOLUTE
    gd32f1x0_timer.c                         0x00000000   Number         0  gd32f1x0_timer.o ABSOLUTE
    gd32f1x0_usart.c                         0x00000000   Number         0  gd32f1x0_usart.o ABSOLUTE
    gd32f1x0_wwdgt.c                         0x00000000   Number         0  gd32f1x0_wwdgt.o ABSOLUTE
    handlers.s                               0x00000000   Number         0  handlers.o ABSOLUTE
    i2c.c                                    0x00000000   Number         0  i2c.o ABSOLUTE
    imuMPU6050.c                             0x00000000   Number         0  imumpu6050.o ABSOLUTE
    init.s                                   0x00000000   Number         0  init.o ABSOLUTE
    it.c                                     0x00000000   Number         0  it.o ABSOLUTE
    led.c                                    0x00000000   Number         0  led.o ABSOLUTE
    main.c                                   0x00000000   Number         0  main.o ABSOLUTE
    mpu6050.c                                0x00000000   Number         0  mpu6050.o ABSOLUTE
    remoteCrsf.c                             0x00000000   Number         0  remotecrsf.o ABSOLUTE
    remoteDummy.c                            0x00000000   Number         0  remotedummy.o ABSOLUTE
    remoteOptimizePID.c                      0x00000000   Number         0  remoteoptimizepid.o ABSOLUTE
    remoteUart.c                             0x00000000   Number         0  remoteuart.o ABSOLUTE
    remoteUartBus.c                          0x00000000   Number         0  remoteuartbus.o ABSOLUTE
    setup.c                                  0x00000000   Number         0  setup.o ABSOLUTE
    system_gd32f1x0.c                        0x00000000   Number         0  system_gd32f1x0.o ABSOLUTE
    RESET                                    0x08000000   Section      360  startup_gd32f1x0.o(RESET)
    .ARM.Collect$$$$00000000                 0x08000168   Section        0  entry.o(.ARM.Collect$$$$00000000)
    .ARM.Collect$$$$00000001                 0x08000168   Section        4  entry2.o(.ARM.Collect$$$$00000001)
    .ARM.Collect$$$$00000004                 0x0800016c   Section        4  entry5.o(.ARM.Collect$$$$00000004)
    .ARM.Collect$$$$00000008                 0x08000170   Section        0  entry7b.o(.ARM.Collect$$$$00000008)
    .ARM.Collect$$$$0000000A                 0x08000170   Section        0  entry8b.o(.ARM.Collect$$$$0000000A)
    .ARM.Collect$$$$0000000B                 0x08000170   Section        8  entry9a.o(.ARM.Collect$$$$0000000B)
    __lit__00000000                          0x08000178   Data           4  entry2.o(.ARM.Collect$$$$00002712)
    .ARM.Collect$$$$0000000D                 0x08000178   Section        0  entry10a.o(.ARM.Collect$$$$0000000D)
    .ARM.Collect$$$$0000000F                 0x08000178   Section        0  entry11a.o(.ARM.Collect$$$$0000000F)
    .ARM.Collect$$$$00002712                 0x08000178   Section        4  entry2.o(.ARM.Collect$$$$00002712)
    [Anonymous Symbol]                       0x0800017c   Section        0  main.o(.text)
    [Anonymous Symbol]                       0x08000964   Section        0  bldc.o(.text)
    [Anonymous Symbol]                       0x080010d8   Section        0  driver.o(.text)
    [Anonymous Symbol]                       0x08001318   Section        0  bldcsine.o(.text)
    [Anonymous Symbol]                       0x080016e8   Section        0  setup.o(.text)
    [Anonymous Symbol]                       0x08001f94   Section        0  it.o(.text)
    [Anonymous Symbol]                       0x08002120   Section        0  remotedummy.o(.text)
    [Anonymous Symbol]                       0x08002858   Section        0  segger_rtt.o(.text)
    [Anonymous Symbol]                       0x08003ffc   Section        0  gd32f1x0_adc.o(.text)
    [Anonymous Symbol]                       0x080045a4   Section        0  gd32f1x0_dma.o(.text)
    [Anonymous Symbol]                       0x08004914   Section        0  gd32f1x0_exti.o(.text)
    [Anonymous Symbol]                       0x08004a84   Section        0  gd32f1x0_fmc.o(.text)
    [Anonymous Symbol]                       0x08005454   Section        0  gd32f1x0_fwdgt.o(.text)
    [Anonymous Symbol]                       0x08005538   Section        0  gd32f1x0_gpio.o(.text)
    [Anonymous Symbol]                       0x080056d0   Section        0  gd32f1x0_misc.o(.text)
    [Anonymous Symbol]                       0x080057fc   Section        0  gd32f1x0_rcu.o(.text)
    [Anonymous Symbol]                       0x08005f20   Section        0  gd32f1x0_syscfg.o(.text)
    [Anonymous Symbol]                       0x08006024   Section        0  gd32f1x0_timer.o(.text)
    .text                                    0x08006d74   Section       36  startup_gd32f1x0.o(.text)
    [Anonymous Symbol]                       0x08006d98   Section        0  system_gd32f1x0.o(.text)
    .text                                    0x08006ed4   Section        0  memcpya.o(.text)
    .text                                    0x08006ef8   Section        0  memseta.o(.text)
    .text                                    0x08006f1c   Section        0  strlen.o(.text)
    .text                                    0x08006f2a   Section        0  strcmp.o(.text)
    .text                                    0x08006f46   Section        0  memcmp.o(.text)
    .text                                    0x08006f60   Section        0  sscanf.o(.text)
    .text                                    0x08006f98   Section        0  fadd.o(.text)
    .text                                    0x08007048   Section        0  fmul.o(.text)
    .text                                    0x080070ac   Section        0  fdiv.o(.text)
    .text                                    0x08007128   Section        0  dadd.o(.text)
    .text                                    0x08007276   Section        0  dmul.o(.text)
    .text                                    0x0800735a   Section        0  ddiv.o(.text)
    .text                                    0x08007438   Section        0  fcmple.o(.text)
    .text                                    0x08007454   Section        0  fcmplt.o(.text)
    .text                                    0x08007470   Section        0  fcmpgt.o(.text)
    .text                                    0x0800748c   Section        0  fflti.o(.text)
    .text                                    0x0800749e   Section        0  ffltui.o(.text)
    .text                                    0x080074a8   Section        0  dflti.o(.text)
    .text                                    0x080074ca   Section        0  dfltui.o(.text)
    .text                                    0x080074e4   Section        0  ffixi.o(.text)
    .text                                    0x08007516   Section        0  ffixl.o(.text)
    .text                                    0x08007558   Section        0  dfixi.o(.text)
    .text                                    0x08007596   Section        0  f2d.o(.text)
    .text                                    0x080075bc   Section        0  d2f.o(.text)
    .text                                    0x080075f4   Section        0  uidiv.o(.text)
    .text                                    0x08007620   Section        0  uldiv.o(.text)
    .text                                    0x08007682   Section        0  llshl.o(.text)
    .text                                    0x080076a0   Section        0  llushr.o(.text)
    .text                                    0x080076c0   Section        0  llsshr.o(.text)
    .text                                    0x080076e4   Section        0  _scanf_longlong.o(.text)
    .text                                    0x0800783a   Section        0  _scanf_int.o(.text)
    .text                                    0x08007986   Section        0  _scanf_str.o(.text)
    _fp_value                                0x08007a69   Thumb Code   296  scanf_fp.o(.text)
    .text                                    0x08007a68   Section        0  scanf_fp.o(.text)
    _scanf_char_input                        0x08007dc9   Thumb Code    12  scanf_char.o(.text)
    .text                                    0x08007dc8   Section        0  scanf_char.o(.text)
    .text                                    0x08007df0   Section        0  _sgetc.o(.text)
    .text                                    0x08007e30   Section        0  iusefp.o(.text)
    .text                                    0x08007e30   Section        0  fepilogue.o(.text)
    .text                                    0x08007e9e   Section        0  depilogue.o(.text)
    .text                                    0x08007f58   Section        0  dfixul.o(.text)
    .text                                    0x08007f88   Section       48  cdrcmple.o(.text)
    .text                                    0x08007fb8   Section       48  init.o(.text)
    .text                                    0x08007fe8   Section        0  isspace_c.o(.text)
    .text                                    0x08007ff2   Section        0  _chval.o(.text)
    .text                                    0x08008010   Section        0  _scanf.o(.text)
    .text                                    0x0800833c   Section        0  dfltul.o(.text)
    .text                                    0x08008354   Section        0  ctype_c.o(.text)
    i.__0sprintf                             0x0800837c   Section        0  printfa.o(i.__0sprintf)
    i.__scatterload_copy                     0x080083a4   Section       14  handlers.o(i.__scatterload_copy)
    i.__scatterload_null                     0x080083b2   Section        2  handlers.o(i.__scatterload_null)
    i.__scatterload_zeroinit                 0x080083b4   Section       14  handlers.o(i.__scatterload_zeroinit)
    _fp_digits                               0x080083c5   Thumb Code   366  printfa.o(i._fp_digits)
    i._fp_digits                             0x080083c4   Section        0  printfa.o(i._fp_digits)
    i._is_digit                              0x08008548   Section        0  scanf_fp.o(i._is_digit)
    _printf_core                             0x08008559   Thumb Code  1744  printfa.o(i._printf_core)
    i._printf_core                           0x08008558   Section        0  printfa.o(i._printf_core)
    _printf_post_padding                     0x08008c35   Thumb Code    36  printfa.o(i._printf_post_padding)
    i._printf_post_padding                   0x08008c34   Section        0  printfa.o(i._printf_post_padding)
    _printf_pre_padding                      0x08008c59   Thumb Code    46  printfa.o(i._printf_pre_padding)
    i._printf_pre_padding                    0x08008c58   Section        0  printfa.o(i._printf_pre_padding)
    _sputc                                   0x08008c87   Thumb Code    10  printfa.o(i._sputc)
    i._sputc                                 0x08008c86   Section        0  printfa.o(i._sputc)
    .constdata                               0x08008c90   Section       64  ctype_c.o(.constdata)
    .L__const.up_or_down.up_down             0x08008cd0   Data          12  bldc.o(.rodata..L__const.up_or_down.up_down)
    .Lswitch.table.gpio_deinit.1             0x08008cdc   Data          12  gd32f1x0_gpio.o(.rodata..Lswitch.table.gpio_deinit.1)
    _DoInit._aInitStr                        0x08008ce8   Data          17  segger_rtt.o(.rodata._DoInit._aInitStr)
    [Anonymous Symbol]                       0x08008ce8   Section        0  segger_rtt.o(.rodata._DoInit._aInitStr)
    _aTerminalId                             0x08008cf9   Data          16  segger_rtt.o(.rodata.cst16)
    [Anonymous Symbol]                       0x08008cf9   Section        0  segger_rtt.o(.rodata.cst16)
    hall_to_sector                           0x08008d09   Data           8  bldcsine.o(.rodata.cst8)
    [Anonymous Symbol]                       0x08008d09   Section        0  bldcsine.o(.rodata.cst8)
    .L__const.rcu_clock_freq_get.apb2_exp    0x08008d11   Data           8  gd32f1x0_rcu.o(.rodata.cst8)
    sine_table                               0x08008ff8   Data         720  bldcsine.o(.rodata.sine_table)
    [Anonymous Symbol]                       0x08008ff8   Section        0  bldcsine.o(.rodata.sine_table)
    .L.str                                   0x080092c8   Data           9  segger_rtt.o(.rodata.str1.1)
    [Anonymous Symbol]                       0x080092c8   Section        0  segger_rtt.o(.rodata.str1.1)
    TIMER0_BRK_UP_TRG_COM_IRQHandler.interrupt_toggle 0x20000068   Data           1  it.o(.bss.TIMER0_BRK_UP_TRG_COM_IRQHandler.interrupt_toggle)
    [Anonymous Symbol]                       0x20000068   Section        0  it.o(.bss.TIMER0_BRK_UP_TRG_COM_IRQHandler.interrupt_toggle)
    _ActiveTerminal                          0x20000069   Data           1  segger_rtt.o(.bss._ActiveTerminal)
    [Anonymous Symbol]                       0x20000069   Section        0  segger_rtt.o(.bss._ActiveTerminal)
    _acDownBuffer                            0x20000114   Data          16  segger_rtt.o(.bss._acDownBuffer)
    [Anonymous Symbol]                       0x20000114   Section        0  segger_rtt.o(.bss._acDownBuffer)
    _acUpBuffer                              0x20000124   Data        1024  segger_rtt.o(.bss._acUpBuffer)
    [Anonymous Symbol]                       0x20000124   Section        0  segger_rtt.o(.bss._acUpBuffer)
    buffer_index                             0x20000584   Data           4  remotedummy.o(.bss.buffer_index)
    [Anonymous Symbol]                       0x20000584   Section        0  remotedummy.o(.bss.buffer_index)
    message_buffer                           0x2000062d   Data          64  remotedummy.o(.bss.message_buffer)
    [Anonymous Symbol]                       0x2000062d   Section        0  remotedummy.o(.bss.message_buffer)
    STACK                                    0x20000958   Section     1024  startup_gd32f1x0.o(STACK)

    Global Symbols

    Symbol Name                              Value     Ov Type        Size  Object(Section)

    BuildAttributes$$THM_ISAv4$P$D$K$B$S$PE$A:L22UL41UL21$X:L11$S22US41US21$IEEE1$IW$~IW$USESV6$~STKCKD$USESV7$~SHL$OTIME$ROPI$EBA8$MICROLIB$REQ8$PRES8$EABIv2 0x00000000   Number         0  anon$$obj.o ABSOLUTE
    _printf_a                                0x00000000   Number         0  printfstubs.o ABSOLUTE
    _printf_c                                0x00000000   Number         0  printfstubs.o ABSOLUTE
    _printf_charcount                        0x00000000   Number         0  printfstubs.o ABSOLUTE
    _printf_d                                0x00000000   Number         0  printfstubs.o ABSOLUTE
    _printf_e                                0x00000000   Number         0  printfstubs.o ABSOLUTE
    _printf_f                                0x00000000   Number         0  printfstubs.o ABSOLUTE
    _printf_flags                            0x00000000   Number         0  printfstubs.o ABSOLUTE
    _printf_fp_dec                           0x00000000   Number         0  printfstubs.o ABSOLUTE
    _printf_fp_hex                           0x00000000   Number         0  printfstubs.o ABSOLUTE
    _printf_g                                0x00000000   Number         0  printfstubs.o ABSOLUTE
    _printf_i                                0x00000000   Number         0  printfstubs.o ABSOLUTE
    _printf_int_dec                          0x00000000   Number         0  printfstubs.o ABSOLUTE
    _printf_l                                0x00000000   Number         0  printfstubs.o ABSOLUTE
    _printf_lc                               0x00000000   Number         0  printfstubs.o ABSOLUTE
    _printf_ll                               0x00000000   Number         0  printfstubs.o ABSOLUTE
    _printf_lld                              0x00000000   Number         0  printfstubs.o ABSOLUTE
    _printf_lli                              0x00000000   Number         0  printfstubs.o ABSOLUTE
    _printf_llo                              0x00000000   Number         0  printfstubs.o ABSOLUTE
    _printf_llu                              0x00000000   Number         0  printfstubs.o ABSOLUTE
    _printf_llx                              0x00000000   Number         0  printfstubs.o ABSOLUTE
    _printf_longlong_dec                     0x00000000   Number         0  printfstubs.o ABSOLUTE
    _printf_longlong_hex                     0x00000000   Number         0  printfstubs.o ABSOLUTE
    _printf_longlong_oct                     0x00000000   Number         0  printfstubs.o ABSOLUTE
    _printf_ls                               0x00000000   Number         0  printfstubs.o ABSOLUTE
    _printf_mbtowc                           0x00000000   Number         0  printfstubs.o ABSOLUTE
    _printf_n                                0x00000000   Number         0  printfstubs.o ABSOLUTE
    _printf_o                                0x00000000   Number         0  printfstubs.o ABSOLUTE
    _printf_p                                0x00000000   Number         0  printfstubs.o ABSOLUTE
    _printf_percent                          0x00000000   Number         0  printfstubs.o ABSOLUTE
    _printf_pre_padding                      0x00000000   Number         0  printfstubs.o ABSOLUTE
    _printf_return_value                     0x00000000   Number         0  printfstubs.o ABSOLUTE
    _printf_s                                0x00000000   Number         0  printfstubs.o ABSOLUTE
    _printf_sizespec                         0x00000000   Number         0  printfstubs.o ABSOLUTE
    _printf_str                              0x00000000   Number         0  printfstubs.o ABSOLUTE
    _printf_truncate_signed                  0x00000000   Number         0  printfstubs.o ABSOLUTE
    _printf_truncate_unsigned                0x00000000   Number         0  printfstubs.o ABSOLUTE
    _printf_u                                0x00000000   Number         0  printfstubs.o ABSOLUTE
    _printf_wc                               0x00000000   Number         0  printfstubs.o ABSOLUTE
    _printf_wctomb                           0x00000000   Number         0  printfstubs.o ABSOLUTE
    _printf_widthprec                        0x00000000   Number         0  printfstubs.o ABSOLUTE
    _printf_x                                0x00000000   Number         0  printfstubs.o ABSOLUTE
    __cpp_initialize__aeabi_                  - Undefined Weak Reference
    __cxa_finalize                            - Undefined Weak Reference
    __decompress                              - Undefined Weak Reference
    _clock_init                               - Undefined Weak Reference
    _microlib_exit                            - Undefined Weak Reference
    __Vectors_Size                           0x00000168   Number         0  startup_gd32f1x0.o ABSOLUTE
    __Vectors                                0x08000000   Data           4  startup_gd32f1x0.o(RESET)
    __Vectors_End                            0x08000168   Data           0  startup_gd32f1x0.o(RESET)
    __main                                   0x08000169   Thumb Code     0  entry.o(.ARM.Collect$$$$00000000)
    _main_stk                                0x08000169   Thumb Code     0  entry2.o(.ARM.Collect$$$$00000001)
    _main_scatterload                        0x0800016d   Thumb Code     0  entry5.o(.ARM.Collect$$$$00000004)
    __main_after_scatterload                 0x08000171   Thumb Code     0  entry5.o(.ARM.Collect$$$$00000004)
    _main_clock                              0x08000171   Thumb Code     0  entry7b.o(.ARM.Collect$$$$00000008)
    _main_cpp_init                           0x08000171   Thumb Code     0  entry8b.o(.ARM.Collect$$$$0000000A)
    _main_init                               0x08000171   Thumb Code     0  entry9a.o(.ARM.Collect$$$$0000000B)
    __rt_final_cpp                           0x08000179   Thumb Code     0  entry10a.o(.ARM.Collect$$$$0000000D)
    __rt_final_exit                          0x08000179   Thumb Code     0  entry11a.o(.ARM.Collect$$$$0000000F)
    main                                     0x0800017d   Thumb Code  1724  main.o(.text)
    ShutOff                                  0x08000839   Thumb Code   144  main.o(.text)
    ShowBatteryState                         0x080008c9   Thumb Code   156  main.o(.text)
    modulo                                   0x08000965   Thumb Code    22  bldc.o(.text)
    up_or_down                               0x0800097d   Thumb Code    66  bldc.o(.text)
    SetEnable                                0x080009c1   Thumb Code    12  bldc.o(.text)
    SetBldcInput                             0x080009cd   Thumb Code   128  bldc.o(.text)
    SetFilter                                0x08000a4d   Thumb Code    44  bldc.o(.text)
    CalculateBLDC                            0x08000a79   Thumb Code  1632  bldc.o(.text)
    PID_Init                                 0x080010d9   Thumb Code   124  driver.o(.text)
    PID_Update                               0x08001155   Thumb Code   120  driver.o(.text)
    DriverInit                               0x080011cd   Thumb Code   154  driver.o(.text)
    Driver                                   0x08001269   Thumb Code   174  driver.o(.text)
    InitEXTI                                 0x08001319   Thumb Code    62  bldcsine.o(.text)
    InitBldc                                 0x08001359   Thumb Code   146  bldcsine.o(.text)
    _HandleEXTI                              0x080013ed   Thumb Code   206  bldcsine.o(.text)
    EXTI0_1_IRQHandler                       0x080014bd   Thumb Code     4  bldcsine.o(.text)
    EXTI2_3_IRQHandler                       0x080014c1   Thumb Code     4  bldcsine.o(.text)
    EXTI4_15_IRQHandler                      0x080014c5   Thumb Code     4  bldcsine.o(.text)
    bldc_get_pwm                             0x080014c9   Thumb Code   544  bldcsine.o(.text)
    pinMode                                  0x080016e9   Thumb Code    42  setup.o(.text)
    pinModePull                              0x08001715   Thumb Code    40  setup.o(.text)
    Interrupt_init                           0x0800173d   Thumb Code     8  setup.o(.text)
    Watchdog_init                            0x08001745   Thumb Code    56  setup.o(.text)
    TimeoutTimer_init                        0x0800177d   Thumb Code   112  setup.o(.text)
    GPIO_init                                0x080017ed   Thumb Code   764  setup.o(.text)
    PWM_init                                 0x08001ae9   Thumb Code   388  setup.o(.text)
    ADC_init                                 0x08001c6d   Thumb Code   234  setup.o(.text)
    USART0_Init                              0x08001d59   Thumb Code     2  setup.o(.text)
    USART1_Init                              0x08001d5d   Thumb Code     2  setup.o(.text)
    USART2_Init                              0x08001d61   Thumb Code     2  setup.o(.text)
    flashErase                               0x08001d65   Thumb Code    28  setup.o(.text)
    flashRead                                0x08001d81   Thumb Code     4  setup.o(.text)
    flashWrite                               0x08001d85   Thumb Code    38  setup.o(.text)
    flashWriteBuffer                         0x08001dad   Thumb Code    64  setup.o(.text)
    flashReadBuffer                          0x08001ded   Thumb Code    34  setup.o(.text)
    ConfigReset                              0x08001e11   Thumb Code    38  setup.o(.text)
    ConfigWrite                              0x08001e39   Thumb Code   112  setup.o(.text)
    ConfigRead                               0x08001ea9   Thumb Code   120  setup.o(.text)
    Clock_init                               0x08001f21   Thumb Code    60  setup.o(.text)
    Clock_test                               0x08001f5d   Thumb Code    56  setup.o(.text)
    SysTick_Handler                          0x08001f95   Thumb Code    16  it.o(.text)
    ResetTimeout                             0x08001fa5   Thumb Code    14  it.o(.text)
    TIMER13_IRQHandler                       0x08001fb5   Thumb Code    76  it.o(.text)
    TIMER0_BRK_UP_TRG_COM_IRQHandler         0x08002001   Thumb Code   122  it.o(.text)
    DMA_Channel0_IRQHandler                  0x0800207d   Thumb Code    92  it.o(.text)
    millis                                   0x080020d9   Thumb Code    12  it.o(.text)
    Delay                                    0x080020e5   Thumb Code    28  it.o(.text)
    NMI_Handler                              0x08002101   Thumb Code     2  it.o(.text)
    HardFault_Handler                        0x08002105   Thumb Code     2  it.o(.text)
    MemManage_Handler                        0x08002109   Thumb Code     2  it.o(.text)
    BusFault_Handler                         0x0800210d   Thumb Code     2  it.o(.text)
    UsageFault_Handler                       0x08002111   Thumb Code     2  it.o(.text)
    SVC_Handler                              0x08002115   Thumb Code     2  it.o(.text)
    DebugMon_Handler                         0x08002119   Thumb Code     2  it.o(.text)
    PendSV_Handler                           0x0800211d   Thumb Code     2  it.o(.text)
    parse_message                            0x08002121   Thumb Code   408  remotedummy.o(.text)
    check_rtt_for_message                    0x08002335   Thumb Code    82  remotedummy.o(.text)
    add_cr_before_lf_inplace                 0x08002389   Thumb Code   130  remotedummy.o(.text)
    RemoteUpdate                             0x0800240d   Thumb Code   968  remotedummy.o(.text)
    RemoteCallback                           0x08002851   Thumb Code     2  remotedummy.o(.text)
    RemoteCalculate                          0x08002855   Thumb Code     2  remotedummy.o(.text)
    SEGGER_RTT_ReadUpBufferNoLock            0x08002859   Thumb Code   226  segger_rtt.o(.text)
    SEGGER_RTT_ReadNoLock                    0x0800293d   Thumb Code   226  segger_rtt.o(.text)
    SEGGER_RTT_ReadUpBuffer                  0x08002a21   Thumb Code   240  segger_rtt.o(.text)
    SEGGER_RTT_Read                          0x08002b11   Thumb Code   240  segger_rtt.o(.text)
    SEGGER_RTT_WriteWithOverwriteNoLock      0x08002c01   Thumb Code   164  segger_rtt.o(.text)
    SEGGER_RTT_WriteDownBufferNoLock         0x08002ca5   Thumb Code   288  segger_rtt.o(.text)
    SEGGER_RTT_WriteNoLock                   0x08002dc5   Thumb Code   288  segger_rtt.o(.text)
    SEGGER_RTT_WriteDownBuffer               0x08002ee5   Thumb Code   150  segger_rtt.o(.text)
    SEGGER_RTT_Write                         0x08002f7d   Thumb Code   150  segger_rtt.o(.text)
    SEGGER_RTT_WriteString                   0x08003015   Thumb Code   154  segger_rtt.o(.text)
    SEGGER_RTT_PutCharSkipNoLock             0x080030b1   Thumb Code    60  segger_rtt.o(.text)
    SEGGER_RTT_PutCharSkip                   0x080030ed   Thumb Code   176  segger_rtt.o(.text)
    SEGGER_RTT_PutChar                       0x0800319d   Thumb Code   192  segger_rtt.o(.text)
    SEGGER_RTT_GetKey                        0x0800325d   Thumb Code    34  segger_rtt.o(.text)
    SEGGER_RTT_WaitKey                       0x08003281   Thumb Code    30  segger_rtt.o(.text)
    SEGGER_RTT_HasKey                        0x080032a1   Thumb Code   124  segger_rtt.o(.text)
    SEGGER_RTT_HasData                       0x0800331d   Thumb Code    24  segger_rtt.o(.text)
    SEGGER_RTT_HasDataUp                     0x08003335   Thumb Code    24  segger_rtt.o(.text)
    SEGGER_RTT_AllocDownBuffer               0x0800334d   Thumb Code   208  segger_rtt.o(.text)
    SEGGER_RTT_AllocUpBuffer                 0x0800341d   Thumb Code   208  segger_rtt.o(.text)
    SEGGER_RTT_ConfigUpBuffer                0x080034ed   Thumb Code   196  segger_rtt.o(.text)
    SEGGER_RTT_ConfigDownBuffer              0x080035b1   Thumb Code   196  segger_rtt.o(.text)
    SEGGER_RTT_SetNameUpBuffer               0x08003675   Thumb Code   160  segger_rtt.o(.text)
    SEGGER_RTT_SetNameDownBuffer             0x08003715   Thumb Code   160  segger_rtt.o(.text)
    SEGGER_RTT_SetFlagsUpBuffer              0x080037b5   Thumb Code   160  segger_rtt.o(.text)
    SEGGER_RTT_SetFlagsDownBuffer            0x08003855   Thumb Code   160  segger_rtt.o(.text)
    SEGGER_RTT_Init                          0x080038f5   Thumb Code   106  segger_rtt.o(.text)
    SEGGER_RTT_SetTerminal                   0x08003961   Thumb Code   420  segger_rtt.o(.text)
    SEGGER_RTT_TerminalOut                   0x08003b05   Thumb Code  1186  segger_rtt.o(.text)
    SEGGER_RTT_GetAvailWriteSpace            0x08003fa9   Thumb Code    42  segger_rtt.o(.text)
    SEGGER_RTT_GetBytesInBuffer              0x08003fd5   Thumb Code    38  segger_rtt.o(.text)
    adc_deinit                               0x08003ffd   Thumb Code    22  gd32f1x0_adc.o(.text)
    adc_enable                               0x08004015   Thumb Code    26  gd32f1x0_adc.o(.text)
    adc_disable                              0x08004031   Thumb Code    18  gd32f1x0_adc.o(.text)
    adc_calibration_enable                   0x08004045   Thumb Code    40  gd32f1x0_adc.o(.text)
    adc_dma_mode_enable                      0x0800406d   Thumb Code    18  gd32f1x0_adc.o(.text)
    adc_dma_mode_disable                     0x08004081   Thumb Code    18  gd32f1x0_adc.o(.text)
    adc_tempsensor_vrefint_enable            0x08004095   Thumb Code    18  gd32f1x0_adc.o(.text)
    adc_tempsensor_vrefint_disable           0x080040a9   Thumb Code    18  gd32f1x0_adc.o(.text)
    adc_vbat_enable                          0x080040bd   Thumb Code    18  gd32f1x0_adc.o(.text)
    adc_vbat_disable                         0x080040d1   Thumb Code    18  gd32f1x0_adc.o(.text)
    adc_discontinuous_mode_config            0x080040e5   Thumb Code    68  gd32f1x0_adc.o(.text)
    adc_special_function_config              0x08004129   Thumb Code   100  gd32f1x0_adc.o(.text)
    adc_data_alignment_config                0x0800418d   Thumb Code    26  gd32f1x0_adc.o(.text)
    adc_channel_length_config                0x080041a9   Thumb Code    82  gd32f1x0_adc.o(.text)
    adc_regular_channel_config               0x080041fd   Thumb Code   180  gd32f1x0_adc.o(.text)
    adc_inserted_channel_config              0x080042b1   Thumb Code   114  gd32f1x0_adc.o(.text)
    adc_inserted_channel_offset_config       0x08004325   Thumb Code    32  gd32f1x0_adc.o(.text)
    adc_external_trigger_config              0x08004345   Thumb Code    72  gd32f1x0_adc.o(.text)
    adc_external_trigger_source_config       0x0800438d   Thumb Code    42  gd32f1x0_adc.o(.text)
    adc_software_trigger_enable              0x080043b9   Thumb Code    36  gd32f1x0_adc.o(.text)
    adc_regular_data_read                    0x080043dd   Thumb Code    14  gd32f1x0_adc.o(.text)
    adc_inserted_data_read                   0x080043ed   Thumb Code    74  gd32f1x0_adc.o(.text)
    adc_flag_get                             0x08004439   Thumb Code    18  gd32f1x0_adc.o(.text)
    adc_flag_clear                           0x0800444d   Thumb Code    18  gd32f1x0_adc.o(.text)
    adc_interrupt_flag_get                   0x08004461   Thumb Code    56  gd32f1x0_adc.o(.text)
    adc_interrupt_flag_clear                 0x08004499   Thumb Code    18  gd32f1x0_adc.o(.text)
    adc_interrupt_enable                     0x080044ad   Thumb Code    48  gd32f1x0_adc.o(.text)
    adc_interrupt_disable                    0x080044dd   Thumb Code    48  gd32f1x0_adc.o(.text)
    adc_watchdog_single_channel_enable       0x0800450d   Thumb Code    42  gd32f1x0_adc.o(.text)
    adc_watchdog_group_channel_enable        0x08004539   Thumb Code    48  gd32f1x0_adc.o(.text)
    adc_watchdog_disable                     0x08004575   Thumb Code    24  gd32f1x0_adc.o(.text)
    adc_watchdog_threshold_config            0x0800458d   Thumb Code    22  gd32f1x0_adc.o(.text)
    dma_deinit                               0x080045a5   Thumb Code    48  gd32f1x0_dma.o(.text)
    dma_struct_para_init                     0x080045d5   Thumb Code    24  gd32f1x0_dma.o(.text)
    dma_init                                 0x080045ed   Thumb Code   122  gd32f1x0_dma.o(.text)
    dma_circulation_enable                   0x08004669   Thumb Code    24  gd32f1x0_dma.o(.text)
    dma_circulation_disable                  0x08004681   Thumb Code    24  gd32f1x0_dma.o(.text)
    dma_memory_to_memory_enable              0x08004699   Thumb Code    24  gd32f1x0_dma.o(.text)
    dma_memory_to_memory_disable             0x080046b1   Thumb Code    24  gd32f1x0_dma.o(.text)
    dma_channel_enable                       0x080046c9   Thumb Code    24  gd32f1x0_dma.o(.text)
    dma_channel_disable                      0x080046e1   Thumb Code    24  gd32f1x0_dma.o(.text)
    dma_periph_address_config                0x080046f9   Thumb Code    16  gd32f1x0_dma.o(.text)
    dma_memory_address_config                0x08004709   Thumb Code    16  gd32f1x0_dma.o(.text)
    dma_transfer_number_config               0x08004719   Thumb Code    16  gd32f1x0_dma.o(.text)
    dma_transfer_number_get                  0x08004729   Thumb Code    16  gd32f1x0_dma.o(.text)
    dma_priority_config                      0x08004739   Thumb Code    26  gd32f1x0_dma.o(.text)
    dma_memory_width_config                  0x08004755   Thumb Code    26  gd32f1x0_dma.o(.text)
    dma_periph_width_config                  0x08004771   Thumb Code    26  gd32f1x0_dma.o(.text)
    dma_memory_increase_enable               0x0800478d   Thumb Code    24  gd32f1x0_dma.o(.text)
    dma_memory_increase_disable              0x080047a5   Thumb Code    24  gd32f1x0_dma.o(.text)
    dma_periph_increase_enable               0x080047bd   Thumb Code    24  gd32f1x0_dma.o(.text)
    dma_periph_increase_disable              0x080047d5   Thumb Code    24  gd32f1x0_dma.o(.text)
    dma_transfer_direction_config            0x080047ed   Thumb Code    30  gd32f1x0_dma.o(.text)
    dma_interrupt_flag_get                   0x0800480d   Thumb Code    88  gd32f1x0_dma.o(.text)
    dma_interrupt_flag_clear                 0x080048a5   Thumb Code    20  gd32f1x0_dma.o(.text)
    dma_interrupt_enable                     0x080048b9   Thumb Code    22  gd32f1x0_dma.o(.text)
    dma_interrupt_disable                    0x080048d1   Thumb Code    24  gd32f1x0_dma.o(.text)
    dma_flag_get                             0x080048e9   Thumb Code    22  gd32f1x0_dma.o(.text)
    dma_flag_clear                           0x08004901   Thumb Code    20  gd32f1x0_dma.o(.text)
    exti_deinit                              0x08004915   Thumb Code    26  gd32f1x0_exti.o(.text)
    exti_init                                0x08004931   Thumb Code   156  gd32f1x0_exti.o(.text)
    exti_interrupt_enable                    0x080049cd   Thumb Code    16  gd32f1x0_exti.o(.text)
    exti_event_enable                        0x080049dd   Thumb Code    16  gd32f1x0_exti.o(.text)
    exti_interrupt_disable                   0x080049ed   Thumb Code    18  gd32f1x0_exti.o(.text)
    exti_event_disable                       0x08004a01   Thumb Code    18  gd32f1x0_exti.o(.text)
    exti_flag_get                            0x08004a15   Thumb Code    18  gd32f1x0_exti.o(.text)
    exti_flag_clear                          0x08004a29   Thumb Code    12  gd32f1x0_exti.o(.text)
    exti_interrupt_flag_get                  0x08004a35   Thumb Code    32  gd32f1x0_exti.o(.text)
    exti_interrupt_flag_clear                0x08004a55   Thumb Code    12  gd32f1x0_exti.o(.text)
    exti_software_interrupt_enable           0x08004a61   Thumb Code    16  gd32f1x0_exti.o(.text)
    exti_software_interrupt_disable          0x08004a71   Thumb Code    18  gd32f1x0_exti.o(.text)
    fmc_unlock                               0x08004a85   Thumb Code    38  gd32f1x0_fmc.o(.text)
    fmc_lock                                 0x08004aad   Thumb Code    18  gd32f1x0_fmc.o(.text)
    fmc_wscnt_set                            0x08004ac1   Thumb Code    20  gd32f1x0_fmc.o(.text)
    fmc_wait_state_enable                    0x08004ad5   Thumb Code    18  gd32f1x0_fmc.o(.text)
    fmc_wait_state_disable                   0x08004ae9   Thumb Code    18  gd32f1x0_fmc.o(.text)
    fmc_page_erase                           0x08004afd   Thumb Code   158  gd32f1x0_fmc.o(.text)
    fmc_mass_erase                           0x08004b9d   Thumb Code   150  gd32f1x0_fmc.o(.text)
    fmc_word_program                         0x08004c35   Thumb Code   150  gd32f1x0_fmc.o(.text)
    fmc_halfword_program                     0x08004ccd   Thumb Code   150  gd32f1x0_fmc.o(.text)
    ob_unlock                                0x08004d65   Thumb Code    38  gd32f1x0_fmc.o(.text)
    ob_lock                                  0x08004d8d   Thumb Code    18  gd32f1x0_fmc.o(.text)
    ob_reset                                 0x08004da1   Thumb Code    18  gd32f1x0_fmc.o(.text)
    ob_erase                                 0x08004db5   Thumb Code   294  gd32f1x0_fmc.o(.text)
    ob_obstat_plevel_get                     0x08004edd   Thumb Code    16  gd32f1x0_fmc.o(.text)
    ob_write_protection_enable               0x08004eed   Thumb Code   312  gd32f1x0_fmc.o(.text)
    ob_security_protection_config            0x08005025   Thumb Code   304  gd32f1x0_fmc.o(.text)
    ob_user_write                            0x08005155   Thumb Code   308  gd32f1x0_fmc.o(.text)
    ob_data_program                          0x08005289   Thumb Code   304  gd32f1x0_fmc.o(.text)
    ob_user_get                              0x080053b9   Thumb Code    16  gd32f1x0_fmc.o(.text)
    ob_data_get                              0x080053c9   Thumb Code    14  gd32f1x0_fmc.o(.text)
    ob_write_protection_get                  0x080053d9   Thumb Code    14  gd32f1x0_fmc.o(.text)
    fmc_interrupt_enable                     0x080053e9   Thumb Code    16  gd32f1x0_fmc.o(.text)
    fmc_interrupt_disable                    0x080053f9   Thumb Code    18  gd32f1x0_fmc.o(.text)
    fmc_flag_get                             0x0800540d   Thumb Code    18  gd32f1x0_fmc.o(.text)
    fmc_flag_clear                           0x08005421   Thumb Code    16  gd32f1x0_fmc.o(.text)
    fmc_interrupt_flag_get                   0x08005431   Thumb Code    18  gd32f1x0_fmc.o(.text)
    fmc_interrupt_flag_clear                 0x08005445   Thumb Code    16  gd32f1x0_fmc.o(.text)
    fwdgt_write_disable                      0x08005455   Thumb Code    14  gd32f1x0_fwdgt.o(.text)
    fwdgt_counter_reload                     0x08005465   Thumb Code    16  gd32f1x0_fwdgt.o(.text)
    fwdgt_enable                             0x08005475   Thumb Code    16  gd32f1x0_fwdgt.o(.text)
    fwdgt_window_value_config                0x08005485   Thumb Code    58  gd32f1x0_fwdgt.o(.text)
    fwdgt_config                             0x080054c1   Thumb Code   100  gd32f1x0_fwdgt.o(.text)
    fwdgt_flag_get                           0x08005525   Thumb Code    18  gd32f1x0_fwdgt.o(.text)
    gpio_deinit                              0x08005539   Thumb Code    58  gd32f1x0_gpio.o(.text)
    gpio_mode_set                            0x08005575   Thumb Code    84  gd32f1x0_gpio.o(.text)
    gpio_output_options_set                  0x080055c9   Thumb Code    70  gd32f1x0_gpio.o(.text)
    gpio_bit_set                             0x08005611   Thumb Code     4  gd32f1x0_gpio.o(.text)
    gpio_bit_reset                           0x08005615   Thumb Code     4  gd32f1x0_gpio.o(.text)
    gpio_bit_write                           0x08005619   Thumb Code    12  gd32f1x0_gpio.o(.text)
    gpio_port_write                          0x08005625   Thumb Code     4  gd32f1x0_gpio.o(.text)
    gpio_input_bit_get                       0x08005629   Thumb Code    10  gd32f1x0_gpio.o(.text)
    gpio_input_port_get                      0x08005635   Thumb Code     6  gd32f1x0_gpio.o(.text)
    gpio_output_bit_get                      0x0800563d   Thumb Code    10  gd32f1x0_gpio.o(.text)
    gpio_output_port_get                     0x08005649   Thumb Code     6  gd32f1x0_gpio.o(.text)
    gpio_af_set                              0x08005651   Thumb Code   110  gd32f1x0_gpio.o(.text)
    gpio_pin_lock                            0x080056c1   Thumb Code    16  gd32f1x0_gpio.o(.text)
    nvic_priority_group_set                  0x080056d1   Thumb Code    20  gd32f1x0_misc.o(.text)
    nvic_irq_enable                          0x080056e5   Thumb Code   168  gd32f1x0_misc.o(.text)
    nvic_irq_disable                         0x0800578d   Thumb Code    28  gd32f1x0_misc.o(.text)
    nvic_vector_table_set                    0x080057a9   Thumb Code    24  gd32f1x0_misc.o(.text)
    system_lowpower_set                      0x080057c1   Thumb Code    16  gd32f1x0_misc.o(.text)
    system_lowpower_reset                    0x080057d1   Thumb Code    18  gd32f1x0_misc.o(.text)
    systick_clksource_set                    0x080057e5   Thumb Code    24  gd32f1x0_misc.o(.text)
    rcu_deinit                               0x080057fd   Thumb Code   112  gd32f1x0_rcu.o(.text)
    rcu_periph_clock_enable                  0x0800586d   Thumb Code    30  gd32f1x0_rcu.o(.text)
    rcu_periph_clock_disable                 0x0800588d   Thumb Code    32  gd32f1x0_rcu.o(.text)
    rcu_periph_clock_sleep_enable            0x080058ad   Thumb Code    30  gd32f1x0_rcu.o(.text)
    rcu_periph_clock_sleep_disable           0x080058cd   Thumb Code    32  gd32f1x0_rcu.o(.text)
    rcu_periph_reset_enable                  0x080058ed   Thumb Code    30  gd32f1x0_rcu.o(.text)
    rcu_periph_reset_disable                 0x0800590d   Thumb Code    32  gd32f1x0_rcu.o(.text)
    rcu_bkp_reset_enable                     0x0800592d   Thumb Code    18  gd32f1x0_rcu.o(.text)
    rcu_bkp_reset_disable                    0x08005941   Thumb Code    18  gd32f1x0_rcu.o(.text)
    rcu_system_clock_source_config           0x08005955   Thumb Code    20  gd32f1x0_rcu.o(.text)
    rcu_system_clock_source_get              0x08005969   Thumb Code    16  gd32f1x0_rcu.o(.text)
    rcu_ahb_clock_config                     0x08005979   Thumb Code    20  gd32f1x0_rcu.o(.text)
    rcu_apb1_clock_config                    0x0800598d   Thumb Code    20  gd32f1x0_rcu.o(.text)
    rcu_apb2_clock_config                    0x080059a1   Thumb Code    20  gd32f1x0_rcu.o(.text)
    rcu_adc_clock_config                     0x080059b5   Thumb Code    88  gd32f1x0_rcu.o(.text)
    rcu_usbd_clock_config                    0x08005a0d   Thumb Code    24  gd32f1x0_rcu.o(.text)
    rcu_ckout_config                         0x08005a25   Thumb Code    22  gd32f1x0_rcu.o(.text)
    rcu_pll_config                           0x08005a3d   Thumb Code    40  gd32f1x0_rcu.o(.text)
    rcu_usart_clock_config                   0x08005a65   Thumb Code    24  gd32f1x0_rcu.o(.text)
    rcu_cec_clock_config                     0x08005a7d   Thumb Code    24  gd32f1x0_rcu.o(.text)
    rcu_rtc_clock_config                     0x08005a95   Thumb Code    24  gd32f1x0_rcu.o(.text)
    rcu_hxtal_prediv_config                  0x08005aad   Thumb Code    20  gd32f1x0_rcu.o(.text)
    rcu_lxtal_drive_capability_config        0x08005ac1   Thumb Code    24  gd32f1x0_rcu.o(.text)
    rcu_flag_get                             0x08005ad9   Thumb Code    26  gd32f1x0_rcu.o(.text)
    rcu_all_reset_flag_clear                 0x08005af5   Thumb Code    18  gd32f1x0_rcu.o(.text)
    rcu_interrupt_flag_get                   0x08005b09   Thumb Code    18  gd32f1x0_rcu.o(.text)
    rcu_interrupt_flag_clear                 0x08005b1d   Thumb Code    16  gd32f1x0_rcu.o(.text)
    rcu_interrupt_enable                     0x08005b2d   Thumb Code    16  gd32f1x0_rcu.o(.text)
    rcu_interrupt_disable                    0x08005b3d   Thumb Code    18  gd32f1x0_rcu.o(.text)
    rcu_osci_stab_wait                       0x08005b51   Thumb Code   312  gd32f1x0_rcu.o(.text)
    rcu_osci_on                              0x08005c89   Thumb Code    30  gd32f1x0_rcu.o(.text)
    rcu_osci_off                             0x08005ca9   Thumb Code    32  gd32f1x0_rcu.o(.text)
    rcu_osci_bypass_mode_enable              0x08005cc9   Thumb Code    64  gd32f1x0_rcu.o(.text)
    rcu_osci_bypass_mode_disable             0x08005d09   Thumb Code    64  gd32f1x0_rcu.o(.text)
    rcu_hxtal_clock_monitor_enable           0x08005d49   Thumb Code    18  gd32f1x0_rcu.o(.text)
    rcu_hxtal_clock_monitor_disable          0x08005d5d   Thumb Code    18  gd32f1x0_rcu.o(.text)
    rcu_irc8m_adjust_value_set               0x08005d71   Thumb Code    22  gd32f1x0_rcu.o(.text)
    rcu_irc14m_adjust_value_set              0x08005d89   Thumb Code    22  gd32f1x0_rcu.o(.text)
    rcu_voltage_key_unlock                   0x08005da1   Thumb Code    30  gd32f1x0_rcu.o(.text)
    rcu_deepsleep_voltage_set                0x08005dc1   Thumb Code    24  gd32f1x0_rcu.o(.text)
    rcu_power_down_voltage_set               0x08005dd9   Thumb Code    24  gd32f1x0_rcu.o(.text)
    rcu_clock_freq_get                       0x08005df1   Thumb Code   288  gd32f1x0_rcu.o(.text)
    syscfg_deinit                            0x08005f21   Thumb Code    22  gd32f1x0_syscfg.o(.text)
    syscfg_dma_remap_enable                  0x08005f39   Thumb Code    14  gd32f1x0_syscfg.o(.text)
    syscfg_dma_remap_disable                 0x08005f49   Thumb Code    16  gd32f1x0_syscfg.o(.text)
    syscfg_high_current_enable               0x08005f59   Thumb Code    16  gd32f1x0_syscfg.o(.text)
    syscfg_high_current_disable              0x08005f69   Thumb Code    16  gd32f1x0_syscfg.o(.text)
    syscfg_exti_line_config                  0x08005f79   Thumb Code   124  gd32f1x0_syscfg.o(.text)
    syscfg_lock_config                       0x08005ff5   Thumb Code    14  gd32f1x0_syscfg.o(.text)
    syscfg_flag_get                          0x08006005   Thumb Code    16  gd32f1x0_syscfg.o(.text)
    syscfg_flag_clear                        0x08006015   Thumb Code    14  gd32f1x0_syscfg.o(.text)
    timer_deinit                             0x08006025   Thumb Code   194  gd32f1x0_timer.o(.text)
    timer_struct_para_init                   0x080060e9   Thumb Code    16  gd32f1x0_timer.o(.text)
    timer_init                               0x080060f9   Thumb Code   216  gd32f1x0_timer.o(.text)
    timer_enable                             0x080061d1   Thumb Code    10  gd32f1x0_timer.o(.text)
    timer_disable                            0x080061dd   Thumb Code    10  gd32f1x0_timer.o(.text)
    timer_auto_reload_shadow_enable          0x080061e9   Thumb Code    10  gd32f1x0_timer.o(.text)
    timer_auto_reload_shadow_disable         0x080061f5   Thumb Code    10  gd32f1x0_timer.o(.text)
    timer_update_event_enable                0x08006201   Thumb Code    10  gd32f1x0_timer.o(.text)
    timer_update_event_disable               0x0800620d   Thumb Code    10  gd32f1x0_timer.o(.text)
    timer_counter_alignment                  0x08006219   Thumb Code    16  gd32f1x0_timer.o(.text)
    timer_counter_up_direction               0x08006229   Thumb Code    10  gd32f1x0_timer.o(.text)
    timer_counter_down_direction             0x08006235   Thumb Code    10  gd32f1x0_timer.o(.text)
    timer_prescaler_config                   0x08006241   Thumb Code    18  gd32f1x0_timer.o(.text)
    timer_repetition_value_config            0x08006255   Thumb Code     4  gd32f1x0_timer.o(.text)
    timer_autoreload_value_config            0x08006259   Thumb Code     4  gd32f1x0_timer.o(.text)
    timer_counter_value_config               0x0800625d   Thumb Code     4  gd32f1x0_timer.o(.text)
    timer_counter_read                       0x08006261   Thumb Code     4  gd32f1x0_timer.o(.text)
    timer_prescaler_read                     0x08006265   Thumb Code     6  gd32f1x0_timer.o(.text)
    timer_single_pulse_mode_config           0x0800626d   Thumb Code    30  gd32f1x0_timer.o(.text)
    timer_update_source_config               0x0800628d   Thumb Code    30  gd32f1x0_timer.o(.text)
    timer_ocpre_clear_source_config          0x080062ad   Thumb Code    28  gd32f1x0_timer.o(.text)
    timer_interrupt_enable                   0x080062c9   Thumb Code     8  gd32f1x0_timer.o(.text)
    timer_interrupt_disable                  0x080062d1   Thumb Code    10  gd32f1x0_timer.o(.text)
    timer_interrupt_flag_get                 0x080062dd   Thumb Code    22  gd32f1x0_timer.o(.text)
    timer_interrupt_flag_clear               0x080062f5   Thumb Code     6  gd32f1x0_timer.o(.text)
    timer_flag_get                           0x080062fd   Thumb Code    10  gd32f1x0_timer.o(.text)
    timer_flag_clear                         0x08006309   Thumb Code     6  gd32f1x0_timer.o(.text)
    timer_dma_enable                         0x08006311   Thumb Code     8  gd32f1x0_timer.o(.text)
    timer_dma_disable                        0x08006319   Thumb Code    10  gd32f1x0_timer.o(.text)
    timer_channel_dma_request_source_select  0x08006325   Thumb Code    30  gd32f1x0_timer.o(.text)
    timer_dma_transfer_config                0x08006345   Thumb Code    24  gd32f1x0_timer.o(.text)
    timer_event_software_generate            0x0800635d   Thumb Code     8  gd32f1x0_timer.o(.text)
    timer_break_struct_para_init             0x08006365   Thumb Code    16  gd32f1x0_timer.o(.text)
    timer_break_config                       0x08006375   Thumb Code    36  gd32f1x0_timer.o(.text)
    timer_break_enable                       0x08006399   Thumb Code    10  gd32f1x0_timer.o(.text)
    timer_break_disable                      0x080063a5   Thumb Code    10  gd32f1x0_timer.o(.text)
    timer_automatic_output_enable            0x080063b1   Thumb Code    10  gd32f1x0_timer.o(.text)
    timer_automatic_output_disable           0x080063bd   Thumb Code    10  gd32f1x0_timer.o(.text)
    timer_primary_output_config              0x080063c9   Thumb Code    18  gd32f1x0_timer.o(.text)
    timer_channel_control_shadow_config      0x080063dd   Thumb Code    16  gd32f1x0_timer.o(.text)
    timer_channel_control_shadow_update_config 0x080063ed   Thumb Code    30  gd32f1x0_timer.o(.text)
    timer_channel_output_struct_para_init    0x0800640d   Thumb Code    12  gd32f1x0_timer.o(.text)
    timer_channel_output_config              0x08006419   Thumb Code   562  gd32f1x0_timer.o(.text)
    timer_channel_output_mode_config         0x0800664d   Thumb Code    56  gd32f1x0_timer.o(.text)
    timer_channel_output_pulse_value_config  0x08006685   Thumb Code    16  gd32f1x0_timer.o(.text)
    timer_channel_output_shadow_config       0x08006695   Thumb Code    56  gd32f1x0_timer.o(.text)
    timer_channel_output_fast_config         0x080066cd   Thumb Code    56  gd32f1x0_timer.o(.text)
    timer_channel_output_clear_config        0x08006705   Thumb Code    56  gd32f1x0_timer.o(.text)
    timer_channel_output_polarity_config     0x0800673d   Thumb Code    68  gd32f1x0_timer.o(.text)
    timer_channel_complementary_output_polarity_config 0x08006781   Thumb Code    68  gd32f1x0_timer.o(.text)
    timer_channel_output_state_config        0x080067c5   Thumb Code    68  gd32f1x0_timer.o(.text)
    timer_channel_complementary_output_state_config 0x08006809   Thumb Code    56  gd32f1x0_timer.o(.text)
    timer_channel_input_struct_para_init     0x08006841   Thumb Code    12  gd32f1x0_timer.o(.text)
    timer_input_capture_config               0x0800684d   Thumb Code   350  gd32f1x0_timer.o(.text)
    timer_channel_input_capture_prescaler_config 0x080069ad   Thumb Code    56  gd32f1x0_timer.o(.text)
    timer_channel_capture_value_register_read 0x080069e5   Thumb Code    18  gd32f1x0_timer.o(.text)
    timer_input_pwm_capture_config           0x080069f9   Thumb Code   354  gd32f1x0_timer.o(.text)
    timer_hall_mode_config                   0x08006b5d   Thumb Code    30  gd32f1x0_timer.o(.text)
    timer_input_trigger_source_select        0x08006b7d   Thumb Code    16  gd32f1x0_timer.o(.text)
    timer_master_output_trigger_source_select 0x08006b8d   Thumb Code    16  gd32f1x0_timer.o(.text)
    timer_slave_mode_select                  0x08006b9d   Thumb Code    16  gd32f1x0_timer.o(.text)
    timer_master_slave_mode_config           0x08006bad   Thumb Code    30  gd32f1x0_timer.o(.text)
    timer_external_trigger_config            0x08006bcd   Thumb Code    34  gd32f1x0_timer.o(.text)
    timer_quadrature_decoder_mode_config     0x08006bf1   Thumb Code    78  gd32f1x0_timer.o(.text)
    timer_internal_clock_config              0x08006c41   Thumb Code    10  gd32f1x0_timer.o(.text)
    timer_internal_trigger_as_external_clock_config 0x08006c4d   Thumb Code    32  gd32f1x0_timer.o(.text)
    timer_external_trigger_as_external_clock_config 0x08006c6d   Thumb Code   152  gd32f1x0_timer.o(.text)
    timer_external_clock_mode0_config        0x08006d05   Thumb Code    50  gd32f1x0_timer.o(.text)
    timer_external_clock_mode1_config        0x08006d39   Thumb Code    42  gd32f1x0_timer.o(.text)
    timer_external_clock_mode1_disable       0x08006d65   Thumb Code    10  gd32f1x0_timer.o(.text)
    timer_channel_remap_config               0x08006d71   Thumb Code     4  gd32f1x0_timer.o(.text)
    Reset_Handler                            0x08006d75   Thumb Code     8  startup_gd32f1x0.o(.text)
    ADC_CMP_IRQHandler                       0x08006d8f   Thumb Code     0  startup_gd32f1x0.o(.text)
    CAN0_RX0_IRQHandler                      0x08006d8f   Thumb Code     0  startup_gd32f1x0.o(.text)
    CAN0_RX1_IRQHandler                      0x08006d8f   Thumb Code     0  startup_gd32f1x0.o(.text)
    CAN0_SCE_IRQHandler                      0x08006d8f   Thumb Code     0  startup_gd32f1x0.o(.text)
    CAN0_TX_IRQHandler                       0x08006d8f   Thumb Code     0  startup_gd32f1x0.o(.text)
    CAN1_RX0_IRQHandler                      0x08006d8f   Thumb Code     0  startup_gd32f1x0.o(.text)
    CAN1_RX1_IRQHandler                      0x08006d8f   Thumb Code     0  startup_gd32f1x0.o(.text)
    CAN1_SCE_IRQHandler                      0x08006d8f   Thumb Code     0  startup_gd32f1x0.o(.text)
    CAN1_TX_IRQHandler                       0x08006d8f   Thumb Code     0  startup_gd32f1x0.o(.text)
    CEC_IRQHandler                           0x08006d8f   Thumb Code     0  startup_gd32f1x0.o(.text)
    DMA_Channel1_2_IRQHandler                0x08006d8f   Thumb Code     0  startup_gd32f1x0.o(.text)
    DMA_Channel3_4_IRQHandler                0x08006d8f   Thumb Code     0  startup_gd32f1x0.o(.text)
    DMA_Channel5_6_IRQHandler                0x08006d8f   Thumb Code     0  startup_gd32f1x0.o(.text)
    FMC_IRQHandler                           0x08006d8f   Thumb Code     0  startup_gd32f1x0.o(.text)
    I2C0_ER_IRQHandler                       0x08006d8f   Thumb Code     0  startup_gd32f1x0.o(.text)
    I2C0_EV_IRQHandler                       0x08006d8f   Thumb Code     0  startup_gd32f1x0.o(.text)
    I2C1_ER_IRQHandler                       0x08006d8f   Thumb Code     0  startup_gd32f1x0.o(.text)
    I2C1_EV_IRQHandler                       0x08006d8f   Thumb Code     0  startup_gd32f1x0.o(.text)
    I2C2_ER_IRQHandler                       0x08006d8f   Thumb Code     0  startup_gd32f1x0.o(.text)
    I2C2_EV_IRQHandler                       0x08006d8f   Thumb Code     0  startup_gd32f1x0.o(.text)
    LVD_IRQHandler                           0x08006d8f   Thumb Code     0  startup_gd32f1x0.o(.text)
    RCU_IRQHandler                           0x08006d8f   Thumb Code     0  startup_gd32f1x0.o(.text)
    RTC_IRQHandler                           0x08006d8f   Thumb Code     0  startup_gd32f1x0.o(.text)
    SLCD_IRQHandler                          0x08006d8f   Thumb Code     0  startup_gd32f1x0.o(.text)
    SPI0_IRQHandler                          0x08006d8f   Thumb Code     0  startup_gd32f1x0.o(.text)
    SPI1_IRQHandler                          0x08006d8f   Thumb Code     0  startup_gd32f1x0.o(.text)
    SPI2_IRQHandler                          0x08006d8f   Thumb Code     0  startup_gd32f1x0.o(.text)
    TIMER0_Channel_IRQHandler                0x08006d8f   Thumb Code     0  startup_gd32f1x0.o(.text)
    TIMER14_IRQHandler                       0x08006d8f   Thumb Code     0  startup_gd32f1x0.o(.text)
    TIMER15_IRQHandler                       0x08006d8f   Thumb Code     0  startup_gd32f1x0.o(.text)
    TIMER16_IRQHandler                       0x08006d8f   Thumb Code     0  startup_gd32f1x0.o(.text)
    TIMER1_IRQHandler                        0x08006d8f   Thumb Code     0  startup_gd32f1x0.o(.text)
    TIMER2_IRQHandler                        0x08006d8f   Thumb Code     0  startup_gd32f1x0.o(.text)
    TIMER5_DAC_IRQHandler                    0x08006d8f   Thumb Code     0  startup_gd32f1x0.o(.text)
    TSI_IRQHandler                           0x08006d8f   Thumb Code     0  startup_gd32f1x0.o(.text)
    USART0_IRQHandler                        0x08006d8f   Thumb Code     0  startup_gd32f1x0.o(.text)
    USART1_IRQHandler                        0x08006d8f   Thumb Code     0  startup_gd32f1x0.o(.text)
    USBDWakeUp_IRQHandler                    0x08006d8f   Thumb Code     0  startup_gd32f1x0.o(.text)
    USBD_HP_IRQHandler                       0x08006d8f   Thumb Code     0  startup_gd32f1x0.o(.text)
    USBD_LP_IRQHandler                       0x08006d8f   Thumb Code     0  startup_gd32f1x0.o(.text)
    WWDGT_IRQHandler                         0x08006d8f   Thumb Code     0  startup_gd32f1x0.o(.text)
    SystemInit                               0x08006d99   Thumb Code   188  system_gd32f1x0.o(.text)
    SystemCoreClockUpdate                    0x08006e55   Thumb Code   112  system_gd32f1x0.o(.text)
    __aeabi_memcpy                           0x08006ed5   Thumb Code    36  memcpya.o(.text)
    __aeabi_memcpy4                          0x08006ed5   Thumb Code     0  memcpya.o(.text)
    __aeabi_memcpy8                          0x08006ed5   Thumb Code     0  memcpya.o(.text)
    __aeabi_memset                           0x08006ef9   Thumb Code    14  memseta.o(.text)
    __aeabi_memset4                          0x08006ef9   Thumb Code     0  memseta.o(.text)
    __aeabi_memset8                          0x08006ef9   Thumb Code     0  memseta.o(.text)
    __aeabi_memclr                           0x08006f07   Thumb Code     4  memseta.o(.text)
    __aeabi_memclr4                          0x08006f07   Thumb Code     0  memseta.o(.text)
    __aeabi_memclr8                          0x08006f07   Thumb Code     0  memseta.o(.text)
    _memset$wrapper                          0x08006f0b   Thumb Code    18  memseta.o(.text)
    strlen                                   0x08006f1d   Thumb Code    14  strlen.o(.text)
    strcmp                                   0x08006f2b   Thumb Code    28  strcmp.o(.text)
    memcmp                                   0x08006f47   Thumb Code    26  memcmp.o(.text)
    sscanf                                   0x08006f61   Thumb Code    48  sscanf.o(.text)
    __aeabi_fadd                             0x08006f99   Thumb Code   164  fadd.o(.text)
    __aeabi_fsub                             0x0800703d   Thumb Code     6  fadd.o(.text)
    __aeabi_frsub                            0x08007043   Thumb Code     6  fadd.o(.text)
    __aeabi_fmul                             0x08007049   Thumb Code   100  fmul.o(.text)
    __aeabi_fdiv                             0x080070ad   Thumb Code   124  fdiv.o(.text)
    __aeabi_dadd                             0x08007129   Thumb Code   322  dadd.o(.text)
    __aeabi_dsub                             0x0800726b   Thumb Code     6  dadd.o(.text)
    __aeabi_drsub                            0x08007271   Thumb Code     6  dadd.o(.text)
    __aeabi_dmul                             0x08007277   Thumb Code   228  dmul.o(.text)
    __aeabi_ddiv                             0x0800735b   Thumb Code   222  ddiv.o(.text)
    __aeabi_fcmple                           0x08007439   Thumb Code    28  fcmple.o(.text)
    __aeabi_fcmplt                           0x08007455   Thumb Code    28  fcmplt.o(.text)
    __aeabi_fcmpgt                           0x08007471   Thumb Code    28  fcmpgt.o(.text)
    __aeabi_i2f                              0x0800748d   Thumb Code    18  fflti.o(.text)
    __aeabi_ui2f                             0x0800749f   Thumb Code    10  ffltui.o(.text)
    __aeabi_i2d                              0x080074a9   Thumb Code    34  dflti.o(.text)
    __aeabi_ui2d                             0x080074cb   Thumb Code    26  dfltui.o(.text)
    __aeabi_f2iz                             0x080074e5   Thumb Code    50  ffixi.o(.text)
    __aeabi_f2lz                             0x08007517   Thumb Code    66  ffixl.o(.text)
    __aeabi_d2iz                             0x08007559   Thumb Code    62  dfixi.o(.text)
    __aeabi_f2d                              0x08007597   Thumb Code    38  f2d.o(.text)
    __aeabi_d2f                              0x080075bd   Thumb Code    56  d2f.o(.text)
    __aeabi_uidiv                            0x080075f5   Thumb Code     0  uidiv.o(.text)
    __aeabi_uidivmod                         0x080075f5   Thumb Code    44  uidiv.o(.text)
    __aeabi_uldivmod                         0x08007621   Thumb Code    98  uldiv.o(.text)
    __aeabi_llsl                             0x08007683   Thumb Code    30  llshl.o(.text)
    _ll_shift_l                              0x08007683   Thumb Code     0  llshl.o(.text)
    __aeabi_llsr                             0x080076a1   Thumb Code    32  llushr.o(.text)
    _ll_ushift_r                             0x080076a1   Thumb Code     0  llushr.o(.text)
    __aeabi_lasr                             0x080076c1   Thumb Code    36  llsshr.o(.text)
    _ll_sshift_r                             0x080076c1   Thumb Code     0  llsshr.o(.text)
    _scanf_longlong                          0x080076e5   Thumb Code   342  _scanf_longlong.o(.text)
    _scanf_int                               0x0800783b   Thumb Code   332  _scanf_int.o(.text)
    _scanf_string                            0x08007987   Thumb Code   224  _scanf_str.o(.text)
    _scanf_real                              0x08007b91   Thumb Code     0  scanf_fp.o(.text)
    _scanf_really_real                       0x08007b91   Thumb Code   556  scanf_fp.o(.text)
    __vfscanf_char                           0x08007dd5   Thumb Code    20  scanf_char.o(.text)
    _sgetc                                   0x08007df1   Thumb Code    30  _sgetc.o(.text)
    _sbackspace                              0x08007e0f   Thumb Code    34  _sgetc.o(.text)
    __I$use$fp                               0x08007e31   Thumb Code     0  iusefp.o(.text)
    _float_round                             0x08007e31   Thumb Code    18  fepilogue.o(.text)
    _float_epilogue                          0x08007e43   Thumb Code    92  fepilogue.o(.text)
    _double_round                            0x08007e9f   Thumb Code    30  depilogue.o(.text)
    _double_epilogue                         0x08007ebd   Thumb Code   156  depilogue.o(.text)
    __aeabi_d2ulz                            0x08007f59   Thumb Code    48  dfixul.o(.text)
    __aeabi_cdrcmple                         0x08007f89   Thumb Code    48  cdrcmple.o(.text)
    __scatterload                            0x08007fb9   Thumb Code    38  init.o(.text)
    __scatterload_rt2                        0x08007fb9   Thumb Code     0  init.o(.text)
    isspace                                  0x08007fe9   Thumb Code    10  isspace_c.o(.text)
    _chval                                   0x08007ff3   Thumb Code    28  _chval.o(.text)
    __vfscanf                                0x08008011   Thumb Code   808  _scanf.o(.text)
    __aeabi_ul2d                             0x0800833d   Thumb Code    24  dfltul.o(.text)
    __ctype_lookup                           0x08008355   Thumb Code    34  ctype_c.o(.text)
    __0sprintf                               0x0800837d   Thumb Code    34  printfa.o(i.__0sprintf)
    __1sprintf                               0x0800837d   Thumb Code     0  printfa.o(i.__0sprintf)
    __2sprintf                               0x0800837d   Thumb Code     0  printfa.o(i.__0sprintf)
    __c89sprintf                             0x0800837d   Thumb Code     0  printfa.o(i.__0sprintf)
    sprintf                                  0x0800837d   Thumb Code     0  printfa.o(i.__0sprintf)
    __scatterload_copy                       0x080083a5   Thumb Code    14  handlers.o(i.__scatterload_copy)
    __scatterload_null                       0x080083b3   Thumb Code     2  handlers.o(i.__scatterload_null)
    __scatterload_zeroinit                   0x080083b5   Thumb Code    14  handlers.o(i.__scatterload_zeroinit)
    _is_digit                                0x08008549   Thumb Code    14  scanf_fp.o(i._is_digit)
    __ctype_categories                       0x08008c90   Data          64  ctype_c.o(.constdata)
    hall_to_pos                              0x08008d19   Data           8  bldc.o(.rodata.hall_to_pos)
    lookUpTableAngle                         0x08008d24   Data         724  main.o(.rodata.lookUpTableAngle)
    Region$$Table$$Base                      0x080092d4   Number         0  anon$$obj.o(Region$$Table)
    Region$$Table$$Limit                     0x080092f4   Number         0  anon$$obj.o(Region$$Table)
    SystemCoreClock                          0x20000000   Data           4  system_gd32f1x0.o(.data.SystemCoreClock)
    aoPIDInit                                0x20000004   Data          60  driver.o(.data.aoPIDInit)
    bRemoteInit                              0x20000040   Data           1  remotedummy.o(.data.bRemoteInit)
    batteryVoltage                           0x20000044   Data           4  bldc.o(.data.batteryVoltage)
    beepsBackwards                           0x20000048   Data           1  main.o(.data.beepsBackwards)
    currentDC                                0x2000004c   Data           4  bldc.o(.data.currentDC)
    fRemoteScaleMax                          0x20000050   Data           4  remotedummy.o(.data.fRemoteScaleMax)
    iFILTER_SHIFT                            0x20000054   Data           1  bldc.o(.data.iFILTER_SHIFT)
    iOldRemotePeriod                         0x20000055   Data           1  remotedummy.o(.data.iOldRemotePeriod)
    iRemotePeriod                            0x20000056   Data           1  remotedummy.o(.data.iRemotePeriod)
    offsetdc                                 0x20000058   Data           2  bldc.o(.data.offsetdc)
    revs32Scale                              0x2000005c   Data           4  bldc.o(.data.revs32Scale)
    revs32ScaleSlow                          0x20000060   Data           4  bldc.o(.data.revs32ScaleSlow)
    speedLimit                               0x20000064   Data           2  main.o(.data.speedLimit)
    wState                                   0x20000066   Data           1  main.o(.data.wState)
    _SEGGER_RTT                              0x2000006c   Data         168  segger_rtt.o(.bss._SEGGER_RTT)
    aHallEXTI                                0x20000524   Data          12  bldcsine.o(.bss.aHallEXTI)
    adc_buffer                               0x20000530   Data           4  bldc.o(.bss.adc_buffer)
    angle_deg                                0x20000534   Data           2  bldcsine.o(.bss.angle_deg)
    angle_deg_add                            0x20000536   Data           2  bldcsine.o(.bss.angle_deg_add)
    angle_deg_final                          0x20000538   Data           2  bldcsine.o(.bss.angle_deg_final)
    angle_idx                                0x2000053a   Data           2  bldcsine.o(.bss.angle_idx)
    aoPIDInitOld                             0x2000053c   Data          60  remotedummy.o(.bss.aoPIDInitOld)
    bInterrupt                               0x20000578   Data           1  bldcsine.o(.bss.bInterrupt)
    bPilotTimeout                            0x20000579   Data           1  main.o(.bss.bPilotTimeout)
    bRemoteTimeout                           0x2000057a   Data           1  main.o(.bss.bRemoteTimeout)
    bldc_enable                              0x2000057b   Data           1  bldc.o(.bss.bldc_enable)
    bldc_inputFilterPwm                      0x2000057c   Data           4  bldc.o(.bss.bldc_inputFilterPwm)
    bldc_outputFilterPwm                     0x20000580   Data           4  bldc.o(.bss.bldc_outputFilterPwm)
    buzzerFreq                               0x20000588   Data           1  bldc.o(.bss.buzzerFreq)
    buzzerPattern                            0x20000589   Data           1  bldc.o(.bss.buzzerPattern)
    buzzerTimer                              0x2000058a   Data           2  bldc.o(.bss.buzzerTimer)
    buzzerToggle                             0x2000058c   Data           1  bldc.o(.bss.buzzerToggle)
    dev_id                                   0x20000590   Data           4  setup.o(.bss.dev_id)
    dma_init_struct_adc                      0x20000594   Data          36  setup.o(.bss.dma_init_struct_adc)
    enable                                   0x200005b8   Data           1  main.o(.bss.enable)
    filter_reg                               0x200005bc   Data           4  bldc.o(.bss.filter_reg)
    hall                                     0x200005c0   Data           1  bldc.o(.bss.hall)
    hall_a                                   0x200005c1   Data           1  bldc.o(.bss.hall_a)
    hall_b                                   0x200005c2   Data           1  bldc.o(.bss.hall_b)
    hall_c                                   0x200005c3   Data           1  bldc.o(.bss.hall_c)
    hall_last                                0x200005c4   Data           1  bldcsine.o(.bss.hall_last)
    hall_time_last                           0x200005c6   Data           2  bldcsine.o(.bss.hall_time_last)
    hall_time_step                           0x200005c8   Data           2  bldcsine.o(.bss.hall_time_step)
    hall_time_step_LP                        0x200005cc   Data           4  bldcsine.o(.bss.hall_time_step_LP)
    hall_time_step_LPR                       0x200005d0   Data           4  bldcsine.o(.bss.hall_time_step_LPR)
    iAdcCounter                              0x200005d4   Data           4  it.o(.bss.iAdcCounter)
    iAdcRate                                 0x200005d8   Data           4  it.o(.bss.iAdcRate)
    iAdcTime                                 0x200005dc   Data           4  it.o(.bss.iAdcTime)
    iAdd                                     0x200005e0   Data           2  bldcsine.o(.bss.iAdd)
    iBldcInput                               0x200005e4   Data           4  bldc.o(.bss.iBldcInput)
    iBug                                     0x200005e8   Data           4  main.o(.bss.iBug)
    iBuzzCounter                             0x200005ec   Data           4  bldc.o(.bss.iBuzzCounter)
    iBuzzRate                                0x200005f0   Data           4  bldc.o(.bss.iBuzzRate)
    iBuzzTime                                0x200005f4   Data           4  bldc.o(.bss.iBuzzTime)
    iCounterLog                              0x200005f8   Data           2  remotedummy.o(.bss.iCounterLog)
    iDT                                      0x200005fa   Data           2  bldcsine.o(.bss.iDT)
    iDrivingMode                             0x200005fc   Data           1  main.o(.bss.iDrivingMode)
    iDrivingModeOverride                     0x200005fd   Data           1  bldc.o(.bss.iDrivingModeOverride)
    iOdom                                    0x20000600   Data           4  bldc.o(.bss.iOdom)
    iOdomLast                                0x20000604   Data           4  bldc.o(.bss.iOdomLast)
    iOldDrivingMode                          0x20000608   Data           1  remotedummy.o(.bss.iOldDrivingMode)
    iPwmCounter                              0x2000060c   Data           4  it.o(.bss.iPwmCounter)
    iPwmRate                                 0x20000610   Data           4  it.o(.bss.iPwmRate)
    iPwmTime                                 0x20000614   Data           4  it.o(.bss.iPwmTime)
    iRemoteMax                               0x20000618   Data           4  remotedummy.o(.bss.iRemoteMax)
    iTestClock                               0x2000061c   Data           4  setup.o(.bss.iTestClock)
    iTimeNextLog                             0x20000620   Data           4  remotedummy.o(.bss.iTimeNextLog)
    iTimeNextLoop                            0x20000624   Data           4  main.o(.bss.iTimeNextLoop)
    inactivity_timeout_counter               0x20000628   Data           4  main.o(.bss.inactivity_timeout_counter)
    lastPos                                  0x2000062c   Data           1  bldc.o(.bss.lastPos)
    msTicks                                  0x20000670   Data           4  it.o(.bss.msTicks)
    msTicksInit                              0x20000674   Data           4  remotedummy.o(.bss.msTicksInit)
    oConfig                                  0x20000678   Data          20  setup.o(.bss.oConfig)
    offsetcount                              0x2000068c   Data           2  bldc.o(.bss.offsetcount)
    pid                                      0x20000690   Data          40  driver.o(.bss.pid)
    pll_mul                                  0x200006b8   Data           4  setup.o(.bss.pll_mul)
    pos                                      0x200006bc   Data           1  bldc.o(.bss.pos)
    pwmGo                                    0x200006c0   Data           4  bldcsine.o(.bss.pwmGo)
    pwmSlave                                 0x200006c4   Data           2  main.o(.bss.pwmSlave)
    realSpeed                                0x200006c8   Data           4  bldc.o(.bss.realSpeed)
    revs32                                   0x200006cc   Data           4  bldc.o(.bss.revs32)
    revs32_reg                               0x200006d0   Data           4  bldc.o(.bss.revs32_reg)
    revs32x                                  0x200006d4   Data           4  bldc.o(.bss.revs32x)
    sMessage                                 0x200006d8   Data         512  remotedummy.o(.bss.sMessage)
    sector                                   0x200008d8   Data           1  bldcsine.o(.bss.sector)
    sector10x                                0x200008d9   Data           1  bldcsine.o(.bss.sector10x)
    sectorChange                             0x200008da   Data           1  bldcsine.o(.bss.sectorChange)
    speed                                    0x200008dc   Data           4  main.o(.bss.speed)
    speedCounter                             0x200008e0   Data           4  bldc.o(.bss.speedCounter)
    speedCounterLog                          0x200008e4   Data           4  bldc.o(.bss.speedCounterLog)
    speedCounterSlow                         0x200008e8   Data           4  bldc.o(.bss.speedCounterSlow)
    speedCounterSlowLog                      0x200008ec   Data           4  bldc.o(.bss.speedCounterSlowLog)
    speedShutoff                             0x200008f0   Data           4  main.o(.bss.speedShutoff)
    steer                                    0x200008f4   Data           4  main.o(.bss.steer)
    steerCounter                             0x200008f8   Data           4  main.o(.bss.steerCounter)
    timedOut                                 0x200008fc   Data           1  it.o(.bss.timedOut)
    timeoutCounter_ms                        0x20000900   Data           4  it.o(.bss.timeoutCounter_ms)
    timeoutTimer_paramter_struct             0x20000904   Data          16  setup.o(.bss.timeoutTimer_paramter_struct)
    timerBldc_break_parameter_struct         0x20000914   Data          24  setup.o(.bss.timerBldc_break_parameter_struct)
    timerBldc_oc_parameter_struct            0x2000092c   Data          16  setup.o(.bss.timerBldc_oc_parameter_struct)
    timerBldc_paramter_struct                0x2000093c   Data          16  setup.o(.bss.timerBldc_paramter_struct)
    torque32                                 0x2000094c   Data           4  bldc.o(.bss.torque32)
    torque32_reg                             0x20000950   Data           4  bldc.o(.bss.torque32_reg)
    __initial_sp                             0x20000d58   Data           0  startup_gd32f1x0.o(STACK)



==============================================================================

Memory Map of the image

  Image Entry point : 0x08000169

  Load Region LR_IROM1 (Base: 0x08000000, Size: 0x00009360, Max: 0x00010000, ABSOLUTE)

    Execution Region ER_IROM1 (Exec base: 0x08000000, Load base: 0x08000000, Size: 0x000092f4, Max: 0x00010000, ABSOLUTE)

    Exec Addr    Load Addr    Size         Type   Attr      Idx    E Section Name        Object

    0x08000000   0x08000000   0x00000168   Data   RO          375    RESET               startup_gd32f1x0.o
    0x08000168   0x08000168   0x00000000   Code   RO          392  * .ARM.Collect$$$$00000000  mc_w.l(entry.o)
    0x08000168   0x08000168   0x00000004   Code   RO          706    .ARM.Collect$$$$00000001  mc_w.l(entry2.o)
    0x0800016c   0x0800016c   0x00000004   Code   RO          709    .ARM.Collect$$$$00000004  mc_w.l(entry5.o)
    0x08000170   0x08000170   0x00000000   Code   RO          711    .ARM.Collect$$$$00000008  mc_w.l(entry7b.o)
    0x08000170   0x08000170   0x00000000   Code   RO          713    .ARM.Collect$$$$0000000A  mc_w.l(entry8b.o)
    0x08000170   0x08000170   0x00000008   Code   RO          714    .ARM.Collect$$$$0000000B  mc_w.l(entry9a.o)
    0x08000178   0x08000178   0x00000000   Code   RO          716    .ARM.Collect$$$$0000000D  mc_w.l(entry10a.o)
    0x08000178   0x08000178   0x00000000   Code   RO          718    .ARM.Collect$$$$0000000F  mc_w.l(entry11a.o)
    0x08000178   0x08000178   0x00000004   Code   RO          707    .ARM.Collect$$$$00002712  mc_w.l(entry2.o)
    0x0800017c   0x0800017c   0x000007e8   Code   RO            1    .text               main.o
    0x08000964   0x08000964   0x00000774   Code   RO           31    .text               bldc.o
    0x080010d8   0x080010d8   0x0000023e   Code   RO           82    .text               driver.o
    0x08001316   0x08001316   0x00000002   PAD
    0x08001318   0x08001318   0x000003d0   Code   RO           93    .text               bldcsine.o
    0x080016e8   0x080016e8   0x000008ac   Code   RO          123    .text               setup.o
    0x08001f94   0x08001f94   0x0000018a   Code   RO          145    .text               it.o
    0x0800211e   0x0800211e   0x00000002   PAD
    0x08002120   0x08002120   0x00000736   Code   RO          184    .text               remotedummy.o
    0x08002856   0x08002856   0x00000002   PAD
    0x08002858   0x08002858   0x000017a2   Code   RO          227    .text               segger_rtt.o
    0x08003ffa   0x08003ffa   0x00000002   PAD
    0x08003ffc   0x08003ffc   0x000005a6   Code   RO          244    .text               gd32f1x0_adc.o
    0x080045a2   0x080045a2   0x00000002   PAD
    0x080045a4   0x080045a4   0x00000370   Code   RO          260    .text               gd32f1x0_dma.o
    0x08004914   0x08004914   0x0000016e   Code   RO          268    .text               gd32f1x0_exti.o
    0x08004a82   0x08004a82   0x00000002   PAD
    0x08004a84   0x08004a84   0x000009d0   Code   RO          276    .text               gd32f1x0_fmc.o
    0x08005454   0x08005454   0x000000e2   Code   RO          285    .text               gd32f1x0_fwdgt.o
    0x08005536   0x08005536   0x00000002   PAD
    0x08005538   0x08005538   0x00000198   Code   RO          293    .text               gd32f1x0_gpio.o
    0x080056d0   0x080056d0   0x0000012c   Code   RO          310    .text               gd32f1x0_misc.o
    0x080057fc   0x080057fc   0x00000724   Code   RO          331    .text               gd32f1x0_rcu.o
    0x08005f20   0x08005f20   0x00000102   Code   RO          340    .text               gd32f1x0_syscfg.o
    0x08006022   0x08006022   0x00000002   PAD
    0x08006024   0x08006024   0x00000d50   Code   RO          348    .text               gd32f1x0_timer.o
    0x08006d74   0x08006d74   0x00000024   Code   RO          376    .text               startup_gd32f1x0.o
    0x08006d98   0x08006d98   0x0000013c   Code   RO          382    .text               system_gd32f1x0.o
    0x08006ed4   0x08006ed4   0x00000024   Code   RO          395    .text               mc_w.l(memcpya.o)
    0x08006ef8   0x08006ef8   0x00000024   Code   RO          397    .text               mc_w.l(memseta.o)
    0x08006f1c   0x08006f1c   0x0000000e   Code   RO          399    .text               mc_w.l(strlen.o)
    0x08006f2a   0x08006f2a   0x0000001c   Code   RO          401    .text               mc_w.l(strcmp.o)
    0x08006f46   0x08006f46   0x0000001a   Code   RO          403    .text               mc_w.l(memcmp.o)
    0x08006f60   0x08006f60   0x00000038   Code   RO          668    .text               mc_w.l(sscanf.o)
    0x08006f98   0x08006f98   0x000000b0   Code   RO          670    .text               mf_w.l(fadd.o)
    0x08007048   0x08007048   0x00000064   Code   RO          672    .text               mf_w.l(fmul.o)
    0x080070ac   0x080070ac   0x0000007c   Code   RO          674    .text               mf_w.l(fdiv.o)
    0x08007128   0x08007128   0x0000014e   Code   RO          676    .text               mf_w.l(dadd.o)
    0x08007276   0x08007276   0x000000e4   Code   RO          678    .text               mf_w.l(dmul.o)
    0x0800735a   0x0800735a   0x000000de   Code   RO          680    .text               mf_w.l(ddiv.o)
    0x08007438   0x08007438   0x0000001c   Code   RO          682    .text               mf_w.l(fcmple.o)
    0x08007454   0x08007454   0x0000001c   Code   RO          684    .text               mf_w.l(fcmplt.o)
    0x08007470   0x08007470   0x0000001c   Code   RO          686    .text               mf_w.l(fcmpgt.o)
    0x0800748c   0x0800748c   0x00000012   Code   RO          688    .text               mf_w.l(fflti.o)
    0x0800749e   0x0800749e   0x0000000a   Code   RO          690    .text               mf_w.l(ffltui.o)
    0x080074a8   0x080074a8   0x00000022   Code   RO          692    .text               mf_w.l(dflti.o)
    0x080074ca   0x080074ca   0x0000001a   Code   RO          694    .text               mf_w.l(dfltui.o)
    0x080074e4   0x080074e4   0x00000032   Code   RO          696    .text               mf_w.l(ffixi.o)
    0x08007516   0x08007516   0x00000042   Code   RO          698    .text               mf_w.l(ffixl.o)
    0x08007558   0x08007558   0x0000003e   Code   RO          700    .text               mf_w.l(dfixi.o)
    0x08007596   0x08007596   0x00000026   Code   RO          702    .text               mf_w.l(f2d.o)
    0x080075bc   0x080075bc   0x00000038   Code   RO          704    .text               mf_w.l(d2f.o)
    0x080075f4   0x080075f4   0x0000002c   Code   RO          734    .text               mc_w.l(uidiv.o)
    0x08007620   0x08007620   0x00000062   Code   RO          736    .text               mc_w.l(uldiv.o)
    0x08007682   0x08007682   0x0000001e   Code   RO          738    .text               mc_w.l(llshl.o)
    0x080076a0   0x080076a0   0x00000020   Code   RO          740    .text               mc_w.l(llushr.o)
    0x080076c0   0x080076c0   0x00000024   Code   RO          742    .text               mc_w.l(llsshr.o)
    0x080076e4   0x080076e4   0x00000156   Code   RO          744    .text               mc_w.l(_scanf_longlong.o)
    0x0800783a   0x0800783a   0x0000014c   Code   RO          746    .text               mc_w.l(_scanf_int.o)
    0x08007986   0x08007986   0x000000e0   Code   RO          748    .text               mc_w.l(_scanf_str.o)
    0x08007a66   0x08007a66   0x00000002   PAD
    0x08007a68   0x08007a68   0x00000360   Code   RO          750    .text               mc_w.l(scanf_fp.o)
    0x08007dc8   0x08007dc8   0x00000028   Code   RO          754    .text               mc_w.l(scanf_char.o)
    0x08007df0   0x08007df0   0x00000040   Code   RO          756    .text               mc_w.l(_sgetc.o)
    0x08007e30   0x08007e30   0x00000000   Code   RO          758    .text               mc_w.l(iusefp.o)
    0x08007e30   0x08007e30   0x0000006e   Code   RO          759    .text               mf_w.l(fepilogue.o)
    0x08007e9e   0x08007e9e   0x000000ba   Code   RO          761    .text               mf_w.l(depilogue.o)
    0x08007f58   0x08007f58   0x00000030   Code   RO          763    .text               mf_w.l(dfixul.o)
    0x08007f88   0x08007f88   0x00000030   Code   RO          765    .text               mf_w.l(cdrcmple.o)
    0x08007fb8   0x08007fb8   0x00000030   Code   RO          767    .text               mc_w.l(init.o)
    0x08007fe8   0x08007fe8   0x0000000a   Code   RO          770    .text               mc_w.l(isspace_c.o)
    0x08007ff2   0x08007ff2   0x0000001c   Code   RO          772    .text               mc_w.l(_chval.o)
    0x0800800e   0x0800800e   0x00000002   PAD
    0x08008010   0x08008010   0x0000032c   Code   RO          774    .text               mc_w.l(_scanf.o)
    0x0800833c   0x0800833c   0x00000018   Code   RO          777    .text               mf_w.l(dfltul.o)
    0x08008354   0x08008354   0x00000028   Code   RO          779    .text               mc_w.l(ctype_c.o)
    0x0800837c   0x0800837c   0x00000028   Code   RO          642    i.__0sprintf        mc_w.l(printfa.o)
    0x080083a4   0x080083a4   0x0000000e   Code   RO          784    i.__scatterload_copy  mc_w.l(handlers.o)
    0x080083b2   0x080083b2   0x00000002   Code   RO          785    i.__scatterload_null  mc_w.l(handlers.o)
    0x080083b4   0x080083b4   0x0000000e   Code   RO          786    i.__scatterload_zeroinit  mc_w.l(handlers.o)
    0x080083c2   0x080083c2   0x00000002   PAD
    0x080083c4   0x080083c4   0x00000184   Code   RO          647    i._fp_digits        mc_w.l(printfa.o)
    0x08008548   0x08008548   0x0000000e   Code   RO          752    i._is_digit         mc_w.l(scanf_fp.o)
    0x08008556   0x08008556   0x00000002   PAD
    0x08008558   0x08008558   0x000006dc   Code   RO          648    i._printf_core      mc_w.l(printfa.o)
    0x08008c34   0x08008c34   0x00000024   Code   RO          649    i._printf_post_padding  mc_w.l(printfa.o)
    0x08008c58   0x08008c58   0x0000002e   Code   RO          650    i._printf_pre_padding  mc_w.l(printfa.o)
    0x08008c86   0x08008c86   0x0000000a   Code   RO          652    i._sputc            mc_w.l(printfa.o)
    0x08008c90   0x08008c90   0x00000040   Data   RO          780    .constdata          mc_w.l(ctype_c.o)
    0x08008cd0   0x08008cd0   0x0000000c   Data   RO           63    .rodata..L__const.up_or_down.up_down  bldc.o
    0x08008cdc   0x08008cdc   0x0000000c   Data   RO          295    .rodata..Lswitch.table.gpio_deinit.1  gd32f1x0_gpio.o
    0x08008ce8   0x08008ce8   0x00000011   Data   RO          232    .rodata._DoInit._aInitStr  segger_rtt.o
    0x08008cf9   0x08008cf9   0x00000010   Data   RO          230    .rodata.cst16       segger_rtt.o
    0x08008d09   0x08008d09   0x00000008   Data   RO          112    .rodata.cst8        bldcsine.o
    0x08008d11   0x08008d11   0x00000008   Data   RO          333    .rodata.cst8        gd32f1x0_rcu.o
    0x08008d19   0x08008d19   0x00000008   Data   RO           64    .rodata.hall_to_pos  bldc.o
    0x08008d21   0x08008d21   0x00000003   PAD
    0x08008d24   0x08008d24   0x000002d4   Data   RO           19    .rodata.lookUpTableAngle  main.o
    0x08008ff8   0x08008ff8   0x000002d0   Data   RO          115    .rodata.sine_table  bldcsine.o
    0x080092c8   0x080092c8   0x00000009   Data   RO          233    .rodata.str1.1      segger_rtt.o
    0x080092d1   0x080092d1   0x00000003   PAD
    0x080092d4   0x080092d4   0x00000020   Data   RO          783    Region$$Table       anon$$obj.o


    Execution Region RW_IRAM1 (Exec base: 0x20000000, Load base: 0x080092f8, Size: 0x00000d58, Max: 0x00002000, ABSOLUTE)

    Exec Addr    Load Addr    Size         Type   Attr      Idx    E Section Name        Object

    0x20000000   0x080092f8   0x00000004   Data   RW          384    .data.SystemCoreClock  system_gd32f1x0.o
    0x20000004   0x080092fc   0x0000003c   Data   RW           84    .data.aoPIDInit     driver.o
    0x20000040   0x08009338   0x00000001   Data   RW          186    .data.bRemoteInit   remotedummy.o
    0x20000041   0x08009339   0x00000003   PAD
    0x20000044   0x0800933c   0x00000004   Data   RW           33    .data.batteryVoltage  bldc.o
    0x20000048   0x08009340   0x00000001   Data   RW           16    .data.beepsBackwards  main.o
    0x20000049   0x08009341   0x00000003   PAD
    0x2000004c   0x08009344   0x00000004   Data   RW           34    .data.currentDC     bldc.o
    0x20000050   0x08009348   0x00000004   Data   RW          188    .data.fRemoteScaleMax  remotedummy.o
    0x20000054   0x0800934c   0x00000001   Data   RW           50    .data.iFILTER_SHIFT  bldc.o
    0x20000055   0x0800934d   0x00000001   Data   RW          191    .data.iOldRemotePeriod  remotedummy.o
    0x20000056   0x0800934e   0x00000001   Data   RW          187    .data.iRemotePeriod  remotedummy.o
    0x20000057   0x0800934f   0x00000001   PAD
    0x20000058   0x08009350   0x00000002   Data   RW           53    .data.offsetdc      bldc.o
    0x2000005a   0x08009352   0x00000002   PAD
    0x2000005c   0x08009354   0x00000004   Data   RW           42    .data.revs32Scale   bldc.o
    0x20000060   0x08009358   0x00000004   Data   RW           43    .data.revs32ScaleSlow  bldc.o
    0x20000064   0x0800935c   0x00000002   Data   RW           11    .data.speedLimit    main.o
    0x20000066   0x0800935e   0x00000001   Data   RW           12    .data.wState        main.o
    0x20000067   0x0800935f   0x00000001   PAD
    0x20000068        -       0x00000001   Zero   RW          160    .bss.TIMER0_BRK_UP_TRG_COM_IRQHandler.interrupt_toggle  it.o
    0x20000069        -       0x00000001   Zero   RW          231    .bss._ActiveTerminal  segger_rtt.o
    0x2000006a   0x0800935f   0x00000002   PAD
    0x2000006c        -       0x000000a8   Zero   RW          229    .bss._SEGGER_RTT    segger_rtt.o
    0x20000114        -       0x00000010   Zero   RW          235    .bss._acDownBuffer  segger_rtt.o
    0x20000124        -       0x00000400   Zero   RW          234    .bss._acUpBuffer    segger_rtt.o
    0x20000524        -       0x0000000c   Zero   RW          103    .bss.aHallEXTI      bldcsine.o
    0x20000530        -       0x00000004   Zero   RW           69    .bss.adc_buffer     bldc.o
    0x20000534        -       0x00000002   Zero   RW           98    .bss.angle_deg      bldcsine.o
    0x20000536        -       0x00000002   Zero   RW           99    .bss.angle_deg_add  bldcsine.o
    0x20000538        -       0x00000002   Zero   RW          100    .bss.angle_deg_final  bldcsine.o
    0x2000053a        -       0x00000002   Zero   RW          101    .bss.angle_idx      bldcsine.o
    0x2000053c        -       0x0000003c   Zero   RW          198    .bss.aoPIDInitOld   remotedummy.o
    0x20000578        -       0x00000001   Zero   RW          104    .bss.bInterrupt     bldcsine.o
    0x20000579        -       0x00000001   Zero   RW            5    .bss.bPilotTimeout  main.o
    0x2000057a        -       0x00000001   Zero   RW            4    .bss.bRemoteTimeout  main.o
    0x2000057b        -       0x00000001   Zero   RW           45    .bss.bldc_enable    bldc.o
    0x2000057c        -       0x00000004   Zero   RW           47    .bss.bldc_inputFilterPwm  bldc.o
    0x20000580        -       0x00000004   Zero   RW           48    .bss.bldc_outputFilterPwm  bldc.o
    0x20000584        -       0x00000004   Zero   RW          194    .bss.buffer_index   remotedummy.o
    0x20000588        -       0x00000001   Zero   RW           59    .bss.buzzerFreq     bldc.o
    0x20000589        -       0x00000001   Zero   RW           60    .bss.buzzerPattern  bldc.o
    0x2000058a        -       0x00000002   Zero   RW           51    .bss.buzzerTimer    bldc.o
    0x2000058c        -       0x00000001   Zero   RW           58    .bss.buzzerToggle   bldc.o
    0x2000058d   0x0800935f   0x00000003   PAD
    0x20000590        -       0x00000004   Zero   RW          131    .bss.dev_id         setup.o
    0x20000594        -       0x00000024   Zero   RW          129    .bss.dma_init_struct_adc  setup.o
    0x200005b8        -       0x00000001   Zero   RW           20    .bss.enable         main.o
    0x200005b9   0x0800935f   0x00000003   PAD
    0x200005bc        -       0x00000004   Zero   RW           65    .bss.filter_reg     bldc.o
    0x200005c0        -       0x00000001   Zero   RW           46    .bss.hall           bldc.o
    0x200005c1        -       0x00000001   Zero   RW           70    .bss.hall_a         bldc.o
    0x200005c2        -       0x00000001   Zero   RW           71    .bss.hall_b         bldc.o
    0x200005c3        -       0x00000001   Zero   RW           72    .bss.hall_c         bldc.o
    0x200005c4        -       0x00000001   Zero   RW          107    .bss.hall_last      bldcsine.o
    0x200005c5   0x0800935f   0x00000001   PAD
    0x200005c6        -       0x00000002   Zero   RW          105    .bss.hall_time_last  bldcsine.o
    0x200005c8        -       0x00000002   Zero   RW          106    .bss.hall_time_step  bldcsine.o
    0x200005ca   0x0800935f   0x00000002   PAD
    0x200005cc        -       0x00000004   Zero   RW          114    .bss.hall_time_step_LP  bldcsine.o
    0x200005d0        -       0x00000004   Zero   RW          113    .bss.hall_time_step_LPR  bldcsine.o
    0x200005d4        -       0x00000004   Zero   RW          157    .bss.iAdcCounter    it.o
    0x200005d8        -       0x00000004   Zero   RW          159    .bss.iAdcRate       it.o
    0x200005dc        -       0x00000004   Zero   RW          158    .bss.iAdcTime       it.o
    0x200005e0        -       0x00000002   Zero   RW          111    .bss.iAdd           bldcsine.o
    0x200005e2   0x0800935f   0x00000002   PAD
    0x200005e4        -       0x00000004   Zero   RW           44    .bss.iBldcInput     bldc.o
    0x200005e8        -       0x00000004   Zero   RW            6    .bss.iBug           main.o
    0x200005ec        -       0x00000004   Zero   RW           66    .bss.iBuzzCounter   bldc.o
    0x200005f0        -       0x00000004   Zero   RW           68    .bss.iBuzzRate      bldc.o
    0x200005f4        -       0x00000004   Zero   RW           67    .bss.iBuzzTime      bldc.o
    0x200005f8        -       0x00000002   Zero   RW          196    .bss.iCounterLog    remotedummy.o
    0x200005fa        -       0x00000002   Zero   RW          110    .bss.iDT            bldcsine.o
    0x200005fc        -       0x00000001   Zero   RW            3    .bss.iDrivingMode   main.o
    0x200005fd        -       0x00000001   Zero   RW           49    .bss.iDrivingModeOverride  bldc.o
    0x200005fe   0x0800935f   0x00000002   PAD
    0x20000600        -       0x00000004   Zero   RW           61    .bss.iOdom          bldc.o
    0x20000604        -       0x00000004   Zero   RW           62    .bss.iOdomLast      bldc.o
    0x20000608        -       0x00000001   Zero   RW          190    .bss.iOldDrivingMode  remotedummy.o
    0x20000609   0x0800935f   0x00000003   PAD
    0x2000060c        -       0x00000004   Zero   RW          152    .bss.iPwmCounter    it.o
    0x20000610        -       0x00000004   Zero   RW          154    .bss.iPwmRate       it.o
    0x20000614        -       0x00000004   Zero   RW          153    .bss.iPwmTime       it.o
    0x20000618        -       0x00000004   Zero   RW          189    .bss.iRemoteMax     remotedummy.o
    0x2000061c        -       0x00000004   Zero   RW          133    .bss.iTestClock     setup.o
    0x20000620        -       0x00000004   Zero   RW          192    .bss.iTimeNextLog   remotedummy.o
    0x20000624        -       0x00000004   Zero   RW           22    .bss.iTimeNextLoop  main.o
    0x20000628        -       0x00000004   Zero   RW           18    .bss.inactivity_timeout_counter  main.o
    0x2000062c        -       0x00000001   Zero   RW           74    .bss.lastPos        bldc.o
    0x2000062d        -       0x00000040   Zero   RW          195    .bss.message_buffer  remotedummy.o
    0x2000066d   0x0800935f   0x00000003   PAD
    0x20000670        -       0x00000004   Zero   RW          149    .bss.msTicks        it.o
    0x20000674        -       0x00000004   Zero   RW          197    .bss.msTicksInit    remotedummy.o
    0x20000678        -       0x00000014   Zero   RW          130    .bss.oConfig        setup.o
    0x2000068c        -       0x00000002   Zero   RW           52    .bss.offsetcount    bldc.o
    0x2000068e   0x0800935f   0x00000002   PAD
    0x20000690        -       0x00000028   Zero   RW           85    .bss.pid            driver.o
    0x200006b8        -       0x00000004   Zero   RW          132    .bss.pll_mul        setup.o
    0x200006bc        -       0x00000001   Zero   RW           73    .bss.pos            bldc.o
    0x200006bd   0x0800935f   0x00000003   PAD
    0x200006c0        -       0x00000004   Zero   RW          102    .bss.pwmGo          bldcsine.o
    0x200006c4        -       0x00000002   Zero   RW           21    .bss.pwmSlave       main.o
    0x200006c6   0x0800935f   0x00000002   PAD
    0x200006c8        -       0x00000004   Zero   RW           35    .bss.realSpeed      bldc.o
    0x200006cc        -       0x00000004   Zero   RW           36    .bss.revs32         bldc.o
    0x200006d0        -       0x00000004   Zero   RW           38    .bss.revs32_reg     bldc.o
    0x200006d4        -       0x00000004   Zero   RW           41    .bss.revs32x        bldc.o
    0x200006d8        -       0x00000200   Zero   RW          193    .bss.sMessage       remotedummy.o
    0x200008d8        -       0x00000001   Zero   RW           96    .bss.sector         bldcsine.o
    0x200008d9        -       0x00000001   Zero   RW           97    .bss.sector10x      bldcsine.o
    0x200008da        -       0x00000001   Zero   RW           95    .bss.sectorChange   bldcsine.o
    0x200008db   0x0800935f   0x00000001   PAD
    0x200008dc        -       0x00000004   Zero   RW            9    .bss.speed          main.o
    0x200008e0        -       0x00000004   Zero   RW           54    .bss.speedCounter   bldc.o
    0x200008e4        -       0x00000004   Zero   RW           56    .bss.speedCounterLog  bldc.o
    0x200008e8        -       0x00000004   Zero   RW           55    .bss.speedCounterSlow  bldc.o
    0x200008ec        -       0x00000004   Zero   RW           57    .bss.speedCounterSlowLog  bldc.o
    0x200008f0        -       0x00000004   Zero   RW           10    .bss.speedShutoff   main.o
    0x200008f4        -       0x00000004   Zero   RW           14    .bss.steer          main.o
    0x200008f8        -       0x00000004   Zero   RW            8    .bss.steerCounter   main.o
    0x200008fc        -       0x00000001   Zero   RW          148    .bss.timedOut       it.o
    0x200008fd   0x0800935f   0x00000003   PAD
    0x20000900        -       0x00000004   Zero   RW          147    .bss.timeoutCounter_ms  it.o
    0x20000904        -       0x00000010   Zero   RW          125    .bss.timeoutTimer_paramter_struct  setup.o
    0x20000914        -       0x00000018   Zero   RW          128    .bss.timerBldc_break_parameter_struct  setup.o
    0x2000092c        -       0x00000010   Zero   RW          127    .bss.timerBldc_oc_parameter_struct  setup.o
    0x2000093c        -       0x00000010   Zero   RW          126    .bss.timerBldc_paramter_struct  setup.o
    0x2000094c        -       0x00000004   Zero   RW           37    .bss.torque32       bldc.o
    0x20000950        -       0x00000004   Zero   RW           39    .bss.torque32_reg   bldc.o
    0x20000954   0x0800935f   0x00000004   PAD
    0x20000958        -       0x00000400   Zero   RW          373    STACK               startup_gd32f1x0.o


==============================================================================

Image component sizes


      Code (inc. data)   RO Data    RW Data    ZI Data      Debug   Object Name

      1908          0         20         19         95       4890   bldc.o
       976          0        728          0         45       6647   bldcsine.o
       574          4          0         60         40       3219   driver.o
      1446         16          0          0          0       7635   gd32f1x0_adc.o
       880         64          0          0          0       5997   gd32f1x0_dma.o
       366          0          0          0          0       3198   gd32f1x0_exti.o
      2512          0          0          0          0      13341   gd32f1x0_fmc.o
       226          0          0          0          0       2007   gd32f1x0_fwdgt.o
       408          0         12          0          0       4183   gd32f1x0_gpio.o
       300          0          0          0          0       3163   gd32f1x0_misc.o
      1828         34          8          0          0      13497   gd32f1x0_rcu.o
       258          4          0          0          0       2988   gd32f1x0_syscfg.o
      3408         44          0          0          0      18497   gd32f1x0_timer.o
       394          0          0          0         34       3050   it.o
      2024          0        724          4         34       7417   main.o
      1846        254          0          7        655       4666   remotedummy.o
      6050          8         42          0       1209      26317   segger_rtt.o
      2220          0          0          0        140      10597   setup.o
        36          8        360          0       1024        844   startup_gd32f1x0.o
       316         16          0          4          0       1621   system_gd32f1x0.o

    ----------------------------------------------------------------------
     27992        452       1932        104       3312     143774   Object Totals
         0          0         32          0          0          0   (incl. Generated)
        16          0          6         10         36          0   (incl. Padding)

    ----------------------------------------------------------------------

      Code (inc. data)   RO Data    RW Data    ZI Data      Debug   Library Member Name

        28          0          0          0          0         68   _chval.o
       812          4          0          0          0        112   _scanf.o
       332          0          0          0          0         96   _scanf_int.o
       342          0          0          0          0        100   _scanf_longlong.o
       224          0          0          0          0         96   _scanf_str.o
        64          0          0          0          0         84   _sgetc.o
        40          6         64          0          0         68   ctype_c.o
         0          0          0          0          0          0   entry.o
         0          0          0          0          0          0   entry10a.o
         0          0          0          0          0          0   entry11a.o
         8          4          0          0          0          0   entry2.o
         4          0          0          0          0          0   entry5.o
         0          0          0          0          0          0   entry7b.o
         0          0          0          0          0          0   entry8b.o
         8          4          0          0          0          0   entry9a.o
        30          0          0          0          0          0   handlers.o
        48         10          0          0          0         68   init.o
        10          0          0          0          0         68   isspace_c.o
         0          0          0          0          0          0   iusefp.o
        30          0          0          0          0         68   llshl.o
        36          0          0          0          0         68   llsshr.o
        32          0          0          0          0         68   llushr.o
        26          0          0          0          0         80   memcmp.o
        36          0          0          0          0         68   memcpya.o
        36          0          0          0          0        108   memseta.o
      2276         86          0          0          0        520   printfa.o
        40          8          0          0          0         84   scanf_char.o
       878         12          0          0          0        216   scanf_fp.o
        56          8          0          0          0         84   sscanf.o
        28          0          0          0          0         76   strcmp.o
        14          0          0          0          0         68   strlen.o
        44          0          0          0          0         80   uidiv.o
        98          0          0          0          0         92   uldiv.o
        48          0          0          0          0         68   cdrcmple.o
        56          0          0          0          0         88   d2f.o
       334          0          0          0          0        148   dadd.o
       222          0          0          0          0        100   ddiv.o
       186          0          0          0          0        176   depilogue.o
        62          0          0          0          0         80   dfixi.o
        48          0          0          0          0         68   dfixul.o
        34          0          0          0          0         76   dflti.o
        26          0          0          0          0         76   dfltui.o
        24          0          0          0          0         76   dfltul.o
       228          0          0          0          0         96   dmul.o
        38          0          0          0          0         68   f2d.o
       176          0          0          0          0        140   fadd.o
        28          0          0          0          0         68   fcmpgt.o
        28          0          0          0          0         68   fcmple.o
        28          0          0          0          0         68   fcmplt.o
       124          0          0          0          0         88   fdiv.o
       110          0          0          0          0        168   fepilogue.o
        50          0          0          0          0         68   ffixi.o
        66          0          0          0          0         76   ffixl.o
        18          0          0          0          0         68   fflti.o
        10          0          0          0          0         68   ffltui.o
       100          0          0          0          0         76   fmul.o

    ----------------------------------------------------------------------
      7632        142         64          0          0       4516   Library Totals
         8          0          0          0          0          0   (incl. Padding)

    ----------------------------------------------------------------------

      Code (inc. data)   RO Data    RW Data    ZI Data      Debug   Library Name

      5580        142         64          0          0       2440   mc_w.l
      2044          0          0          0          0       2076   mf_w.l

    ----------------------------------------------------------------------
      7632        142         64          0          0       4516   Library Totals

    ----------------------------------------------------------------------

==============================================================================


      Code (inc. data)   RO Data    RW Data    ZI Data      Debug   

     35624        594       1996        104       3312     145534   Grand Totals
     35624        594       1996        104       3312     145534   ELF Image Totals
     35624        594       1996        104          0          0   ROM Totals

==============================================================================

    Total RO  Size (Code + RO Data)                37620 (  36.74kB)
    Total RW  Size (RW Data + ZI Data)              3416 (   3.34kB)
    Total ROM Size (Code + RO Data + RW Data)      37724 (  36.84kB)

==============================================================================

