Component: Arm Compiler for Embedded 6.19 Tool: armlink [5e73cb00]

==============================================================================

Section Cross References

    main.o(.text) refers to remoteautodetect.o(.text) for AutodetectInit
    main.o(.text) refers to system_gd32f1x0.o(.text) for SystemCoreClockUpdate
    main.o(.text) refers to system_gd32f1x0.o(.data.SystemCoreClock) for SystemCoreClock
    main.o(.text) refers to setup.o(.text) for Watchdog_init
    main.o(.text) refers to gd32f1x0_gpio.o(.text) for gpio_bit_write
    main.o(.text) refers to gd32f1x0_fwdgt.o(.text) for fwdgt_counter_reload
    main.o(.text) refers to bldc.o(.bss.buzzerFreq) for buzzerFreq
    main.o(.text) refers to it.o(.text) for Delay
    main.o(.text) refers to main.o(.bss.iTimeNextLoop) for iTimeNextLoop
    main.o(.text) refers to main.o(.bss.steerCounter) for steerCounter
    main.o(.text) refers to bldc.o(.text) for SetEnable
    main.o(.text) refers to main.o(.data.wState) for wState
    main.o(.text) refers to main.o(.bss.speed) for speed
    main.o(.text) refers to bldc.o(.bss.buzzerPattern) for buzzerPattern
    main.o(.ARM.exidx) refers to main.o(.text) for [Anonymous Symbol]
    bldc.o(.text) refers to bldc.o(.rodata..L__const.up_or_down.up_down) for .L__const.up_or_down.up_down
    bldc.o(.text) refers to bldc.o(.bss.bldc_enable) for bldc_enable
    bldc.o(.text) refers to dflt_clz.o(x$fpl$dflt) for __aeabi_i2d
    bldc.o(.text) refers to dmul.o(x$fpl$dmul) for __aeabi_dmul
    bldc.o(.text) refers to dcmp.o(x$fpl$fcmp) for __aeabi_dcmplt
    bldc.o(.text) refers to dfix.o(x$fpl$dfix) for __aeabi_d2iz
    bldc.o(.text) refers to bldc.o(.bss.bldc_inputFilterPwm) for bldc_inputFilterPwm
    bldc.o(.text) refers to bldc.o(.bss.offsetcount) for offsetcount
    bldc.o(.text) refers to bldc.o(.bss.adc_buffer) for adc_buffer
    bldc.o(.text) refers to bldc.o(.data.offsetdc) for offsetdc
    bldc.o(.text) refers to bldc.o(.bss.buzzerTimer) for buzzerTimer
    bldc.o(.text) refers to bldc.o(.data.batteryVoltage) for batteryVoltage
    bldc.o(.text) refers to f2d.o(x$fpl$f2d) for __aeabi_f2d
    bldc.o(.text) refers to dflt_clz.o(x$fpl$dfltu) for __aeabi_ui2d
    bldc.o(.text) refers to daddsub_clz.o(x$fpl$dadd) for __aeabi_dadd
    bldc.o(.text) refers to d2f.o(x$fpl$d2f) for __aeabi_d2f
    bldc.o(.text) refers to bldc.o(.bss.buzzerFreq) for buzzerFreq
    bldc.o(.text) refers to bldc.o(.bss.buzzerPattern) for buzzerPattern
    bldc.o(.text) refers to gd32f1x0_gpio.o(.text) for gpio_bit_write
    bldc.o(.text) refers to bldc.o(.bss.currentDC) for currentDC
    bldc.o(.text) refers to it.o(.bss.timedOut) for timedOut
    bldc.o(.text) refers to gd32f1x0_timer.o(.text) for timer_automatic_output_enable
    bldc.o(.text) refers to remoteautodetect.o(.data.HALL_A) for HALL_A
    bldc.o(.text) refers to remoteautodetect.o(.data.HALL_B) for HALL_B
    bldc.o(.text) refers to bldc.o(.bss.hall_a) for hall_a
    bldc.o(.text) refers to remoteautodetect.o(.data.HALL_C) for HALL_C
    bldc.o(.text) refers to bldc.o(.bss.hall_b) for hall_b
    bldc.o(.text) refers to bldc.o(.bss.hall_c) for hall_c
    bldc.o(.text) refers to bldc.o(.rodata.hall_to_pos) for hall_to_pos
    bldc.o(.text) refers to bldc.o(.bss.hall) for hall
    bldc.o(.text) refers to remoteautodetect.o(.text) for AutodetectBldc
    bldc.o(.text) refers to bldc.o(.bss.pos) for pos
    bldc.o(.text) refers to bldc.o(.bss.filter_reg) for filter_reg
    bldc.o(.text) refers to bldc.o(.bss.bldc_outputFilterPwm) for bldc_outputFilterPwm
    bldc.o(.text) refers to bldc.o(.bss.buzzerToggle) for buzzerToggle
    bldc.o(.text) refers to bldc.o(.bss.lastPos) for lastPos
    bldc.o(.text) refers to bldc.o(.bss.iOdom) for iOdom
    bldc.o(.text) refers to bldc.o(.bss.speedCounter) for speedCounter
    bldc.o(.text) refers to fflt_clz.o(x$fpl$ffltu) for __aeabi_ui2f
    bldc.o(.text) refers to fdiv.o(x$fpl$fdiv) for __aeabi_fdiv
    bldc.o(.text) refers to bldc.o(.bss.realSpeed) for realSpeed
    bldc.o(.ARM.exidx) refers to bldc.o(.text) for [Anonymous Symbol]
    setup.o(.text) refers to gd32f1x0_misc.o(.text) for nvic_priority_group_set
    setup.o(.text) refers to gd32f1x0_rcu.o(.text) for rcu_flag_get
    setup.o(.text) refers to gd32f1x0_fwdgt.o(.text) for fwdgt_config
    setup.o(.text) refers to gd32f1x0_timer.o(.text) for timer_deinit
    setup.o(.text) refers to setup.o(.bss.timeoutTimer_paramter_struct) for timeoutTimer_paramter_struct
    setup.o(.text) refers to gd32f1x0_gpio.o(.text) for gpio_mode_set
    setup.o(.text) refers to remoteautodetect.o(.data.HALL_A) for HALL_A
    setup.o(.text) refers to remoteautodetect.o(.data.HALL_B) for HALL_B
    setup.o(.text) refers to remoteautodetect.o(.data.HALL_C) for HALL_C
    setup.o(.text) refers to setup.o(.bss.timerBldc_paramter_struct) for timerBldc_paramter_struct
    setup.o(.text) refers to setup.o(.bss.timerBldc_oc_parameter_struct) for timerBldc_oc_parameter_struct
    setup.o(.text) refers to setup.o(.bss.timerBldc_break_parameter_struct) for timerBldc_break_parameter_struct
    setup.o(.text) refers to gd32f1x0_dma.o(.text) for dma_deinit
    setup.o(.text) refers to setup.o(.bss.dma_init_struct_adc) for dma_init_struct_adc
    setup.o(.text) refers to bldc.o(.bss.adc_buffer) for adc_buffer
    setup.o(.text) refers to gd32f1x0_adc.o(.text) for adc_channel_length_config
    setup.o(.text) refers to gd32f1x0_usart.o(.text) for usart_baudrate_set
    setup.o(.text) refers to setup.o(.bss.dma_init_struct_usart) for dma_init_struct_usart
    setup.o(.text) refers to setup.o(.bss.usart0_rx_buf) for usart0_rx_buf
    setup.o(.ARM.exidx) refers to setup.o(.text) for [Anonymous Symbol]
    it.o(.text) refers to it.o(.bss.msTicks) for msTicks
    it.o(.text) refers to it.o(.bss.timeoutCounter_ms) for timeoutCounter_ms
    it.o(.text) refers to it.o(.bss.timedOut) for timedOut
    it.o(.text) refers to bldc.o(.text) for SetPWM
    it.o(.text) refers to gd32f1x0_timer.o(.text) for timer_interrupt_flag_clear
    it.o(.text) refers to gd32f1x0_adc.o(.text) for adc_software_trigger_enable
    it.o(.text) refers to gd32f1x0_dma.o(.text) for dma_interrupt_flag_get
    it.o(.text) refers to remoteautodetect.o(.text) for RemoteCallback
    it.o(.ARM.exidx) refers to it.o(.text) for [Anonymous Symbol]
    commsmasterslave.o(.text) refers to gd32f1x0_usart.o(.text) for usart_data_transmit
    commsmasterslave.o(.text) refers to commsmasterslave.o(.bss.beepsBackwardsMaster) for beepsBackwardsMaster
    commsmasterslave.o(.ARM.exidx) refers to commsmasterslave.o(.text) for [Anonymous Symbol]
    remoteautodetect.o(.text) refers (Special) to _printf_percent.o(.ARM.Collect$$_printf_percent$$00000000) for _printf_percent
    remoteautodetect.o(.text) refers (Special) to _printf_s.o(.ARM.Collect$$_printf_percent$$00000014) for _printf_s
    remoteautodetect.o(.text) refers (Special) to _printf_i.o(.ARM.Collect$$_printf_percent$$00000008) for _printf_i
    remoteautodetect.o(.text) refers (Special) to _printf_f.o(.ARM.Collect$$_printf_percent$$00000003) for _printf_f
    remoteautodetect.o(.text) refers (Special) to _printf_dec.o(.text) for _printf_int_dec
    remoteautodetect.o(.text) refers (Special) to printf1.o(x$fpl$printf1) for _printf_fp_dec
    remoteautodetect.o(.text) refers (Special) to _printf_str.o(.text) for _printf_str
    remoteautodetect.o(.text) refers to main.o(.bss.steer) for steer
    remoteautodetect.o(.text) refers to remoteautodetect.o(.bss.sMessage) for sMessage
    remoteautodetect.o(.text) refers to strlen.o(.text) for strlen
    remoteautodetect.o(.text) refers to commsmasterslave.o(.text) for SendBuffer
    remoteautodetect.o(.text) refers to setup.o(.bss.usart0_rx_buf) for usart0_rx_buf
    remoteautodetect.o(.text) refers to remoteautodetect.o(.data.cRxLast) for cRxLast
    remoteautodetect.o(.text) refers to remoteautodetect.o(.bss.cCommand) for cCommand
    remoteautodetect.o(.text) refers to remoteautodetect.o(.data.iPinCount) for iPinCount
    remoteautodetect.o(.text) refers to remoteautodetect.o(.data.aoPin) for aoPin
    remoteautodetect.o(.text) refers to remoteautodetect.o(.data.sTodoPin) for sTodoPin
    remoteautodetect.o(.text) refers to remoteautodetect.o(.bss.iRepeat) for iRepeat
    remoteautodetect.o(.text) refers to remoteautodetect.o(.bss.iTest) for iTest
    remoteautodetect.o(.text) refers to remoteautodetect.o(.bss.iTestPin) for iTestPin
    remoteautodetect.o(.text) refers to it.o(.bss.msTicks) for msTicks
    remoteautodetect.o(.text) refers to remoteautodetect.o(.bss.iStage) for iStage
    remoteautodetect.o(.text) refers to remoteautodetect.o(.bss.msTicksTest) for msTicksTest
    remoteautodetect.o(.text) refers to remoteautodetect.o(.data.iMove) for iMove
    remoteautodetect.o(.text) refers to gd32f1x0_gpio.o(.text) for gpio_mode_set
    remoteautodetect.o(.text) refers to gd32f1x0_adc.o(.text) for adc_regular_channel_config
    remoteautodetect.o(.text) refers to remoteautodetect.o(.bss.aiPinScan) for aiPinScan
    remoteautodetect.o(.text) refers to noretval__2sprintf.o(.text) for __2sprintf
    remoteautodetect.o(.text) refers to remoteautodetect.o(.rodata.str1.1) for .L.str.38
    remoteautodetect.o(.text) refers to bldc.o(.text) for SetPWM
    remoteautodetect.o(.text) refers to remoteautodetect.o(.data.iStageOld) for iStageOld
    remoteautodetect.o(.text) refers to remoteautodetect.o(.bss.fVBatt) for fVBatt
    remoteautodetect.o(.text) refers to f2d.o(x$fpl$f2d) for __aeabi_f2d
    remoteautodetect.o(.text) refers to bldc.o(.bss.adc_buffer) for adc_buffer
    remoteautodetect.o(.text) refers to dflt_clz.o(x$fpl$dfltu) for __aeabi_ui2d
    remoteautodetect.o(.text) refers to dmul.o(x$fpl$dmul) for __aeabi_dmul
    remoteautodetect.o(.text) refers to daddsub_clz.o(x$fpl$dadd) for __aeabi_dadd
    remoteautodetect.o(.text) refers to d2f.o(x$fpl$d2f) for __aeabi_d2f
    remoteautodetect.o(.text) refers to remoteautodetect.o(.bss.iOffsetDC) for iOffsetDC
    remoteautodetect.o(.text) refers to remoteautodetect.o(.bss.iTestStart) for iTestStart
    remoteautodetect.o(.text) refers to dflt_clz.o(x$fpl$dflt) for __aeabi_i2d
    remoteautodetect.o(.text) refers to remoteautodetect.o(.bss.fCurrentDC) for fCurrentDC
    remoteautodetect.o(.text) refers to fcmp.o(x$fpl$fcmp) for __aeabi_fcmpge
    remoteautodetect.o(.text) refers to remoteautodetect.o(.bss.iAverage) for iAverage
    remoteautodetect.o(.text) refers to rt_memclr_w.o(.text) for __aeabi_memclr4
    remoteautodetect.o(.text) refers to remoteautodetect.o(.data.asScan) for asScan
    remoteautodetect.o(.text) refers to remoteautodetect.o(.data.iAverageMax) for iAverageMax
    remoteautodetect.o(.text) refers to remoteautodetect.o(.bss.msTicksOld) for msTicksOld
    remoteautodetect.o(.text) refers to remoteautodetect.o(.data.aHallOrder) for aHallOrder
    remoteautodetect.o(.text) refers to remoteautodetect.o(.bss.aPinHall) for aPinHall
    remoteautodetect.o(.text) refers to remoteautodetect.o(.data.HALL_A) for HALL_A
    remoteautodetect.o(.text) refers to remoteautodetect.o(.data.HALL_B) for HALL_B
    remoteautodetect.o(.text) refers to remoteautodetect.o(.data.HALL_C) for HALL_C
    remoteautodetect.o(.text) refers to remoteautodetect.o(.bss.msTicksAuto) for msTicksAuto
    remoteautodetect.o(.text) refers to remoteautodetect.o(.data.posAuto) for posAuto
    remoteautodetect.o(.text) refers to remoteautodetect.o(.data.bHallOld) for bHallOld
    remoteautodetect.o(.text) refers to remoteautodetect.o(.bss.posOld) for posOld
    remoteautodetect.o(.ARM.exidx) refers (Special) to _printf_percent.o(.ARM.Collect$$_printf_percent$$00000000) for _printf_percent
    remoteautodetect.o(.ARM.exidx) refers (Special) to _printf_s.o(.ARM.Collect$$_printf_percent$$00000014) for _printf_s
    remoteautodetect.o(.ARM.exidx) refers (Special) to _printf_i.o(.ARM.Collect$$_printf_percent$$00000008) for _printf_i
    remoteautodetect.o(.ARM.exidx) refers (Special) to _printf_f.o(.ARM.Collect$$_printf_percent$$00000003) for _printf_f
    remoteautodetect.o(.ARM.exidx) refers (Special) to _printf_dec.o(.text) for _printf_int_dec
    remoteautodetect.o(.ARM.exidx) refers (Special) to printf1.o(x$fpl$printf1) for _printf_fp_dec
    remoteautodetect.o(.ARM.exidx) refers (Special) to _printf_str.o(.text) for _printf_str
    remoteautodetect.o(.ARM.exidx) refers to remoteautodetect.o(.text) for [Anonymous Symbol]
    remoteautodetect.o(.bss.iTimeNextTx) refers (Special) to _printf_percent.o(.ARM.Collect$$_printf_percent$$00000000) for _printf_percent
    remoteautodetect.o(.bss.iTimeNextTx) refers (Special) to _printf_s.o(.ARM.Collect$$_printf_percent$$00000014) for _printf_s
    remoteautodetect.o(.bss.iTimeNextTx) refers (Special) to _printf_i.o(.ARM.Collect$$_printf_percent$$00000008) for _printf_i
    remoteautodetect.o(.bss.iTimeNextTx) refers (Special) to _printf_f.o(.ARM.Collect$$_printf_percent$$00000003) for _printf_f
    remoteautodetect.o(.bss.iTimeNextTx) refers (Special) to _printf_dec.o(.text) for _printf_int_dec
    remoteautodetect.o(.bss.iTimeNextTx) refers (Special) to printf1.o(x$fpl$printf1) for _printf_fp_dec
    remoteautodetect.o(.bss.iTimeNextTx) refers (Special) to _printf_str.o(.text) for _printf_str
    remoteautodetect.o(.bss.sMessage) refers (Special) to _printf_percent.o(.ARM.Collect$$_printf_percent$$00000000) for _printf_percent
    remoteautodetect.o(.bss.sMessage) refers (Special) to _printf_s.o(.ARM.Collect$$_printf_percent$$00000014) for _printf_s
    remoteautodetect.o(.bss.sMessage) refers (Special) to _printf_i.o(.ARM.Collect$$_printf_percent$$00000008) for _printf_i
    remoteautodetect.o(.bss.sMessage) refers (Special) to _printf_f.o(.ARM.Collect$$_printf_percent$$00000003) for _printf_f
    remoteautodetect.o(.bss.sMessage) refers (Special) to _printf_dec.o(.text) for _printf_int_dec
    remoteautodetect.o(.bss.sMessage) refers (Special) to printf1.o(x$fpl$printf1) for _printf_fp_dec
    remoteautodetect.o(.bss.sMessage) refers (Special) to _printf_str.o(.text) for _printf_str
    remoteautodetect.o(.bss.cCommand) refers (Special) to _printf_percent.o(.ARM.Collect$$_printf_percent$$00000000) for _printf_percent
    remoteautodetect.o(.bss.cCommand) refers (Special) to _printf_s.o(.ARM.Collect$$_printf_percent$$00000014) for _printf_s
    remoteautodetect.o(.bss.cCommand) refers (Special) to _printf_i.o(.ARM.Collect$$_printf_percent$$00000008) for _printf_i
    remoteautodetect.o(.bss.cCommand) refers (Special) to _printf_f.o(.ARM.Collect$$_printf_percent$$00000003) for _printf_f
    remoteautodetect.o(.bss.cCommand) refers (Special) to _printf_dec.o(.text) for _printf_int_dec
    remoteautodetect.o(.bss.cCommand) refers (Special) to printf1.o(x$fpl$printf1) for _printf_fp_dec
    remoteautodetect.o(.bss.cCommand) refers (Special) to _printf_str.o(.text) for _printf_str
    remoteautodetect.o(.data.cRxLast) refers (Special) to _printf_percent.o(.ARM.Collect$$_printf_percent$$00000000) for _printf_percent
    remoteautodetect.o(.data.cRxLast) refers (Special) to _printf_s.o(.ARM.Collect$$_printf_percent$$00000014) for _printf_s
    remoteautodetect.o(.data.cRxLast) refers (Special) to _printf_i.o(.ARM.Collect$$_printf_percent$$00000008) for _printf_i
    remoteautodetect.o(.data.cRxLast) refers (Special) to _printf_f.o(.ARM.Collect$$_printf_percent$$00000003) for _printf_f
    remoteautodetect.o(.data.cRxLast) refers (Special) to _printf_dec.o(.text) for _printf_int_dec
    remoteautodetect.o(.data.cRxLast) refers (Special) to printf1.o(x$fpl$printf1) for _printf_fp_dec
    remoteautodetect.o(.data.cRxLast) refers (Special) to _printf_str.o(.text) for _printf_str
    remoteautodetect.o(.data.HALL_A) refers (Special) to _printf_percent.o(.ARM.Collect$$_printf_percent$$00000000) for _printf_percent
    remoteautodetect.o(.data.HALL_A) refers (Special) to _printf_s.o(.ARM.Collect$$_printf_percent$$00000014) for _printf_s
    remoteautodetect.o(.data.HALL_A) refers (Special) to _printf_i.o(.ARM.Collect$$_printf_percent$$00000008) for _printf_i
    remoteautodetect.o(.data.HALL_A) refers (Special) to _printf_f.o(.ARM.Collect$$_printf_percent$$00000003) for _printf_f
    remoteautodetect.o(.data.HALL_A) refers (Special) to _printf_dec.o(.text) for _printf_int_dec
    remoteautodetect.o(.data.HALL_A) refers (Special) to printf1.o(x$fpl$printf1) for _printf_fp_dec
    remoteautodetect.o(.data.HALL_A) refers (Special) to _printf_str.o(.text) for _printf_str
    remoteautodetect.o(.data.HALL_B) refers (Special) to _printf_percent.o(.ARM.Collect$$_printf_percent$$00000000) for _printf_percent
    remoteautodetect.o(.data.HALL_B) refers (Special) to _printf_s.o(.ARM.Collect$$_printf_percent$$00000014) for _printf_s
    remoteautodetect.o(.data.HALL_B) refers (Special) to _printf_i.o(.ARM.Collect$$_printf_percent$$00000008) for _printf_i
    remoteautodetect.o(.data.HALL_B) refers (Special) to _printf_f.o(.ARM.Collect$$_printf_percent$$00000003) for _printf_f
    remoteautodetect.o(.data.HALL_B) refers (Special) to _printf_dec.o(.text) for _printf_int_dec
    remoteautodetect.o(.data.HALL_B) refers (Special) to printf1.o(x$fpl$printf1) for _printf_fp_dec
    remoteautodetect.o(.data.HALL_B) refers (Special) to _printf_str.o(.text) for _printf_str
    remoteautodetect.o(.data.HALL_C) refers (Special) to _printf_percent.o(.ARM.Collect$$_printf_percent$$00000000) for _printf_percent
    remoteautodetect.o(.data.HALL_C) refers (Special) to _printf_s.o(.ARM.Collect$$_printf_percent$$00000014) for _printf_s
    remoteautodetect.o(.data.HALL_C) refers (Special) to _printf_i.o(.ARM.Collect$$_printf_percent$$00000008) for _printf_i
    remoteautodetect.o(.data.HALL_C) refers (Special) to _printf_f.o(.ARM.Collect$$_printf_percent$$00000003) for _printf_f
    remoteautodetect.o(.data.HALL_C) refers (Special) to _printf_dec.o(.text) for _printf_int_dec
    remoteautodetect.o(.data.HALL_C) refers (Special) to printf1.o(x$fpl$printf1) for _printf_fp_dec
    remoteautodetect.o(.data.HALL_C) refers (Special) to _printf_str.o(.text) for _printf_str
    remoteautodetect.o(.data.iPinCount) refers (Special) to _printf_percent.o(.ARM.Collect$$_printf_percent$$00000000) for _printf_percent
    remoteautodetect.o(.data.iPinCount) refers (Special) to _printf_s.o(.ARM.Collect$$_printf_percent$$00000014) for _printf_s
    remoteautodetect.o(.data.iPinCount) refers (Special) to _printf_i.o(.ARM.Collect$$_printf_percent$$00000008) for _printf_i
    remoteautodetect.o(.data.iPinCount) refers (Special) to _printf_f.o(.ARM.Collect$$_printf_percent$$00000003) for _printf_f
    remoteautodetect.o(.data.iPinCount) refers (Special) to _printf_dec.o(.text) for _printf_int_dec
    remoteautodetect.o(.data.iPinCount) refers (Special) to printf1.o(x$fpl$printf1) for _printf_fp_dec
    remoteautodetect.o(.data.iPinCount) refers (Special) to _printf_str.o(.text) for _printf_str
    remoteautodetect.o(.rodata.str1.1) refers (Special) to _printf_percent.o(.ARM.Collect$$_printf_percent$$00000000) for _printf_percent
    remoteautodetect.o(.rodata.str1.1) refers (Special) to _printf_s.o(.ARM.Collect$$_printf_percent$$00000014) for _printf_s
    remoteautodetect.o(.rodata.str1.1) refers (Special) to _printf_i.o(.ARM.Collect$$_printf_percent$$00000008) for _printf_i
    remoteautodetect.o(.rodata.str1.1) refers (Special) to _printf_f.o(.ARM.Collect$$_printf_percent$$00000003) for _printf_f
    remoteautodetect.o(.rodata.str1.1) refers (Special) to _printf_dec.o(.text) for _printf_int_dec
    remoteautodetect.o(.rodata.str1.1) refers (Special) to printf1.o(x$fpl$printf1) for _printf_fp_dec
    remoteautodetect.o(.rodata.str1.1) refers (Special) to _printf_str.o(.text) for _printf_str
    remoteautodetect.o(.data.aoPin) refers (Special) to _printf_percent.o(.ARM.Collect$$_printf_percent$$00000000) for _printf_percent
    remoteautodetect.o(.data.aoPin) refers (Special) to _printf_s.o(.ARM.Collect$$_printf_percent$$00000014) for _printf_s
    remoteautodetect.o(.data.aoPin) refers (Special) to _printf_i.o(.ARM.Collect$$_printf_percent$$00000008) for _printf_i
    remoteautodetect.o(.data.aoPin) refers (Special) to _printf_f.o(.ARM.Collect$$_printf_percent$$00000003) for _printf_f
    remoteautodetect.o(.data.aoPin) refers (Special) to _printf_dec.o(.text) for _printf_int_dec
    remoteautodetect.o(.data.aoPin) refers (Special) to printf1.o(x$fpl$printf1) for _printf_fp_dec
    remoteautodetect.o(.data.aoPin) refers (Special) to _printf_str.o(.text) for _printf_str
    remoteautodetect.o(.data.aoPin) refers to remoteautodetect.o(.rodata.str1.1) for [Anonymous Symbol]
    remoteautodetect.o(.data.sTodoPin) refers (Special) to _printf_percent.o(.ARM.Collect$$_printf_percent$$00000000) for _printf_percent
    remoteautodetect.o(.data.sTodoPin) refers (Special) to _printf_s.o(.ARM.Collect$$_printf_percent$$00000014) for _printf_s
    remoteautodetect.o(.data.sTodoPin) refers (Special) to _printf_i.o(.ARM.Collect$$_printf_percent$$00000008) for _printf_i
    remoteautodetect.o(.data.sTodoPin) refers (Special) to _printf_f.o(.ARM.Collect$$_printf_percent$$00000003) for _printf_f
    remoteautodetect.o(.data.sTodoPin) refers (Special) to _printf_dec.o(.text) for _printf_int_dec
    remoteautodetect.o(.data.sTodoPin) refers (Special) to printf1.o(x$fpl$printf1) for _printf_fp_dec
    remoteautodetect.o(.data.sTodoPin) refers (Special) to _printf_str.o(.text) for _printf_str
    remoteautodetect.o(.data.sTodoPin) refers to remoteautodetect.o(.rodata.str1.1) for [Anonymous Symbol]
    remoteautodetect.o(.bss.iStage) refers (Special) to _printf_percent.o(.ARM.Collect$$_printf_percent$$00000000) for _printf_percent
    remoteautodetect.o(.bss.iStage) refers (Special) to _printf_s.o(.ARM.Collect$$_printf_percent$$00000014) for _printf_s
    remoteautodetect.o(.bss.iStage) refers (Special) to _printf_i.o(.ARM.Collect$$_printf_percent$$00000008) for _printf_i
    remoteautodetect.o(.bss.iStage) refers (Special) to _printf_f.o(.ARM.Collect$$_printf_percent$$00000003) for _printf_f
    remoteautodetect.o(.bss.iStage) refers (Special) to _printf_dec.o(.text) for _printf_int_dec
    remoteautodetect.o(.bss.iStage) refers (Special) to printf1.o(x$fpl$printf1) for _printf_fp_dec
    remoteautodetect.o(.bss.iStage) refers (Special) to _printf_str.o(.text) for _printf_str
    remoteautodetect.o(.data.iStageOld) refers (Special) to _printf_percent.o(.ARM.Collect$$_printf_percent$$00000000) for _printf_percent
    remoteautodetect.o(.data.iStageOld) refers (Special) to _printf_s.o(.ARM.Collect$$_printf_percent$$00000014) for _printf_s
    remoteautodetect.o(.data.iStageOld) refers (Special) to _printf_i.o(.ARM.Collect$$_printf_percent$$00000008) for _printf_i
    remoteautodetect.o(.data.iStageOld) refers (Special) to _printf_f.o(.ARM.Collect$$_printf_percent$$00000003) for _printf_f
    remoteautodetect.o(.data.iStageOld) refers (Special) to _printf_dec.o(.text) for _printf_int_dec
    remoteautodetect.o(.data.iStageOld) refers (Special) to printf1.o(x$fpl$printf1) for _printf_fp_dec
    remoteautodetect.o(.data.iStageOld) refers (Special) to _printf_str.o(.text) for _printf_str
    remoteautodetect.o(.bss.iTest) refers (Special) to _printf_percent.o(.ARM.Collect$$_printf_percent$$00000000) for _printf_percent
    remoteautodetect.o(.bss.iTest) refers (Special) to _printf_s.o(.ARM.Collect$$_printf_percent$$00000014) for _printf_s
    remoteautodetect.o(.bss.iTest) refers (Special) to _printf_i.o(.ARM.Collect$$_printf_percent$$00000008) for _printf_i
    remoteautodetect.o(.bss.iTest) refers (Special) to _printf_f.o(.ARM.Collect$$_printf_percent$$00000003) for _printf_f
    remoteautodetect.o(.bss.iTest) refers (Special) to _printf_dec.o(.text) for _printf_int_dec
    remoteautodetect.o(.bss.iTest) refers (Special) to printf1.o(x$fpl$printf1) for _printf_fp_dec
    remoteautodetect.o(.bss.iTest) refers (Special) to _printf_str.o(.text) for _printf_str
    remoteautodetect.o(.bss.iTestPin) refers (Special) to _printf_percent.o(.ARM.Collect$$_printf_percent$$00000000) for _printf_percent
    remoteautodetect.o(.bss.iTestPin) refers (Special) to _printf_s.o(.ARM.Collect$$_printf_percent$$00000014) for _printf_s
    remoteautodetect.o(.bss.iTestPin) refers (Special) to _printf_i.o(.ARM.Collect$$_printf_percent$$00000008) for _printf_i
    remoteautodetect.o(.bss.iTestPin) refers (Special) to _printf_f.o(.ARM.Collect$$_printf_percent$$00000003) for _printf_f
    remoteautodetect.o(.bss.iTestPin) refers (Special) to _printf_dec.o(.text) for _printf_int_dec
    remoteautodetect.o(.bss.iTestPin) refers (Special) to printf1.o(x$fpl$printf1) for _printf_fp_dec
    remoteautodetect.o(.bss.iTestPin) refers (Special) to _printf_str.o(.text) for _printf_str
    remoteautodetect.o(.bss.iTestStart) refers (Special) to _printf_percent.o(.ARM.Collect$$_printf_percent$$00000000) for _printf_percent
    remoteautodetect.o(.bss.iTestStart) refers (Special) to _printf_s.o(.ARM.Collect$$_printf_percent$$00000014) for _printf_s
    remoteautodetect.o(.bss.iTestStart) refers (Special) to _printf_i.o(.ARM.Collect$$_printf_percent$$00000008) for _printf_i
    remoteautodetect.o(.bss.iTestStart) refers (Special) to _printf_f.o(.ARM.Collect$$_printf_percent$$00000003) for _printf_f
    remoteautodetect.o(.bss.iTestStart) refers (Special) to _printf_dec.o(.text) for _printf_int_dec
    remoteautodetect.o(.bss.iTestStart) refers (Special) to printf1.o(x$fpl$printf1) for _printf_fp_dec
    remoteautodetect.o(.bss.iTestStart) refers (Special) to _printf_str.o(.text) for _printf_str
    remoteautodetect.o(.bss.iRepeat) refers (Special) to _printf_percent.o(.ARM.Collect$$_printf_percent$$00000000) for _printf_percent
    remoteautodetect.o(.bss.iRepeat) refers (Special) to _printf_s.o(.ARM.Collect$$_printf_percent$$00000014) for _printf_s
    remoteautodetect.o(.bss.iRepeat) refers (Special) to _printf_i.o(.ARM.Collect$$_printf_percent$$00000008) for _printf_i
    remoteautodetect.o(.bss.iRepeat) refers (Special) to _printf_f.o(.ARM.Collect$$_printf_percent$$00000003) for _printf_f
    remoteautodetect.o(.bss.iRepeat) refers (Special) to _printf_dec.o(.text) for _printf_int_dec
    remoteautodetect.o(.bss.iRepeat) refers (Special) to printf1.o(x$fpl$printf1) for _printf_fp_dec
    remoteautodetect.o(.bss.iRepeat) refers (Special) to _printf_str.o(.text) for _printf_str
    remoteautodetect.o(.bss.iAverage) refers (Special) to _printf_percent.o(.ARM.Collect$$_printf_percent$$00000000) for _printf_percent
    remoteautodetect.o(.bss.iAverage) refers (Special) to _printf_s.o(.ARM.Collect$$_printf_percent$$00000014) for _printf_s
    remoteautodetect.o(.bss.iAverage) refers (Special) to _printf_i.o(.ARM.Collect$$_printf_percent$$00000008) for _printf_i
    remoteautodetect.o(.bss.iAverage) refers (Special) to _printf_f.o(.ARM.Collect$$_printf_percent$$00000003) for _printf_f
    remoteautodetect.o(.bss.iAverage) refers (Special) to _printf_dec.o(.text) for _printf_int_dec
    remoteautodetect.o(.bss.iAverage) refers (Special) to printf1.o(x$fpl$printf1) for _printf_fp_dec
    remoteautodetect.o(.bss.iAverage) refers (Special) to _printf_str.o(.text) for _printf_str
    remoteautodetect.o(.data.iAverageMax) refers (Special) to _printf_percent.o(.ARM.Collect$$_printf_percent$$00000000) for _printf_percent
    remoteautodetect.o(.data.iAverageMax) refers (Special) to _printf_s.o(.ARM.Collect$$_printf_percent$$00000014) for _printf_s
    remoteautodetect.o(.data.iAverageMax) refers (Special) to _printf_i.o(.ARM.Collect$$_printf_percent$$00000008) for _printf_i
    remoteautodetect.o(.data.iAverageMax) refers (Special) to _printf_f.o(.ARM.Collect$$_printf_percent$$00000003) for _printf_f
    remoteautodetect.o(.data.iAverageMax) refers (Special) to _printf_dec.o(.text) for _printf_int_dec
    remoteautodetect.o(.data.iAverageMax) refers (Special) to printf1.o(x$fpl$printf1) for _printf_fp_dec
    remoteautodetect.o(.data.iAverageMax) refers (Special) to _printf_str.o(.text) for _printf_str
    remoteautodetect.o(.bss.msTicksTest) refers (Special) to _printf_percent.o(.ARM.Collect$$_printf_percent$$00000000) for _printf_percent
    remoteautodetect.o(.bss.msTicksTest) refers (Special) to _printf_s.o(.ARM.Collect$$_printf_percent$$00000014) for _printf_s
    remoteautodetect.o(.bss.msTicksTest) refers (Special) to _printf_i.o(.ARM.Collect$$_printf_percent$$00000008) for _printf_i
    remoteautodetect.o(.bss.msTicksTest) refers (Special) to _printf_f.o(.ARM.Collect$$_printf_percent$$00000003) for _printf_f
    remoteautodetect.o(.bss.msTicksTest) refers (Special) to _printf_dec.o(.text) for _printf_int_dec
    remoteautodetect.o(.bss.msTicksTest) refers (Special) to printf1.o(x$fpl$printf1) for _printf_fp_dec
    remoteautodetect.o(.bss.msTicksTest) refers (Special) to _printf_str.o(.text) for _printf_str
    remoteautodetect.o(.data.asScan) refers (Special) to _printf_percent.o(.ARM.Collect$$_printf_percent$$00000000) for _printf_percent
    remoteautodetect.o(.data.asScan) refers (Special) to _printf_s.o(.ARM.Collect$$_printf_percent$$00000014) for _printf_s
    remoteautodetect.o(.data.asScan) refers (Special) to _printf_i.o(.ARM.Collect$$_printf_percent$$00000008) for _printf_i
    remoteautodetect.o(.data.asScan) refers (Special) to _printf_f.o(.ARM.Collect$$_printf_percent$$00000003) for _printf_f
    remoteautodetect.o(.data.asScan) refers (Special) to _printf_dec.o(.text) for _printf_int_dec
    remoteautodetect.o(.data.asScan) refers (Special) to printf1.o(x$fpl$printf1) for _printf_fp_dec
    remoteautodetect.o(.data.asScan) refers (Special) to _printf_str.o(.text) for _printf_str
    remoteautodetect.o(.data.asScan) refers to remoteautodetect.o(.rodata.str1.1) for [Anonymous Symbol]
    remoteautodetect.o(.bss.aiPinScan) refers (Special) to _printf_percent.o(.ARM.Collect$$_printf_percent$$00000000) for _printf_percent
    remoteautodetect.o(.bss.aiPinScan) refers (Special) to _printf_s.o(.ARM.Collect$$_printf_percent$$00000014) for _printf_s
    remoteautodetect.o(.bss.aiPinScan) refers (Special) to _printf_i.o(.ARM.Collect$$_printf_percent$$00000008) for _printf_i
    remoteautodetect.o(.bss.aiPinScan) refers (Special) to _printf_f.o(.ARM.Collect$$_printf_percent$$00000003) for _printf_f
    remoteautodetect.o(.bss.aiPinScan) refers (Special) to _printf_dec.o(.text) for _printf_int_dec
    remoteautodetect.o(.bss.aiPinScan) refers (Special) to printf1.o(x$fpl$printf1) for _printf_fp_dec
    remoteautodetect.o(.bss.aiPinScan) refers (Special) to _printf_str.o(.text) for _printf_str
    remoteautodetect.o(.data.iMove) refers (Special) to _printf_percent.o(.ARM.Collect$$_printf_percent$$00000000) for _printf_percent
    remoteautodetect.o(.data.iMove) refers (Special) to _printf_s.o(.ARM.Collect$$_printf_percent$$00000014) for _printf_s
    remoteautodetect.o(.data.iMove) refers (Special) to _printf_i.o(.ARM.Collect$$_printf_percent$$00000008) for _printf_i
    remoteautodetect.o(.data.iMove) refers (Special) to _printf_f.o(.ARM.Collect$$_printf_percent$$00000003) for _printf_f
    remoteautodetect.o(.data.iMove) refers (Special) to _printf_dec.o(.text) for _printf_int_dec
    remoteautodetect.o(.data.iMove) refers (Special) to printf1.o(x$fpl$printf1) for _printf_fp_dec
    remoteautodetect.o(.data.iMove) refers (Special) to _printf_str.o(.text) for _printf_str
    remoteautodetect.o(.rodata.str1.4) refers (Special) to _printf_percent.o(.ARM.Collect$$_printf_percent$$00000000) for _printf_percent
    remoteautodetect.o(.rodata.str1.4) refers (Special) to _printf_s.o(.ARM.Collect$$_printf_percent$$00000014) for _printf_s
    remoteautodetect.o(.rodata.str1.4) refers (Special) to _printf_i.o(.ARM.Collect$$_printf_percent$$00000008) for _printf_i
    remoteautodetect.o(.rodata.str1.4) refers (Special) to _printf_f.o(.ARM.Collect$$_printf_percent$$00000003) for _printf_f
    remoteautodetect.o(.rodata.str1.4) refers (Special) to _printf_dec.o(.text) for _printf_int_dec
    remoteautodetect.o(.rodata.str1.4) refers (Special) to printf1.o(x$fpl$printf1) for _printf_fp_dec
    remoteautodetect.o(.rodata.str1.4) refers (Special) to _printf_str.o(.text) for _printf_str
    remoteautodetect.o(.bss.fVBatt) refers (Special) to _printf_percent.o(.ARM.Collect$$_printf_percent$$00000000) for _printf_percent
    remoteautodetect.o(.bss.fVBatt) refers (Special) to _printf_s.o(.ARM.Collect$$_printf_percent$$00000014) for _printf_s
    remoteautodetect.o(.bss.fVBatt) refers (Special) to _printf_i.o(.ARM.Collect$$_printf_percent$$00000008) for _printf_i
    remoteautodetect.o(.bss.fVBatt) refers (Special) to _printf_f.o(.ARM.Collect$$_printf_percent$$00000003) for _printf_f
    remoteautodetect.o(.bss.fVBatt) refers (Special) to _printf_dec.o(.text) for _printf_int_dec
    remoteautodetect.o(.bss.fVBatt) refers (Special) to printf1.o(x$fpl$printf1) for _printf_fp_dec
    remoteautodetect.o(.bss.fVBatt) refers (Special) to _printf_str.o(.text) for _printf_str
    remoteautodetect.o(.bss.iOffsetDC) refers (Special) to _printf_percent.o(.ARM.Collect$$_printf_percent$$00000000) for _printf_percent
    remoteautodetect.o(.bss.iOffsetDC) refers (Special) to _printf_s.o(.ARM.Collect$$_printf_percent$$00000014) for _printf_s
    remoteautodetect.o(.bss.iOffsetDC) refers (Special) to _printf_i.o(.ARM.Collect$$_printf_percent$$00000008) for _printf_i
    remoteautodetect.o(.bss.iOffsetDC) refers (Special) to _printf_f.o(.ARM.Collect$$_printf_percent$$00000003) for _printf_f
    remoteautodetect.o(.bss.iOffsetDC) refers (Special) to _printf_dec.o(.text) for _printf_int_dec
    remoteautodetect.o(.bss.iOffsetDC) refers (Special) to printf1.o(x$fpl$printf1) for _printf_fp_dec
    remoteautodetect.o(.bss.iOffsetDC) refers (Special) to _printf_str.o(.text) for _printf_str
    remoteautodetect.o(.bss.fCurrentDC) refers (Special) to _printf_percent.o(.ARM.Collect$$_printf_percent$$00000000) for _printf_percent
    remoteautodetect.o(.bss.fCurrentDC) refers (Special) to _printf_s.o(.ARM.Collect$$_printf_percent$$00000014) for _printf_s
    remoteautodetect.o(.bss.fCurrentDC) refers (Special) to _printf_i.o(.ARM.Collect$$_printf_percent$$00000008) for _printf_i
    remoteautodetect.o(.bss.fCurrentDC) refers (Special) to _printf_f.o(.ARM.Collect$$_printf_percent$$00000003) for _printf_f
    remoteautodetect.o(.bss.fCurrentDC) refers (Special) to _printf_dec.o(.text) for _printf_int_dec
    remoteautodetect.o(.bss.fCurrentDC) refers (Special) to printf1.o(x$fpl$printf1) for _printf_fp_dec
    remoteautodetect.o(.bss.fCurrentDC) refers (Special) to _printf_str.o(.text) for _printf_str
    remoteautodetect.o(.bss.aPinHall) refers (Special) to _printf_percent.o(.ARM.Collect$$_printf_percent$$00000000) for _printf_percent
    remoteautodetect.o(.bss.aPinHall) refers (Special) to _printf_s.o(.ARM.Collect$$_printf_percent$$00000014) for _printf_s
    remoteautodetect.o(.bss.aPinHall) refers (Special) to _printf_i.o(.ARM.Collect$$_printf_percent$$00000008) for _printf_i
    remoteautodetect.o(.bss.aPinHall) refers (Special) to _printf_f.o(.ARM.Collect$$_printf_percent$$00000003) for _printf_f
    remoteautodetect.o(.bss.aPinHall) refers (Special) to _printf_dec.o(.text) for _printf_int_dec
    remoteautodetect.o(.bss.aPinHall) refers (Special) to printf1.o(x$fpl$printf1) for _printf_fp_dec
    remoteautodetect.o(.bss.aPinHall) refers (Special) to _printf_str.o(.text) for _printf_str
    remoteautodetect.o(.data.aHallOrder) refers (Special) to _printf_percent.o(.ARM.Collect$$_printf_percent$$00000000) for _printf_percent
    remoteautodetect.o(.data.aHallOrder) refers (Special) to _printf_s.o(.ARM.Collect$$_printf_percent$$00000014) for _printf_s
    remoteautodetect.o(.data.aHallOrder) refers (Special) to _printf_i.o(.ARM.Collect$$_printf_percent$$00000008) for _printf_i
    remoteautodetect.o(.data.aHallOrder) refers (Special) to _printf_f.o(.ARM.Collect$$_printf_percent$$00000003) for _printf_f
    remoteautodetect.o(.data.aHallOrder) refers (Special) to _printf_dec.o(.text) for _printf_int_dec
    remoteautodetect.o(.data.aHallOrder) refers (Special) to printf1.o(x$fpl$printf1) for _printf_fp_dec
    remoteautodetect.o(.data.aHallOrder) refers (Special) to _printf_str.o(.text) for _printf_str
    remoteautodetect.o(.data.bHallOld) refers (Special) to _printf_percent.o(.ARM.Collect$$_printf_percent$$00000000) for _printf_percent
    remoteautodetect.o(.data.bHallOld) refers (Special) to _printf_s.o(.ARM.Collect$$_printf_percent$$00000014) for _printf_s
    remoteautodetect.o(.data.bHallOld) refers (Special) to _printf_i.o(.ARM.Collect$$_printf_percent$$00000008) for _printf_i
    remoteautodetect.o(.data.bHallOld) refers (Special) to _printf_f.o(.ARM.Collect$$_printf_percent$$00000003) for _printf_f
    remoteautodetect.o(.data.bHallOld) refers (Special) to _printf_dec.o(.text) for _printf_int_dec
    remoteautodetect.o(.data.bHallOld) refers (Special) to printf1.o(x$fpl$printf1) for _printf_fp_dec
    remoteautodetect.o(.data.bHallOld) refers (Special) to _printf_str.o(.text) for _printf_str
    remoteautodetect.o(.bss.msTicksAuto) refers (Special) to _printf_percent.o(.ARM.Collect$$_printf_percent$$00000000) for _printf_percent
    remoteautodetect.o(.bss.msTicksAuto) refers (Special) to _printf_s.o(.ARM.Collect$$_printf_percent$$00000014) for _printf_s
    remoteautodetect.o(.bss.msTicksAuto) refers (Special) to _printf_i.o(.ARM.Collect$$_printf_percent$$00000008) for _printf_i
    remoteautodetect.o(.bss.msTicksAuto) refers (Special) to _printf_f.o(.ARM.Collect$$_printf_percent$$00000003) for _printf_f
    remoteautodetect.o(.bss.msTicksAuto) refers (Special) to _printf_dec.o(.text) for _printf_int_dec
    remoteautodetect.o(.bss.msTicksAuto) refers (Special) to printf1.o(x$fpl$printf1) for _printf_fp_dec
    remoteautodetect.o(.bss.msTicksAuto) refers (Special) to _printf_str.o(.text) for _printf_str
    remoteautodetect.o(.data.posAuto) refers (Special) to _printf_percent.o(.ARM.Collect$$_printf_percent$$00000000) for _printf_percent
    remoteautodetect.o(.data.posAuto) refers (Special) to _printf_s.o(.ARM.Collect$$_printf_percent$$00000014) for _printf_s
    remoteautodetect.o(.data.posAuto) refers (Special) to _printf_i.o(.ARM.Collect$$_printf_percent$$00000008) for _printf_i
    remoteautodetect.o(.data.posAuto) refers (Special) to _printf_f.o(.ARM.Collect$$_printf_percent$$00000003) for _printf_f
    remoteautodetect.o(.data.posAuto) refers (Special) to _printf_dec.o(.text) for _printf_int_dec
    remoteautodetect.o(.data.posAuto) refers (Special) to printf1.o(x$fpl$printf1) for _printf_fp_dec
    remoteautodetect.o(.data.posAuto) refers (Special) to _printf_str.o(.text) for _printf_str
    remoteautodetect.o(.bss.posOld) refers (Special) to _printf_percent.o(.ARM.Collect$$_printf_percent$$00000000) for _printf_percent
    remoteautodetect.o(.bss.posOld) refers (Special) to _printf_s.o(.ARM.Collect$$_printf_percent$$00000014) for _printf_s
    remoteautodetect.o(.bss.posOld) refers (Special) to _printf_i.o(.ARM.Collect$$_printf_percent$$00000008) for _printf_i
    remoteautodetect.o(.bss.posOld) refers (Special) to _printf_f.o(.ARM.Collect$$_printf_percent$$00000003) for _printf_f
    remoteautodetect.o(.bss.posOld) refers (Special) to _printf_dec.o(.text) for _printf_int_dec
    remoteautodetect.o(.bss.posOld) refers (Special) to printf1.o(x$fpl$printf1) for _printf_fp_dec
    remoteautodetect.o(.bss.posOld) refers (Special) to _printf_str.o(.text) for _printf_str
    remoteautodetect.o(.bss.msTicksOld) refers (Special) to _printf_percent.o(.ARM.Collect$$_printf_percent$$00000000) for _printf_percent
    remoteautodetect.o(.bss.msTicksOld) refers (Special) to _printf_s.o(.ARM.Collect$$_printf_percent$$00000014) for _printf_s
    remoteautodetect.o(.bss.msTicksOld) refers (Special) to _printf_i.o(.ARM.Collect$$_printf_percent$$00000008) for _printf_i
    remoteautodetect.o(.bss.msTicksOld) refers (Special) to _printf_f.o(.ARM.Collect$$_printf_percent$$00000003) for _printf_f
    remoteautodetect.o(.bss.msTicksOld) refers (Special) to _printf_dec.o(.text) for _printf_int_dec
    remoteautodetect.o(.bss.msTicksOld) refers (Special) to printf1.o(x$fpl$printf1) for _printf_fp_dec
    remoteautodetect.o(.bss.msTicksOld) refers (Special) to _printf_str.o(.text) for _printf_str
    gd32f1x0_adc.o(.text) refers to gd32f1x0_rcu.o(.text) for rcu_periph_reset_enable
    gd32f1x0_adc.o(.ARM.exidx) refers to gd32f1x0_adc.o(.text) for [Anonymous Symbol]
    gd32f1x0_dbg.o(.ARM.exidx) refers to gd32f1x0_dbg.o(.text) for [Anonymous Symbol]
    gd32f1x0_dma.o(.ARM.exidx) refers to gd32f1x0_dma.o(.text) for [Anonymous Symbol]
    gd32f1x0_fwdgt.o(.ARM.exidx) refers to gd32f1x0_fwdgt.o(.text) for [Anonymous Symbol]
    gd32f1x0_gpio.o(.text) refers to gd32f1x0_gpio.o(.rodata..Lswitch.table.gpio_deinit.1) for .Lswitch.table.gpio_deinit.1
    gd32f1x0_gpio.o(.text) refers to gd32f1x0_rcu.o(.text) for rcu_periph_reset_enable
    gd32f1x0_gpio.o(.ARM.exidx) refers to gd32f1x0_gpio.o(.text) for [Anonymous Symbol]
    gd32f1x0_i2c.o(.text) refers to gd32f1x0_rcu.o(.text) for rcu_periph_reset_enable
    gd32f1x0_i2c.o(.ARM.exidx) refers to gd32f1x0_i2c.o(.text) for [Anonymous Symbol]
    gd32f1x0_misc.o(.ARM.exidx) refers to gd32f1x0_misc.o(.text) for [Anonymous Symbol]
    gd32f1x0_pmu.o(.text) refers to gd32f1x0_rcu.o(.text) for rcu_periph_reset_enable
    gd32f1x0_pmu.o(.text) refers to gd32f1x0_pmu.o(.bss.pmu_to_deepsleepmode.reg_snap.1) for pmu_to_deepsleepmode.reg_snap.1
    gd32f1x0_pmu.o(.text) refers to gd32f1x0_pmu.o(.bss.pmu_to_deepsleepmode.reg_snap.0) for pmu_to_deepsleepmode.reg_snap.0
    gd32f1x0_pmu.o(.text) refers to gd32f1x0_pmu.o(.bss.pmu_to_deepsleepmode.reg_snap.2) for pmu_to_deepsleepmode.reg_snap.2
    gd32f1x0_pmu.o(.text) refers to gd32f1x0_pmu.o(.bss.pmu_to_deepsleepmode.reg_snap.3) for pmu_to_deepsleepmode.reg_snap.3
    gd32f1x0_pmu.o(.ARM.exidx) refers to gd32f1x0_pmu.o(.text) for [Anonymous Symbol]
    gd32f1x0_rcu.o(.text) refers to gd32f1x0_rcu.o(.rodata.cst8) for .L__const.rcu_clock_freq_get.apb2_exp
    gd32f1x0_rcu.o(.ARM.exidx) refers to gd32f1x0_rcu.o(.text) for [Anonymous Symbol]
    gd32f1x0_syscfg.o(.text) refers to gd32f1x0_rcu.o(.text) for rcu_periph_reset_enable
    gd32f1x0_syscfg.o(.ARM.exidx) refers to gd32f1x0_syscfg.o(.text) for [Anonymous Symbol]
    gd32f1x0_timer.o(.text) refers to gd32f1x0_rcu.o(.text) for rcu_periph_reset_enable
    gd32f1x0_timer.o(.ARM.exidx) refers to gd32f1x0_timer.o(.text) for [Anonymous Symbol]
    gd32f1x0_usart.o(.text) refers to gd32f1x0_rcu.o(.text) for rcu_periph_reset_enable
    gd32f1x0_usart.o(.ARM.exidx) refers to gd32f1x0_usart.o(.text) for [Anonymous Symbol]
    gd32f1x0_wwdgt.o(.text) refers to gd32f1x0_rcu.o(.text) for rcu_periph_reset_enable
    gd32f1x0_wwdgt.o(.ARM.exidx) refers to gd32f1x0_wwdgt.o(.text) for [Anonymous Symbol]
    startup_gd32f1x0.o(STACK) refers (Special) to heapauxi.o(.text) for __use_two_region_memory
    startup_gd32f1x0.o(HEAP) refers (Special) to heapauxi.o(.text) for __use_two_region_memory
    startup_gd32f1x0.o(RESET) refers (Special) to heapauxi.o(.text) for __use_two_region_memory
    startup_gd32f1x0.o(RESET) refers to startup_gd32f1x0.o(STACK) for __initial_sp
    startup_gd32f1x0.o(RESET) refers to startup_gd32f1x0.o(.text) for Reset_Handler
    startup_gd32f1x0.o(RESET) refers to it.o(.text) for NMI_Handler
    startup_gd32f1x0.o(.text) refers (Special) to heapauxi.o(.text) for __use_two_region_memory
    startup_gd32f1x0.o(.text) refers to system_gd32f1x0.o(.text) for SystemInit
    startup_gd32f1x0.o(.text) refers to __main.o(!!!main) for __main
    startup_gd32f1x0.o(.text) refers to startup_gd32f1x0.o(HEAP) for Heap_Mem
    startup_gd32f1x0.o(.text) refers to startup_gd32f1x0.o(STACK) for Stack_Mem
    system_gd32f1x0.o(.text) refers to system_gd32f1x0.o(.data.SystemCoreClock) for SystemCoreClock
    system_gd32f1x0.o(.ARM.exidx) refers to system_gd32f1x0.o(.text) for [Anonymous Symbol]
    __2sprintf.o(.text) refers to _printf_char_common.o(.text) for _printf_char_common
    __2sprintf.o(.text) refers to _sputc.o(.text) for _sputc
    noretval__2sprintf.o(.text) refers to _printf_char_common.o(.text) for _printf_char_common
    noretval__2sprintf.o(.text) refers to _sputc.o(.text) for _sputc
    __printf.o(.text) refers to _printf_percent.o(.ARM.Collect$$_printf_percent$$00000000) for _printf_percent
    _printf_str.o(.text) refers (Special) to _printf_char.o(.text) for _printf_cs_common
    _printf_dec.o(.text) refers to _printf_intcommon.o(.text) for _printf_int_common
    __printf_flags.o(.text) refers to _printf_percent.o(.ARM.Collect$$_printf_percent$$00000000) for _printf_percent
    __printf_flags.o(.text) refers to __printf_flags.o(.constdata) for .constdata
    __printf_ss.o(.text) refers to _printf_percent.o(.ARM.Collect$$_printf_percent$$00000000) for _printf_percent
    __printf_flags_ss.o(.text) refers to _printf_percent.o(.ARM.Collect$$_printf_percent$$00000000) for _printf_percent
    __printf_flags_ss.o(.text) refers to __printf_flags_ss.o(.constdata) for .constdata
    __printf_wp.o(.text) refers to __printf_wp.o(i._is_digit) for _is_digit
    __printf_wp.o(.text) refers to _printf_percent.o(.ARM.Collect$$_printf_percent$$00000000) for _printf_percent
    __printf_flags_wp.o(.text) refers to __printf_wp.o(i._is_digit) for _is_digit
    __printf_flags_wp.o(.text) refers to _printf_percent.o(.ARM.Collect$$_printf_percent$$00000000) for _printf_percent
    __printf_flags_wp.o(.text) refers to __printf_flags_wp.o(.constdata) for .constdata
    __printf_ss_wp.o(.text) refers to __printf_wp.o(i._is_digit) for _is_digit
    __printf_ss_wp.o(.text) refers to _printf_percent.o(.ARM.Collect$$_printf_percent$$00000000) for _printf_percent
    __printf_flags_ss_wp.o(.text) refers to __printf_wp.o(i._is_digit) for _is_digit
    __printf_flags_ss_wp.o(.text) refers to _printf_percent.o(.ARM.Collect$$_printf_percent$$00000000) for _printf_percent
    __printf_flags_ss_wp.o(.text) refers to __printf_flags_ss_wp.o(.constdata) for .constdata
    _printf_s.o(.ARM.Collect$$_printf_percent$$00000014) refers (Weak) to _printf_char.o(.text) for _printf_string
    _printf_i.o(.ARM.Collect$$_printf_percent$$00000008) refers (Weak) to _printf_dec.o(.text) for _printf_int_dec
    _printf_f.o(.ARM.Collect$$_printf_percent$$00000003) refers (Weak) to printf1.o(x$fpl$printf1) for _printf_fp_dec
    _printf_percent.o(.ARM.Collect$$_printf_percent$$00000000) refers (Special) to _printf_percent_end.o(.ARM.Collect$$_printf_percent$$00000017) for _printf_percent_end
    __main.o(!!!main) refers to __rtentry.o(.ARM.Collect$$rtentry$$00000000) for __rt_entry
    d2f.o(x$fpl$d2f) refers (Special) to usenofp.o(x$fpl$usenofp) for __I$use$fp
    d2f.o(x$fpl$d2f) refers to fretinf.o(x$fpl$fretinf) for __fpl_fretinf
    d2f.o(x$fpl$d2f) refers to dnaninf.o(x$fpl$dnaninf) for __fpl_dnaninf
    daddsub_clz.o(x$fpl$dadd) refers (Special) to usenofp.o(x$fpl$usenofp) for __I$use$fp
    daddsub_clz.o(x$fpl$dadd) refers to daddsub_clz.o(x$fpl$dsub) for _dsub1
    daddsub_clz.o(x$fpl$dadd) refers to dretinf.o(x$fpl$dretinf) for __fpl_dretinf
    daddsub_clz.o(x$fpl$dadd) refers to dnaninf.o(x$fpl$dnaninf) for __fpl_dnaninf
    daddsub_clz.o(x$fpl$drsb) refers (Special) to usenofp.o(x$fpl$usenofp) for __I$use$fp
    daddsub_clz.o(x$fpl$drsb) refers to daddsub_clz.o(x$fpl$dadd) for _dadd1
    daddsub_clz.o(x$fpl$drsb) refers to daddsub_clz.o(x$fpl$dsub) for _dsub1
    daddsub_clz.o(x$fpl$dsub) refers (Special) to usenofp.o(x$fpl$usenofp) for __I$use$fp
    daddsub_clz.o(x$fpl$dsub) refers to daddsub_clz.o(x$fpl$dadd) for _dadd1
    daddsub_clz.o(x$fpl$dsub) refers to dnaninf.o(x$fpl$dnaninf) for __fpl_dnaninf
    dcmp.o(x$fpl$fcmp) refers (Special) to usenofp.o(x$fpl$usenofp) for __I$use$fp
    dcmp.o(x$fpl$fcmp) refers to deqf.o(x$fpl$deqf) for _dcmpeq
    dcmp.o(x$fpl$fcmp) refers to dgeqf.o(x$fpl$dgeqf) for _dcmpge
    dcmp.o(x$fpl$fcmp) refers to dleqf.o(x$fpl$dleqf) for _dcmple
    dfix.o(x$fpl$dfix) refers (Special) to usenofp.o(x$fpl$usenofp) for __I$use$fp
    dfix.o(x$fpl$dfix) refers to dnaninf.o(x$fpl$dnaninf) for __fpl_dnaninf
    dfix.o(x$fpl$dfixr) refers (Special) to usenofp.o(x$fpl$usenofp) for __I$use$fp
    dfix.o(x$fpl$dfixr) refers to dnaninf.o(x$fpl$dnaninf) for __fpl_dnaninf
    dflt_clz.o(x$fpl$dfltu) refers (Special) to usenofp.o(x$fpl$usenofp) for __I$use$fp
    dflt_clz.o(x$fpl$dflt) refers (Special) to usenofp.o(x$fpl$usenofp) for __I$use$fp
    dflt_clz.o(x$fpl$dfltn) refers (Special) to usenofp.o(x$fpl$usenofp) for __I$use$fp
    dmul.o(x$fpl$dmul) refers (Special) to usenofp.o(x$fpl$usenofp) for __I$use$fp
    dmul.o(x$fpl$dmul) refers to dretinf.o(x$fpl$dretinf) for __fpl_dretinf
    dmul.o(x$fpl$dmul) refers to dnaninf.o(x$fpl$dnaninf) for __fpl_dnaninf
    f2d.o(x$fpl$f2d) refers (Special) to usenofp.o(x$fpl$usenofp) for __I$use$fp
    f2d.o(x$fpl$f2d) refers to fnaninf.o(x$fpl$fnaninf) for __fpl_fnaninf
    f2d.o(x$fpl$f2d) refers to dretinf.o(x$fpl$dretinf) for __fpl_dretinf
    fcmp.o(x$fpl$fcmp) refers (Special) to usenofp.o(x$fpl$usenofp) for __I$use$fp
    fcmp.o(x$fpl$fcmp) refers to feqf.o(x$fpl$feqf) for _fcmpeq
    fcmp.o(x$fpl$fcmp) refers to fgeqf.o(x$fpl$fgeqf) for _fcmpge
    fcmp.o(x$fpl$fcmp) refers to fleqf.o(x$fpl$fleqf) for _fcmple
    fdiv.o(x$fpl$frdiv) refers (Special) to usenofp.o(x$fpl$usenofp) for __I$use$fp
    fdiv.o(x$fpl$frdiv) refers to fdiv.o(x$fpl$fdiv) for _fdiv1
    fdiv.o(x$fpl$fdiv) refers (Special) to usenofp.o(x$fpl$usenofp) for __I$use$fp
    fdiv.o(x$fpl$fdiv) refers to fretinf.o(x$fpl$fretinf) for __fpl_fretinf
    fdiv.o(x$fpl$fdiv) refers to fnaninf.o(x$fpl$fnaninf) for __fpl_fnaninf
    fflt_clz.o(x$fpl$ffltu) refers (Special) to usenofp.o(x$fpl$usenofp) for __I$use$fp
    fflt_clz.o(x$fpl$fflt) refers (Special) to usenofp.o(x$fpl$usenofp) for __I$use$fp
    fflt_clz.o(x$fpl$ffltn) refers (Special) to usenofp.o(x$fpl$usenofp) for __I$use$fp
    printf1.o(x$fpl$printf1) refers to _printf_fp_dec.o(.text) for _printf_fp_dec_real
    __rtentry.o(.ARM.Collect$$rtentry$$00000000) refers (Special) to __rtentry2.o(.ARM.Collect$$rtentry$$0000000A) for __rt_entry_li
    __rtentry.o(.ARM.Collect$$rtentry$$00000000) refers (Special) to __rtentry2.o(.ARM.Collect$$rtentry$$0000000D) for __rt_entry_main
    __rtentry.o(.ARM.Collect$$rtentry$$00000000) refers (Special) to __rtentry2.o(.ARM.Collect$$rtentry$$0000000C) for __rt_entry_postli_1
    __rtentry.o(.ARM.Collect$$rtentry$$00000000) refers (Special) to __rtentry2.o(.ARM.Collect$$rtentry$$00000009) for __rt_entry_postsh_1
    __rtentry.o(.ARM.Collect$$rtentry$$00000000) refers (Special) to __rtentry2.o(.ARM.Collect$$rtentry$$00000002) for __rt_entry_presh_1
    __rtentry.o(.ARM.Collect$$rtentry$$00000000) refers (Special) to __rtentry4.o(.ARM.Collect$$rtentry$$00000004) for __rt_entry_sh
    _printf_fp_dec.o(.text) refers (Special) to usenofp.o(x$fpl$usenofp) for __I$use$fp
    _printf_fp_dec.o(.text) refers (Special) to lc_numeric_c.o(locale$$code) for _get_lc_numeric
    _printf_fp_dec.o(.text) refers to bigflt0.o(.text) for _btod_etento
    _printf_fp_dec.o(.text) refers to btod.o(CL$$btod_d2e) for _btod_d2e
    _printf_fp_dec.o(.text) refers to btod.o(CL$$btod_ediv) for _btod_ediv
    _printf_fp_dec.o(.text) refers to btod.o(CL$$btod_emul) for _btod_emul
    _printf_fp_dec.o(.text) refers to lludiv10.o(.text) for _ll_udiv10
    _printf_fp_dec.o(.text) refers to fpclassify.o(i.__ARM_fpclassify) for __ARM_fpclassify
    _printf_fp_dec.o(.text) refers to _printf_fp_infnan.o(.text) for _printf_fp_infnan
    _printf_fp_dec.o(.text) refers to rt_locale_intlibspace.o(.text) for __rt_locale
    _printf_fp_dec_accurate.o(.text) refers (Special) to usenofp.o(x$fpl$usenofp) for __I$use$fp
    _printf_fp_dec_accurate.o(.text) refers (Special) to lc_numeric_c.o(locale$$code) for _get_lc_numeric
    _printf_fp_dec_accurate.o(.text) refers to btod_accurate.o(.text) for _btod_main
    _printf_fp_dec_accurate.o(.text) refers to fpclassify.o(i.__ARM_fpclassify) for __ARM_fpclassify
    _printf_fp_dec_accurate.o(.text) refers to _printf_fp_infnan.o(.text) for _printf_fp_infnan
    _printf_fp_dec_accurate.o(.text) refers to rt_locale_intlibspace.o(.text) for __rt_locale
    _printf_char_common.o(.text) refers to __printf_wp.o(.text) for __printf
    _printf_char.o(.text) refers (Weak) to _printf_str.o(.text) for _printf_str
    deqf.o(x$fpl$deqf) refers (Special) to usenofp.o(x$fpl$usenofp) for __I$use$fp
    deqf.o(x$fpl$deqf) refers to dnaninf.o(x$fpl$dnaninf) for __fpl_dnaninf
    deqf.o(x$fpl$deqf) refers to dcmpi.o(x$fpl$dcmpinf) for __fpl_dcmp_Inf
    dgeqf.o(x$fpl$dgeqf) refers (Special) to usenofp.o(x$fpl$usenofp) for __I$use$fp
    dgeqf.o(x$fpl$dgeqf) refers to dnaninf.o(x$fpl$dnaninf) for __fpl_dnaninf
    dgeqf.o(x$fpl$dgeqf) refers to dcmpi.o(x$fpl$dcmpinf) for __fpl_dcmp_Inf
    dleqf.o(x$fpl$dleqf) refers (Special) to usenofp.o(x$fpl$usenofp) for __I$use$fp
    dleqf.o(x$fpl$dleqf) refers to dnaninf.o(x$fpl$dnaninf) for __fpl_dnaninf
    dleqf.o(x$fpl$dleqf) refers to dcmpi.o(x$fpl$dcmpinf) for __fpl_dcmp_Inf
    dnaninf.o(x$fpl$dnaninf) refers (Special) to usenofp.o(x$fpl$usenofp) for __I$use$fp
    dretinf.o(x$fpl$dretinf) refers (Special) to usenofp.o(x$fpl$usenofp) for __I$use$fp
    feqf.o(x$fpl$feqf) refers (Special) to usenofp.o(x$fpl$usenofp) for __I$use$fp
    feqf.o(x$fpl$feqf) refers to fnaninf.o(x$fpl$fnaninf) for __fpl_fnaninf
    feqf.o(x$fpl$feqf) refers to fcmpi.o(x$fpl$fcmpinf) for __fpl_fcmp_Inf
    fgeqf.o(x$fpl$fgeqf) refers (Special) to usenofp.o(x$fpl$usenofp) for __I$use$fp
    fgeqf.o(x$fpl$fgeqf) refers to fnaninf.o(x$fpl$fnaninf) for __fpl_fnaninf
    fgeqf.o(x$fpl$fgeqf) refers to fcmpi.o(x$fpl$fcmpinf) for __fpl_fcmp_Inf
    fleqf.o(x$fpl$fleqf) refers (Special) to usenofp.o(x$fpl$usenofp) for __I$use$fp
    fleqf.o(x$fpl$fleqf) refers to fnaninf.o(x$fpl$fnaninf) for __fpl_fnaninf
    fleqf.o(x$fpl$fleqf) refers to fcmpi.o(x$fpl$fcmpinf) for __fpl_fcmp_Inf
    fnaninf.o(x$fpl$fnaninf) refers (Special) to usenofp.o(x$fpl$usenofp) for __I$use$fp
    fretinf.o(x$fpl$fretinf) refers (Special) to usenofp.o(x$fpl$usenofp) for __I$use$fp
    __rtentry2.o(.ARM.Collect$$rtentry$$00000008) refers to boardinit2.o(.text) for _platform_post_stackheap_init
    __rtentry2.o(.ARM.Collect$$rtentry$$0000000A) refers to libinit.o(.ARM.Collect$$libinit$$00000000) for __rt_lib_init
    __rtentry2.o(.ARM.Collect$$rtentry$$0000000B) refers to boardinit3.o(.text) for _platform_post_lib_init
    __rtentry2.o(.ARM.Collect$$rtentry$$0000000D) refers to main.o(.text) for main
    __rtentry2.o(.ARM.Collect$$rtentry$$0000000D) refers to exit.o(.text) for exit
    __rtentry2.o(.ARM.exidx) refers to __rtentry2.o(.ARM.Collect$$rtentry$$00000001) for .ARM.Collect$$rtentry$$00000001
    __rtentry2.o(.ARM.exidx) refers to __rtentry2.o(.ARM.Collect$$rtentry$$00000008) for .ARM.Collect$$rtentry$$00000008
    __rtentry2.o(.ARM.exidx) refers to __rtentry2.o(.ARM.Collect$$rtentry$$0000000A) for .ARM.Collect$$rtentry$$0000000A
    __rtentry2.o(.ARM.exidx) refers to __rtentry2.o(.ARM.Collect$$rtentry$$0000000B) for .ARM.Collect$$rtentry$$0000000B
    __rtentry2.o(.ARM.exidx) refers to __rtentry2.o(.ARM.Collect$$rtentry$$0000000D) for .ARM.Collect$$rtentry$$0000000D
    __rtentry4.o(.ARM.Collect$$rtentry$$00000004) refers to sys_stackheap_outer.o(.text) for __user_setup_stackheap
    __rtentry4.o(.ARM.exidx) refers to __rtentry4.o(.ARM.Collect$$rtentry$$00000004) for .ARM.Collect$$rtentry$$00000004
    rt_locale.o(.text) refers to rt_locale.o(.bss) for __rt_locale_data
    rt_locale_intlibspace.o(.text) refers to libspace.o(.bss) for __libspace_start
    bigflt0.o(.text) refers (Special) to usenofp.o(x$fpl$usenofp) for __I$use$fp
    bigflt0.o(.text) refers to btod.o(CL$$btod_emul) for _btod_emul
    bigflt0.o(.text) refers to btod.o(CL$$btod_ediv) for _btod_ediv
    bigflt0.o(.text) refers to bigflt0.o(.constdata) for .constdata
    bigflt0.o(.constdata) refers (Special) to usenofp.o(x$fpl$usenofp) for __I$use$fp
    btod.o(CL$$btod_d2e) refers (Special) to usenofp.o(x$fpl$usenofp) for __I$use$fp
    btod.o(CL$$btod_d2e) refers to btod.o(CL$$btod_d2e_norm_op1) for _d2e_norm_op1
    btod.o(CL$$btod_d2e_norm_op1) refers (Special) to usenofp.o(x$fpl$usenofp) for __I$use$fp
    btod.o(CL$$btod_d2e_norm_op1) refers to btod.o(CL$$btod_d2e_denorm_low) for _d2e_denorm_low
    btod.o(CL$$btod_d2e_denorm_low) refers (Special) to usenofp.o(x$fpl$usenofp) for __I$use$fp
    btod.o(CL$$btod_emul) refers (Special) to usenofp.o(x$fpl$usenofp) for __I$use$fp
    btod.o(CL$$btod_emul) refers to btod.o(CL$$btod_mult_common) for __btod_mult_common
    btod.o(CL$$btod_emul) refers to btod.o(CL$$btod_e2e) for _e2e
    btod.o(CL$$btod_ediv) refers (Special) to usenofp.o(x$fpl$usenofp) for __I$use$fp
    btod.o(CL$$btod_ediv) refers to btod.o(CL$$btod_div_common) for __btod_div_common
    btod.o(CL$$btod_ediv) refers to btod.o(CL$$btod_e2e) for _e2e
    btod.o(CL$$btod_emuld) refers (Special) to usenofp.o(x$fpl$usenofp) for __I$use$fp
    btod.o(CL$$btod_emuld) refers to btod.o(CL$$btod_mult_common) for __btod_mult_common
    btod.o(CL$$btod_emuld) refers to btod.o(CL$$btod_e2d) for _e2d
    btod.o(CL$$btod_edivd) refers (Special) to usenofp.o(x$fpl$usenofp) for __I$use$fp
    btod.o(CL$$btod_edivd) refers to btod.o(CL$$btod_div_common) for __btod_div_common
    btod.o(CL$$btod_edivd) refers to btod.o(CL$$btod_e2d) for _e2d
    btod.o(CL$$btod_e2e) refers (Special) to usenofp.o(x$fpl$usenofp) for __I$use$fp
    btod.o(CL$$btod_e2d) refers (Special) to usenofp.o(x$fpl$usenofp) for __I$use$fp
    btod.o(CL$$btod_e2d) refers to btod.o(CL$$btod_e2e) for _e2e
    btod.o(CL$$btod_mult_common) refers (Special) to usenofp.o(x$fpl$usenofp) for __I$use$fp
    btod.o(CL$$btod_div_common) refers (Special) to usenofp.o(x$fpl$usenofp) for __I$use$fp
    btod_accurate.o(.text) refers to btod_accurate_common.o(.text) for _btod_common
    lc_numeric_c.o(locale$$data) refers (Special) to libinit2.o(.ARM.Collect$$libinit$$00000018) for __rt_lib_init_lc_numeric_2
    lc_numeric_c.o(locale$$code) refers (Special) to libinit2.o(.ARM.Collect$$libinit$$00000018) for __rt_lib_init_lc_numeric_2
    lc_numeric_c.o(locale$$code) refers to strcmpv7m.o(.text) for strcmp
    lc_numeric_c.o(locale$$code) refers to lc_numeric_c.o(locale$$data) for __lcnum_c_name
    dcmpi.o(x$fpl$dcmpinf) refers (Special) to usenofp.o(x$fpl$usenofp) for __I$use$fp
    fcmpi.o(x$fpl$fcmpinf) refers (Special) to usenofp.o(x$fpl$usenofp) for __I$use$fp
    istatus.o(x$fpl$ieeestatus) refers (Special) to usenofp.o(x$fpl$usenofp) for __I$use$fp
    fpclassify.o(i.__ARM_fpclassify) refers (Special) to usenofp.o(x$fpl$usenofp) for __I$use$fp
    libspace.o(.text) refers to libspace.o(.bss) for __libspace_start
    sys_stackheap_outer.o(.text) refers to libspace.o(.text) for __user_perproc_libspace
    sys_stackheap_outer.o(.text) refers to startup_gd32f1x0.o(.text) for __user_initial_stackheap
    btod_accurate_common.o(.text) refers to llushr.o(.text) for __aeabi_llsr
    exit.o(.text) refers to rtexit.o(.ARM.Collect$$rtexit$$00000000) for __rt_exit
    libinit.o(.ARM.Collect$$libinit$$00000000) refers (Special) to libinit2.o(.ARM.Collect$$libinit$$00000030) for __rt_lib_init_alloca_1
    libinit.o(.ARM.Collect$$libinit$$00000000) refers (Special) to libinit2.o(.ARM.Collect$$libinit$$0000002E) for __rt_lib_init_argv_1
    libinit.o(.ARM.Collect$$libinit$$00000000) refers (Special) to libinit2.o(.ARM.Collect$$libinit$$0000001D) for __rt_lib_init_atexit_1
    libinit.o(.ARM.Collect$$libinit$$00000000) refers (Special) to libinit2.o(.ARM.Collect$$libinit$$00000023) for __rt_lib_init_clock_1
    libinit.o(.ARM.Collect$$libinit$$00000000) refers (Special) to libinit2.o(.ARM.Collect$$libinit$$00000034) for __rt_lib_init_cpp_1
    libinit.o(.ARM.Collect$$libinit$$00000000) refers (Special) to libinit2.o(.ARM.Collect$$libinit$$00000032) for __rt_lib_init_exceptions_1
    libinit.o(.ARM.Collect$$libinit$$00000000) refers (Special) to libinit2.o(.ARM.Collect$$libinit$$00000002) for __rt_lib_init_fp_1
    libinit.o(.ARM.Collect$$libinit$$00000000) refers (Special) to libinit2.o(.ARM.Collect$$libinit$$00000021) for __rt_lib_init_fp_trap_1
    libinit.o(.ARM.Collect$$libinit$$00000000) refers (Special) to libinit2.o(.ARM.Collect$$libinit$$00000025) for __rt_lib_init_getenv_1
    libinit.o(.ARM.Collect$$libinit$$00000000) refers (Special) to libinit2.o(.ARM.Collect$$libinit$$0000000C) for __rt_lib_init_heap_1
    libinit.o(.ARM.Collect$$libinit$$00000000) refers (Special) to libinit2.o(.ARM.Collect$$libinit$$00000013) for __rt_lib_init_lc_collate_1
    libinit.o(.ARM.Collect$$libinit$$00000000) refers (Special) to libinit2.o(.ARM.Collect$$libinit$$00000015) for __rt_lib_init_lc_ctype_1
    libinit.o(.ARM.Collect$$libinit$$00000000) refers (Special) to libinit2.o(.ARM.Collect$$libinit$$00000017) for __rt_lib_init_lc_monetary_1
    libinit.o(.ARM.Collect$$libinit$$00000000) refers (Special) to libinit2.o(.ARM.Collect$$libinit$$00000019) for __rt_lib_init_lc_numeric_1
    libinit.o(.ARM.Collect$$libinit$$00000000) refers (Special) to libinit2.o(.ARM.Collect$$libinit$$0000001B) for __rt_lib_init_lc_time_1
    libinit.o(.ARM.Collect$$libinit$$00000000) refers (Special) to libinit2.o(.ARM.Collect$$libinit$$00000006) for __rt_lib_init_preinit_1
    libinit.o(.ARM.Collect$$libinit$$00000000) refers (Special) to libinit2.o(.ARM.Collect$$libinit$$00000010) for __rt_lib_init_rand_1
    libinit.o(.ARM.Collect$$libinit$$00000000) refers (Special) to libinit2.o(.ARM.Collect$$libinit$$00000004) for __rt_lib_init_relocate_pie_1
    libinit.o(.ARM.Collect$$libinit$$00000000) refers (Special) to libinit2.o(.ARM.Collect$$libinit$$00000035) for __rt_lib_init_return
    libinit.o(.ARM.Collect$$libinit$$00000000) refers (Special) to libinit2.o(.ARM.Collect$$libinit$$0000001F) for __rt_lib_init_signal_1
    libinit.o(.ARM.Collect$$libinit$$00000000) refers (Special) to libinit2.o(.ARM.Collect$$libinit$$00000027) for __rt_lib_init_stdio_1
    libinit.o(.ARM.Collect$$libinit$$00000000) refers (Special) to libinit2.o(.ARM.Collect$$libinit$$0000000E) for __rt_lib_init_user_alloc_1
    libinit2.o(.ARM.Collect$$libinit$$00000011) refers (Weak) to rt_locale_intlibspace.o(.text) for __rt_locale
    libinit2.o(.ARM.Collect$$libinit$$00000012) refers to libinit2.o(.ARM.Collect$$libinit$$00000011) for .ARM.Collect$$libinit$$00000011
    libinit2.o(.ARM.Collect$$libinit$$00000014) refers to libinit2.o(.ARM.Collect$$libinit$$00000011) for .ARM.Collect$$libinit$$00000011
    libinit2.o(.ARM.Collect$$libinit$$00000016) refers to libinit2.o(.ARM.Collect$$libinit$$00000011) for .ARM.Collect$$libinit$$00000011
    libinit2.o(.ARM.Collect$$libinit$$00000018) refers to libinit2.o(.ARM.Collect$$libinit$$00000011) for .ARM.Collect$$libinit$$00000011
    libinit2.o(.ARM.Collect$$libinit$$00000018) refers (Weak) to lc_numeric_c.o(locale$$code) for _get_lc_numeric
    libinit2.o(.ARM.Collect$$libinit$$0000001A) refers to libinit2.o(.ARM.Collect$$libinit$$00000011) for .ARM.Collect$$libinit$$00000011
    libinit2.o(.ARM.Collect$$libinit$$00000028) refers to argv_veneer.o(.emb_text) for __ARM_argv_veneer
    libinit2.o(.ARM.Collect$$libinit$$00000029) refers to argv_veneer.o(.emb_text) for __ARM_argv_veneer
    rtexit.o(.ARM.Collect$$rtexit$$00000000) refers (Special) to rtexit2.o(.ARM.Collect$$rtexit$$00000004) for __rt_exit_exit
    rtexit.o(.ARM.Collect$$rtexit$$00000000) refers (Special) to rtexit2.o(.ARM.Collect$$rtexit$$00000003) for __rt_exit_ls
    rtexit.o(.ARM.Collect$$rtexit$$00000000) refers (Special) to rtexit2.o(.ARM.Collect$$rtexit$$00000002) for __rt_exit_prels_1
    rtexit.o(.ARM.exidx) refers (Special) to rtexit2.o(.ARM.Collect$$rtexit$$00000004) for __rt_exit_exit
    rtexit.o(.ARM.exidx) refers (Special) to rtexit2.o(.ARM.Collect$$rtexit$$00000003) for __rt_exit_ls
    rtexit.o(.ARM.exidx) refers (Special) to rtexit2.o(.ARM.Collect$$rtexit$$00000002) for __rt_exit_prels_1
    rtexit.o(.ARM.exidx) refers to rtexit.o(.ARM.Collect$$rtexit$$00000000) for .ARM.Collect$$rtexit$$00000000
    argv_veneer.o(.emb_text) refers to no_argv.o(.text) for __ARM_get_argv
    rtexit2.o(.ARM.Collect$$rtexit$$00000003) refers to libshutdown.o(.ARM.Collect$$libshutdown$$00000000) for __rt_lib_shutdown
    rtexit2.o(.ARM.Collect$$rtexit$$00000004) refers to sys_exit.o(.text) for _sys_exit
    rtexit2.o(.ARM.exidx) refers to rtexit2.o(.ARM.Collect$$rtexit$$00000001) for .ARM.Collect$$rtexit$$00000001
    rtexit2.o(.ARM.exidx) refers to rtexit2.o(.ARM.Collect$$rtexit$$00000003) for .ARM.Collect$$rtexit$$00000003
    rtexit2.o(.ARM.exidx) refers to rtexit2.o(.ARM.Collect$$rtexit$$00000004) for .ARM.Collect$$rtexit$$00000004
    _get_argv_nomalloc.o(.text) refers (Special) to hrguard.o(.text) for __heap_region$guard
    _get_argv_nomalloc.o(.text) refers to defsig_rtmem_outer.o(.text) for __rt_SIGRTMEM
    _get_argv_nomalloc.o(.text) refers to sys_command.o(.text) for _sys_command_string
    sys_command.o(.text) refers (Special) to use_no_semi.o(.text) for __I$use$semihosting
    sys_command.o(.text) refers (Special) to indicate_semi.o(.text) for __semihosting_library_function
    sys_exit.o(.text) refers (Special) to use_no_semi.o(.text) for __I$use$semihosting
    sys_exit.o(.text) refers (Special) to indicate_semi.o(.text) for __semihosting_library_function
    sys_command_hlt.o(.text) refers (Special) to use_no_semi.o(.text) for __I$use$semihosting
    sys_command_hlt.o(.text) refers (Special) to indicate_semi.o(.text) for __semihosting_library_function
    sys_exit_hlt.o(.text) refers (Special) to use_no_semi.o(.text) for __I$use$semihosting
    sys_exit_hlt.o(.text) refers (Special) to indicate_semi.o(.text) for __semihosting_library_function
    defsig_rtmem_outer.o(.text) refers to defsig_rtmem_inner.o(.text) for __rt_SIGRTMEM_inner
    defsig_rtmem_outer.o(.text) refers to defsig_exit.o(.text) for __sig_exit
    defsig_rtmem_formal.o(.text) refers to rt_raise.o(.text) for __rt_raise
    libshutdown.o(.ARM.Collect$$libshutdown$$00000000) refers (Special) to libshutdown2.o(.ARM.Collect$$libshutdown$$00000002) for __rt_lib_shutdown_cpp_1
    libshutdown.o(.ARM.Collect$$libshutdown$$00000000) refers (Special) to libshutdown2.o(.ARM.Collect$$libshutdown$$00000007) for __rt_lib_shutdown_fp_trap_1
    libshutdown.o(.ARM.Collect$$libshutdown$$00000000) refers (Special) to libshutdown2.o(.ARM.Collect$$libshutdown$$0000000F) for __rt_lib_shutdown_heap_1
    libshutdown.o(.ARM.Collect$$libshutdown$$00000000) refers (Special) to libshutdown2.o(.ARM.Collect$$libshutdown$$00000010) for __rt_lib_shutdown_return
    libshutdown.o(.ARM.Collect$$libshutdown$$00000000) refers (Special) to libshutdown2.o(.ARM.Collect$$libshutdown$$0000000A) for __rt_lib_shutdown_signal_1
    libshutdown.o(.ARM.Collect$$libshutdown$$00000000) refers (Special) to libshutdown2.o(.ARM.Collect$$libshutdown$$00000004) for __rt_lib_shutdown_stdio_1
    libshutdown.o(.ARM.Collect$$libshutdown$$00000000) refers (Special) to libshutdown2.o(.ARM.Collect$$libshutdown$$0000000C) for __rt_lib_shutdown_user_alloc_1
    rt_raise.o(.text) refers to __raise.o(.text) for __raise
    rt_raise.o(.text) refers to sys_exit.o(.text) for _sys_exit
    defsig_exit.o(.text) refers to sys_exit.o(.text) for _sys_exit
    defsig_rtmem_inner.o(.text) refers to defsig_general.o(.text) for __default_signal_display
    __raise.o(.text) refers to defsig.o(CL$$defsig) for __default_signal_handler
    defsig_general.o(.text) refers to sys_wrch.o(.text) for _ttywrch
    sys_wrch.o(.text) refers (Special) to use_no_semi.o(.text) for __I$use$semihosting
    sys_wrch.o(.text) refers (Special) to indicate_semi.o(.text) for __semihosting_library_function
    sys_wrch_hlt.o(.text) refers (Special) to use_no_semi.o(.text) for __I$use$semihosting
    sys_wrch_hlt.o(.text) refers (Special) to indicate_semi.o(.text) for __semihosting_library_function
    defsig.o(CL$$defsig) refers to defsig_rtmem_inner.o(.text) for __rt_SIGRTMEM_inner
    defsig_abrt_inner.o(.text) refers to defsig_general.o(.text) for __default_signal_display
    defsig_fpe_inner.o(.text) refers to defsig_general.o(.text) for __default_signal_display
    defsig_rtred_inner.o(.text) refers to defsig_general.o(.text) for __default_signal_display
    defsig_stak_inner.o(.text) refers to defsig_general.o(.text) for __default_signal_display
    defsig_pvfn_inner.o(.text) refers to defsig_general.o(.text) for __default_signal_display
    defsig_cppl_inner.o(.text) refers to defsig_general.o(.text) for __default_signal_display
    defsig_segv_inner.o(.text) refers to defsig_general.o(.text) for __default_signal_display
    defsig_other.o(.text) refers to defsig_general.o(.text) for __default_signal_display


==============================================================================

Removing Unused input sections from the image.

    Removing main.o(.ARM.exidx), (32 bytes).
    Removing main.o(.data.speedLimit), (2 bytes).
    Removing main.o(.data.wStateSlave), (1 bytes).
    Removing main.o(.bss.activateWeakening), (1 bytes).
    Removing main.o(.data.beepsBackwards), (1 bytes).
    Removing main.o(.bss.slaveError), (1 bytes).
    Removing main.o(.bss.inactivity_timeout_counter), (4 bytes).
    Removing main.o(.bss.enable), (1 bytes).
    Removing main.o(.bss.pwmSlave), (2 bytes).
    Removing main.o(.ARM.use_no_argv), (4 bytes).
    Removing bldc.o(.ARM.exidx), (40 bytes).
    Removing bldc.o(.rodata.pwm_res), (2 bytes).
    Removing setup.o(.ARM.exidx), (64 bytes).
    Removing setup.o(.bss.usart1_rx_buf), (1 bytes).
    Removing it.o(.ARM.exidx), (128 bytes).
    Removing it.o(.bss.iUartCounter), (2 bytes).
    Removing led.o(.text), (0 bytes).
    Removing remoteuart.o(.text), (0 bytes).
    Removing remotecrsf.o(.text), (0 bytes).
    Removing remotedummy.o(.text), (0 bytes).
    Removing remoteuartbus.o(.text), (0 bytes).
    Removing commsmasterslave.o(.ARM.exidx), (32 bytes).
    Removing commsmasterslave.o(.bss.mosfetOutMaster), (1 bytes).
    Removing remoteautodetect.o(.ARM.exidx), (112 bytes).
    Removing remoteautodetect.o(.bss.iTimeNextTx), (4 bytes).
    Removing remoteautodetect.o(.rodata.str1.4), (26 bytes).
    Removing gd32f1x0_adc.o(.ARM.exidx), (256 bytes).
    Removing gd32f1x0_dbg.o(.text), (128 bytes).
    Removing gd32f1x0_dbg.o(.ARM.exidx), (48 bytes).
    Removing gd32f1x0_dma.o(.ARM.exidx), (216 bytes).
    Removing gd32f1x0_fwdgt.o(.ARM.exidx), (48 bytes).
    Removing gd32f1x0_gpio.o(.ARM.exidx), (104 bytes).
    Removing gd32f1x0_i2c.o(.text), (810 bytes).
    Removing gd32f1x0_i2c.o(.ARM.exidx), (248 bytes).
    Removing gd32f1x0_misc.o(.ARM.exidx), (56 bytes).
    Removing gd32f1x0_opa.o(.text), (0 bytes).
    Removing gd32f1x0_pmu.o(.text), (490 bytes).
    Removing gd32f1x0_pmu.o(.ARM.exidx), (96 bytes).
    Removing gd32f1x0_pmu.o(.bss.pmu_to_deepsleepmode.reg_snap.0), (4 bytes).
    Removing gd32f1x0_pmu.o(.bss.pmu_to_deepsleepmode.reg_snap.1), (4 bytes).
    Removing gd32f1x0_pmu.o(.bss.pmu_to_deepsleepmode.reg_snap.2), (4 bytes).
    Removing gd32f1x0_pmu.o(.bss.pmu_to_deepsleepmode.reg_snap.3), (4 bytes).
    Removing gd32f1x0_rcu.o(.ARM.exidx), (336 bytes).
    Removing gd32f1x0_syscfg.o(.text), (254 bytes).
    Removing gd32f1x0_syscfg.o(.ARM.exidx), (72 bytes).
    Removing gd32f1x0_timer.o(.ARM.exidx), (568 bytes).
    Removing gd32f1x0_usart.o(.ARM.exidx), (544 bytes).
    Removing gd32f1x0_wwdgt.o(.text), (170 bytes).
    Removing gd32f1x0_wwdgt.o(.ARM.exidx), (56 bytes).
    Removing system_gd32f1x0.o(.ARM.exidx), (16 bytes).

50 unused section(s) (total 4993 bytes) removed from the image.

==============================================================================

Image Symbol Table

    Local Symbols

    Symbol Name                              Value     Ov Type        Size  Object(Section)

    ../clib/angel/boardlib.s                 0x00000000   Number         0  boardinit1.o ABSOLUTE
    ../clib/angel/boardlib.s                 0x00000000   Number         0  boardinit2.o ABSOLUTE
    ../clib/angel/boardlib.s                 0x00000000   Number         0  boardinit3.o ABSOLUTE
    ../clib/angel/boardlib.s                 0x00000000   Number         0  boardshut.o ABSOLUTE
    ../clib/angel/dczerorl2.s                0x00000000   Number         0  __dczerorl2.o ABSOLUTE
    ../clib/angel/handlers.s                 0x00000000   Number         0  __scatter_zi.o ABSOLUTE
    ../clib/angel/kernel.s                   0x00000000   Number         0  __rtentry.o ABSOLUTE
    ../clib/angel/kernel.s                   0x00000000   Number         0  __rtentry2.o ABSOLUTE
    ../clib/angel/kernel.s                   0x00000000   Number         0  __rtentry4.o ABSOLUTE
    ../clib/angel/kernel.s                   0x00000000   Number         0  rtexit.o ABSOLUTE
    ../clib/angel/kernel.s                   0x00000000   Number         0  rtexit2.o ABSOLUTE
    ../clib/angel/rt.s                       0x00000000   Number         0  rt_locale.o ABSOLUTE
    ../clib/angel/rt.s                       0x00000000   Number         0  rt_locale_intlibspace.o ABSOLUTE
    ../clib/angel/rt.s                       0x00000000   Number         0  rt_raise.o ABSOLUTE
    ../clib/angel/scatter.s                  0x00000000   Number         0  __scatter.o ABSOLUTE
    ../clib/angel/startup.s                  0x00000000   Number         0  __main.o ABSOLUTE
    ../clib/angel/sys.s                      0x00000000   Number         0  libspace.o ABSOLUTE
    ../clib/angel/sys.s                      0x00000000   Number         0  sys_stackheap_outer.o ABSOLUTE
    ../clib/angel/sys.s                      0x00000000   Number         0  use_no_semi.o ABSOLUTE
    ../clib/angel/sys.s                      0x00000000   Number         0  indicate_semi.o ABSOLUTE
    ../clib/angel/sysapp.c                   0x00000000   Number         0  sys_command.o ABSOLUTE
    ../clib/angel/sysapp.c                   0x00000000   Number         0  sys_exit.o ABSOLUTE
    ../clib/angel/sysapp.c                   0x00000000   Number         0  sys_command_hlt.o ABSOLUTE
    ../clib/angel/sysapp.c                   0x00000000   Number         0  sys_exit_hlt.o ABSOLUTE
    ../clib/angel/sysapp.c                   0x00000000   Number         0  sys_wrch.o ABSOLUTE
    ../clib/angel/sysapp.c                   0x00000000   Number         0  sys_wrch_hlt.o ABSOLUTE
    ../clib/armsys.c                         0x00000000   Number         0  argv_veneer.o ABSOLUTE
    ../clib/armsys.c                         0x00000000   Number         0  argv_veneer.o ABSOLUTE
    ../clib/armsys.c                         0x00000000   Number         0  _get_argv_nomalloc.o ABSOLUTE
    ../clib/armsys.c                         0x00000000   Number         0  no_argv.o ABSOLUTE
    ../clib/bigflt.c                         0x00000000   Number         0  bigflt0.o ABSOLUTE
    ../clib/btod.s                           0x00000000   Number         0  btod.o ABSOLUTE
    ../clib/btod_accurate.c                  0x00000000   Number         0  btod_accurate.o ABSOLUTE
    ../clib/btod_accurate.c                  0x00000000   Number         0  btod_accurate_common.o ABSOLUTE
    ../clib/heapalloc.c                      0x00000000   Number         0  hrguard.o ABSOLUTE
    ../clib/heapaux.c                        0x00000000   Number         0  heapauxi.o ABSOLUTE
    ../clib/libinit.s                        0x00000000   Number         0  libinit.o ABSOLUTE
    ../clib/libinit.s                        0x00000000   Number         0  libinit2.o ABSOLUTE
    ../clib/libinit.s                        0x00000000   Number         0  libshutdown.o ABSOLUTE
    ../clib/libinit.s                        0x00000000   Number         0  libshutdown2.o ABSOLUTE
    ../clib/locale.s                         0x00000000   Number         0  lc_numeric_c.o ABSOLUTE
    ../clib/longlong.s                       0x00000000   Number         0  lludiv10.o ABSOLUTE
    ../clib/longlong.s                       0x00000000   Number         0  llushr.o ABSOLUTE
    ../clib/memcpset.s                       0x00000000   Number         0  rt_memclr_w.o ABSOLUTE
    ../clib/memcpset.s                       0x00000000   Number         0  strcmpv7m.o ABSOLUTE
    ../clib/misc.s                           0x00000000   Number         0  printf_stubs.o ABSOLUTE
    ../clib/printf.c                         0x00000000   Number         0  __2sprintf.o ABSOLUTE
    ../clib/printf.c                         0x00000000   Number         0  noretval__2sprintf.o ABSOLUTE
    ../clib/printf.c                         0x00000000   Number         0  __printf.o ABSOLUTE
    ../clib/printf.c                         0x00000000   Number         0  _printf_str.o ABSOLUTE
    ../clib/printf.c                         0x00000000   Number         0  _printf_dec.o ABSOLUTE
    ../clib/printf.c                         0x00000000   Number         0  __printf_flags.o ABSOLUTE
    ../clib/printf.c                         0x00000000   Number         0  __printf_ss.o ABSOLUTE
    ../clib/printf.c                         0x00000000   Number         0  __printf_flags_ss.o ABSOLUTE
    ../clib/printf.c                         0x00000000   Number         0  __printf_wp.o ABSOLUTE
    ../clib/printf.c                         0x00000000   Number         0  __printf_flags_wp.o ABSOLUTE
    ../clib/printf.c                         0x00000000   Number         0  __printf_ss_wp.o ABSOLUTE
    ../clib/printf.c                         0x00000000   Number         0  __printf_flags_ss_wp.o ABSOLUTE
    ../clib/printf.c                         0x00000000   Number         0  _printf_intcommon.o ABSOLUTE
    ../clib/printf.c                         0x00000000   Number         0  _printf_fp_dec.o ABSOLUTE
    ../clib/printf.c                         0x00000000   Number         0  _printf_fp_dec_accurate.o ABSOLUTE
    ../clib/printf.c                         0x00000000   Number         0  _printf_char_common.o ABSOLUTE
    ../clib/printf.c                         0x00000000   Number         0  _sputc.o ABSOLUTE
    ../clib/printf.c                         0x00000000   Number         0  _printf_char.o ABSOLUTE
    ../clib/printf.c                         0x00000000   Number         0  _printf_fp_infnan.o ABSOLUTE
    ../clib/printf.c                         0x00000000   Number         0  __printf_nopercent.o ABSOLUTE
    ../clib/printf_percent.s                 0x00000000   Number         0  _printf_s.o ABSOLUTE
    ../clib/printf_percent.s                 0x00000000   Number         0  _printf_i.o ABSOLUTE
    ../clib/printf_percent.s                 0x00000000   Number         0  _printf_f.o ABSOLUTE
    ../clib/printf_percent.s                 0x00000000   Number         0  _printf_percent.o ABSOLUTE
    ../clib/printf_percent.s                 0x00000000   Number         0  _printf_percent_end.o ABSOLUTE
    ../clib/signal.c                         0x00000000   Number         0  defsig_rtmem_outer.o ABSOLUTE
    ../clib/signal.c                         0x00000000   Number         0  defsig_rtmem_formal.o ABSOLUTE
    ../clib/signal.c                         0x00000000   Number         0  defsig_exit.o ABSOLUTE
    ../clib/signal.c                         0x00000000   Number         0  defsig_rtmem_inner.o ABSOLUTE
    ../clib/signal.c                         0x00000000   Number         0  __raise.o ABSOLUTE
    ../clib/signal.c                         0x00000000   Number         0  defsig_general.o ABSOLUTE
    ../clib/signal.c                         0x00000000   Number         0  defsig_abrt_inner.o ABSOLUTE
    ../clib/signal.c                         0x00000000   Number         0  defsig_fpe_inner.o ABSOLUTE
    ../clib/signal.c                         0x00000000   Number         0  defsig_rtred_inner.o ABSOLUTE
    ../clib/signal.c                         0x00000000   Number         0  defsig_stak_inner.o ABSOLUTE
    ../clib/signal.c                         0x00000000   Number         0  defsig_pvfn_inner.o ABSOLUTE
    ../clib/signal.c                         0x00000000   Number         0  defsig_cppl_inner.o ABSOLUTE
    ../clib/signal.c                         0x00000000   Number         0  defsig_segv_inner.o ABSOLUTE
    ../clib/signal.c                         0x00000000   Number         0  defsig_other.o ABSOLUTE
    ../clib/signal.s                         0x00000000   Number         0  defsig.o ABSOLUTE
    ../clib/stdlib.c                         0x00000000   Number         0  exit.o ABSOLUTE
    ../clib/string.c                         0x00000000   Number         0  strlen.o ABSOLUTE
    ../fplib/d2f.s                           0x00000000   Number         0  d2f.o ABSOLUTE
    ../fplib/daddsub.s                       0x00000000   Number         0  daddsub_clz.o ABSOLUTE
    ../fplib/dcmp.s                          0x00000000   Number         0  dcmp.o ABSOLUTE
    ../fplib/dcmpi.s                         0x00000000   Number         0  dcmpi.o ABSOLUTE
    ../fplib/deqf.s                          0x00000000   Number         0  deqf.o ABSOLUTE
    ../fplib/dfix.s                          0x00000000   Number         0  dfix.o ABSOLUTE
    ../fplib/dflt.s                          0x00000000   Number         0  dflt_clz.o ABSOLUTE
    ../fplib/dgeqf.s                         0x00000000   Number         0  dgeqf.o ABSOLUTE
    ../fplib/dleqf.s                         0x00000000   Number         0  dleqf.o ABSOLUTE
    ../fplib/dmul.s                          0x00000000   Number         0  dmul.o ABSOLUTE
    ../fplib/dnaninf.s                       0x00000000   Number         0  dnaninf.o ABSOLUTE
    ../fplib/dretinf.s                       0x00000000   Number         0  dretinf.o ABSOLUTE
    ../fplib/f2d.s                           0x00000000   Number         0  f2d.o ABSOLUTE
    ../fplib/fcmp.s                          0x00000000   Number         0  fcmp.o ABSOLUTE
    ../fplib/fcmpi.s                         0x00000000   Number         0  fcmpi.o ABSOLUTE
    ../fplib/fdiv.s                          0x00000000   Number         0  fdiv.o ABSOLUTE
    ../fplib/feqf.s                          0x00000000   Number         0  feqf.o ABSOLUTE
    ../fplib/fflt.s                          0x00000000   Number         0  fflt_clz.o ABSOLUTE
    ../fplib/fgeqf.s                         0x00000000   Number         0  fgeqf.o ABSOLUTE
    ../fplib/fleqf.s                         0x00000000   Number         0  fleqf.o ABSOLUTE
    ../fplib/fnaninf.s                       0x00000000   Number         0  fnaninf.o ABSOLUTE
    ../fplib/fpinit.s                        0x00000000   Number         0  fpinit.o ABSOLUTE
    ../fplib/fpinit_empty.s                  0x00000000   Number         0  fpinit_empty.o ABSOLUTE
    ../fplib/fretinf.s                       0x00000000   Number         0  fretinf.o ABSOLUTE
    ../fplib/istatus.s                       0x00000000   Number         0  istatus.o ABSOLUTE
    ../fplib/printf1.s                       0x00000000   Number         0  printf1.o ABSOLUTE
    ../fplib/usenofp.s                       0x00000000   Number         0  usenofp.o ABSOLUTE
    ../mathlib/fpclassify.c                  0x00000000   Number         0  fpclassify.o ABSOLUTE
    RTE/Device/GD32F130C8/startup_gd32f1x0.s 0x00000000   Number         0  startup_gd32f1x0.o ABSOLUTE
    RemoteAutodetect.c                       0x00000000   Number         0  remoteautodetect.o ABSOLUTE
    bldc.c                                   0x00000000   Number         0  bldc.o ABSOLUTE
    commsMasterSlave.c                       0x00000000   Number         0  commsmasterslave.o ABSOLUTE
    dc.s                                     0x00000000   Number         0  dc.o ABSOLUTE
    gd32f1x0_adc.c                           0x00000000   Number         0  gd32f1x0_adc.o ABSOLUTE
    gd32f1x0_dbg.c                           0x00000000   Number         0  gd32f1x0_dbg.o ABSOLUTE
    gd32f1x0_dma.c                           0x00000000   Number         0  gd32f1x0_dma.o ABSOLUTE
    gd32f1x0_fwdgt.c                         0x00000000   Number         0  gd32f1x0_fwdgt.o ABSOLUTE
    gd32f1x0_gpio.c                          0x00000000   Number         0  gd32f1x0_gpio.o ABSOLUTE
    gd32f1x0_i2c.c                           0x00000000   Number         0  gd32f1x0_i2c.o ABSOLUTE
    gd32f1x0_misc.c                          0x00000000   Number         0  gd32f1x0_misc.o ABSOLUTE
    gd32f1x0_opa.c                           0x00000000   Number         0  gd32f1x0_opa.o ABSOLUTE
    gd32f1x0_pmu.c                           0x00000000   Number         0  gd32f1x0_pmu.o ABSOLUTE
    gd32f1x0_rcu.c                           0x00000000   Number         0  gd32f1x0_rcu.o ABSOLUTE
    gd32f1x0_syscfg.c                        0x00000000   Number         0  gd32f1x0_syscfg.o ABSOLUTE
    gd32f1x0_timer.c                         0x00000000   Number         0  gd32f1x0_timer.o ABSOLUTE
    gd32f1x0_usart.c                         0x00000000   Number         0  gd32f1x0_usart.o ABSOLUTE
    gd32f1x0_wwdgt.c                         0x00000000   Number         0  gd32f1x0_wwdgt.o ABSOLUTE
    it.c                                     0x00000000   Number         0  it.o ABSOLUTE
    led.c                                    0x00000000   Number         0  led.o ABSOLUTE
    main.c                                   0x00000000   Number         0  main.o ABSOLUTE
    remoteCrsf.c                             0x00000000   Number         0  remotecrsf.o ABSOLUTE
    remoteDummy.c                            0x00000000   Number         0  remotedummy.o ABSOLUTE
    remoteUart.c                             0x00000000   Number         0  remoteuart.o ABSOLUTE
    remoteUartBus.c                          0x00000000   Number         0  remoteuartbus.o ABSOLUTE
    setup.c                                  0x00000000   Number         0  setup.o ABSOLUTE
    system_gd32f1x0.c                        0x00000000   Number         0  system_gd32f1x0.o ABSOLUTE
    RESET                                    0x08000000   Section      360  startup_gd32f1x0.o(RESET)
    !!!main                                  0x08000168   Section        8  __main.o(!!!main)
    !!!scatter                               0x08000170   Section       52  __scatter.o(!!!scatter)
    !!dczerorl2                              0x080001a4   Section       90  __dczerorl2.o(!!dczerorl2)
    !!handler_zi                             0x08000200   Section       28  __scatter_zi.o(!!handler_zi)
    .ARM.Collect$$_printf_percent$$00000000  0x0800021c   Section        0  _printf_percent.o(.ARM.Collect$$_printf_percent$$00000000)
    .ARM.Collect$$_printf_percent$$00000003  0x0800021c   Section        6  _printf_f.o(.ARM.Collect$$_printf_percent$$00000003)
    .ARM.Collect$$_printf_percent$$00000008  0x08000222   Section        6  _printf_i.o(.ARM.Collect$$_printf_percent$$00000008)
    .ARM.Collect$$_printf_percent$$00000014  0x08000228   Section        6  _printf_s.o(.ARM.Collect$$_printf_percent$$00000014)
    .ARM.Collect$$_printf_percent$$00000017  0x0800022e   Section        4  _printf_percent_end.o(.ARM.Collect$$_printf_percent$$00000017)
    .ARM.Collect$$libinit$$00000000          0x08000232   Section        2  libinit.o(.ARM.Collect$$libinit$$00000000)
    .ARM.Collect$$libinit$$00000002          0x08000234   Section        0  libinit2.o(.ARM.Collect$$libinit$$00000002)
    .ARM.Collect$$libinit$$00000004          0x08000234   Section        0  libinit2.o(.ARM.Collect$$libinit$$00000004)
    .ARM.Collect$$libinit$$00000006          0x08000234   Section        0  libinit2.o(.ARM.Collect$$libinit$$00000006)
    .ARM.Collect$$libinit$$0000000C          0x08000234   Section        0  libinit2.o(.ARM.Collect$$libinit$$0000000C)
    .ARM.Collect$$libinit$$0000000E          0x08000234   Section        0  libinit2.o(.ARM.Collect$$libinit$$0000000E)
    .ARM.Collect$$libinit$$00000010          0x08000234   Section        0  libinit2.o(.ARM.Collect$$libinit$$00000010)
    .ARM.Collect$$libinit$$00000011          0x08000234   Section        6  libinit2.o(.ARM.Collect$$libinit$$00000011)
    .ARM.Collect$$libinit$$00000013          0x0800023a   Section        0  libinit2.o(.ARM.Collect$$libinit$$00000013)
    .ARM.Collect$$libinit$$00000015          0x0800023a   Section        0  libinit2.o(.ARM.Collect$$libinit$$00000015)
    .ARM.Collect$$libinit$$00000017          0x0800023a   Section        0  libinit2.o(.ARM.Collect$$libinit$$00000017)
    .ARM.Collect$$libinit$$00000018          0x0800023a   Section       10  libinit2.o(.ARM.Collect$$libinit$$00000018)
    .ARM.Collect$$libinit$$00000019          0x08000244   Section        0  libinit2.o(.ARM.Collect$$libinit$$00000019)
    .ARM.Collect$$libinit$$0000001B          0x08000244   Section        0  libinit2.o(.ARM.Collect$$libinit$$0000001B)
    .ARM.Collect$$libinit$$0000001D          0x08000244   Section        0  libinit2.o(.ARM.Collect$$libinit$$0000001D)
    .ARM.Collect$$libinit$$0000001F          0x08000244   Section        0  libinit2.o(.ARM.Collect$$libinit$$0000001F)
    .ARM.Collect$$libinit$$00000021          0x08000244   Section        0  libinit2.o(.ARM.Collect$$libinit$$00000021)
    .ARM.Collect$$libinit$$00000023          0x08000244   Section        0  libinit2.o(.ARM.Collect$$libinit$$00000023)
    .ARM.Collect$$libinit$$00000025          0x08000244   Section        0  libinit2.o(.ARM.Collect$$libinit$$00000025)
    .ARM.Collect$$libinit$$00000027          0x08000244   Section        0  libinit2.o(.ARM.Collect$$libinit$$00000027)
    .ARM.Collect$$libinit$$0000002E          0x08000244   Section        0  libinit2.o(.ARM.Collect$$libinit$$0000002E)
    .ARM.Collect$$libinit$$00000030          0x08000244   Section        0  libinit2.o(.ARM.Collect$$libinit$$00000030)
    .ARM.Collect$$libinit$$00000032          0x08000244   Section        0  libinit2.o(.ARM.Collect$$libinit$$00000032)
    .ARM.Collect$$libinit$$00000034          0x08000244   Section        0  libinit2.o(.ARM.Collect$$libinit$$00000034)
    .ARM.Collect$$libinit$$00000035          0x08000244   Section        2  libinit2.o(.ARM.Collect$$libinit$$00000035)
    .ARM.Collect$$libshutdown$$00000000      0x08000246   Section        2  libshutdown.o(.ARM.Collect$$libshutdown$$00000000)
    .ARM.Collect$$libshutdown$$00000002      0x08000248   Section        0  libshutdown2.o(.ARM.Collect$$libshutdown$$00000002)
    .ARM.Collect$$libshutdown$$00000004      0x08000248   Section        0  libshutdown2.o(.ARM.Collect$$libshutdown$$00000004)
    .ARM.Collect$$libshutdown$$00000007      0x08000248   Section        0  libshutdown2.o(.ARM.Collect$$libshutdown$$00000007)
    .ARM.Collect$$libshutdown$$0000000A      0x08000248   Section        0  libshutdown2.o(.ARM.Collect$$libshutdown$$0000000A)
    .ARM.Collect$$libshutdown$$0000000C      0x08000248   Section        0  libshutdown2.o(.ARM.Collect$$libshutdown$$0000000C)
    .ARM.Collect$$libshutdown$$0000000F      0x08000248   Section        0  libshutdown2.o(.ARM.Collect$$libshutdown$$0000000F)
    .ARM.Collect$$libshutdown$$00000010      0x08000248   Section        2  libshutdown2.o(.ARM.Collect$$libshutdown$$00000010)
    .ARM.Collect$$rtentry$$00000000          0x0800024a   Section        0  __rtentry.o(.ARM.Collect$$rtentry$$00000000)
    .ARM.Collect$$rtentry$$00000002          0x0800024a   Section        0  __rtentry2.o(.ARM.Collect$$rtentry$$00000002)
    .ARM.Collect$$rtentry$$00000004          0x0800024a   Section        6  __rtentry4.o(.ARM.Collect$$rtentry$$00000004)
    .ARM.Collect$$rtentry$$00000009          0x08000250   Section        0  __rtentry2.o(.ARM.Collect$$rtentry$$00000009)
    .ARM.Collect$$rtentry$$0000000A          0x08000250   Section        4  __rtentry2.o(.ARM.Collect$$rtentry$$0000000A)
    .ARM.Collect$$rtentry$$0000000C          0x08000254   Section        0  __rtentry2.o(.ARM.Collect$$rtentry$$0000000C)
    .ARM.Collect$$rtentry$$0000000D          0x08000254   Section        8  __rtentry2.o(.ARM.Collect$$rtentry$$0000000D)
    .ARM.Collect$$rtexit$$00000000           0x0800025c   Section        2  rtexit.o(.ARM.Collect$$rtexit$$00000000)
    .ARM.Collect$$rtexit$$00000002           0x0800025e   Section        0  rtexit2.o(.ARM.Collect$$rtexit$$00000002)
    .ARM.Collect$$rtexit$$00000003           0x0800025e   Section        4  rtexit2.o(.ARM.Collect$$rtexit$$00000003)
    .ARM.Collect$$rtexit$$00000004           0x08000262   Section        6  rtexit2.o(.ARM.Collect$$rtexit$$00000004)
    [Anonymous Symbol]                       0x08000268   Section        0  main.o(.text)
    [Anonymous Symbol]                       0x08000464   Section        0  bldc.o(.text)
    [Anonymous Symbol]                       0x08000900   Section        0  setup.o(.text)
    [Anonymous Symbol]                       0x0800102c   Section        0  it.o(.text)
    [Anonymous Symbol]                       0x0800113c   Section        0  commsmasterslave.o(.text)
    [Anonymous Symbol]                       0x080011c0   Section        0  remoteautodetect.o(.text)
    [Anonymous Symbol]                       0x0800297c   Section        0  gd32f1x0_adc.o(.text)
    [Anonymous Symbol]                       0x08002f24   Section        0  gd32f1x0_dma.o(.text)
    [Anonymous Symbol]                       0x08003270   Section        0  gd32f1x0_fwdgt.o(.text)
    [Anonymous Symbol]                       0x0800334c   Section        0  gd32f1x0_gpio.o(.text)
    [Anonymous Symbol]                       0x080034e4   Section        0  gd32f1x0_misc.o(.text)
    [Anonymous Symbol]                       0x08003614   Section        0  gd32f1x0_rcu.o(.text)
    [Anonymous Symbol]                       0x08003d44   Section        0  gd32f1x0_timer.o(.text)
    [Anonymous Symbol]                       0x08004aa4   Section        0  gd32f1x0_usart.o(.text)
    .text                                    0x080050e4   Section       64  startup_gd32f1x0.o(.text)
    [Anonymous Symbol]                       0x08005124   Section        0  system_gd32f1x0.o(.text)
    .text                                    0x08005260   Section        0  noretval__2sprintf.o(.text)
    .text                                    0x08005288   Section        0  _printf_str.o(.text)
    .text                                    0x080052dc   Section        0  _printf_dec.o(.text)
    .text                                    0x08005354   Section        0  __printf_wp.o(.text)
    .text                                    0x08005462   Section        0  strlen.o(.text)
    .text                                    0x080054a0   Section       78  rt_memclr_w.o(.text)
    .text                                    0x080054ee   Section        0  heapauxi.o(.text)
    .text                                    0x080054f4   Section        0  _printf_intcommon.o(.text)
    _fp_digits                               0x080055a7   Thumb Code   432  _printf_fp_dec.o(.text)
    .text                                    0x080055a6   Section        0  _printf_fp_dec.o(.text)
    _printf_input_char                       0x080059c5   Thumb Code    10  _printf_char_common.o(.text)
    .text                                    0x080059c4   Section        0  _printf_char_common.o(.text)
    .text                                    0x080059f4   Section        0  _sputc.o(.text)
    .text                                    0x080059fe   Section        0  _printf_char.o(.text)
    .text                                    0x08005a2c   Section        8  rt_locale_intlibspace.o(.text)
    .text                                    0x08005a34   Section      138  lludiv10.o(.text)
    .text                                    0x08005ac0   Section        0  _printf_fp_infnan.o(.text)
    .text                                    0x08005b40   Section        0  bigflt0.o(.text)
    .text                                    0x08005c24   Section        8  libspace.o(.text)
    .text                                    0x08005c2c   Section       74  sys_stackheap_outer.o(.text)
    .text                                    0x08005c76   Section        0  exit.o(.text)
    .text                                    0x08005c88   Section      128  strcmpv7m.o(.text)
    .text                                    0x08005d08   Section        0  sys_exit.o(.text)
    .text                                    0x08005d14   Section        2  use_no_semi.o(.text)
    .text                                    0x08005d16   Section        0  indicate_semi.o(.text)
    CL$$btod_d2e                             0x08005d16   Section       62  btod.o(CL$$btod_d2e)
    CL$$btod_d2e_denorm_low                  0x08005d54   Section       70  btod.o(CL$$btod_d2e_denorm_low)
    CL$$btod_d2e_norm_op1                    0x08005d9a   Section       96  btod.o(CL$$btod_d2e_norm_op1)
    CL$$btod_div_common                      0x08005dfc   Section      824  btod.o(CL$$btod_div_common)
    CL$$btod_e2e                             0x08006134   Section      220  btod.o(CL$$btod_e2e)
    CL$$btod_ediv                            0x08006210   Section       42  btod.o(CL$$btod_ediv)
    CL$$btod_emul                            0x0800623a   Section       42  btod.o(CL$$btod_emul)
    CL$$btod_mult_common                     0x08006264   Section      580  btod.o(CL$$btod_mult_common)
    i.__ARM_fpclassify                       0x080064a8   Section        0  fpclassify.o(i.__ARM_fpclassify)
    i._is_digit                              0x080064d0   Section        0  __printf_wp.o(i._is_digit)
    locale$$code                             0x080064e0   Section       44  lc_numeric_c.o(locale$$code)
    x$fpl$d2f                                0x0800650c   Section       98  d2f.o(x$fpl$d2f)
    x$fpl$dadd                               0x08006570   Section      336  daddsub_clz.o(x$fpl$dadd)
    _dadd1                                   0x08006581   Thumb Code     0  daddsub_clz.o(x$fpl$dadd)
    x$fpl$dcmpinf                            0x080066c0   Section       24  dcmpi.o(x$fpl$dcmpinf)
    x$fpl$deqf                               0x080066d8   Section      120  deqf.o(x$fpl$deqf)
    x$fpl$dfix                               0x08006750   Section       94  dfix.o(x$fpl$dfix)
    x$fpl$dflt                               0x080067ae   Section       46  dflt_clz.o(x$fpl$dflt)
    x$fpl$dfltu                              0x080067dc   Section       38  dflt_clz.o(x$fpl$dfltu)
    x$fpl$dgeqf                              0x08006804   Section      120  dgeqf.o(x$fpl$dgeqf)
    x$fpl$dleqf                              0x0800687c   Section      120  dleqf.o(x$fpl$dleqf)
    x$fpl$dmul                               0x080068f4   Section      340  dmul.o(x$fpl$dmul)
    x$fpl$dnaninf                            0x08006a48   Section      156  dnaninf.o(x$fpl$dnaninf)
    x$fpl$dretinf                            0x08006ae4   Section       12  dretinf.o(x$fpl$dretinf)
    x$fpl$dsub                               0x08006af0   Section      476  daddsub_clz.o(x$fpl$dsub)
    _dsub1                                   0x08006b01   Thumb Code     0  daddsub_clz.o(x$fpl$dsub)
    x$fpl$f2d                                0x08006ccc   Section       86  f2d.o(x$fpl$f2d)
    x$fpl$fcmp                               0x08006d22   Section       84  dcmp.o(x$fpl$fcmp)
    x$fpl$fcmp                               0x08006d76   Section       84  fcmp.o(x$fpl$fcmp)
    x$fpl$fcmpinf                            0x08006dca   Section       24  fcmpi.o(x$fpl$fcmpinf)
    _fdiv1                                   0x08006de5   Thumb Code     0  fdiv.o(x$fpl$fdiv)
    x$fpl$fdiv                               0x08006de4   Section      388  fdiv.o(x$fpl$fdiv)
    x$fpl$feqf                               0x08006f68   Section      104  feqf.o(x$fpl$feqf)
    x$fpl$ffltu                              0x08006fd0   Section       38  fflt_clz.o(x$fpl$ffltu)
    x$fpl$fgeqf                              0x08006ff8   Section      104  fgeqf.o(x$fpl$fgeqf)
    x$fpl$fleqf                              0x08007060   Section      104  fleqf.o(x$fpl$fleqf)
    x$fpl$fnaninf                            0x080070c8   Section      140  fnaninf.o(x$fpl$fnaninf)
    x$fpl$fretinf                            0x08007154   Section       10  fretinf.o(x$fpl$fretinf)
    x$fpl$printf1                            0x0800715e   Section        4  printf1.o(x$fpl$printf1)
    x$fpl$usenofp                            0x08007162   Section        0  usenofp.o(x$fpl$usenofp)
    tenpwrs_x                                0x08007164   Data          60  bigflt0.o(.constdata)
    .constdata                               0x08007164   Section      148  bigflt0.o(.constdata)
    tenpwrs_i                                0x080071a0   Data          64  bigflt0.o(.constdata)
    .L__const.up_or_down.up_down             0x080071f8   Data          12  bldc.o(.rodata..L__const.up_or_down.up_down)
    .Lswitch.table.gpio_deinit.1             0x08007204   Data          12  gd32f1x0_gpio.o(.rodata..Lswitch.table.gpio_deinit.1)
    .L__const.rcu_clock_freq_get.apb2_exp    0x08007210   Data           8  gd32f1x0_rcu.o(.rodata.cst8)
    .L.str.53                                0x08007220   Data          14  remoteautodetect.o(.rodata.str1.1)
    [Anonymous Symbol]                       0x08007220   Section        0  remoteautodetect.o(.rodata.str1.1)
    .L.str.38                                0x0800722e   Data         124  remoteautodetect.o(.rodata.str1.1)
    .L.str.56                                0x080072aa   Data          76  remoteautodetect.o(.rodata.str1.1)
    .L.str.49                                0x080072f6   Data           9  remoteautodetect.o(.rodata.str1.1)
    .L.str.43                                0x080073ce   Data         112  remoteautodetect.o(.rodata.str1.1)
    .L.str.51                                0x0800743e   Data          13  remoteautodetect.o(.rodata.str1.1)
    .L.str.50                                0x0800744b   Data          42  remoteautodetect.o(.rodata.str1.1)
    locale$$data                             0x08007498   Section       28  lc_numeric_c.o(locale$$data)
    __lcnum_c_name                           0x0800749c   Data           2  lc_numeric_c.o(locale$$data)
    __lcnum_c_start                          0x080074a4   Data           0  lc_numeric_c.o(locale$$data)
    __lcnum_c_point                          0x080074b0   Data           0  lc_numeric_c.o(locale$$data)
    __lcnum_c_thousands                      0x080074b2   Data           0  lc_numeric_c.o(locale$$data)
    __lcnum_c_grouping                       0x080074b3   Data           0  lc_numeric_c.o(locale$$data)
    __lcnum_c_end                            0x080074b4   Data           0  lc_numeric_c.o(locale$$data)
    .bss                                     0x20000168   Section       96  libspace.o(.bss)
    sMessage                                 0x20000294   Data         512  remoteautodetect.o(.bss.sMessage)
    Heap_Mem                                 0x200004f8   Data        1024  startup_gd32f1x0.o(HEAP)
    HEAP                                     0x200004f8   Section     1024  startup_gd32f1x0.o(HEAP)
    Stack_Mem                                0x200008f8   Data        1024  startup_gd32f1x0.o(STACK)
    STACK                                    0x200008f8   Section     1024  startup_gd32f1x0.o(STACK)
    __initial_sp                             0x20000cf8   Data           0  startup_gd32f1x0.o(STACK)

    Global Symbols

    Symbol Name                              Value     Ov Type        Size  Object(Section)

    BuildAttributes$$THM_ISAv4$P$D$K$B$S$PE$A:L22UL41UL21$X:L11$S22US41US21$IEEE1$IW$~IW$USESV6$~STKCKD$USESV7$~SHL$OTIME$ROPI$IEEEJ$EBA8$UX$STANDARDLIB$REQ8$PRES8$EABIv2 0x00000000   Number         0  anon$$obj.o ABSOLUTE
    __fp_init_empty                          0x00000000   Number         0  fpinit_empty.o ABSOLUTE
    _printf_flags                            0x00000000   Number         0  printf_stubs.o ABSOLUTE
    _printf_return_value                     0x00000000   Number         0  printf_stubs.o ABSOLUTE
    _printf_sizespec                         0x00000000   Number         0  printf_stubs.o ABSOLUTE
    _printf_widthprec                        0x00000000   Number         0  printf_stubs.o ABSOLUTE
    __ARM_exceptions_init                     - Undefined Weak Reference
    __alloca_initialize                       - Undefined Weak Reference
    __arm_preinit_                            - Undefined Weak Reference
    __arm_relocate_pie_                       - Undefined Weak Reference
    __cpp_initialize__aeabi_                  - Undefined Weak Reference
    __cxa_finalize                            - Undefined Weak Reference
    __sigvec_lookup                           - Undefined Weak Reference
    _atexit_init                              - Undefined Weak Reference
    _call_atexit_fns                          - Undefined Weak Reference
    _clock_init                               - Undefined Weak Reference
    _fp_trap_init                             - Undefined Weak Reference
    _fp_trap_shutdown                         - Undefined Weak Reference
    _get_lc_collate                           - Undefined Weak Reference
    _get_lc_ctype                             - Undefined Weak Reference
    _get_lc_monetary                          - Undefined Weak Reference
    _get_lc_time                              - Undefined Weak Reference
    _getenv_init                              - Undefined Weak Reference
    _handle_redirection                       - Undefined Weak Reference
    _init_alloc                               - Undefined Weak Reference
    _init_user_alloc                          - Undefined Weak Reference
    _initio                                   - Undefined Weak Reference
    _printf_mbtowc                            - Undefined Weak Reference
    _printf_post_padding                      - Undefined Weak Reference
    _printf_pre_padding                       - Undefined Weak Reference
    _printf_truncate_signed                   - Undefined Weak Reference
    _printf_truncate_unsigned                 - Undefined Weak Reference
    _rand_init                                - Undefined Weak Reference
    _signal_finish                            - Undefined Weak Reference
    _signal_init                              - Undefined Weak Reference
    _terminate_alloc                          - Undefined Weak Reference
    _terminate_user_alloc                     - Undefined Weak Reference
    _terminateio                              - Undefined Weak Reference
    __Vectors_Size                           0x00000168   Number         0  startup_gd32f1x0.o ABSOLUTE
    __Vectors                                0x08000000   Data           4  startup_gd32f1x0.o(RESET)
    __Vectors_End                            0x08000168   Data           0  startup_gd32f1x0.o(RESET)
    __main                                   0x08000169   Thumb Code     8  __main.o(!!!main)
    __scatterload                            0x08000171   Thumb Code     0  __scatter.o(!!!scatter)
    __scatterload_rt2                        0x08000171   Thumb Code    44  __scatter.o(!!!scatter)
    __scatterload_rt2_thumb_only             0x08000171   Thumb Code     0  __scatter.o(!!!scatter)
    __scatterload_null                       0x0800017f   Thumb Code     0  __scatter.o(!!!scatter)
    __decompress                             0x080001a5   Thumb Code    90  __dczerorl2.o(!!dczerorl2)
    __decompress1                            0x080001a5   Thumb Code     0  __dczerorl2.o(!!dczerorl2)
    __scatterload_zeroinit                   0x08000201   Thumb Code    28  __scatter_zi.o(!!handler_zi)
    _printf_f                                0x0800021d   Thumb Code     0  _printf_f.o(.ARM.Collect$$_printf_percent$$00000003)
    _printf_percent                          0x0800021d   Thumb Code     0  _printf_percent.o(.ARM.Collect$$_printf_percent$$00000000)
    _printf_i                                0x08000223   Thumb Code     0  _printf_i.o(.ARM.Collect$$_printf_percent$$00000008)
    _printf_s                                0x08000229   Thumb Code     0  _printf_s.o(.ARM.Collect$$_printf_percent$$00000014)
    _printf_percent_end                      0x0800022f   Thumb Code     0  _printf_percent_end.o(.ARM.Collect$$_printf_percent$$00000017)
    __rt_lib_init                            0x08000233   Thumb Code     0  libinit.o(.ARM.Collect$$libinit$$00000000)
    __rt_lib_init_fp_1                       0x08000235   Thumb Code     0  libinit2.o(.ARM.Collect$$libinit$$00000002)
    __rt_lib_init_heap_1                     0x08000235   Thumb Code     0  libinit2.o(.ARM.Collect$$libinit$$0000000C)
    __rt_lib_init_lc_common                  0x08000235   Thumb Code     0  libinit2.o(.ARM.Collect$$libinit$$00000011)
    __rt_lib_init_preinit_1                  0x08000235   Thumb Code     0  libinit2.o(.ARM.Collect$$libinit$$00000006)
    __rt_lib_init_rand_1                     0x08000235   Thumb Code     0  libinit2.o(.ARM.Collect$$libinit$$00000010)
    __rt_lib_init_relocate_pie_1             0x08000235   Thumb Code     0  libinit2.o(.ARM.Collect$$libinit$$00000004)
    __rt_lib_init_user_alloc_1               0x08000235   Thumb Code     0  libinit2.o(.ARM.Collect$$libinit$$0000000E)
    __rt_lib_init_lc_collate_1               0x0800023b   Thumb Code     0  libinit2.o(.ARM.Collect$$libinit$$00000013)
    __rt_lib_init_lc_ctype_1                 0x0800023b   Thumb Code     0  libinit2.o(.ARM.Collect$$libinit$$00000015)
    __rt_lib_init_lc_monetary_1              0x0800023b   Thumb Code     0  libinit2.o(.ARM.Collect$$libinit$$00000017)
    __rt_lib_init_lc_numeric_2               0x0800023b   Thumb Code     0  libinit2.o(.ARM.Collect$$libinit$$00000018)
    __rt_lib_init_alloca_1                   0x08000245   Thumb Code     0  libinit2.o(.ARM.Collect$$libinit$$00000030)
    __rt_lib_init_argv_1                     0x08000245   Thumb Code     0  libinit2.o(.ARM.Collect$$libinit$$0000002E)
    __rt_lib_init_atexit_1                   0x08000245   Thumb Code     0  libinit2.o(.ARM.Collect$$libinit$$0000001D)
    __rt_lib_init_clock_1                    0x08000245   Thumb Code     0  libinit2.o(.ARM.Collect$$libinit$$00000023)
    __rt_lib_init_cpp_1                      0x08000245   Thumb Code     0  libinit2.o(.ARM.Collect$$libinit$$00000034)
    __rt_lib_init_exceptions_1               0x08000245   Thumb Code     0  libinit2.o(.ARM.Collect$$libinit$$00000032)
    __rt_lib_init_fp_trap_1                  0x08000245   Thumb Code     0  libinit2.o(.ARM.Collect$$libinit$$00000021)
    __rt_lib_init_getenv_1                   0x08000245   Thumb Code     0  libinit2.o(.ARM.Collect$$libinit$$00000025)
    __rt_lib_init_lc_numeric_1               0x08000245   Thumb Code     0  libinit2.o(.ARM.Collect$$libinit$$00000019)
    __rt_lib_init_lc_time_1                  0x08000245   Thumb Code     0  libinit2.o(.ARM.Collect$$libinit$$0000001B)
    __rt_lib_init_return                     0x08000245   Thumb Code     0  libinit2.o(.ARM.Collect$$libinit$$00000035)
    __rt_lib_init_signal_1                   0x08000245   Thumb Code     0  libinit2.o(.ARM.Collect$$libinit$$0000001F)
    __rt_lib_init_stdio_1                    0x08000245   Thumb Code     0  libinit2.o(.ARM.Collect$$libinit$$00000027)
    __rt_lib_shutdown                        0x08000247   Thumb Code     0  libshutdown.o(.ARM.Collect$$libshutdown$$00000000)
    __rt_lib_shutdown_cpp_1                  0x08000249   Thumb Code     0  libshutdown2.o(.ARM.Collect$$libshutdown$$00000002)
    __rt_lib_shutdown_fp_trap_1              0x08000249   Thumb Code     0  libshutdown2.o(.ARM.Collect$$libshutdown$$00000007)
    __rt_lib_shutdown_heap_1                 0x08000249   Thumb Code     0  libshutdown2.o(.ARM.Collect$$libshutdown$$0000000F)
    __rt_lib_shutdown_return                 0x08000249   Thumb Code     0  libshutdown2.o(.ARM.Collect$$libshutdown$$00000010)
    __rt_lib_shutdown_signal_1               0x08000249   Thumb Code     0  libshutdown2.o(.ARM.Collect$$libshutdown$$0000000A)
    __rt_lib_shutdown_stdio_1                0x08000249   Thumb Code     0  libshutdown2.o(.ARM.Collect$$libshutdown$$00000004)
    __rt_lib_shutdown_user_alloc_1           0x08000249   Thumb Code     0  libshutdown2.o(.ARM.Collect$$libshutdown$$0000000C)
    __rt_entry                               0x0800024b   Thumb Code     0  __rtentry.o(.ARM.Collect$$rtentry$$00000000)
    __rt_entry_presh_1                       0x0800024b   Thumb Code     0  __rtentry2.o(.ARM.Collect$$rtentry$$00000002)
    __rt_entry_sh                            0x0800024b   Thumb Code     0  __rtentry4.o(.ARM.Collect$$rtentry$$00000004)
    __rt_entry_li                            0x08000251   Thumb Code     0  __rtentry2.o(.ARM.Collect$$rtentry$$0000000A)
    __rt_entry_postsh_1                      0x08000251   Thumb Code     0  __rtentry2.o(.ARM.Collect$$rtentry$$00000009)
    __rt_entry_main                          0x08000255   Thumb Code     0  __rtentry2.o(.ARM.Collect$$rtentry$$0000000D)
    __rt_entry_postli_1                      0x08000255   Thumb Code     0  __rtentry2.o(.ARM.Collect$$rtentry$$0000000C)
    __rt_exit                                0x0800025d   Thumb Code     0  rtexit.o(.ARM.Collect$$rtexit$$00000000)
    __rt_exit_ls                             0x0800025f   Thumb Code     0  rtexit2.o(.ARM.Collect$$rtexit$$00000003)
    __rt_exit_prels_1                        0x0800025f   Thumb Code     0  rtexit2.o(.ARM.Collect$$rtexit$$00000002)
    __rt_exit_exit                           0x08000263   Thumb Code     0  rtexit2.o(.ARM.Collect$$rtexit$$00000004)
    main                                     0x08000269   Thumb Code   246  main.o(.text)
    ShutOff                                  0x08000361   Thumb Code    66  main.o(.text)
    ShowBatteryState                         0x080003a5   Thumb Code   130  main.o(.text)
    BeepsBackwards                           0x08000429   Thumb Code    60  main.o(.text)
    modulo                                   0x08000465   Thumb Code    22  bldc.o(.text)
    up_or_down                               0x0800047d   Thumb Code    60  bldc.o(.text)
    SetEnable                                0x080004b9   Thumb Code    12  bldc.o(.text)
    SetPWM                                   0x080004c5   Thumb Code   120  bldc.o(.text)
    CalculateBLDC                            0x0800053d   Thumb Code   964  bldc.o(.text)
    Interrupt_init                           0x08000901   Thumb Code     8  setup.o(.text)
    Watchdog_init                            0x08000909   Thumb Code    56  setup.o(.text)
    TimeoutTimer_init                        0x08000941   Thumb Code    92  setup.o(.text)
    GPIO_init                                0x0800099d   Thumb Code   786  setup.o(.text)
    PWM_init                                 0x08000cb1   Thumb Code   368  setup.o(.text)
    ADC_init                                 0x08000e21   Thumb Code   234  setup.o(.text)
    USART1_Init                              0x08000f0d   Thumb Code     2  setup.o(.text)
    USART0_Init                              0x08000f11   Thumb Code   284  setup.o(.text)
    SysTick_Handler                          0x0800102d   Thumb Code    16  it.o(.text)
    ResetTimeout                             0x0800103d   Thumb Code    14  it.o(.text)
    TIMER13_IRQHandler                       0x0800104d   Thumb Code    76  it.o(.text)
    TIMER0_BRK_UP_TRG_COM_IRQHandler         0x08001099   Thumb Code    26  it.o(.text)
    DMA_Channel0_IRQHandler                  0x080010b5   Thumb Code    32  it.o(.text)
    DMA_Channel1_2_IRQHandler                0x080010d5   Thumb Code    32  it.o(.text)
    millis                                   0x080010f5   Thumb Code    12  it.o(.text)
    Delay                                    0x08001101   Thumb Code    28  it.o(.text)
    NMI_Handler                              0x0800111d   Thumb Code     2  it.o(.text)
    HardFault_Handler                        0x08001121   Thumb Code     2  it.o(.text)
    MemManage_Handler                        0x08001125   Thumb Code     2  it.o(.text)
    BusFault_Handler                         0x08001129   Thumb Code     2  it.o(.text)
    UsageFault_Handler                       0x0800112d   Thumb Code     2  it.o(.text)
    SVC_Handler                              0x08001131   Thumb Code     2  it.o(.text)
    DebugMon_Handler                         0x08001135   Thumb Code     2  it.o(.text)
    PendSV_Handler                           0x08001139   Thumb Code     2  it.o(.text)
    SendBuffer                               0x0800113d   Thumb Code    48  commsmasterslave.o(.text)
    CalcCRC                                  0x0800116d   Thumb Code    60  commsmasterslave.o(.text)
    SetBeepsBackwardsMaster                  0x080011a9   Thumb Code    12  commsmasterslave.o(.text)
    GetBeepsBackwardsMaster                  0x080011b5   Thumb Code    12  commsmasterslave.o(.text)
    RemoteUpdate                             0x080011c1   Thumb Code    54  remoteautodetect.o(.text)
    RemoteCallback                           0x080011f9   Thumb Code    52  remoteautodetect.o(.text)
    GetPinName                               0x0800122d   Thumb Code    84  remoteautodetect.o(.text)
    HidePinDigital                           0x08001281   Thumb Code    70  remoteautodetect.o(.text)
    AutodetectInit                           0x080012c9   Thumb Code   118  remoteautodetect.o(.text)
    AutoDetectSetStage                       0x08001341   Thumb Code    68  remoteautodetect.o(.text)
    AutoDetectNextStage                      0x08001385   Thumb Code    74  remoteautodetect.o(.text)
    SetNextTestPin                           0x080013d1   Thumb Code   138  remoteautodetect.o(.text)
    ScanInit                                 0x0800145d   Thumb Code   430  remoteautodetect.o(.text)
    ScanList                                 0x0800160d   Thumb Code   536  remoteautodetect.o(.text)
    AutodetectScan                           0x08001851   Thumb Code  2288  remoteautodetect.o(.text)
    AutoDetectHallInit                       0x080021d5   Thumb Code   128  remoteautodetect.o(.text)
    AutoDetectHallOrderInit                  0x08002255   Thumb Code   158  remoteautodetect.o(.text)
    AutodetectBldc                           0x080022f5   Thumb Code  1592  remoteautodetect.o(.text)
    adc_deinit                               0x0800297d   Thumb Code    22  gd32f1x0_adc.o(.text)
    adc_enable                               0x08002995   Thumb Code    26  gd32f1x0_adc.o(.text)
    adc_disable                              0x080029b1   Thumb Code    18  gd32f1x0_adc.o(.text)
    adc_calibration_enable                   0x080029c5   Thumb Code    40  gd32f1x0_adc.o(.text)
    adc_dma_mode_enable                      0x080029ed   Thumb Code    18  gd32f1x0_adc.o(.text)
    adc_dma_mode_disable                     0x08002a01   Thumb Code    18  gd32f1x0_adc.o(.text)
    adc_tempsensor_vrefint_enable            0x08002a15   Thumb Code    18  gd32f1x0_adc.o(.text)
    adc_tempsensor_vrefint_disable           0x08002a29   Thumb Code    18  gd32f1x0_adc.o(.text)
    adc_vbat_enable                          0x08002a3d   Thumb Code    18  gd32f1x0_adc.o(.text)
    adc_vbat_disable                         0x08002a51   Thumb Code    18  gd32f1x0_adc.o(.text)
    adc_discontinuous_mode_config            0x08002a65   Thumb Code    68  gd32f1x0_adc.o(.text)
    adc_special_function_config              0x08002aa9   Thumb Code   100  gd32f1x0_adc.o(.text)
    adc_data_alignment_config                0x08002b0d   Thumb Code    26  gd32f1x0_adc.o(.text)
    adc_channel_length_config                0x08002b29   Thumb Code    82  gd32f1x0_adc.o(.text)
    adc_regular_channel_config               0x08002b7d   Thumb Code   180  gd32f1x0_adc.o(.text)
    adc_inserted_channel_config              0x08002c31   Thumb Code   114  gd32f1x0_adc.o(.text)
    adc_inserted_channel_offset_config       0x08002ca5   Thumb Code    32  gd32f1x0_adc.o(.text)
    adc_external_trigger_config              0x08002cc5   Thumb Code    72  gd32f1x0_adc.o(.text)
    adc_external_trigger_source_config       0x08002d0d   Thumb Code    42  gd32f1x0_adc.o(.text)
    adc_software_trigger_enable              0x08002d39   Thumb Code    36  gd32f1x0_adc.o(.text)
    adc_regular_data_read                    0x08002d5d   Thumb Code    14  gd32f1x0_adc.o(.text)
    adc_inserted_data_read                   0x08002d6d   Thumb Code    74  gd32f1x0_adc.o(.text)
    adc_flag_get                             0x08002db9   Thumb Code    18  gd32f1x0_adc.o(.text)
    adc_flag_clear                           0x08002dcd   Thumb Code    18  gd32f1x0_adc.o(.text)
    adc_interrupt_flag_get                   0x08002de1   Thumb Code    56  gd32f1x0_adc.o(.text)
    adc_interrupt_flag_clear                 0x08002e19   Thumb Code    18  gd32f1x0_adc.o(.text)
    adc_interrupt_enable                     0x08002e2d   Thumb Code    48  gd32f1x0_adc.o(.text)
    adc_interrupt_disable                    0x08002e5d   Thumb Code    48  gd32f1x0_adc.o(.text)
    adc_watchdog_single_channel_enable       0x08002e8d   Thumb Code    42  gd32f1x0_adc.o(.text)
    adc_watchdog_group_channel_enable        0x08002eb9   Thumb Code    48  gd32f1x0_adc.o(.text)
    adc_watchdog_disable                     0x08002ef5   Thumb Code    24  gd32f1x0_adc.o(.text)
    adc_watchdog_threshold_config            0x08002f0d   Thumb Code    22  gd32f1x0_adc.o(.text)
    dma_deinit                               0x08002f25   Thumb Code    48  gd32f1x0_dma.o(.text)
    dma_struct_para_init                     0x08002f55   Thumb Code    24  gd32f1x0_dma.o(.text)
    dma_init                                 0x08002f6d   Thumb Code   122  gd32f1x0_dma.o(.text)
    dma_circulation_enable                   0x08002fe9   Thumb Code    24  gd32f1x0_dma.o(.text)
    dma_circulation_disable                  0x08003001   Thumb Code    24  gd32f1x0_dma.o(.text)
    dma_memory_to_memory_enable              0x08003019   Thumb Code    24  gd32f1x0_dma.o(.text)
    dma_memory_to_memory_disable             0x08003031   Thumb Code    24  gd32f1x0_dma.o(.text)
    dma_channel_enable                       0x08003049   Thumb Code    24  gd32f1x0_dma.o(.text)
    dma_channel_disable                      0x08003061   Thumb Code    24  gd32f1x0_dma.o(.text)
    dma_periph_address_config                0x08003079   Thumb Code    16  gd32f1x0_dma.o(.text)
    dma_memory_address_config                0x08003089   Thumb Code    16  gd32f1x0_dma.o(.text)
    dma_transfer_number_config               0x08003099   Thumb Code    16  gd32f1x0_dma.o(.text)
    dma_transfer_number_get                  0x080030a9   Thumb Code    16  gd32f1x0_dma.o(.text)
    dma_priority_config                      0x080030b9   Thumb Code    26  gd32f1x0_dma.o(.text)
    dma_memory_width_config                  0x080030d5   Thumb Code    26  gd32f1x0_dma.o(.text)
    dma_periph_width_config                  0x080030f1   Thumb Code    26  gd32f1x0_dma.o(.text)
    dma_memory_increase_enable               0x0800310d   Thumb Code    24  gd32f1x0_dma.o(.text)
    dma_memory_increase_disable              0x08003125   Thumb Code    24  gd32f1x0_dma.o(.text)
    dma_periph_increase_enable               0x0800313d   Thumb Code    24  gd32f1x0_dma.o(.text)
    dma_periph_increase_disable              0x08003155   Thumb Code    24  gd32f1x0_dma.o(.text)
    dma_transfer_direction_config            0x0800316d   Thumb Code    30  gd32f1x0_dma.o(.text)
    dma_interrupt_flag_get                   0x0800318d   Thumb Code   116  gd32f1x0_dma.o(.text)
    dma_interrupt_flag_clear                 0x08003201   Thumb Code    20  gd32f1x0_dma.o(.text)
    dma_interrupt_enable                     0x08003215   Thumb Code    22  gd32f1x0_dma.o(.text)
    dma_interrupt_disable                    0x0800322d   Thumb Code    24  gd32f1x0_dma.o(.text)
    dma_flag_get                             0x08003245   Thumb Code    22  gd32f1x0_dma.o(.text)
    dma_flag_clear                           0x0800325d   Thumb Code    20  gd32f1x0_dma.o(.text)
    fwdgt_write_disable                      0x08003271   Thumb Code    14  gd32f1x0_fwdgt.o(.text)
    fwdgt_counter_reload                     0x08003281   Thumb Code    16  gd32f1x0_fwdgt.o(.text)
    fwdgt_enable                             0x08003291   Thumb Code    16  gd32f1x0_fwdgt.o(.text)
    fwdgt_window_value_config                0x080032a1   Thumb Code    52  gd32f1x0_fwdgt.o(.text)
    fwdgt_config                             0x080032d5   Thumb Code   100  gd32f1x0_fwdgt.o(.text)
    fwdgt_flag_get                           0x08003339   Thumb Code    18  gd32f1x0_fwdgt.o(.text)
    gpio_deinit                              0x0800334d   Thumb Code    58  gd32f1x0_gpio.o(.text)
    gpio_mode_set                            0x08003389   Thumb Code    84  gd32f1x0_gpio.o(.text)
    gpio_output_options_set                  0x080033dd   Thumb Code    70  gd32f1x0_gpio.o(.text)
    gpio_bit_set                             0x08003425   Thumb Code     4  gd32f1x0_gpio.o(.text)
    gpio_bit_reset                           0x08003429   Thumb Code     4  gd32f1x0_gpio.o(.text)
    gpio_bit_write                           0x0800342d   Thumb Code    12  gd32f1x0_gpio.o(.text)
    gpio_port_write                          0x08003439   Thumb Code     4  gd32f1x0_gpio.o(.text)
    gpio_input_bit_get                       0x0800343d   Thumb Code    10  gd32f1x0_gpio.o(.text)
    gpio_input_port_get                      0x08003449   Thumb Code     6  gd32f1x0_gpio.o(.text)
    gpio_output_bit_get                      0x08003451   Thumb Code    10  gd32f1x0_gpio.o(.text)
    gpio_output_port_get                     0x0800345d   Thumb Code     6  gd32f1x0_gpio.o(.text)
    gpio_af_set                              0x08003465   Thumb Code   110  gd32f1x0_gpio.o(.text)
    gpio_pin_lock                            0x080034d5   Thumb Code    16  gd32f1x0_gpio.o(.text)
    nvic_priority_group_set                  0x080034e5   Thumb Code    20  gd32f1x0_misc.o(.text)
    nvic_irq_enable                          0x080034f9   Thumb Code   168  gd32f1x0_misc.o(.text)
    nvic_irq_disable                         0x080035a1   Thumb Code    30  gd32f1x0_misc.o(.text)
    nvic_vector_table_set                    0x080035c1   Thumb Code    24  gd32f1x0_misc.o(.text)
    system_lowpower_set                      0x080035d9   Thumb Code    16  gd32f1x0_misc.o(.text)
    system_lowpower_reset                    0x080035e9   Thumb Code    18  gd32f1x0_misc.o(.text)
    systick_clksource_set                    0x080035fd   Thumb Code    24  gd32f1x0_misc.o(.text)
    rcu_deinit                               0x08003615   Thumb Code   112  gd32f1x0_rcu.o(.text)
    rcu_periph_clock_enable                  0x08003685   Thumb Code    30  gd32f1x0_rcu.o(.text)
    rcu_periph_clock_disable                 0x080036a5   Thumb Code    32  gd32f1x0_rcu.o(.text)
    rcu_periph_clock_sleep_enable            0x080036c5   Thumb Code    30  gd32f1x0_rcu.o(.text)
    rcu_periph_clock_sleep_disable           0x080036e5   Thumb Code    32  gd32f1x0_rcu.o(.text)
    rcu_periph_reset_enable                  0x08003705   Thumb Code    30  gd32f1x0_rcu.o(.text)
    rcu_periph_reset_disable                 0x08003725   Thumb Code    32  gd32f1x0_rcu.o(.text)
    rcu_bkp_reset_enable                     0x08003745   Thumb Code    18  gd32f1x0_rcu.o(.text)
    rcu_bkp_reset_disable                    0x08003759   Thumb Code    18  gd32f1x0_rcu.o(.text)
    rcu_system_clock_source_config           0x0800376d   Thumb Code    20  gd32f1x0_rcu.o(.text)
    rcu_system_clock_source_get              0x08003781   Thumb Code    16  gd32f1x0_rcu.o(.text)
    rcu_ahb_clock_config                     0x08003791   Thumb Code    20  gd32f1x0_rcu.o(.text)
    rcu_apb1_clock_config                    0x080037a5   Thumb Code    20  gd32f1x0_rcu.o(.text)
    rcu_apb2_clock_config                    0x080037b9   Thumb Code    20  gd32f1x0_rcu.o(.text)
    rcu_adc_clock_config                     0x080037cd   Thumb Code    88  gd32f1x0_rcu.o(.text)
    rcu_usbd_clock_config                    0x08003825   Thumb Code    24  gd32f1x0_rcu.o(.text)
    rcu_ckout_config                         0x0800383d   Thumb Code    22  gd32f1x0_rcu.o(.text)
    rcu_pll_config                           0x08003855   Thumb Code    36  gd32f1x0_rcu.o(.text)
    rcu_usart_clock_config                   0x08003879   Thumb Code    24  gd32f1x0_rcu.o(.text)
    rcu_cec_clock_config                     0x08003891   Thumb Code    24  gd32f1x0_rcu.o(.text)
    rcu_rtc_clock_config                     0x080038a9   Thumb Code    24  gd32f1x0_rcu.o(.text)
    rcu_hxtal_prediv_config                  0x080038c1   Thumb Code    20  gd32f1x0_rcu.o(.text)
    rcu_lxtal_drive_capability_config        0x080038d5   Thumb Code    24  gd32f1x0_rcu.o(.text)
    rcu_flag_get                             0x080038ed   Thumb Code    26  gd32f1x0_rcu.o(.text)
    rcu_all_reset_flag_clear                 0x08003909   Thumb Code    18  gd32f1x0_rcu.o(.text)
    rcu_interrupt_flag_get                   0x0800391d   Thumb Code    18  gd32f1x0_rcu.o(.text)
    rcu_interrupt_flag_clear                 0x08003931   Thumb Code    16  gd32f1x0_rcu.o(.text)
    rcu_interrupt_enable                     0x08003941   Thumb Code    16  gd32f1x0_rcu.o(.text)
    rcu_interrupt_disable                    0x08003951   Thumb Code    18  gd32f1x0_rcu.o(.text)
    rcu_osci_stab_wait                       0x08003965   Thumb Code   324  gd32f1x0_rcu.o(.text)
    rcu_osci_on                              0x08003aa9   Thumb Code    30  gd32f1x0_rcu.o(.text)
    rcu_osci_off                             0x08003ac9   Thumb Code    32  gd32f1x0_rcu.o(.text)
    rcu_osci_bypass_mode_enable              0x08003ae9   Thumb Code    64  gd32f1x0_rcu.o(.text)
    rcu_osci_bypass_mode_disable             0x08003b29   Thumb Code    64  gd32f1x0_rcu.o(.text)
    rcu_hxtal_clock_monitor_enable           0x08003b69   Thumb Code    18  gd32f1x0_rcu.o(.text)
    rcu_hxtal_clock_monitor_disable          0x08003b7d   Thumb Code    18  gd32f1x0_rcu.o(.text)
    rcu_irc8m_adjust_value_set               0x08003b91   Thumb Code    22  gd32f1x0_rcu.o(.text)
    rcu_irc14m_adjust_value_set              0x08003ba9   Thumb Code    22  gd32f1x0_rcu.o(.text)
    rcu_voltage_key_unlock                   0x08003bc1   Thumb Code    30  gd32f1x0_rcu.o(.text)
    rcu_deepsleep_voltage_set                0x08003be1   Thumb Code    24  gd32f1x0_rcu.o(.text)
    rcu_power_down_voltage_set               0x08003bf9   Thumb Code    24  gd32f1x0_rcu.o(.text)
    rcu_clock_freq_get                       0x08003c11   Thumb Code   292  gd32f1x0_rcu.o(.text)
    timer_deinit                             0x08003d45   Thumb Code   194  gd32f1x0_timer.o(.text)
    timer_struct_para_init                   0x08003e09   Thumb Code    16  gd32f1x0_timer.o(.text)
    timer_init                               0x08003e19   Thumb Code   212  gd32f1x0_timer.o(.text)
    timer_enable                             0x08003eed   Thumb Code    10  gd32f1x0_timer.o(.text)
    timer_disable                            0x08003ef9   Thumb Code    10  gd32f1x0_timer.o(.text)
    timer_auto_reload_shadow_enable          0x08003f05   Thumb Code    10  gd32f1x0_timer.o(.text)
    timer_auto_reload_shadow_disable         0x08003f11   Thumb Code    10  gd32f1x0_timer.o(.text)
    timer_update_event_enable                0x08003f1d   Thumb Code    10  gd32f1x0_timer.o(.text)
    timer_update_event_disable               0x08003f29   Thumb Code    10  gd32f1x0_timer.o(.text)
    timer_counter_alignment                  0x08003f35   Thumb Code    16  gd32f1x0_timer.o(.text)
    timer_counter_up_direction               0x08003f45   Thumb Code    10  gd32f1x0_timer.o(.text)
    timer_counter_down_direction             0x08003f51   Thumb Code    10  gd32f1x0_timer.o(.text)
    timer_prescaler_config                   0x08003f5d   Thumb Code    18  gd32f1x0_timer.o(.text)
    timer_repetition_value_config            0x08003f71   Thumb Code     4  gd32f1x0_timer.o(.text)
    timer_autoreload_value_config            0x08003f75   Thumb Code     4  gd32f1x0_timer.o(.text)
    timer_counter_value_config               0x08003f79   Thumb Code     4  gd32f1x0_timer.o(.text)
    timer_counter_read                       0x08003f7d   Thumb Code     4  gd32f1x0_timer.o(.text)
    timer_prescaler_read                     0x08003f81   Thumb Code     6  gd32f1x0_timer.o(.text)
    timer_single_pulse_mode_config           0x08003f89   Thumb Code    30  gd32f1x0_timer.o(.text)
    timer_update_source_config               0x08003fa9   Thumb Code    30  gd32f1x0_timer.o(.text)
    timer_ocpre_clear_source_config          0x08003fc9   Thumb Code    28  gd32f1x0_timer.o(.text)
    timer_interrupt_enable                   0x08003fe5   Thumb Code     8  gd32f1x0_timer.o(.text)
    timer_interrupt_disable                  0x08003fed   Thumb Code    10  gd32f1x0_timer.o(.text)
    timer_interrupt_flag_get                 0x08003ff9   Thumb Code    22  gd32f1x0_timer.o(.text)
    timer_interrupt_flag_clear               0x08004011   Thumb Code     6  gd32f1x0_timer.o(.text)
    timer_flag_get                           0x08004019   Thumb Code    10  gd32f1x0_timer.o(.text)
    timer_flag_clear                         0x08004025   Thumb Code     6  gd32f1x0_timer.o(.text)
    timer_dma_enable                         0x0800402d   Thumb Code     8  gd32f1x0_timer.o(.text)
    timer_dma_disable                        0x08004035   Thumb Code    10  gd32f1x0_timer.o(.text)
    timer_channel_dma_request_source_select  0x08004041   Thumb Code    30  gd32f1x0_timer.o(.text)
    timer_dma_transfer_config                0x08004061   Thumb Code    24  gd32f1x0_timer.o(.text)
    timer_event_software_generate            0x08004079   Thumb Code     8  gd32f1x0_timer.o(.text)
    timer_break_struct_para_init             0x08004081   Thumb Code    16  gd32f1x0_timer.o(.text)
    timer_break_config                       0x08004091   Thumb Code    36  gd32f1x0_timer.o(.text)
    timer_break_enable                       0x080040b5   Thumb Code    10  gd32f1x0_timer.o(.text)
    timer_break_disable                      0x080040c1   Thumb Code    10  gd32f1x0_timer.o(.text)
    timer_automatic_output_enable            0x080040cd   Thumb Code    10  gd32f1x0_timer.o(.text)
    timer_automatic_output_disable           0x080040d9   Thumb Code    10  gd32f1x0_timer.o(.text)
    timer_primary_output_config              0x080040e5   Thumb Code    18  gd32f1x0_timer.o(.text)
    timer_channel_control_shadow_config      0x080040f9   Thumb Code    16  gd32f1x0_timer.o(.text)
    timer_channel_control_shadow_update_config 0x08004109   Thumb Code    30  gd32f1x0_timer.o(.text)
    timer_channel_output_struct_para_init    0x08004129   Thumb Code    12  gd32f1x0_timer.o(.text)
    timer_channel_output_config              0x08004135   Thumb Code   550  gd32f1x0_timer.o(.text)
    timer_channel_output_mode_config         0x0800435d   Thumb Code    58  gd32f1x0_timer.o(.text)
    timer_channel_output_pulse_value_config  0x08004399   Thumb Code    12  gd32f1x0_timer.o(.text)
    timer_channel_output_shadow_config       0x080043a5   Thumb Code    58  gd32f1x0_timer.o(.text)
    timer_channel_output_fast_config         0x080043e1   Thumb Code    58  gd32f1x0_timer.o(.text)
    timer_channel_output_clear_config        0x0800441d   Thumb Code    58  gd32f1x0_timer.o(.text)
    timer_channel_output_polarity_config     0x08004459   Thumb Code    74  gd32f1x0_timer.o(.text)
    timer_channel_complementary_output_polarity_config 0x080044a5   Thumb Code    74  gd32f1x0_timer.o(.text)
    timer_channel_output_state_config        0x080044f1   Thumb Code    74  gd32f1x0_timer.o(.text)
    timer_channel_complementary_output_state_config 0x0800453d   Thumb Code    60  gd32f1x0_timer.o(.text)
    timer_channel_input_struct_para_init     0x08004579   Thumb Code    12  gd32f1x0_timer.o(.text)
    timer_input_capture_config               0x08004585   Thumb Code   346  gd32f1x0_timer.o(.text)
    timer_channel_input_capture_prescaler_config 0x080046e1   Thumb Code    58  gd32f1x0_timer.o(.text)
    timer_channel_capture_value_register_read 0x0800471d   Thumb Code    14  gd32f1x0_timer.o(.text)
    timer_input_pwm_capture_config           0x0800472d   Thumb Code   356  gd32f1x0_timer.o(.text)
    timer_hall_mode_config                   0x08004891   Thumb Code    30  gd32f1x0_timer.o(.text)
    timer_input_trigger_source_select        0x080048b1   Thumb Code    16  gd32f1x0_timer.o(.text)
    timer_master_output_trigger_source_select 0x080048c1   Thumb Code    16  gd32f1x0_timer.o(.text)
    timer_slave_mode_select                  0x080048d1   Thumb Code    16  gd32f1x0_timer.o(.text)
    timer_master_slave_mode_config           0x080048e1   Thumb Code    30  gd32f1x0_timer.o(.text)
    timer_external_trigger_config            0x08004901   Thumb Code    34  gd32f1x0_timer.o(.text)
    timer_quadrature_decoder_mode_config     0x08004925   Thumb Code    78  gd32f1x0_timer.o(.text)
    timer_internal_clock_config              0x08004975   Thumb Code    10  gd32f1x0_timer.o(.text)
    timer_internal_trigger_as_external_clock_config 0x08004981   Thumb Code    32  gd32f1x0_timer.o(.text)
    timer_external_trigger_as_external_clock_config 0x080049a1   Thumb Code   148  gd32f1x0_timer.o(.text)
    timer_external_clock_mode0_config        0x08004a35   Thumb Code    50  gd32f1x0_timer.o(.text)
    timer_external_clock_mode1_config        0x08004a69   Thumb Code    42  gd32f1x0_timer.o(.text)
    timer_external_clock_mode1_disable       0x08004a95   Thumb Code    10  gd32f1x0_timer.o(.text)
    timer_channel_remap_config               0x08004aa1   Thumb Code     4  gd32f1x0_timer.o(.text)
    usart_deinit                             0x08004aa5   Thumb Code    54  gd32f1x0_usart.o(.text)
    usart_baudrate_set                       0x08004add   Thumb Code    90  gd32f1x0_usart.o(.text)
    usart_parity_config                      0x08004b39   Thumb Code    24  gd32f1x0_usart.o(.text)
    usart_word_length_set                    0x08004b51   Thumb Code    24  gd32f1x0_usart.o(.text)
    usart_stop_bit_set                       0x08004b69   Thumb Code    24  gd32f1x0_usart.o(.text)
    usart_enable                             0x08004b81   Thumb Code    10  gd32f1x0_usart.o(.text)
    usart_disable                            0x08004b8d   Thumb Code    10  gd32f1x0_usart.o(.text)
    usart_transmit_config                    0x08004b99   Thumb Code    16  gd32f1x0_usart.o(.text)
    usart_receive_config                     0x08004ba9   Thumb Code    16  gd32f1x0_usart.o(.text)
    usart_data_transmit                      0x08004bb9   Thumb Code     8  gd32f1x0_usart.o(.text)
    usart_data_receive                       0x08004bc1   Thumb Code     8  gd32f1x0_usart.o(.text)
    usart_data_first_config                  0x08004bc9   Thumb Code    28  gd32f1x0_usart.o(.text)
    usart_invert_config                      0x08004be5   Thumb Code   106  gd32f1x0_usart.o(.text)
    usart_overrun_enable                     0x08004c51   Thumb Code    18  gd32f1x0_usart.o(.text)
    usart_overrun_disable                    0x08004c65   Thumb Code    18  gd32f1x0_usart.o(.text)
    usart_oversample_config                  0x08004c79   Thumb Code    24  gd32f1x0_usart.o(.text)
    usart_sample_bit_config                  0x08004c91   Thumb Code    24  gd32f1x0_usart.o(.text)
    usart_autobaud_detection_enable          0x08004ca9   Thumb Code    10  gd32f1x0_usart.o(.text)
    usart_autobaud_detection_disable         0x08004cb5   Thumb Code    10  gd32f1x0_usart.o(.text)
    usart_autobaud_detection_mode_config     0x08004cc1   Thumb Code    16  gd32f1x0_usart.o(.text)
    usart_mute_mode_enable                   0x08004cd1   Thumb Code    10  gd32f1x0_usart.o(.text)
    usart_mute_mode_disable                  0x08004cdd   Thumb Code    10  gd32f1x0_usart.o(.text)
    usart_mute_mode_wakeup_config            0x08004ce9   Thumb Code    24  gd32f1x0_usart.o(.text)
    usart_address_detection_mode_config      0x08004d01   Thumb Code    28  gd32f1x0_usart.o(.text)
    usart_address_config                     0x08004d1d   Thumb Code    26  gd32f1x0_usart.o(.text)
    usart_receiver_timeout_enable            0x08004d39   Thumb Code    10  gd32f1x0_usart.o(.text)
    usart_receiver_timeout_disable           0x08004d45   Thumb Code    10  gd32f1x0_usart.o(.text)
    usart_receiver_timeout_config            0x08004d51   Thumb Code    16  gd32f1x0_usart.o(.text)
    usart_lin_mode_enable                    0x08004d61   Thumb Code    18  gd32f1x0_usart.o(.text)
    usart_lin_mode_disable                   0x08004d75   Thumb Code    18  gd32f1x0_usart.o(.text)
    usart_lin_break_detection_length_config  0x08004d89   Thumb Code    20  gd32f1x0_usart.o(.text)
    usart_halfduplex_enable                  0x08004d9d   Thumb Code    18  gd32f1x0_usart.o(.text)
    usart_halfduplex_disable                 0x08004db1   Thumb Code    18  gd32f1x0_usart.o(.text)
    usart_clock_enable                       0x08004dc5   Thumb Code    18  gd32f1x0_usart.o(.text)
    usart_clock_disable                      0x08004dd9   Thumb Code    18  gd32f1x0_usart.o(.text)
    usart_synchronous_clock_config           0x08004ded   Thumb Code    60  gd32f1x0_usart.o(.text)
    usart_smartcard_mode_enable              0x08004e29   Thumb Code    18  gd32f1x0_usart.o(.text)
    usart_smartcard_mode_disable             0x08004e3d   Thumb Code    18  gd32f1x0_usart.o(.text)
    usart_smartcard_mode_nack_enable         0x08004e51   Thumb Code    18  gd32f1x0_usart.o(.text)
    usart_smartcard_mode_nack_disable        0x08004e65   Thumb Code    18  gd32f1x0_usart.o(.text)
    usart_guard_time_config                  0x08004e79   Thumb Code    28  gd32f1x0_usart.o(.text)
    usart_block_length_config                0x08004e95   Thumb Code    18  gd32f1x0_usart.o(.text)
    usart_smartcard_autoretry_config         0x08004ea9   Thumb Code    30  gd32f1x0_usart.o(.text)
    usart_irda_mode_enable                   0x08004ec9   Thumb Code    18  gd32f1x0_usart.o(.text)
    usart_irda_mode_disable                  0x08004edd   Thumb Code    18  gd32f1x0_usart.o(.text)
    usart_irda_lowpower_config               0x08004ef1   Thumb Code    20  gd32f1x0_usart.o(.text)
    usart_prescaler_config                   0x08004f05   Thumb Code    24  gd32f1x0_usart.o(.text)
    usart_hardware_flow_rts_config           0x08004f1d   Thumb Code    24  gd32f1x0_usart.o(.text)
    usart_hardware_flow_cts_config           0x08004f35   Thumb Code    24  gd32f1x0_usart.o(.text)
    usart_rs485_driver_enable                0x08004f4d   Thumb Code    18  gd32f1x0_usart.o(.text)
    usart_rs485_driver_disable               0x08004f61   Thumb Code    18  gd32f1x0_usart.o(.text)
    usart_driver_assertime_config            0x08004f75   Thumb Code    30  gd32f1x0_usart.o(.text)
    usart_driver_deassertime_config          0x08004f95   Thumb Code    30  gd32f1x0_usart.o(.text)
    usart_depolarity_config                  0x08004fb5   Thumb Code    28  gd32f1x0_usart.o(.text)
    usart_dma_receive_config                 0x08004fd1   Thumb Code    16  gd32f1x0_usart.o(.text)
    usart_dma_transmit_config                0x08004fe1   Thumb Code    16  gd32f1x0_usart.o(.text)
    usart_reception_error_dma_disable        0x08004ff1   Thumb Code    18  gd32f1x0_usart.o(.text)
    usart_reception_error_dma_enable         0x08005005   Thumb Code    18  gd32f1x0_usart.o(.text)
    usart_wakeup_enable                      0x08005019   Thumb Code    10  gd32f1x0_usart.o(.text)
    usart_wakeup_disable                     0x08005025   Thumb Code    10  gd32f1x0_usart.o(.text)
    usart_wakeup_mode_config                 0x08005031   Thumb Code    28  gd32f1x0_usart.o(.text)
    usart_flag_get                           0x0800504d   Thumb Code    16  gd32f1x0_usart.o(.text)
    usart_flag_clear                         0x0800505d   Thumb Code    18  gd32f1x0_usart.o(.text)
    usart_interrupt_enable                   0x08005071   Thumb Code    24  gd32f1x0_usart.o(.text)
    usart_interrupt_disable                  0x08005089   Thumb Code    26  gd32f1x0_usart.o(.text)
    usart_command_enable                     0x080050a5   Thumb Code     8  gd32f1x0_usart.o(.text)
    usart_interrupt_flag_get                 0x080050ad   Thumb Code    34  gd32f1x0_usart.o(.text)
    usart_interrupt_flag_clear               0x080050d1   Thumb Code    18  gd32f1x0_usart.o(.text)
    Reset_Handler                            0x080050e5   Thumb Code     8  startup_gd32f1x0.o(.text)
    ADC_CMP_IRQHandler                       0x080050ff   Thumb Code     0  startup_gd32f1x0.o(.text)
    CAN0_RX0_IRQHandler                      0x080050ff   Thumb Code     0  startup_gd32f1x0.o(.text)
    CAN0_RX1_IRQHandler                      0x080050ff   Thumb Code     0  startup_gd32f1x0.o(.text)
    CAN0_SCE_IRQHandler                      0x080050ff   Thumb Code     0  startup_gd32f1x0.o(.text)
    CAN0_TX_IRQHandler                       0x080050ff   Thumb Code     0  startup_gd32f1x0.o(.text)
    CAN1_RX0_IRQHandler                      0x080050ff   Thumb Code     0  startup_gd32f1x0.o(.text)
    CAN1_RX1_IRQHandler                      0x080050ff   Thumb Code     0  startup_gd32f1x0.o(.text)
    CAN1_SCE_IRQHandler                      0x080050ff   Thumb Code     0  startup_gd32f1x0.o(.text)
    CAN1_TX_IRQHandler                       0x080050ff   Thumb Code     0  startup_gd32f1x0.o(.text)
    CEC_IRQHandler                           0x080050ff   Thumb Code     0  startup_gd32f1x0.o(.text)
    DMA_Channel3_4_IRQHandler                0x080050ff   Thumb Code     0  startup_gd32f1x0.o(.text)
    DMA_Channel5_6_IRQHandler                0x080050ff   Thumb Code     0  startup_gd32f1x0.o(.text)
    EXTI0_1_IRQHandler                       0x080050ff   Thumb Code     0  startup_gd32f1x0.o(.text)
    EXTI2_3_IRQHandler                       0x080050ff   Thumb Code     0  startup_gd32f1x0.o(.text)
    EXTI4_15_IRQHandler                      0x080050ff   Thumb Code     0  startup_gd32f1x0.o(.text)
    FMC_IRQHandler                           0x080050ff   Thumb Code     0  startup_gd32f1x0.o(.text)
    I2C0_ER_IRQHandler                       0x080050ff   Thumb Code     0  startup_gd32f1x0.o(.text)
    I2C0_EV_IRQHandler                       0x080050ff   Thumb Code     0  startup_gd32f1x0.o(.text)
    I2C1_ER_IRQHandler                       0x080050ff   Thumb Code     0  startup_gd32f1x0.o(.text)
    I2C1_EV_IRQHandler                       0x080050ff   Thumb Code     0  startup_gd32f1x0.o(.text)
    I2C2_ER_IRQHandler                       0x080050ff   Thumb Code     0  startup_gd32f1x0.o(.text)
    I2C2_EV_IRQHandler                       0x080050ff   Thumb Code     0  startup_gd32f1x0.o(.text)
    LVD_IRQHandler                           0x080050ff   Thumb Code     0  startup_gd32f1x0.o(.text)
    RCU_IRQHandler                           0x080050ff   Thumb Code     0  startup_gd32f1x0.o(.text)
    RTC_IRQHandler                           0x080050ff   Thumb Code     0  startup_gd32f1x0.o(.text)
    SLCD_IRQHandler                          0x080050ff   Thumb Code     0  startup_gd32f1x0.o(.text)
    SPI0_IRQHandler                          0x080050ff   Thumb Code     0  startup_gd32f1x0.o(.text)
    SPI1_IRQHandler                          0x080050ff   Thumb Code     0  startup_gd32f1x0.o(.text)
    SPI2_IRQHandler                          0x080050ff   Thumb Code     0  startup_gd32f1x0.o(.text)
    TIMER0_Channel_IRQHandler                0x080050ff   Thumb Code     0  startup_gd32f1x0.o(.text)
    TIMER14_IRQHandler                       0x080050ff   Thumb Code     0  startup_gd32f1x0.o(.text)
    TIMER15_IRQHandler                       0x080050ff   Thumb Code     0  startup_gd32f1x0.o(.text)
    TIMER16_IRQHandler                       0x080050ff   Thumb Code     0  startup_gd32f1x0.o(.text)
    TIMER1_IRQHandler                        0x080050ff   Thumb Code     0  startup_gd32f1x0.o(.text)
    TIMER2_IRQHandler                        0x080050ff   Thumb Code     0  startup_gd32f1x0.o(.text)
    TIMER5_DAC_IRQHandler                    0x080050ff   Thumb Code     0  startup_gd32f1x0.o(.text)
    TSI_IRQHandler                           0x080050ff   Thumb Code     0  startup_gd32f1x0.o(.text)
    USART0_IRQHandler                        0x080050ff   Thumb Code     0  startup_gd32f1x0.o(.text)
    USART1_IRQHandler                        0x080050ff   Thumb Code     0  startup_gd32f1x0.o(.text)
    USBDWakeUp_IRQHandler                    0x080050ff   Thumb Code     0  startup_gd32f1x0.o(.text)
    USBD_HP_IRQHandler                       0x080050ff   Thumb Code     0  startup_gd32f1x0.o(.text)
    USBD_LP_IRQHandler                       0x080050ff   Thumb Code     0  startup_gd32f1x0.o(.text)
    WWDGT_IRQHandler                         0x080050ff   Thumb Code     0  startup_gd32f1x0.o(.text)
    __user_initial_stackheap                 0x08005101   Thumb Code    10  startup_gd32f1x0.o(.text)
    SystemInit                               0x08005125   Thumb Code   188  system_gd32f1x0.o(.text)
    SystemCoreClockUpdate                    0x080051e1   Thumb Code   112  system_gd32f1x0.o(.text)
    __2sprintf                               0x08005261   Thumb Code    34  noretval__2sprintf.o(.text)
    _printf_str                              0x08005289   Thumb Code    82  _printf_str.o(.text)
    _printf_int_dec                          0x080052dd   Thumb Code   104  _printf_dec.o(.text)
    __printf                                 0x08005355   Thumb Code   270  __printf_wp.o(.text)
    strlen                                   0x08005463   Thumb Code    62  strlen.o(.text)
    __aeabi_memclr4                          0x080054a1   Thumb Code     0  rt_memclr_w.o(.text)
    __aeabi_memclr8                          0x080054a1   Thumb Code     0  rt_memclr_w.o(.text)
    __rt_memclr_w                            0x080054a1   Thumb Code     0  rt_memclr_w.o(.text)
    _memset_w                                0x080054a5   Thumb Code    74  rt_memclr_w.o(.text)
    __use_two_region_memory                  0x080054ef   Thumb Code     2  heapauxi.o(.text)
    __rt_heap_escrow$2region                 0x080054f1   Thumb Code     2  heapauxi.o(.text)
    __rt_heap_expand$2region                 0x080054f3   Thumb Code     2  heapauxi.o(.text)
    _printf_int_common                       0x080054f5   Thumb Code   178  _printf_intcommon.o(.text)
    _printf_fp_dec_real                      0x08005757   Thumb Code   620  _printf_fp_dec.o(.text)
    _printf_char_common                      0x080059cf   Thumb Code    32  _printf_char_common.o(.text)
    _sputc                                   0x080059f5   Thumb Code    10  _sputc.o(.text)
    _printf_cs_common                        0x080059ff   Thumb Code    20  _printf_char.o(.text)
    _printf_char                             0x08005a13   Thumb Code    16  _printf_char.o(.text)
    _printf_string                           0x08005a23   Thumb Code     8  _printf_char.o(.text)
    __rt_locale                              0x08005a2d   Thumb Code     8  rt_locale_intlibspace.o(.text)
    _ll_udiv10                               0x08005a35   Thumb Code   138  lludiv10.o(.text)
    _printf_fp_infnan                        0x08005ac1   Thumb Code   112  _printf_fp_infnan.o(.text)
    _btod_etento                             0x08005b41   Thumb Code   224  bigflt0.o(.text)
    __user_libspace                          0x08005c25   Thumb Code     8  libspace.o(.text)
    __user_perproc_libspace                  0x08005c25   Thumb Code     0  libspace.o(.text)
    __user_perthread_libspace                0x08005c25   Thumb Code     0  libspace.o(.text)
    __user_setup_stackheap                   0x08005c2d   Thumb Code    74  sys_stackheap_outer.o(.text)
    exit                                     0x08005c77   Thumb Code    18  exit.o(.text)
    strcmp                                   0x08005c89   Thumb Code   128  strcmpv7m.o(.text)
    _sys_exit                                0x08005d09   Thumb Code     8  sys_exit.o(.text)
    __I$use$semihosting                      0x08005d15   Thumb Code     0  use_no_semi.o(.text)
    __use_no_semihosting_swi                 0x08005d15   Thumb Code     2  use_no_semi.o(.text)
    __semihosting_library_function           0x08005d17   Thumb Code     0  indicate_semi.o(.text)
    _btod_d2e                                0x08005d17   Thumb Code    62  btod.o(CL$$btod_d2e)
    _d2e_denorm_low                          0x08005d55   Thumb Code    70  btod.o(CL$$btod_d2e_denorm_low)
    _d2e_norm_op1                            0x08005d9b   Thumb Code    96  btod.o(CL$$btod_d2e_norm_op1)
    __btod_div_common                        0x08005dfd   Thumb Code   696  btod.o(CL$$btod_div_common)
    _e2e                                     0x08006135   Thumb Code   220  btod.o(CL$$btod_e2e)
    _btod_ediv                               0x08006211   Thumb Code    42  btod.o(CL$$btod_ediv)
    _btod_emul                               0x0800623b   Thumb Code    42  btod.o(CL$$btod_emul)
    __btod_mult_common                       0x08006265   Thumb Code   580  btod.o(CL$$btod_mult_common)
    __ARM_fpclassify                         0x080064a9   Thumb Code    40  fpclassify.o(i.__ARM_fpclassify)
    _is_digit                                0x080064d1   Thumb Code    14  __printf_wp.o(i._is_digit)
    _get_lc_numeric                          0x080064e1   Thumb Code    44  lc_numeric_c.o(locale$$code)
    __aeabi_d2f                              0x0800650d   Thumb Code     0  d2f.o(x$fpl$d2f)
    _d2f                                     0x0800650d   Thumb Code    98  d2f.o(x$fpl$d2f)
    __aeabi_dadd                             0x08006571   Thumb Code     0  daddsub_clz.o(x$fpl$dadd)
    _dadd                                    0x08006571   Thumb Code   332  daddsub_clz.o(x$fpl$dadd)
    __fpl_dcmp_Inf                           0x080066c1   Thumb Code    24  dcmpi.o(x$fpl$dcmpinf)
    __aeabi_cdcmpeq                          0x080066d9   Thumb Code     0  deqf.o(x$fpl$deqf)
    _dcmpeq                                  0x080066d9   Thumb Code   120  deqf.o(x$fpl$deqf)
    __aeabi_d2iz                             0x08006751   Thumb Code     0  dfix.o(x$fpl$dfix)
    _dfix                                    0x08006751   Thumb Code    94  dfix.o(x$fpl$dfix)
    __aeabi_i2d                              0x080067af   Thumb Code     0  dflt_clz.o(x$fpl$dflt)
    _dflt                                    0x080067af   Thumb Code    46  dflt_clz.o(x$fpl$dflt)
    __aeabi_ui2d                             0x080067dd   Thumb Code     0  dflt_clz.o(x$fpl$dfltu)
    _dfltu                                   0x080067dd   Thumb Code    38  dflt_clz.o(x$fpl$dfltu)
    __aeabi_cdcmpge                          0x08006805   Thumb Code     0  dgeqf.o(x$fpl$dgeqf)
    _dcmpge                                  0x08006805   Thumb Code   120  dgeqf.o(x$fpl$dgeqf)
    __aeabi_cdcmple                          0x0800687d   Thumb Code     0  dleqf.o(x$fpl$dleqf)
    _dcmple                                  0x0800687d   Thumb Code   120  dleqf.o(x$fpl$dleqf)
    __fpl_dcmple_InfNaN                      0x080068df   Thumb Code     0  dleqf.o(x$fpl$dleqf)
    __aeabi_dmul                             0x080068f5   Thumb Code     0  dmul.o(x$fpl$dmul)
    _dmul                                    0x080068f5   Thumb Code   332  dmul.o(x$fpl$dmul)
    __fpl_dnaninf                            0x08006a49   Thumb Code   156  dnaninf.o(x$fpl$dnaninf)
    __fpl_dretinf                            0x08006ae5   Thumb Code    12  dretinf.o(x$fpl$dretinf)
    __aeabi_dsub                             0x08006af1   Thumb Code     0  daddsub_clz.o(x$fpl$dsub)
    _dsub                                    0x08006af1   Thumb Code   472  daddsub_clz.o(x$fpl$dsub)
    __aeabi_f2d                              0x08006ccd   Thumb Code     0  f2d.o(x$fpl$f2d)
    _f2d                                     0x08006ccd   Thumb Code    86  f2d.o(x$fpl$f2d)
    __aeabi_dcmpeq                           0x08006d23   Thumb Code     0  dcmp.o(x$fpl$fcmp)
    _deq                                     0x08006d23   Thumb Code    14  dcmp.o(x$fpl$fcmp)
    _dneq                                    0x08006d31   Thumb Code    14  dcmp.o(x$fpl$fcmp)
    __aeabi_dcmpgt                           0x08006d3f   Thumb Code     0  dcmp.o(x$fpl$fcmp)
    _dgr                                     0x08006d3f   Thumb Code    14  dcmp.o(x$fpl$fcmp)
    __aeabi_dcmpge                           0x08006d4d   Thumb Code     0  dcmp.o(x$fpl$fcmp)
    _dgeq                                    0x08006d4d   Thumb Code    14  dcmp.o(x$fpl$fcmp)
    __aeabi_dcmple                           0x08006d5b   Thumb Code     0  dcmp.o(x$fpl$fcmp)
    _dleq                                    0x08006d5b   Thumb Code    14  dcmp.o(x$fpl$fcmp)
    __aeabi_dcmplt                           0x08006d69   Thumb Code     0  dcmp.o(x$fpl$fcmp)
    _dls                                     0x08006d69   Thumb Code    14  dcmp.o(x$fpl$fcmp)
    __aeabi_fcmpeq                           0x08006d77   Thumb Code     0  fcmp.o(x$fpl$fcmp)
    _feq                                     0x08006d77   Thumb Code    14  fcmp.o(x$fpl$fcmp)
    _fneq                                    0x08006d85   Thumb Code    14  fcmp.o(x$fpl$fcmp)
    __aeabi_fcmpgt                           0x08006d93   Thumb Code     0  fcmp.o(x$fpl$fcmp)
    _fgr                                     0x08006d93   Thumb Code    14  fcmp.o(x$fpl$fcmp)
    __aeabi_fcmpge                           0x08006da1   Thumb Code     0  fcmp.o(x$fpl$fcmp)
    _fgeq                                    0x08006da1   Thumb Code    14  fcmp.o(x$fpl$fcmp)
    __aeabi_fcmple                           0x08006daf   Thumb Code     0  fcmp.o(x$fpl$fcmp)
    _fleq                                    0x08006daf   Thumb Code    14  fcmp.o(x$fpl$fcmp)
    __aeabi_fcmplt                           0x08006dbd   Thumb Code     0  fcmp.o(x$fpl$fcmp)
    _fls                                     0x08006dbd   Thumb Code    14  fcmp.o(x$fpl$fcmp)
    __fpl_fcmp_Inf                           0x08006dcb   Thumb Code    24  fcmpi.o(x$fpl$fcmpinf)
    __aeabi_fdiv                             0x08006de5   Thumb Code     0  fdiv.o(x$fpl$fdiv)
    _fdiv                                    0x08006de5   Thumb Code   384  fdiv.o(x$fpl$fdiv)
    __aeabi_cfcmpeq                          0x08006f69   Thumb Code     0  feqf.o(x$fpl$feqf)
    _fcmpeq                                  0x08006f69   Thumb Code   104  feqf.o(x$fpl$feqf)
    __aeabi_ui2f                             0x08006fd1   Thumb Code     0  fflt_clz.o(x$fpl$ffltu)
    _ffltu                                   0x08006fd1   Thumb Code    38  fflt_clz.o(x$fpl$ffltu)
    _fcmpge                                  0x08006ff9   Thumb Code   104  fgeqf.o(x$fpl$fgeqf)
    __aeabi_cfcmple                          0x08007061   Thumb Code     0  fleqf.o(x$fpl$fleqf)
    _fcmple                                  0x08007061   Thumb Code   104  fleqf.o(x$fpl$fleqf)
    __fpl_fcmple_InfNaN                      0x080070b3   Thumb Code     0  fleqf.o(x$fpl$fleqf)
    __fpl_fnaninf                            0x080070c9   Thumb Code   140  fnaninf.o(x$fpl$fnaninf)
    __fpl_fretinf                            0x08007155   Thumb Code    10  fretinf.o(x$fpl$fretinf)
    _printf_fp_dec                           0x0800715f   Thumb Code     4  printf1.o(x$fpl$printf1)
    __I$use$fp                               0x08007162   Number         0  usenofp.o(x$fpl$usenofp)
    hall_to_pos                              0x08007218   Data           8  bldc.o(.rodata.hall_to_pos)
    Region$$Table$$Base                      0x08007478   Number         0  anon$$obj.o(Region$$Table)
    Region$$Table$$Limit                     0x08007498   Number         0  anon$$obj.o(Region$$Table)
    HALL_A                                   0x20000000   Data           4  remoteautodetect.o(.data.HALL_A)
    HALL_B                                   0x20000004   Data           4  remoteautodetect.o(.data.HALL_B)
    HALL_C                                   0x20000008   Data           4  remoteautodetect.o(.data.HALL_C)
    SystemCoreClock                          0x2000000c   Data           4  system_gd32f1x0.o(.data.SystemCoreClock)
    aHallOrder                               0x20000010   Data          18  remoteautodetect.o(.data.aHallOrder)
    aoPin                                    0x20000022   Data         261  remoteautodetect.o(.data.aoPin)
    asScan                                   0x20000128   Data          32  remoteautodetect.o(.data.asScan)
    bHallOld                                 0x20000148   Data           1  remoteautodetect.o(.data.bHallOld)
    batteryVoltage                           0x2000014c   Data           4  bldc.o(.data.batteryVoltage)
    cRxLast                                  0x20000150   Data           1  remoteautodetect.o(.data.cRxLast)
    iAverageMax                              0x20000152   Data           2  remoteautodetect.o(.data.iAverageMax)
    iMove                                    0x20000154   Data           1  remoteautodetect.o(.data.iMove)
    iPinCount                                0x20000155   Data           1  remoteautodetect.o(.data.iPinCount)
    iStageOld                                0x20000156   Data           2  remoteautodetect.o(.data.iStageOld)
    offsetdc                                 0x20000158   Data           2  bldc.o(.data.offsetdc)
    posAuto                                  0x2000015a   Data           1  remoteautodetect.o(.data.posAuto)
    sTodoPin                                 0x2000015c   Data           4  remoteautodetect.o(.data.sTodoPin)
    wState                                   0x20000160   Data           1  main.o(.data.wState)
    __libspace_start                         0x20000168   Data          96  libspace.o(.bss)
    __temporary_stack_top$libspace           0x200001c8   Data           0  libspace.o(.bss)
    aPinHall                                 0x200001c8   Data          12  remoteautodetect.o(.bss.aPinHall)
    adc_buffer                               0x200001d4   Data           4  bldc.o(.bss.adc_buffer)
    aiPinScan                                0x200001d8   Data          32  remoteautodetect.o(.bss.aiPinScan)
    beepsBackwardsMaster                     0x200001f8   Data           1  commsmasterslave.o(.bss.beepsBackwardsMaster)
    bldc_enable                              0x200001f9   Data           1  bldc.o(.bss.bldc_enable)
    bldc_inputFilterPwm                      0x200001fa   Data           2  bldc.o(.bss.bldc_inputFilterPwm)
    bldc_outputFilterPwm                     0x200001fc   Data           2  bldc.o(.bss.bldc_outputFilterPwm)
    buzzerFreq                               0x200001fe   Data           1  bldc.o(.bss.buzzerFreq)
    buzzerPattern                            0x200001ff   Data           1  bldc.o(.bss.buzzerPattern)
    buzzerTimer                              0x20000200   Data           2  bldc.o(.bss.buzzerTimer)
    buzzerToggle                             0x20000202   Data           1  bldc.o(.bss.buzzerToggle)
    cCommand                                 0x20000203   Data           1  remoteautodetect.o(.bss.cCommand)
    currentDC                                0x20000204   Data           4  bldc.o(.bss.currentDC)
    dma_init_struct_adc                      0x20000208   Data          36  setup.o(.bss.dma_init_struct_adc)
    dma_init_struct_usart                    0x2000022c   Data          36  setup.o(.bss.dma_init_struct_usart)
    fCurrentDC                               0x20000250   Data           4  remoteautodetect.o(.bss.fCurrentDC)
    fVBatt                                   0x20000254   Data           4  remoteautodetect.o(.bss.fVBatt)
    filter_reg                               0x20000258   Data           4  bldc.o(.bss.filter_reg)
    hall                                     0x2000025c   Data           1  bldc.o(.bss.hall)
    hall_a                                   0x2000025d   Data           1  bldc.o(.bss.hall_a)
    hall_b                                   0x2000025e   Data           1  bldc.o(.bss.hall_b)
    hall_c                                   0x2000025f   Data           1  bldc.o(.bss.hall_c)
    iAverage                                 0x20000260   Data           2  remoteautodetect.o(.bss.iAverage)
    iOdom                                    0x20000264   Data           4  bldc.o(.bss.iOdom)
    iOffsetDC                                0x20000268   Data           2  remoteautodetect.o(.bss.iOffsetDC)
    iRepeat                                  0x2000026a   Data           1  remoteautodetect.o(.bss.iRepeat)
    iStage                                   0x2000026c   Data           2  remoteautodetect.o(.bss.iStage)
    iTest                                    0x2000026e   Data           1  remoteautodetect.o(.bss.iTest)
    iTestPin                                 0x2000026f   Data           1  remoteautodetect.o(.bss.iTestPin)
    iTestStart                               0x20000270   Data           1  remoteautodetect.o(.bss.iTestStart)
    iTimeNextLoop                            0x20000274   Data           4  main.o(.bss.iTimeNextLoop)
    lastPos                                  0x20000278   Data           1  bldc.o(.bss.lastPos)
    msTicks                                  0x2000027c   Data           4  it.o(.bss.msTicks)
    msTicksAuto                              0x20000280   Data           4  remoteautodetect.o(.bss.msTicksAuto)
    msTicksOld                               0x20000284   Data           4  remoteautodetect.o(.bss.msTicksOld)
    msTicksTest                              0x20000288   Data           4  remoteautodetect.o(.bss.msTicksTest)
    offsetcount                              0x2000028c   Data           2  bldc.o(.bss.offsetcount)
    pos                                      0x2000028e   Data           1  bldc.o(.bss.pos)
    posOld                                   0x2000028f   Data           1  remoteautodetect.o(.bss.posOld)
    realSpeed                                0x20000290   Data           4  bldc.o(.bss.realSpeed)
    speed                                    0x20000494   Data           4  main.o(.bss.speed)
    speedCounter                             0x20000498   Data           4  bldc.o(.bss.speedCounter)
    steer                                    0x2000049c   Data           4  main.o(.bss.steer)
    steerCounter                             0x200004a0   Data           4  main.o(.bss.steerCounter)
    timedOut                                 0x200004a4   Data           1  it.o(.bss.timedOut)
    timeoutCounter_ms                        0x200004a8   Data           4  it.o(.bss.timeoutCounter_ms)
    timeoutTimer_paramter_struct             0x200004ac   Data          16  setup.o(.bss.timeoutTimer_paramter_struct)
    timerBldc_break_parameter_struct         0x200004bc   Data          24  setup.o(.bss.timerBldc_break_parameter_struct)
    timerBldc_oc_parameter_struct            0x200004d4   Data          16  setup.o(.bss.timerBldc_oc_parameter_struct)
    timerBldc_paramter_struct                0x200004e4   Data          16  setup.o(.bss.timerBldc_paramter_struct)
    usart0_rx_buf                            0x200004f4   Data           1  setup.o(.bss.usart0_rx_buf)



==============================================================================

Memory Map of the image

  Image Entry point : 0x08000169

  Load Region LR_IROM1 (Base: 0x08000000, Size: 0x00007620, Max: 0x00010000, ABSOLUTE, COMPRESSED[0x000075b0])

    Execution Region ER_IROM1 (Exec base: 0x08000000, Load base: 0x08000000, Size: 0x000074b4, Max: 0x00010000, ABSOLUTE)

    Exec Addr    Load Addr    Size         Type   Attr      Idx    E Section Name        Object

    0x08000000   0x08000000   0x00000168   Data   RO          140    RESET               startup_gd32f1x0.o
    0x08000168   0x08000168   0x00000008   Code   RO          172  * !!!main             c_w.l(__main.o)
    0x08000170   0x08000170   0x00000034   Code   RO          369    !!!scatter          c_w.l(__scatter.o)
    0x080001a4   0x080001a4   0x0000005a   Code   RO          368    !!dczerorl2         c_w.l(__dczerorl2.o)
    0x080001fe   0x080001fe   0x00000002   PAD
    0x08000200   0x08000200   0x0000001c   Code   RO          370    !!handler_zi        c_w.l(__scatter_zi.o)
    0x0800021c   0x0800021c   0x00000000   Code   RO          168    .ARM.Collect$$_printf_percent$$00000000  c_w.l(_printf_percent.o)
    0x0800021c   0x0800021c   0x00000006   Code   RO          167    .ARM.Collect$$_printf_percent$$00000003  c_w.l(_printf_f.o)
    0x08000222   0x08000222   0x00000006   Code   RO          166    .ARM.Collect$$_printf_percent$$00000008  c_w.l(_printf_i.o)
    0x08000228   0x08000228   0x00000006   Code   RO          165    .ARM.Collect$$_printf_percent$$00000014  c_w.l(_printf_s.o)
    0x0800022e   0x0800022e   0x00000004   Code   RO          199    .ARM.Collect$$_printf_percent$$00000017  c_w.l(_printf_percent_end.o)
    0x08000232   0x08000232   0x00000002   Code   RO          261    .ARM.Collect$$libinit$$00000000  c_w.l(libinit.o)
    0x08000234   0x08000234   0x00000000   Code   RO          263    .ARM.Collect$$libinit$$00000002  c_w.l(libinit2.o)
    0x08000234   0x08000234   0x00000000   Code   RO          265    .ARM.Collect$$libinit$$00000004  c_w.l(libinit2.o)
    0x08000234   0x08000234   0x00000000   Code   RO          267    .ARM.Collect$$libinit$$00000006  c_w.l(libinit2.o)
    0x08000234   0x08000234   0x00000000   Code   RO          270    .ARM.Collect$$libinit$$0000000C  c_w.l(libinit2.o)
    0x08000234   0x08000234   0x00000000   Code   RO          272    .ARM.Collect$$libinit$$0000000E  c_w.l(libinit2.o)
    0x08000234   0x08000234   0x00000000   Code   RO          274    .ARM.Collect$$libinit$$00000010  c_w.l(libinit2.o)
    0x08000234   0x08000234   0x00000006   Code   RO          275    .ARM.Collect$$libinit$$00000011  c_w.l(libinit2.o)
    0x0800023a   0x0800023a   0x00000000   Code   RO          277    .ARM.Collect$$libinit$$00000013  c_w.l(libinit2.o)
    0x0800023a   0x0800023a   0x00000000   Code   RO          279    .ARM.Collect$$libinit$$00000015  c_w.l(libinit2.o)
    0x0800023a   0x0800023a   0x00000000   Code   RO          281    .ARM.Collect$$libinit$$00000017  c_w.l(libinit2.o)
    0x0800023a   0x0800023a   0x0000000a   Code   RO          282    .ARM.Collect$$libinit$$00000018  c_w.l(libinit2.o)
    0x08000244   0x08000244   0x00000000   Code   RO          283    .ARM.Collect$$libinit$$00000019  c_w.l(libinit2.o)
    0x08000244   0x08000244   0x00000000   Code   RO          285    .ARM.Collect$$libinit$$0000001B  c_w.l(libinit2.o)
    0x08000244   0x08000244   0x00000000   Code   RO          287    .ARM.Collect$$libinit$$0000001D  c_w.l(libinit2.o)
    0x08000244   0x08000244   0x00000000   Code   RO          289    .ARM.Collect$$libinit$$0000001F  c_w.l(libinit2.o)
    0x08000244   0x08000244   0x00000000   Code   RO          291    .ARM.Collect$$libinit$$00000021  c_w.l(libinit2.o)
    0x08000244   0x08000244   0x00000000   Code   RO          293    .ARM.Collect$$libinit$$00000023  c_w.l(libinit2.o)
    0x08000244   0x08000244   0x00000000   Code   RO          295    .ARM.Collect$$libinit$$00000025  c_w.l(libinit2.o)
    0x08000244   0x08000244   0x00000000   Code   RO          297    .ARM.Collect$$libinit$$00000027  c_w.l(libinit2.o)
    0x08000244   0x08000244   0x00000000   Code   RO          301    .ARM.Collect$$libinit$$0000002E  c_w.l(libinit2.o)
    0x08000244   0x08000244   0x00000000   Code   RO          303    .ARM.Collect$$libinit$$00000030  c_w.l(libinit2.o)
    0x08000244   0x08000244   0x00000000   Code   RO          305    .ARM.Collect$$libinit$$00000032  c_w.l(libinit2.o)
    0x08000244   0x08000244   0x00000000   Code   RO          307    .ARM.Collect$$libinit$$00000034  c_w.l(libinit2.o)
    0x08000244   0x08000244   0x00000002   Code   RO          308    .ARM.Collect$$libinit$$00000035  c_w.l(libinit2.o)
    0x08000246   0x08000246   0x00000002   Code   RO          331    .ARM.Collect$$libshutdown$$00000000  c_w.l(libshutdown.o)
    0x08000248   0x08000248   0x00000000   Code   RO          338    .ARM.Collect$$libshutdown$$00000002  c_w.l(libshutdown2.o)
    0x08000248   0x08000248   0x00000000   Code   RO          340    .ARM.Collect$$libshutdown$$00000004  c_w.l(libshutdown2.o)
    0x08000248   0x08000248   0x00000000   Code   RO          343    .ARM.Collect$$libshutdown$$00000007  c_w.l(libshutdown2.o)
    0x08000248   0x08000248   0x00000000   Code   RO          346    .ARM.Collect$$libshutdown$$0000000A  c_w.l(libshutdown2.o)
    0x08000248   0x08000248   0x00000000   Code   RO          348    .ARM.Collect$$libshutdown$$0000000C  c_w.l(libshutdown2.o)
    0x08000248   0x08000248   0x00000000   Code   RO          351    .ARM.Collect$$libshutdown$$0000000F  c_w.l(libshutdown2.o)
    0x08000248   0x08000248   0x00000002   Code   RO          352    .ARM.Collect$$libshutdown$$00000010  c_w.l(libshutdown2.o)
    0x0800024a   0x0800024a   0x00000000   Code   RO          192    .ARM.Collect$$rtentry$$00000000  c_w.l(__rtentry.o)
    0x0800024a   0x0800024a   0x00000000   Code   RO          212    .ARM.Collect$$rtentry$$00000002  c_w.l(__rtentry2.o)
    0x0800024a   0x0800024a   0x00000006   Code   RO          224    .ARM.Collect$$rtentry$$00000004  c_w.l(__rtentry4.o)
    0x08000250   0x08000250   0x00000000   Code   RO          214    .ARM.Collect$$rtentry$$00000009  c_w.l(__rtentry2.o)
    0x08000250   0x08000250   0x00000004   Code   RO          215    .ARM.Collect$$rtentry$$0000000A  c_w.l(__rtentry2.o)
    0x08000254   0x08000254   0x00000000   Code   RO          217    .ARM.Collect$$rtentry$$0000000C  c_w.l(__rtentry2.o)
    0x08000254   0x08000254   0x00000008   Code   RO          218    .ARM.Collect$$rtentry$$0000000D  c_w.l(__rtentry2.o)
    0x0800025c   0x0800025c   0x00000002   Code   RO          309    .ARM.Collect$$rtexit$$00000000  c_w.l(rtexit.o)
    0x0800025e   0x0800025e   0x00000000   Code   RO          315    .ARM.Collect$$rtexit$$00000002  c_w.l(rtexit2.o)
    0x0800025e   0x0800025e   0x00000004   Code   RO          316    .ARM.Collect$$rtexit$$00000003  c_w.l(rtexit2.o)
    0x08000262   0x08000262   0x00000006   Code   RO          317    .ARM.Collect$$rtexit$$00000004  c_w.l(rtexit2.o)
    0x08000268   0x08000268   0x000001fc   Code   RO            1    .text               main.o
    0x08000464   0x08000464   0x0000049c   Code   RO           17    .text               bldc.o
    0x08000900   0x08000900   0x0000072c   Code   RO           44    .text               setup.o
    0x0800102c   0x0800102c   0x0000010e   Code   RO           54    .text               it.o
    0x0800113a   0x0800113a   0x00000002   PAD
    0x0800113c   0x0800113c   0x00000084   Code   RO           65    .text               commsmasterslave.o
    0x080011c0   0x080011c0   0x000017bc   Code   RO           69    .text               remoteautodetect.o
    0x0800297c   0x0800297c   0x000005a6   Code   RO          105    .text               gd32f1x0_adc.o
    0x08002f22   0x08002f22   0x00000002   PAD
    0x08002f24   0x08002f24   0x0000034c   Code   RO          109    .text               gd32f1x0_dma.o
    0x08003270   0x08003270   0x000000da   Code   RO          111    .text               gd32f1x0_fwdgt.o
    0x0800334a   0x0800334a   0x00000002   PAD
    0x0800334c   0x0800334c   0x00000198   Code   RO          113    .text               gd32f1x0_gpio.o
    0x080034e4   0x080034e4   0x00000130   Code   RO          118    .text               gd32f1x0_misc.o
    0x08003614   0x08003614   0x00000730   Code   RO          127    .text               gd32f1x0_rcu.o
    0x08003d44   0x08003d44   0x00000d60   Code   RO          132    .text               gd32f1x0_timer.o
    0x08004aa4   0x08004aa4   0x0000063e   Code   RO          134    .text               gd32f1x0_usart.o
    0x080050e2   0x080050e2   0x00000002   PAD
    0x080050e4   0x080050e4   0x00000040   Code   RO          141    .text               startup_gd32f1x0.o
    0x08005124   0x08005124   0x0000013c   Code   RO          142    .text               system_gd32f1x0.o
    0x08005260   0x08005260   0x00000028   Code   RO          148    .text               c_w.l(noretval__2sprintf.o)
    0x08005288   0x08005288   0x00000052   Code   RO          150    .text               c_w.l(_printf_str.o)
    0x080052da   0x080052da   0x00000002   PAD
    0x080052dc   0x080052dc   0x00000078   Code   RO          151    .text               c_w.l(_printf_dec.o)
    0x08005354   0x08005354   0x0000010e   Code   RO          157    .text               c_w.l(__printf_wp.o)
    0x08005462   0x08005462   0x0000003e   Code   RO          169    .text               c_w.l(strlen.o)
    0x080054a0   0x080054a0   0x0000004e   Code   RO          170    .text               c_w.l(rt_memclr_w.o)
    0x080054ee   0x080054ee   0x00000006   Code   RO          171    .text               c_w.l(heapauxi.o)
    0x080054f4   0x080054f4   0x000000b2   Code   RO          193    .text               c_w.l(_printf_intcommon.o)
    0x080055a6   0x080055a6   0x0000041c   Code   RO          194    .text               c_w.l(_printf_fp_dec.o)
    0x080059c2   0x080059c2   0x00000002   PAD
    0x080059c4   0x080059c4   0x00000030   Code   RO          196    .text               c_w.l(_printf_char_common.o)
    0x080059f4   0x080059f4   0x0000000a   Code   RO          197    .text               c_w.l(_sputc.o)
    0x080059fe   0x080059fe   0x0000002c   Code   RO          198    .text               c_w.l(_printf_char.o)
    0x08005a2a   0x08005a2a   0x00000002   PAD
    0x08005a2c   0x08005a2c   0x00000008   Code   RO          228    .text               c_w.l(rt_locale_intlibspace.o)
    0x08005a34   0x08005a34   0x0000008a   Code   RO          229    .text               c_w.l(lludiv10.o)
    0x08005abe   0x08005abe   0x00000002   PAD
    0x08005ac0   0x08005ac0   0x00000080   Code   RO          230    .text               c_w.l(_printf_fp_infnan.o)
    0x08005b40   0x08005b40   0x000000e4   Code   RO          232    .text               c_w.l(bigflt0.o)
    0x08005c24   0x08005c24   0x00000008   Code   RO          252    .text               c_w.l(libspace.o)
    0x08005c2c   0x08005c2c   0x0000004a   Code   RO          254    .text               c_w.l(sys_stackheap_outer.o)
    0x08005c76   0x08005c76   0x00000012   Code   RO          256    .text               c_w.l(exit.o)
    0x08005c88   0x08005c88   0x00000080   Code   RO          257    .text               c_w.l(strcmpv7m.o)
    0x08005d08   0x08005d08   0x0000000c   Code   RO          324    .text               c_w.l(sys_exit.o)
    0x08005d14   0x08005d14   0x00000002   Code   RO          332    .text               c_w.l(use_no_semi.o)
    0x08005d16   0x08005d16   0x00000000   Code   RO          333    .text               c_w.l(indicate_semi.o)
    0x08005d16   0x08005d16   0x0000003e   Code   RO          234    CL$$btod_d2e        c_w.l(btod.o)
    0x08005d54   0x08005d54   0x00000046   Code   RO          236    CL$$btod_d2e_denorm_low  c_w.l(btod.o)
    0x08005d9a   0x08005d9a   0x00000060   Code   RO          235    CL$$btod_d2e_norm_op1  c_w.l(btod.o)
    0x08005dfa   0x08005dfa   0x00000002   PAD
    0x08005dfc   0x08005dfc   0x00000338   Code   RO          244    CL$$btod_div_common  c_w.l(btod.o)
    0x08006134   0x08006134   0x000000dc   Code   RO          241    CL$$btod_e2e        c_w.l(btod.o)
    0x08006210   0x08006210   0x0000002a   Code   RO          238    CL$$btod_ediv       c_w.l(btod.o)
    0x0800623a   0x0800623a   0x0000002a   Code   RO          237    CL$$btod_emul       c_w.l(btod.o)
    0x08006264   0x08006264   0x00000244   Code   RO          243    CL$$btod_mult_common  c_w.l(btod.o)
    0x080064a8   0x080064a8   0x00000028   Code   RO          251    i.__ARM_fpclassify  m_ws.l(fpclassify.o)
    0x080064d0   0x080064d0   0x0000000e   Code   RO          159    i._is_digit         c_w.l(__printf_wp.o)
    0x080064de   0x080064de   0x00000002   PAD
    0x080064e0   0x080064e0   0x0000002c   Code   RO          247    locale$$code        c_w.l(lc_numeric_c.o)
    0x0800650c   0x0800650c   0x00000062   Code   RO          173    x$fpl$d2f           fz_ws.l(d2f.o)
    0x0800656e   0x0800656e   0x00000002   PAD
    0x08006570   0x08006570   0x00000150   Code   RO          174    x$fpl$dadd          fz_ws.l(daddsub_clz.o)
    0x080066c0   0x080066c0   0x00000018   Code   RO          248    x$fpl$dcmpinf       fz_ws.l(dcmpi.o)
    0x080066d8   0x080066d8   0x00000078   Code   RO          200    x$fpl$deqf          fz_ws.l(deqf.o)
    0x08006750   0x08006750   0x0000005e   Code   RO          178    x$fpl$dfix          fz_ws.l(dfix.o)
    0x080067ae   0x080067ae   0x0000002e   Code   RO          181    x$fpl$dflt          fz_ws.l(dflt_clz.o)
    0x080067dc   0x080067dc   0x00000026   Code   RO          180    x$fpl$dfltu         fz_ws.l(dflt_clz.o)
    0x08006802   0x08006802   0x00000002   PAD
    0x08006804   0x08006804   0x00000078   Code   RO          201    x$fpl$dgeqf         fz_ws.l(dgeqf.o)
    0x0800687c   0x0800687c   0x00000078   Code   RO          202    x$fpl$dleqf         fz_ws.l(dleqf.o)
    0x080068f4   0x080068f4   0x00000154   Code   RO          183    x$fpl$dmul          fz_ws.l(dmul.o)
    0x08006a48   0x08006a48   0x0000009c   Code   RO          203    x$fpl$dnaninf       fz_ws.l(dnaninf.o)
    0x08006ae4   0x08006ae4   0x0000000c   Code   RO          204    x$fpl$dretinf       fz_ws.l(dretinf.o)
    0x08006af0   0x08006af0   0x000001dc   Code   RO          176    x$fpl$dsub          fz_ws.l(daddsub_clz.o)
    0x08006ccc   0x08006ccc   0x00000056   Code   RO          184    x$fpl$f2d           fz_ws.l(f2d.o)
    0x08006d22   0x08006d22   0x00000054   Code   RO          177    x$fpl$fcmp          fz_ws.l(dcmp.o)
    0x08006d76   0x08006d76   0x00000054   Code   RO          185    x$fpl$fcmp          fz_ws.l(fcmp.o)
    0x08006dca   0x08006dca   0x00000018   Code   RO          249    x$fpl$fcmpinf       fz_ws.l(fcmpi.o)
    0x08006de2   0x08006de2   0x00000002   PAD
    0x08006de4   0x08006de4   0x00000184   Code   RO          187    x$fpl$fdiv          fz_ws.l(fdiv.o)
    0x08006f68   0x08006f68   0x00000068   Code   RO          205    x$fpl$feqf          fz_ws.l(feqf.o)
    0x08006fd0   0x08006fd0   0x00000026   Code   RO          188    x$fpl$ffltu         fz_ws.l(fflt_clz.o)
    0x08006ff6   0x08006ff6   0x00000002   PAD
    0x08006ff8   0x08006ff8   0x00000068   Code   RO          206    x$fpl$fgeqf         fz_ws.l(fgeqf.o)
    0x08007060   0x08007060   0x00000068   Code   RO          207    x$fpl$fleqf         fz_ws.l(fleqf.o)
    0x080070c8   0x080070c8   0x0000008c   Code   RO          208    x$fpl$fnaninf       fz_ws.l(fnaninf.o)
    0x08007154   0x08007154   0x0000000a   Code   RO          209    x$fpl$fretinf       fz_ws.l(fretinf.o)
    0x0800715e   0x0800715e   0x00000004   Code   RO          191    x$fpl$printf1       fz_ws.l(printf1.o)
    0x08007162   0x08007162   0x00000000   Code   RO          210    x$fpl$usenofp       fz_ws.l(usenofp.o)
    0x08007162   0x08007162   0x00000002   PAD
    0x08007164   0x08007164   0x00000094   Data   RO          233    .constdata          c_w.l(bigflt0.o)
    0x080071f8   0x080071f8   0x0000000c   Data   RO           34    .rodata..L__const.up_or_down.up_down  bldc.o
    0x08007204   0x08007204   0x0000000c   Data   RO          115    .rodata..Lswitch.table.gpio_deinit.1  gd32f1x0_gpio.o
    0x08007210   0x08007210   0x00000008   Data   RO          129    .rodata.cst8        gd32f1x0_rcu.o
    0x08007218   0x08007218   0x00000008   Data   RO           35    .rodata.hall_to_pos  bldc.o
    0x08007220   0x08007220   0x00000255   Data   RO           79    .rodata.str1.1      remoteautodetect.o
    0x08007475   0x08007475   0x00000003   PAD
    0x08007478   0x08007478   0x00000020   Data   RO          367    Region$$Table       anon$$obj.o
    0x08007498   0x08007498   0x0000001c   Data   RO          246    locale$$data        c_w.l(lc_numeric_c.o)


    Execution Region RW_IRAM1 (Exec base: 0x20000000, Load base: 0x080074b8, Size: 0x00000cf8, Max: 0x00002000, ABSOLUTE, COMPRESSED[0x000000f8])

    Exec Addr    Load Addr    Size         Type   Attr      Idx    E Section Name        Object

    0x20000000   COMPRESSED   0x00000004   Data   RW           75    .data.HALL_A        remoteautodetect.o
    0x20000004   COMPRESSED   0x00000004   Data   RW           76    .data.HALL_B        remoteautodetect.o
    0x20000008   COMPRESSED   0x00000004   Data   RW           77    .data.HALL_C        remoteautodetect.o
    0x2000000c   COMPRESSED   0x00000004   Data   RW          144    .data.SystemCoreClock  system_gd32f1x0.o
    0x20000010   COMPRESSED   0x00000012   Data   RW           99    .data.aHallOrder    remoteautodetect.o
    0x20000022   COMPRESSED   0x00000105   Data   RW           80    .data.aoPin         remoteautodetect.o
    0x20000127   COMPRESSED   0x00000001   PAD
    0x20000128   COMPRESSED   0x00000020   Data   RW           91    .data.asScan        remoteautodetect.o
    0x20000148   COMPRESSED   0x00000001   Data   RW          100    .data.bHallOld      remoteautodetect.o
    0x20000149   COMPRESSED   0x00000003   PAD
    0x2000014c   COMPRESSED   0x00000004   Data   RW           20    .data.batteryVoltage  bldc.o
    0x20000150   COMPRESSED   0x00000001   Data   RW           74    .data.cRxLast       remoteautodetect.o
    0x20000151   COMPRESSED   0x00000001   PAD
    0x20000152   COMPRESSED   0x00000002   Data   RW           89    .data.iAverageMax   remoteautodetect.o
    0x20000154   COMPRESSED   0x00000001   Data   RW           93    .data.iMove         remoteautodetect.o
    0x20000155   COMPRESSED   0x00000001   Data   RW           78    .data.iPinCount     remoteautodetect.o
    0x20000156   COMPRESSED   0x00000002   Data   RW           83    .data.iStageOld     remoteautodetect.o
    0x20000158   COMPRESSED   0x00000002   Data   RW           28    .data.offsetdc      bldc.o
    0x2000015a   COMPRESSED   0x00000001   Data   RW          102    .data.posAuto       remoteautodetect.o
    0x2000015b   COMPRESSED   0x00000001   PAD
    0x2000015c   COMPRESSED   0x00000004   Data   RW           81    .data.sTodoPin      remoteautodetect.o
    0x20000160   COMPRESSED   0x00000001   Data   RW            6    .data.wState        main.o
    0x20000161   COMPRESSED   0x00000007   PAD
    0x20000168        -       0x00000060   Zero   RW          253    .bss                c_w.l(libspace.o)
    0x200001c8        -       0x0000000c   Zero   RW           98    .bss.aPinHall       remoteautodetect.o
    0x200001d4        -       0x00000004   Zero   RW           36    .bss.adc_buffer     bldc.o
    0x200001d8        -       0x00000020   Zero   RW           92    .bss.aiPinScan      remoteautodetect.o
    0x200001f8        -       0x00000001   Zero   RW           68    .bss.beepsBackwardsMaster  commsmasterslave.o
    0x200001f9        -       0x00000001   Zero   RW           24    .bss.bldc_enable    bldc.o
    0x200001fa        -       0x00000002   Zero   RW           23    .bss.bldc_inputFilterPwm  bldc.o
    0x200001fc        -       0x00000002   Zero   RW           25    .bss.bldc_outputFilterPwm  bldc.o
    0x200001fe        -       0x00000001   Zero   RW           31    .bss.buzzerFreq     bldc.o
    0x200001ff        -       0x00000001   Zero   RW           32    .bss.buzzerPattern  bldc.o
    0x20000200        -       0x00000002   Zero   RW           26    .bss.buzzerTimer    bldc.o
    0x20000202        -       0x00000001   Zero   RW           30    .bss.buzzerToggle   bldc.o
    0x20000203        -       0x00000001   Zero   RW           73    .bss.cCommand       remoteautodetect.o
    0x20000204        -       0x00000004   Zero   RW           21    .bss.currentDC      bldc.o
    0x20000208        -       0x00000024   Zero   RW           50    .bss.dma_init_struct_adc  setup.o
    0x2000022c        -       0x00000024   Zero   RW           51    .bss.dma_init_struct_usart  setup.o
    0x20000250        -       0x00000004   Zero   RW           97    .bss.fCurrentDC     remoteautodetect.o
    0x20000254        -       0x00000004   Zero   RW           95    .bss.fVBatt         remoteautodetect.o
    0x20000258        -       0x00000004   Zero   RW           42    .bss.filter_reg     bldc.o
    0x2000025c        -       0x00000001   Zero   RW           40    .bss.hall           bldc.o
    0x2000025d        -       0x00000001   Zero   RW           37    .bss.hall_a         bldc.o
    0x2000025e        -       0x00000001   Zero   RW           38    .bss.hall_b         bldc.o
    0x2000025f        -       0x00000001   Zero   RW           39    .bss.hall_c         bldc.o
    0x20000260        -       0x00000002   Zero   RW           88    .bss.iAverage       remoteautodetect.o
    0x20000262   COMPRESSED   0x00000002   PAD
    0x20000264        -       0x00000004   Zero   RW           33    .bss.iOdom          bldc.o
    0x20000268        -       0x00000002   Zero   RW           96    .bss.iOffsetDC      remoteautodetect.o
    0x2000026a        -       0x00000001   Zero   RW           87    .bss.iRepeat        remoteautodetect.o
    0x2000026b   COMPRESSED   0x00000001   PAD
    0x2000026c        -       0x00000002   Zero   RW           82    .bss.iStage         remoteautodetect.o
    0x2000026e        -       0x00000001   Zero   RW           84    .bss.iTest          remoteautodetect.o
    0x2000026f        -       0x00000001   Zero   RW           85    .bss.iTestPin       remoteautodetect.o
    0x20000270        -       0x00000001   Zero   RW           86    .bss.iTestStart     remoteautodetect.o
    0x20000271   COMPRESSED   0x00000003   PAD
    0x20000274        -       0x00000004   Zero   RW           15    .bss.iTimeNextLoop  main.o
    0x20000278        -       0x00000001   Zero   RW           43    .bss.lastPos        bldc.o
    0x20000279   COMPRESSED   0x00000003   PAD
    0x2000027c        -       0x00000004   Zero   RW           58    .bss.msTicks        it.o
    0x20000280        -       0x00000004   Zero   RW          101    .bss.msTicksAuto    remoteautodetect.o
    0x20000284        -       0x00000004   Zero   RW          104    .bss.msTicksOld     remoteautodetect.o
    0x20000288        -       0x00000004   Zero   RW           90    .bss.msTicksTest    remoteautodetect.o
    0x2000028c        -       0x00000002   Zero   RW           27    .bss.offsetcount    bldc.o
    0x2000028e        -       0x00000001   Zero   RW           41    .bss.pos            bldc.o
    0x2000028f        -       0x00000001   Zero   RW          103    .bss.posOld         remoteautodetect.o
    0x20000290        -       0x00000004   Zero   RW           22    .bss.realSpeed      bldc.o
    0x20000294        -       0x00000200   Zero   RW           72    .bss.sMessage       remoteautodetect.o
    0x20000494        -       0x00000004   Zero   RW            4    .bss.speed          main.o
    0x20000498        -       0x00000004   Zero   RW           29    .bss.speedCounter   bldc.o
    0x2000049c        -       0x00000004   Zero   RW            8    .bss.steer          main.o
    0x200004a0        -       0x00000004   Zero   RW            3    .bss.steerCounter   main.o
    0x200004a4        -       0x00000001   Zero   RW           57    .bss.timedOut       it.o
    0x200004a5   COMPRESSED   0x00000003   PAD
    0x200004a8        -       0x00000004   Zero   RW           56    .bss.timeoutCounter_ms  it.o
    0x200004ac        -       0x00000010   Zero   RW           46    .bss.timeoutTimer_paramter_struct  setup.o
    0x200004bc        -       0x00000018   Zero   RW           49    .bss.timerBldc_break_parameter_struct  setup.o
    0x200004d4        -       0x00000010   Zero   RW           48    .bss.timerBldc_oc_parameter_struct  setup.o
    0x200004e4        -       0x00000010   Zero   RW           47    .bss.timerBldc_paramter_struct  setup.o
    0x200004f4        -       0x00000001   Zero   RW           52    .bss.usart0_rx_buf  setup.o
    0x200004f5   COMPRESSED   0x00000003   PAD
    0x200004f8        -       0x00000400   Zero   RW          139    HEAP                startup_gd32f1x0.o
    0x200008f8        -       0x00000400   Zero   RW          138    STACK               startup_gd32f1x0.o


==============================================================================

Image component sizes


      Code (inc. data)   RO Data    RW Data    ZI Data      Debug   Object Name

      1180          6         20          6         42          0   bldc.o
       132          0          0          0          1          0   commsmasterslave.o
      1446         16          0          0          0          0   gd32f1x0_adc.o
       844          8          0          0          0          0   gd32f1x0_dma.o
       218          0          0          0          0          0   gd32f1x0_fwdgt.o
       408          0         12          0          0          0   gd32f1x0_gpio.o
       304          0          0          0          0          0   gd32f1x0_misc.o
      1840         34          8          0          0          0   gd32f1x0_rcu.o
      3424         44          0          0          0          0   gd32f1x0_timer.o
      1598          8          0          0          0          0   gd32f1x0_usart.o
       270          0          0          0          9          0   it.o
       508          0          0          1         16          0   main.o
      6076        334        597        336        588          0   remoteautodetect.o
      1836          0          0          0        145          0   setup.o
        64         26        360          0       2048          0   startup_gd32f1x0.o
       316         16          0          4          0          0   system_gd32f1x0.o

    ----------------------------------------------------------------------
     20472        492       1032        356       2868          0   Object Totals
         0          0         32          0          0          0   (incl. Generated)
         8          0          3          9         19          0   (incl. Padding)

    ----------------------------------------------------------------------

      Code (inc. data)   RO Data    RW Data    ZI Data      Debug   Library Member Name

        90          0          0          0          0          0   __dczerorl2.o
         8          0          0          0          0          0   __main.o
       284          0          0          0          0          0   __printf_wp.o
         0          0          0          0          0          0   __rtentry.o
        12          0          0          0          0          0   __rtentry2.o
         6          0          0          0          0          0   __rtentry4.o
        52          8          0          0          0          0   __scatter.o
        28          0          0          0          0          0   __scatter_zi.o
        44          0          0          0          0          0   _printf_char.o
        48          6          0          0          0          0   _printf_char_common.o
       120         16          0          0          0          0   _printf_dec.o
         6          0          0          0          0          0   _printf_f.o
      1052          0          0          0          0          0   _printf_fp_dec.o
       128         16          0          0          0          0   _printf_fp_infnan.o
         6          0          0          0          0          0   _printf_i.o
       178          0          0          0          0          0   _printf_intcommon.o
         0          0          0          0          0          0   _printf_percent.o
         4          0          0          0          0          0   _printf_percent_end.o
         6          0          0          0          0          0   _printf_s.o
        82          0          0          0          0          0   _printf_str.o
        10          0          0          0          0          0   _sputc.o
       228          4        148          0          0          0   bigflt0.o
      1936        128          0          0          0          0   btod.o
        18          0          0          0          0          0   exit.o
         6          0          0          0          0          0   heapauxi.o
         0          0          0          0          0          0   indicate_semi.o
        44         10         28          0          0          0   lc_numeric_c.o
         2          0          0          0          0          0   libinit.o
        18          0          0          0          0          0   libinit2.o
         2          0          0          0          0          0   libshutdown.o
         2          0          0          0          0          0   libshutdown2.o
         8          4          0          0         96          0   libspace.o
       138          0          0          0          0          0   lludiv10.o
        40          6          0          0          0          0   noretval__2sprintf.o
         8          4          0          0          0          0   rt_locale_intlibspace.o
        78          0          0          0          0          0   rt_memclr_w.o
         2          0          0          0          0          0   rtexit.o
        10          0          0          0          0          0   rtexit2.o
       128          0          0          0          0          0   strcmpv7m.o
        62          0          0          0          0          0   strlen.o
        12          4          0          0          0          0   sys_exit.o
        74          0          0          0          0          0   sys_stackheap_outer.o
         2          0          0          0          0          0   use_no_semi.o
        98          4          0          0          0          0   d2f.o
       812         16          0          0          0          0   daddsub_clz.o
        84          0          0          0          0          0   dcmp.o
        24          0          0          0          0          0   dcmpi.o
       120          4          0          0          0          0   deqf.o
        94          4          0          0          0          0   dfix.o
        84          0          0          0          0          0   dflt_clz.o
       120          4          0          0          0          0   dgeqf.o
       120          4          0          0          0          0   dleqf.o
       340         12          0          0          0          0   dmul.o
       156          4          0          0          0          0   dnaninf.o
        12          0          0          0          0          0   dretinf.o
        86          4          0          0          0          0   f2d.o
        84          0          0          0          0          0   fcmp.o
        24          0          0          0          0          0   fcmpi.o
       388         76          0          0          0          0   fdiv.o
       104          4          0          0          0          0   feqf.o
        38          0          0          0          0          0   fflt_clz.o
       104          4          0          0          0          0   fgeqf.o
       104          4          0          0          0          0   fleqf.o
       140          4          0          0          0          0   fnaninf.o
        10          0          0          0          0          0   fretinf.o
         4          0          0          0          0          0   printf1.o
         0          0          0          0          0          0   usenofp.o
        40          0          0          0          0          0   fpclassify.o

    ----------------------------------------------------------------------
      8196        354        176          0         96          0   Library Totals
        24          0          0          0          0          0   (incl. Padding)

    ----------------------------------------------------------------------

      Code (inc. data)   RO Data    RW Data    ZI Data      Debug   Library Name

      4982        206        176          0         96          0   c_w.l
      3150        148          0          0          0          0   fz_ws.l
        40          0          0          0          0          0   m_ws.l

    ----------------------------------------------------------------------
      8196        354        176          0         96          0   Library Totals

    ----------------------------------------------------------------------

==============================================================================


      Code (inc. data)   RO Data    RW Data    ZI Data      Debug   

     28668        846       1208        356       2964          0   Grand Totals
     28668        846       1208        248       2964          0   ELF Image Totals (compressed)
     28668        846       1208        248          0          0   ROM Totals

==============================================================================

    Total RO  Size (Code + RO Data)                29876 (  29.18kB)
    Total RW  Size (RW Data + ZI Data)              3320 (   3.24kB)
    Total ROM Size (Code + RO Data + RW Data)      30124 (  29.42kB)

==============================================================================

