Component: Arm Compiler for Embedded 6.19 Tool: armlink [5e73cb00]

==============================================================================

Section Cross References

    main.o(.text) refers to main.o(.bss.iBug) for iBug
    main.o(.text) refers to setup.o(.text) for ConfigRead
    main.o(.text) refers to system_gd32f1x0.o(.text) for SystemCoreClockUpdate
    main.o(.text) refers to system_gd32f1x0.o(.data.SystemCoreClock) for SystemCoreClock
    main.o(.text) refers to gd32f1x0_gpio.o(.text) for gpio_bit_write
    main.o(.text) refers to bldcbc.o(.text) for InitBldc
    main.o(.text) refers to gd32f1x0_fwdgt.o(.text) for fwdgt_counter_reload
    main.o(.text) refers to bldc.o(.bss.buzzerFreq) for buzzerFreq
    main.o(.text) refers to it.o(.text) for Delay
    main.o(.text) refers to main.o(.bss.iTimeNextLoop) for iTimeNextLoop
    main.o(.text) refers to main.o(.bss.speedShutoff) for speedShutoff
    main.o(.text) refers to main.o(.bss.steerCounter) for steerCounter
    main.o(.text) refers to remoteuartbus.o(.text) for RemoteUpdate
    main.o(.text) refers to main.o(.bss.speed) for speed
    main.o(.text) refers to fflti.o(.text) for __aeabi_i2f
    main.o(.text) refers to f2d.o(.text) for __aeabi_f2d
    main.o(.text) refers to dmul.o(.text) for __aeabi_dmul
    main.o(.text) refers to ddiv.o(.text) for __aeabi_ddiv
    main.o(.text) refers to dadd.o(.text) for __aeabi_dadd
    main.o(.text) refers to d2f.o(.text) for __aeabi_d2f
    main.o(.text) refers to main.o(.data.speedLimit) for speedLimit
    main.o(.text) refers to main.o(.bss.steer) for steer
    main.o(.text) refers to fmul.o(.text) for __aeabi_fmul
    main.o(.text) refers to ffixi.o(.text) for __aeabi_f2iz
    main.o(.text) refers to fadd.o(.text) for __aeabi_fsub
    main.o(.text) refers to fdiv.o(.text) for __aeabi_fdiv
    main.o(.text) refers to main.o(.rodata.lookUpTableAngle) for lookUpTableAngle
    main.o(.text) refers to fcmplt.o(.text) for __aeabi_fcmplt
    main.o(.text) refers to main.o(.bss.pwmSlave) for pwmSlave
    main.o(.text) refers to main.o(.data.wState) for wState
    main.o(.text) refers to bldc.o(.text) for SetPWM
    main.o(.text) refers to bldc.o(.data.batteryVoltage) for batteryVoltage
    main.o(.text) refers to fcmple.o(.text) for __aeabi_fcmple
    main.o(.text) refers to main.o(.data.beepsBackwards) for beepsBackwards
    main.o(.text) refers to dcmple.o(.text) for __aeabi_dcmple
    main.o(.text) refers to bldc.o(.bss.buzzerPattern) for buzzerPattern
    main.o(.text) refers to main.o(.bss.inactivity_timeout_counter) for inactivity_timeout_counter
    main.o(.text) refers to main.o(.bss.enable) for enable
    main.o(.ARM.exidx) refers to main.o(.text) for [Anonymous Symbol]
    bldc.o(.text) refers to bldc.o(.rodata..L__const.up_or_down.up_down) for .L__const.up_or_down.up_down
    bldc.o(.text) refers to bldc.o(.bss.bldc_enable) for bldc_enable
    bldc.o(.text) refers to dflti.o(.text) for __aeabi_i2d
    bldc.o(.text) refers to ddiv.o(.text) for __aeabi_ddiv
    bldc.o(.text) refers to dmul.o(.text) for __aeabi_dmul
    bldc.o(.text) refers to dfixi.o(.text) for __aeabi_d2iz
    bldc.o(.text) refers to bldc.o(.bss.bldc_inputFilterPwm) for bldc_inputFilterPwm
    bldc.o(.text) refers to bldc.o(.data.iFILTER_SHIFT) for iFILTER_SHIFT
    bldc.o(.text) refers to bldc.o(.bss.bldc_outputFilterPwm) for bldc_outputFilterPwm
    bldc.o(.text) refers to bldc.o(.bss.filter_reg) for filter_reg
    bldc.o(.text) refers to bldc.o(.bss.offsetcount) for offsetcount
    bldc.o(.text) refers to bldc.o(.bss.adc_buffer) for adc_buffer
    bldc.o(.text) refers to bldc.o(.data.offsetdc) for offsetdc
    bldc.o(.text) refers to bldc.o(.bss.buzzerTimer) for buzzerTimer
    bldc.o(.text) refers to bldc.o(.data.batteryVoltage) for batteryVoltage
    bldc.o(.text) refers to f2d.o(.text) for __aeabi_f2d
    bldc.o(.text) refers to dfltui.o(.text) for __aeabi_ui2d
    bldc.o(.text) refers to dadd.o(.text) for __aeabi_dadd
    bldc.o(.text) refers to d2f.o(.text) for __aeabi_d2f
    bldc.o(.text) refers to main.o(.bss.iBug) for iBug
    bldc.o(.text) refers to bldc.o(.bss.buzzerFreq) for buzzerFreq
    bldc.o(.text) refers to bldc.o(.bss.buzzerPattern) for buzzerPattern
    bldc.o(.text) refers to gd32f1x0_gpio.o(.text) for gpio_bit_write
    bldc.o(.text) refers to bldc.o(.data.currentDC) for currentDC
    bldc.o(.text) refers to fcmpgt.o(.text) for __aeabi_fcmpgt
    bldc.o(.text) refers to it.o(.bss.timedOut) for timedOut
    bldc.o(.text) refers to gd32f1x0_timer.o(.text) for timer_automatic_output_enable
    bldc.o(.text) refers to bldc.o(.bss.hall_a) for hall_a
    bldc.o(.text) refers to bldc.o(.bss.hall_b) for hall_b
    bldc.o(.text) refers to bldc.o(.bss.hall_c) for hall_c
    bldc.o(.text) refers to bldc.o(.bss.hall) for hall
    bldc.o(.text) refers to bldc.o(.rodata.hall_to_pos) for hall_to_pos
    bldc.o(.text) refers to bldc.o(.bss.pos) for pos
    bldc.o(.text) refers to bldcbc.o(.text) for bldc_get_pwm
    bldc.o(.text) refers to bldc.o(.bss.lastPos) for lastPos
    bldc.o(.text) refers to bldc.o(.bss.iOdom) for iOdom
    bldc.o(.text) refers to bldc.o(.bss.speedCounter) for speedCounter
    bldc.o(.text) refers to ffltui.o(.text) for __aeabi_ui2f
    bldc.o(.text) refers to fdiv.o(.text) for __aeabi_fdiv
    bldc.o(.text) refers to bldc.o(.bss.realSpeed) for realSpeed
    bldc.o(.text) refers to bldc.o(.bss.buzzerToggle) for buzzerToggle
    bldc.o(.ARM.exidx) refers to bldc.o(.text) for [Anonymous Symbol]
    bldcbc.o(.ARM.exidx) refers to bldcbc.o(.text) for [Anonymous Symbol]
    setup.o(.text) refers to gd32f1x0_gpio.o(.text) for gpio_mode_set
    setup.o(.text) refers to gd32f1x0_misc.o(.text) for nvic_priority_group_set
    setup.o(.text) refers to gd32f1x0_rcu.o(.text) for rcu_flag_get
    setup.o(.text) refers to gd32f1x0_fwdgt.o(.text) for fwdgt_config
    setup.o(.text) refers to gd32f1x0_timer.o(.text) for timer_deinit
    setup.o(.text) refers to setup.o(.bss.timeoutTimer_paramter_struct) for timeoutTimer_paramter_struct
    setup.o(.text) refers to setup.o(.bss.timerBldc_paramter_struct) for timerBldc_paramter_struct
    setup.o(.text) refers to setup.o(.bss.timerBldc_oc_parameter_struct) for timerBldc_oc_parameter_struct
    setup.o(.text) refers to setup.o(.bss.timerBldc_break_parameter_struct) for timerBldc_break_parameter_struct
    setup.o(.text) refers to gd32f1x0_dma.o(.text) for dma_deinit
    setup.o(.text) refers to setup.o(.bss.dma_init_struct_adc) for dma_init_struct_adc
    setup.o(.text) refers to bldc.o(.bss.adc_buffer) for adc_buffer
    setup.o(.text) refers to gd32f1x0_adc.o(.text) for adc_channel_length_config
    setup.o(.text) refers to gd32f1x0_usart.o(.text) for usart_deinit
    setup.o(.text) refers to setup.o(.bss.dma_init_struct_usart) for dma_init_struct_usart
    setup.o(.text) refers to setup.o(.bss.usart0_rx_buf) for usart0_rx_buf
    setup.o(.text) refers to gd32f1x0_fmc.o(.text) for fmc_unlock
    setup.o(.text) refers to setup.o(.bss.oConfig) for oConfig
    setup.o(.ARM.exidx) refers to setup.o(.text) for [Anonymous Symbol]
    it.o(.text) refers to it.o(.bss.msTicks) for msTicks
    it.o(.text) refers to it.o(.bss.timeoutCounter_ms) for timeoutCounter_ms
    it.o(.text) refers to it.o(.bss.timedOut) for timedOut
    it.o(.text) refers to main.o(.bss.speed) for speed
    it.o(.text) refers to gd32f1x0_timer.o(.text) for timer_interrupt_flag_clear
    it.o(.text) refers to it.o(.bss.iPwmCounter) for iPwmCounter
    it.o(.text) refers to it.o(.bss.iPwmTicks0) for iPwmTicks0
    it.o(.text) refers to it.o(.bss.iPwmTicks) for iPwmTicks
    it.o(.text) refers to gd32f1x0_adc.o(.text) for adc_software_trigger_enable
    it.o(.text) refers to it.o(.bss.iAdcCounter) for iAdcCounter
    it.o(.text) refers to it.o(.bss.iAdcTicks0) for iAdcTicks0
    it.o(.text) refers to it.o(.bss.iAdcTicks) for iAdcTicks
    it.o(.text) refers to bldc.o(.text) for CalculateBLDC
    it.o(.text) refers to gd32f1x0_dma.o(.text) for dma_interrupt_flag_get
    it.o(.text) refers to it.o(.bss.iCounterUsart0) for iCounterUsart0
    it.o(.text) refers to it.o(.bss.iCounter2Usart0) for iCounter2Usart0
    it.o(.text) refers to remoteuartbus.o(.text) for RemoteCallback
    it.o(.ARM.exidx) refers to it.o(.text) for [Anonymous Symbol]
    comms.o(.text) refers to gd32f1x0_usart.o(.text) for usart_data_transmit
    comms.o(.ARM.exidx) refers to comms.o(.text) for [Anonymous Symbol]
    remoteuartbus.o(.text) refers to it.o(.text) for millis
    remoteuartbus.o(.text) refers to remoteuartbus.o(.bss.iTimeLastRx) for iTimeLastRx
    remoteuartbus.o(.text) refers to main.o(.bss.steer) for steer
    remoteuartbus.o(.text) refers to main.o(.bss.speed) for speed
    remoteuartbus.o(.text) refers to bldc.o(.data.batteryVoltage) for batteryVoltage
    remoteuartbus.o(.text) refers to fmul.o(.text) for __aeabi_fmul
    remoteuartbus.o(.text) refers to ffixi.o(.text) for __aeabi_f2iz
    remoteuartbus.o(.text) refers to bldc.o(.data.currentDC) for currentDC
    remoteuartbus.o(.text) refers to bldc.o(.bss.realSpeed) for realSpeed
    remoteuartbus.o(.text) refers to remoteuartbus.o(.bss.iAnswerMaster) for iAnswerMaster
    remoteuartbus.o(.text) refers to comms.o(.text) for CalcCRC
    remoteuartbus.o(.text) refers to remoteuartbus.o(.bss.iReceivePos) for iReceivePos
    remoteuartbus.o(.text) refers to setup.o(.bss.usart0_rx_buf) for usart0_rx_buf
    remoteuartbus.o(.text) refers to remoteuartbus.o(.bss.aReceiveBuffer) for aReceiveBuffer
    remoteuartbus.o(.text) refers to remoteuartbus.o(.bss.iRxDataType) for iRxDataType
    remoteuartbus.o(.text) refers to remoteuartbus.o(.bss.iRxDataSize) for iRxDataSize
    remoteuartbus.o(.text) refers to main.o(.data.wState) for wState
    remoteuartbus.o(.text) refers to main.o(.bss.iBug) for iBug
    remoteuartbus.o(.text) refers to main.o(.data.wStateSlave) for wStateSlave
    remoteuartbus.o(.ARM.exidx) refers to remoteuartbus.o(.text) for [Anonymous Symbol]
    gd32f1x0_adc.o(.text) refers to gd32f1x0_rcu.o(.text) for rcu_periph_reset_enable
    gd32f1x0_adc.o(.ARM.exidx) refers to gd32f1x0_adc.o(.text) for [Anonymous Symbol]
    gd32f1x0_dbg.o(.ARM.exidx) refers to gd32f1x0_dbg.o(.text) for [Anonymous Symbol]
    gd32f1x0_dma.o(.ARM.exidx) refers to gd32f1x0_dma.o(.text) for [Anonymous Symbol]
    gd32f1x0_exti.o(.ARM.exidx) refers to gd32f1x0_exti.o(.text) for [Anonymous Symbol]
    gd32f1x0_fmc.o(.ARM.exidx) refers to gd32f1x0_fmc.o(.text) for [Anonymous Symbol]
    gd32f1x0_fwdgt.o(.ARM.exidx) refers to gd32f1x0_fwdgt.o(.text) for [Anonymous Symbol]
    gd32f1x0_gpio.o(.text) refers to gd32f1x0_gpio.o(.rodata..Lswitch.table.gpio_deinit.1) for .Lswitch.table.gpio_deinit.1
    gd32f1x0_gpio.o(.text) refers to gd32f1x0_rcu.o(.text) for rcu_periph_reset_enable
    gd32f1x0_gpio.o(.ARM.exidx) refers to gd32f1x0_gpio.o(.text) for [Anonymous Symbol]
    gd32f1x0_i2c.o(.text) refers to gd32f1x0_rcu.o(.text) for rcu_periph_reset_enable
    gd32f1x0_i2c.o(.ARM.exidx) refers to gd32f1x0_i2c.o(.text) for [Anonymous Symbol]
    gd32f1x0_misc.o(.ARM.exidx) refers to gd32f1x0_misc.o(.text) for [Anonymous Symbol]
    gd32f1x0_pmu.o(.text) refers to gd32f1x0_rcu.o(.text) for rcu_periph_reset_enable
    gd32f1x0_pmu.o(.text) refers to gd32f1x0_pmu.o(.bss.pmu_to_deepsleepmode.reg_snap.1) for pmu_to_deepsleepmode.reg_snap.1
    gd32f1x0_pmu.o(.text) refers to gd32f1x0_pmu.o(.bss.pmu_to_deepsleepmode.reg_snap.0) for pmu_to_deepsleepmode.reg_snap.0
    gd32f1x0_pmu.o(.text) refers to gd32f1x0_pmu.o(.bss.pmu_to_deepsleepmode.reg_snap.2) for pmu_to_deepsleepmode.reg_snap.2
    gd32f1x0_pmu.o(.text) refers to gd32f1x0_pmu.o(.bss.pmu_to_deepsleepmode.reg_snap.3) for pmu_to_deepsleepmode.reg_snap.3
    gd32f1x0_pmu.o(.ARM.exidx) refers to gd32f1x0_pmu.o(.text) for [Anonymous Symbol]
    gd32f1x0_rcu.o(.text) refers to gd32f1x0_rcu.o(.rodata.cst8) for .L__const.rcu_clock_freq_get.apb2_exp
    gd32f1x0_rcu.o(.ARM.exidx) refers to gd32f1x0_rcu.o(.text) for [Anonymous Symbol]
    gd32f1x0_syscfg.o(.text) refers to gd32f1x0_rcu.o(.text) for rcu_periph_reset_enable
    gd32f1x0_syscfg.o(.ARM.exidx) refers to gd32f1x0_syscfg.o(.text) for [Anonymous Symbol]
    gd32f1x0_timer.o(.text) refers to gd32f1x0_rcu.o(.text) for rcu_periph_reset_enable
    gd32f1x0_timer.o(.ARM.exidx) refers to gd32f1x0_timer.o(.text) for [Anonymous Symbol]
    gd32f1x0_usart.o(.text) refers to gd32f1x0_rcu.o(.text) for rcu_periph_reset_enable
    gd32f1x0_usart.o(.ARM.exidx) refers to gd32f1x0_usart.o(.text) for [Anonymous Symbol]
    gd32f1x0_wwdgt.o(.text) refers to gd32f1x0_rcu.o(.text) for rcu_periph_reset_enable
    gd32f1x0_wwdgt.o(.ARM.exidx) refers to gd32f1x0_wwdgt.o(.text) for [Anonymous Symbol]
    startup_gd32f1x0.o(RESET) refers to startup_gd32f1x0.o(STACK) for __initial_sp
    startup_gd32f1x0.o(RESET) refers to startup_gd32f1x0.o(.text) for Reset_Handler
    startup_gd32f1x0.o(RESET) refers to it.o(.text) for NMI_Handler
    startup_gd32f1x0.o(.text) refers to system_gd32f1x0.o(.text) for SystemInit
    startup_gd32f1x0.o(.text) refers to entry.o(.ARM.Collect$$$$00000000) for __main
    system_gd32f1x0.o(.text) refers to system_gd32f1x0.o(.data.SystemCoreClock) for SystemCoreClock
    system_gd32f1x0.o(.ARM.exidx) refers to system_gd32f1x0.o(.text) for [Anonymous Symbol]
    entry.o(.ARM.Collect$$$$00000000) refers (Special) to entry10a.o(.ARM.Collect$$$$0000000D) for __rt_final_cpp
    entry.o(.ARM.Collect$$$$00000000) refers (Special) to entry11a.o(.ARM.Collect$$$$0000000F) for __rt_final_exit
    entry.o(.ARM.Collect$$$$00000000) refers (Special) to entry7b.o(.ARM.Collect$$$$00000008) for _main_clock
    entry.o(.ARM.Collect$$$$00000000) refers (Special) to entry8b.o(.ARM.Collect$$$$0000000A) for _main_cpp_init
    entry.o(.ARM.Collect$$$$00000000) refers (Special) to entry9a.o(.ARM.Collect$$$$0000000B) for _main_init
    entry.o(.ARM.Collect$$$$00000000) refers (Special) to entry5.o(.ARM.Collect$$$$00000004) for _main_scatterload
    entry.o(.ARM.Collect$$$$00000000) refers (Special) to entry2.o(.ARM.Collect$$$$00000001) for _main_stk
    fadd.o(.text) refers (Special) to iusefp.o(.text) for __I$use$fp
    fadd.o(.text) refers to fepilogue.o(.text) for _float_epilogue
    fmul.o(.text) refers (Special) to iusefp.o(.text) for __I$use$fp
    fdiv.o(.text) refers (Special) to iusefp.o(.text) for __I$use$fp
    fdiv.o(.text) refers to fepilogue.o(.text) for _float_round
    dadd.o(.text) refers (Special) to iusefp.o(.text) for __I$use$fp
    dadd.o(.text) refers to llshl.o(.text) for __aeabi_llsl
    dadd.o(.text) refers to llsshr.o(.text) for __aeabi_lasr
    dadd.o(.text) refers to depilogue.o(.text) for _double_epilogue
    dmul.o(.text) refers (Special) to iusefp.o(.text) for __I$use$fp
    dmul.o(.text) refers to depilogue.o(.text) for _double_epilogue
    ddiv.o(.text) refers (Special) to iusefp.o(.text) for __I$use$fp
    ddiv.o(.text) refers to depilogue.o(.text) for _double_round
    fcmple.o(.text) refers (Special) to iusefp.o(.text) for __I$use$fp
    fcmplt.o(.text) refers (Special) to iusefp.o(.text) for __I$use$fp
    fcmpgt.o(.text) refers (Special) to iusefp.o(.text) for __I$use$fp
    dcmple.o(.text) refers (Special) to iusefp.o(.text) for __I$use$fp
    fflti.o(.text) refers (Special) to iusefp.o(.text) for __I$use$fp
    fflti.o(.text) refers to fepilogue.o(.text) for _float_epilogue
    ffltui.o(.text) refers (Special) to iusefp.o(.text) for __I$use$fp
    ffltui.o(.text) refers to fepilogue.o(.text) for _float_epilogue
    dflti.o(.text) refers (Special) to iusefp.o(.text) for __I$use$fp
    dflti.o(.text) refers to depilogue.o(.text) for _double_epilogue
    dfltui.o(.text) refers (Special) to iusefp.o(.text) for __I$use$fp
    dfltui.o(.text) refers to depilogue.o(.text) for _double_epilogue
    ffixi.o(.text) refers (Special) to iusefp.o(.text) for __I$use$fp
    dfixi.o(.text) refers (Special) to iusefp.o(.text) for __I$use$fp
    dfixi.o(.text) refers to llushr.o(.text) for __aeabi_llsr
    f2d.o(.text) refers (Special) to iusefp.o(.text) for __I$use$fp
    d2f.o(.text) refers (Special) to iusefp.o(.text) for __I$use$fp
    d2f.o(.text) refers to fepilogue.o(.text) for _float_round
    entry2.o(.ARM.Collect$$$$00000001) refers to entry2.o(.ARM.Collect$$$$00002712) for __lit__00000000
    entry2.o(.ARM.Collect$$$$00002712) refers to startup_gd32f1x0.o(STACK) for __initial_sp
    entry2.o(__vectab_stack_and_reset_area) refers to startup_gd32f1x0.o(STACK) for __initial_sp
    entry2.o(__vectab_stack_and_reset_area) refers to entry.o(.ARM.Collect$$$$00000000) for __main
    entry5.o(.ARM.Collect$$$$00000004) refers to init.o(.text) for __scatterload
    entry9a.o(.ARM.Collect$$$$0000000B) refers to main.o(.text) for main
    entry9b.o(.ARM.Collect$$$$0000000C) refers to main.o(.text) for main
    fepilogue.o(.text) refers (Special) to iusefp.o(.text) for __I$use$fp
    depilogue.o(.text) refers (Special) to iusefp.o(.text) for __I$use$fp
    depilogue.o(.text) refers to llshl.o(.text) for __aeabi_llsl
    depilogue.o(.text) refers to llushr.o(.text) for __aeabi_llsr
    init.o(.text) refers to entry5.o(.ARM.Collect$$$$00000004) for __main_after_scatterload


==============================================================================

Removing Unused input sections from the image.

    Removing main.o(.ARM.exidx), (24 bytes).
    Removing main.o(.bss.activateWeakening), (1 bytes).
    Removing main.o(.bss.slaveError), (1 bytes).
    Removing main.o(.ARM.use_no_argv), (4 bytes).
    Removing bldc.o(.ARM.exidx), (48 bytes).
    Removing bldcbc.o(.ARM.exidx), (16 bytes).
    Removing bldcsine.o(.text), (0 bytes).
    Removing setup.o(.ARM.exidx), (168 bytes).
    Removing setup.o(.bss.usart1_rx_buf), (1 bytes).
    Removing setup.o(.bss.usart2_rx_buf), (1 bytes).
    Removing it.o(.ARM.exidx), (128 bytes).
    Removing it.o(.bss.iCounterUsart2), (4 bytes).
    Removing it.o(.bss.iCounter2Usart2), (4 bytes).
    Removing led.o(.text), (0 bytes).
    Removing comms.o(.ARM.exidx), (16 bytes).
    Removing remoteuart.o(.text), (0 bytes).
    Removing remotecrsf.o(.text), (0 bytes).
    Removing remotedummy.o(.text), (0 bytes).
    Removing remoteuartbus.o(.ARM.exidx), (24 bytes).
    Removing commsmasterslave.o(.text), (0 bytes).
    Removing commsmasterslave.o(.bss.mosfetOutMaster), (1 bytes).
    Removing commsmasterslave.o(.bss.beepsBackwardsMaster), (1 bytes).
    Removing remoteadc.o(.text), (0 bytes).
    Removing remoteautodetect.o(.text), (0 bytes).
    Removing gd32f1x0_adc.o(.ARM.exidx), (256 bytes).
    Removing gd32f1x0_dbg.o(.text), (128 bytes).
    Removing gd32f1x0_dbg.o(.ARM.exidx), (48 bytes).
    Removing gd32f1x0_dma.o(.ARM.exidx), (216 bytes).
    Removing gd32f1x0_exti.o(.text), (366 bytes).
    Removing gd32f1x0_exti.o(.ARM.exidx), (96 bytes).
    Removing gd32f1x0_fmc.o(.ARM.exidx), (216 bytes).
    Removing gd32f1x0_fwdgt.o(.ARM.exidx), (48 bytes).
    Removing gd32f1x0_gpio.o(.ARM.exidx), (104 bytes).
    Removing gd32f1x0_i2c.o(.text), (810 bytes).
    Removing gd32f1x0_i2c.o(.ARM.exidx), (248 bytes).
    Removing gd32f1x0_misc.o(.ARM.exidx), (56 bytes).
    Removing gd32f1x0_opa.o(.text), (0 bytes).
    Removing gd32f1x0_pmu.o(.text), (490 bytes).
    Removing gd32f1x0_pmu.o(.ARM.exidx), (96 bytes).
    Removing gd32f1x0_pmu.o(.bss.pmu_to_deepsleepmode.reg_snap.0), (4 bytes).
    Removing gd32f1x0_pmu.o(.bss.pmu_to_deepsleepmode.reg_snap.1), (4 bytes).
    Removing gd32f1x0_pmu.o(.bss.pmu_to_deepsleepmode.reg_snap.2), (4 bytes).
    Removing gd32f1x0_pmu.o(.bss.pmu_to_deepsleepmode.reg_snap.3), (4 bytes).
    Removing gd32f1x0_rcu.o(.ARM.exidx), (336 bytes).
    Removing gd32f1x0_syscfg.o(.text), (258 bytes).
    Removing gd32f1x0_syscfg.o(.ARM.exidx), (72 bytes).
    Removing gd32f1x0_timer.o(.ARM.exidx), (568 bytes).
    Removing gd32f1x0_usart.o(.ARM.exidx), (544 bytes).
    Removing gd32f1x0_wwdgt.o(.text), (170 bytes).
    Removing gd32f1x0_wwdgt.o(.ARM.exidx), (56 bytes).
    Removing startup_gd32f1x0.o(HEAP), (1024 bytes).
    Removing system_gd32f1x0.o(.ARM.exidx), (16 bytes).

52 unused section(s) (total 6680 bytes) removed from the image.

==============================================================================

Image Symbol Table

    Local Symbols

    Symbol Name                              Value     Ov Type        Size  Object(Section)

    ../clib/microlib/init/entry.s            0x00000000   Number         0  entry.o ABSOLUTE
    ../clib/microlib/init/entry.s            0x00000000   Number         0  entry2.o ABSOLUTE
    ../clib/microlib/init/entry.s            0x00000000   Number         0  entry5.o ABSOLUTE
    ../clib/microlib/init/entry.s            0x00000000   Number         0  entry7a.o ABSOLUTE
    ../clib/microlib/init/entry.s            0x00000000   Number         0  entry7b.o ABSOLUTE
    ../clib/microlib/init/entry.s            0x00000000   Number         0  entry8a.o ABSOLUTE
    ../clib/microlib/init/entry.s            0x00000000   Number         0  entry8b.o ABSOLUTE
    ../clib/microlib/init/entry.s            0x00000000   Number         0  entry9a.o ABSOLUTE
    ../clib/microlib/init/entry.s            0x00000000   Number         0  entry9b.o ABSOLUTE
    ../clib/microlib/init/entry.s            0x00000000   Number         0  entry10a.o ABSOLUTE
    ../clib/microlib/init/entry.s            0x00000000   Number         0  entry10b.o ABSOLUTE
    ../clib/microlib/init/entry.s            0x00000000   Number         0  entry11a.o ABSOLUTE
    ../clib/microlib/init/entry.s            0x00000000   Number         0  entry11b.o ABSOLUTE
    ../clib/microlib/longlong.c              0x00000000   Number         0  llshl.o ABSOLUTE
    ../clib/microlib/longlong.c              0x00000000   Number         0  llushr.o ABSOLUTE
    ../clib/microlib/longlong.c              0x00000000   Number         0  llsshr.o ABSOLUTE
    ../clib/microlib/stubs.s                 0x00000000   Number         0  iusefp.o ABSOLUTE
    ../fplib/microlib/d2f.c                  0x00000000   Number         0  d2f.o ABSOLUTE
    ../fplib/microlib/f2d.c                  0x00000000   Number         0  f2d.o ABSOLUTE
    ../fplib/microlib/fpadd.c                0x00000000   Number         0  fadd.o ABSOLUTE
    ../fplib/microlib/fpadd.c                0x00000000   Number         0  dadd.o ABSOLUTE
    ../fplib/microlib/fpcmp.c                0x00000000   Number         0  fcmple.o ABSOLUTE
    ../fplib/microlib/fpcmp.c                0x00000000   Number         0  fcmplt.o ABSOLUTE
    ../fplib/microlib/fpcmp.c                0x00000000   Number         0  fcmpgt.o ABSOLUTE
    ../fplib/microlib/fpcmp.c                0x00000000   Number         0  dcmple.o ABSOLUTE
    ../fplib/microlib/fpdiv.c                0x00000000   Number         0  fdiv.o ABSOLUTE
    ../fplib/microlib/fpdiv.c                0x00000000   Number         0  ddiv.o ABSOLUTE
    ../fplib/microlib/fpepilogue.c           0x00000000   Number         0  fepilogue.o ABSOLUTE
    ../fplib/microlib/fpepilogue.c           0x00000000   Number         0  depilogue.o ABSOLUTE
    ../fplib/microlib/fpfix.c                0x00000000   Number         0  ffixi.o ABSOLUTE
    ../fplib/microlib/fpfix.c                0x00000000   Number         0  dfixi.o ABSOLUTE
    ../fplib/microlib/fpflt.c                0x00000000   Number         0  fflti.o ABSOLUTE
    ../fplib/microlib/fpflt.c                0x00000000   Number         0  ffltui.o ABSOLUTE
    ../fplib/microlib/fpflt.c                0x00000000   Number         0  dflti.o ABSOLUTE
    ../fplib/microlib/fpflt.c                0x00000000   Number         0  dfltui.o ABSOLUTE
    ../fplib/microlib/fpmul.c                0x00000000   Number         0  fmul.o ABSOLUTE
    ../fplib/microlib/fpmul.c                0x00000000   Number         0  dmul.o ABSOLUTE
    RTE/Device/GD32F130C8/startup_gd32f1x0.s 0x00000000   Number         0  startup_gd32f1x0.o ABSOLUTE
    RemoteAdc.c                              0x00000000   Number         0  remoteadc.o ABSOLUTE
    RemoteAutodetect.c                       0x00000000   Number         0  remoteautodetect.o ABSOLUTE
    bldc.c                                   0x00000000   Number         0  bldc.o ABSOLUTE
    bldcBC.c                                 0x00000000   Number         0  bldcbc.o ABSOLUTE
    bldcSINE.c                               0x00000000   Number         0  bldcsine.o ABSOLUTE
    comms.c                                  0x00000000   Number         0  comms.o ABSOLUTE
    commsMasterSlave.c                       0x00000000   Number         0  commsmasterslave.o ABSOLUTE
    dc.s                                     0x00000000   Number         0  dc.o ABSOLUTE
    gd32f1x0_adc.c                           0x00000000   Number         0  gd32f1x0_adc.o ABSOLUTE
    gd32f1x0_dbg.c                           0x00000000   Number         0  gd32f1x0_dbg.o ABSOLUTE
    gd32f1x0_dma.c                           0x00000000   Number         0  gd32f1x0_dma.o ABSOLUTE
    gd32f1x0_exti.c                          0x00000000   Number         0  gd32f1x0_exti.o ABSOLUTE
    gd32f1x0_fmc.c                           0x00000000   Number         0  gd32f1x0_fmc.o ABSOLUTE
    gd32f1x0_fwdgt.c                         0x00000000   Number         0  gd32f1x0_fwdgt.o ABSOLUTE
    gd32f1x0_gpio.c                          0x00000000   Number         0  gd32f1x0_gpio.o ABSOLUTE
    gd32f1x0_i2c.c                           0x00000000   Number         0  gd32f1x0_i2c.o ABSOLUTE
    gd32f1x0_misc.c                          0x00000000   Number         0  gd32f1x0_misc.o ABSOLUTE
    gd32f1x0_opa.c                           0x00000000   Number         0  gd32f1x0_opa.o ABSOLUTE
    gd32f1x0_pmu.c                           0x00000000   Number         0  gd32f1x0_pmu.o ABSOLUTE
    gd32f1x0_rcu.c                           0x00000000   Number         0  gd32f1x0_rcu.o ABSOLUTE
    gd32f1x0_syscfg.c                        0x00000000   Number         0  gd32f1x0_syscfg.o ABSOLUTE
    gd32f1x0_timer.c                         0x00000000   Number         0  gd32f1x0_timer.o ABSOLUTE
    gd32f1x0_usart.c                         0x00000000   Number         0  gd32f1x0_usart.o ABSOLUTE
    gd32f1x0_wwdgt.c                         0x00000000   Number         0  gd32f1x0_wwdgt.o ABSOLUTE
    handlers.s                               0x00000000   Number         0  handlers.o ABSOLUTE
    init.s                                   0x00000000   Number         0  init.o ABSOLUTE
    it.c                                     0x00000000   Number         0  it.o ABSOLUTE
    led.c                                    0x00000000   Number         0  led.o ABSOLUTE
    main.c                                   0x00000000   Number         0  main.o ABSOLUTE
    remoteCrsf.c                             0x00000000   Number         0  remotecrsf.o ABSOLUTE
    remoteDummy.c                            0x00000000   Number         0  remotedummy.o ABSOLUTE
    remoteUart.c                             0x00000000   Number         0  remoteuart.o ABSOLUTE
    remoteUartBus.c                          0x00000000   Number         0  remoteuartbus.o ABSOLUTE
    setup.c                                  0x00000000   Number         0  setup.o ABSOLUTE
    system_gd32f1x0.c                        0x00000000   Number         0  system_gd32f1x0.o ABSOLUTE
    RESET                                    0x08000000   Section      360  startup_gd32f1x0.o(RESET)
    .ARM.Collect$$$$00000000                 0x08000168   Section        0  entry.o(.ARM.Collect$$$$00000000)
    .ARM.Collect$$$$00000001                 0x08000168   Section        4  entry2.o(.ARM.Collect$$$$00000001)
    .ARM.Collect$$$$00000004                 0x0800016c   Section        4  entry5.o(.ARM.Collect$$$$00000004)
    .ARM.Collect$$$$00000008                 0x08000170   Section        0  entry7b.o(.ARM.Collect$$$$00000008)
    .ARM.Collect$$$$0000000A                 0x08000170   Section        0  entry8b.o(.ARM.Collect$$$$0000000A)
    .ARM.Collect$$$$0000000B                 0x08000170   Section        8  entry9a.o(.ARM.Collect$$$$0000000B)
    __lit__00000000                          0x08000178   Data           4  entry2.o(.ARM.Collect$$$$00002712)
    .ARM.Collect$$$$0000000D                 0x08000178   Section        0  entry10a.o(.ARM.Collect$$$$0000000D)
    .ARM.Collect$$$$0000000F                 0x08000178   Section        0  entry11a.o(.ARM.Collect$$$$0000000F)
    .ARM.Collect$$$$00002712                 0x08000178   Section        4  entry2.o(.ARM.Collect$$$$00002712)
    [Anonymous Symbol]                       0x0800017c   Section        0  main.o(.text)
    [Anonymous Symbol]                       0x08000964   Section        0  bldc.o(.text)
    [Anonymous Symbol]                       0x08000e6c   Section        0  bldcbc.o(.text)
    [Anonymous Symbol]                       0x08000edc   Section        0  setup.o(.text)
    [Anonymous Symbol]                       0x080018f8   Section        0  it.o(.text)
    [Anonymous Symbol]                       0x08001aa0   Section        0  comms.o(.text)
    [Anonymous Symbol]                       0x08001b0c   Section        0  remoteuartbus.o(.text)
    [Anonymous Symbol]                       0x08001db0   Section        0  gd32f1x0_adc.o(.text)
    [Anonymous Symbol]                       0x08002358   Section        0  gd32f1x0_dma.o(.text)
    [Anonymous Symbol]                       0x080026a4   Section        0  gd32f1x0_fmc.o(.text)
    [Anonymous Symbol]                       0x08003078   Section        0  gd32f1x0_fwdgt.o(.text)
    [Anonymous Symbol]                       0x08003154   Section        0  gd32f1x0_gpio.o(.text)
    [Anonymous Symbol]                       0x080032ec   Section        0  gd32f1x0_misc.o(.text)
    [Anonymous Symbol]                       0x0800341c   Section        0  gd32f1x0_rcu.o(.text)
    [Anonymous Symbol]                       0x08003b4c   Section        0  gd32f1x0_timer.o(.text)
    [Anonymous Symbol]                       0x080048ac   Section        0  gd32f1x0_usart.o(.text)
    .text                                    0x08004eec   Section       36  startup_gd32f1x0.o(.text)
    [Anonymous Symbol]                       0x08004f10   Section        0  system_gd32f1x0.o(.text)
    .text                                    0x0800504c   Section        0  fadd.o(.text)
    .text                                    0x080050fc   Section        0  fmul.o(.text)
    .text                                    0x08005160   Section        0  fdiv.o(.text)
    .text                                    0x080051dc   Section        0  dadd.o(.text)
    .text                                    0x0800532a   Section        0  dmul.o(.text)
    .text                                    0x0800540e   Section        0  ddiv.o(.text)
    .text                                    0x080054ec   Section        0  fcmple.o(.text)
    .text                                    0x08005508   Section        0  fcmplt.o(.text)
    .text                                    0x08005524   Section        0  fcmpgt.o(.text)
    .text                                    0x08005540   Section        0  dcmple.o(.text)
    .text                                    0x08005576   Section        0  fflti.o(.text)
    .text                                    0x08005588   Section        0  ffltui.o(.text)
    .text                                    0x08005592   Section        0  dflti.o(.text)
    .text                                    0x080055b4   Section        0  dfltui.o(.text)
    .text                                    0x080055ce   Section        0  ffixi.o(.text)
    .text                                    0x08005600   Section        0  dfixi.o(.text)
    .text                                    0x0800563e   Section        0  f2d.o(.text)
    .text                                    0x08005664   Section        0  d2f.o(.text)
    .text                                    0x0800569c   Section        0  llshl.o(.text)
    .text                                    0x080056ba   Section        0  llushr.o(.text)
    .text                                    0x080056da   Section        0  llsshr.o(.text)
    .text                                    0x080056fe   Section        0  iusefp.o(.text)
    .text                                    0x080056fe   Section        0  fepilogue.o(.text)
    .text                                    0x0800576c   Section        0  depilogue.o(.text)
    .text                                    0x08005828   Section       36  init.o(.text)
    i.__scatterload_copy                     0x0800584c   Section       14  handlers.o(i.__scatterload_copy)
    i.__scatterload_null                     0x0800585a   Section        2  handlers.o(i.__scatterload_null)
    i.__scatterload_zeroinit                 0x0800585c   Section       14  handlers.o(i.__scatterload_zeroinit)
    .L__const.up_or_down.up_down             0x0800586a   Data          12  bldc.o(.rodata..L__const.up_or_down.up_down)
    .Lswitch.table.gpio_deinit.1             0x08005876   Data          12  gd32f1x0_gpio.o(.rodata..Lswitch.table.gpio_deinit.1)
    .L__const.rcu_clock_freq_get.apb2_exp    0x08005882   Data           8  gd32f1x0_rcu.o(.rodata.cst8)
    aReceiveBuffer                           0x20000018   Data         255  remoteuartbus.o(.bss.aReceiveBuffer)
    [Anonymous Symbol]                       0x20000018   Section        0  remoteuartbus.o(.bss.aReceiveBuffer)
    iReceivePos                              0x200001a8   Data           2  remoteuartbus.o(.bss.iReceivePos)
    [Anonymous Symbol]                       0x200001a8   Section        0  remoteuartbus.o(.bss.iReceivePos)
    STACK                                    0x20000248   Section     1024  startup_gd32f1x0.o(STACK)

    Global Symbols

    Symbol Name                              Value     Ov Type        Size  Object(Section)

    BuildAttributes$$THM_ISAv4$P$D$K$B$S$PE$A:L22UL41UL21$X:L11$S22US41US21$IEEE1$IW$~IW$USESV6$~STKCKD$USESV7$~SHL$OTIME$ROPI$EBA8$MICROLIB$REQ8$PRES8$EABIv2 0x00000000   Number         0  anon$$obj.o ABSOLUTE
    __cpp_initialize__aeabi_                  - Undefined Weak Reference
    __cxa_finalize                            - Undefined Weak Reference
    __decompress                              - Undefined Weak Reference
    _clock_init                               - Undefined Weak Reference
    _microlib_exit                            - Undefined Weak Reference
    __Vectors_Size                           0x00000168   Number         0  startup_gd32f1x0.o ABSOLUTE
    __Vectors                                0x08000000   Data           4  startup_gd32f1x0.o(RESET)
    __Vectors_End                            0x08000168   Data           0  startup_gd32f1x0.o(RESET)
    __main                                   0x08000169   Thumb Code     0  entry.o(.ARM.Collect$$$$00000000)
    _main_stk                                0x08000169   Thumb Code     0  entry2.o(.ARM.Collect$$$$00000001)
    _main_scatterload                        0x0800016d   Thumb Code     0  entry5.o(.ARM.Collect$$$$00000004)
    __main_after_scatterload                 0x08000171   Thumb Code     0  entry5.o(.ARM.Collect$$$$00000004)
    _main_clock                              0x08000171   Thumb Code     0  entry7b.o(.ARM.Collect$$$$00000008)
    _main_cpp_init                           0x08000171   Thumb Code     0  entry8b.o(.ARM.Collect$$$$0000000A)
    _main_init                               0x08000171   Thumb Code     0  entry9a.o(.ARM.Collect$$$$0000000B)
    __rt_final_cpp                           0x08000179   Thumb Code     0  entry10a.o(.ARM.Collect$$$$0000000D)
    __rt_final_exit                          0x08000179   Thumb Code     0  entry11a.o(.ARM.Collect$$$$0000000F)
    main                                     0x0800017d   Thumb Code  1758  main.o(.text)
    ShutOff                                  0x0800085d   Thumb Code   116  main.o(.text)
    ShowBatteryState                         0x080008d1   Thumb Code   148  main.o(.text)
    modulo                                   0x08000965   Thumb Code    22  bldc.o(.text)
    up_or_down                               0x0800097d   Thumb Code    60  bldc.o(.text)
    SetEnable                                0x080009b9   Thumb Code    12  bldc.o(.text)
    SetPWM                                   0x080009c5   Thumb Code    74  bldc.o(.text)
    SetFilter                                0x08000a11   Thumb Code    46  bldc.o(.text)
    CalculateBLDC                            0x08000a41   Thumb Code  1068  bldc.o(.text)
    bldc_get_pwm                             0x08000e6d   Thumb Code   106  bldcbc.o(.text)
    InitBldc                                 0x08000ed9   Thumb Code     2  bldcbc.o(.text)
    pinMode                                  0x08000edd   Thumb Code    42  setup.o(.text)
    pinModePull                              0x08000f09   Thumb Code    40  setup.o(.text)
    Interrupt_init                           0x08000f31   Thumb Code     8  setup.o(.text)
    Watchdog_init                            0x08000f39   Thumb Code    56  setup.o(.text)
    TimeoutTimer_init                        0x08000f71   Thumb Code    92  setup.o(.text)
    GPIO_init                                0x08000fcd   Thumb Code   640  setup.o(.text)
    PWM_initOld                              0x0800124d   Thumb Code   368  setup.o(.text)
    PWM_init                                 0x080013bd   Thumb Code   368  setup.o(.text)
    ADC_init                                 0x0800152d   Thumb Code   234  setup.o(.text)
    USART0_Init                              0x08001619   Thumb Code   286  setup.o(.text)
    USART1_Init                              0x08001739   Thumb Code     2  setup.o(.text)
    USART2_Init                              0x0800173d   Thumb Code     2  setup.o(.text)
    flashErase                               0x08001741   Thumb Code    28  setup.o(.text)
    flashRead                                0x0800175d   Thumb Code     4  setup.o(.text)
    flashWrite                               0x08001761   Thumb Code    38  setup.o(.text)
    flashWriteBuffer                         0x08001789   Thumb Code    64  setup.o(.text)
    flashReadBuffer                          0x080017c9   Thumb Code    26  setup.o(.text)
    ConfigReset                              0x080017e5   Thumb Code    36  setup.o(.text)
    ConfigWrite                              0x08001809   Thumb Code    92  setup.o(.text)
    ConfigRead                               0x08001865   Thumb Code   116  setup.o(.text)
    confErase                                0x080018d9   Thumb Code    32  setup.o(.text)
    SysTick_Handler                          0x080018f9   Thumb Code    16  it.o(.text)
    ResetTimeout                             0x08001909   Thumb Code    14  it.o(.text)
    TIMER13_IRQHandler                       0x08001919   Thumb Code    76  it.o(.text)
    TIMER0_BRK_UP_TRG_COM_IRQHandler         0x08001965   Thumb Code    88  it.o(.text)
    DMA_Channel0_IRQHandler                  0x080019bd   Thumb Code    94  it.o(.text)
    DMA_Channel1_2_IRQHandler                0x08001a1d   Thumb Code    60  it.o(.text)
    millis                                   0x08001a59   Thumb Code    12  it.o(.text)
    Delay                                    0x08001a65   Thumb Code    28  it.o(.text)
    NMI_Handler                              0x08001a81   Thumb Code     2  it.o(.text)
    HardFault_Handler                        0x08001a85   Thumb Code     2  it.o(.text)
    MemManage_Handler                        0x08001a89   Thumb Code     2  it.o(.text)
    BusFault_Handler                         0x08001a8d   Thumb Code     2  it.o(.text)
    UsageFault_Handler                       0x08001a91   Thumb Code     2  it.o(.text)
    SVC_Handler                              0x08001a95   Thumb Code     2  it.o(.text)
    DebugMon_Handler                         0x08001a99   Thumb Code     2  it.o(.text)
    PendSV_Handler                           0x08001a9d   Thumb Code     2  it.o(.text)
    SendBuffer                               0x08001aa1   Thumb Code    48  comms.o(.text)
    CalcCRC                                  0x08001ad1   Thumb Code    60  comms.o(.text)
    RemoteUpdate                             0x08001b0d   Thumb Code    50  remoteuartbus.o(.text)
    AnswerMaster                             0x08001b41   Thumb Code   152  remoteuartbus.o(.text)
    RemoteCallback                           0x08001bd9   Thumb Code   470  remoteuartbus.o(.text)
    adc_deinit                               0x08001db1   Thumb Code    22  gd32f1x0_adc.o(.text)
    adc_enable                               0x08001dc9   Thumb Code    26  gd32f1x0_adc.o(.text)
    adc_disable                              0x08001de5   Thumb Code    18  gd32f1x0_adc.o(.text)
    adc_calibration_enable                   0x08001df9   Thumb Code    40  gd32f1x0_adc.o(.text)
    adc_dma_mode_enable                      0x08001e21   Thumb Code    18  gd32f1x0_adc.o(.text)
    adc_dma_mode_disable                     0x08001e35   Thumb Code    18  gd32f1x0_adc.o(.text)
    adc_tempsensor_vrefint_enable            0x08001e49   Thumb Code    18  gd32f1x0_adc.o(.text)
    adc_tempsensor_vrefint_disable           0x08001e5d   Thumb Code    18  gd32f1x0_adc.o(.text)
    adc_vbat_enable                          0x08001e71   Thumb Code    18  gd32f1x0_adc.o(.text)
    adc_vbat_disable                         0x08001e85   Thumb Code    18  gd32f1x0_adc.o(.text)
    adc_discontinuous_mode_config            0x08001e99   Thumb Code    68  gd32f1x0_adc.o(.text)
    adc_special_function_config              0x08001edd   Thumb Code   100  gd32f1x0_adc.o(.text)
    adc_data_alignment_config                0x08001f41   Thumb Code    26  gd32f1x0_adc.o(.text)
    adc_channel_length_config                0x08001f5d   Thumb Code    82  gd32f1x0_adc.o(.text)
    adc_regular_channel_config               0x08001fb1   Thumb Code   180  gd32f1x0_adc.o(.text)
    adc_inserted_channel_config              0x08002065   Thumb Code   114  gd32f1x0_adc.o(.text)
    adc_inserted_channel_offset_config       0x080020d9   Thumb Code    32  gd32f1x0_adc.o(.text)
    adc_external_trigger_config              0x080020f9   Thumb Code    72  gd32f1x0_adc.o(.text)
    adc_external_trigger_source_config       0x08002141   Thumb Code    42  gd32f1x0_adc.o(.text)
    adc_software_trigger_enable              0x0800216d   Thumb Code    36  gd32f1x0_adc.o(.text)
    adc_regular_data_read                    0x08002191   Thumb Code    14  gd32f1x0_adc.o(.text)
    adc_inserted_data_read                   0x080021a1   Thumb Code    74  gd32f1x0_adc.o(.text)
    adc_flag_get                             0x080021ed   Thumb Code    18  gd32f1x0_adc.o(.text)
    adc_flag_clear                           0x08002201   Thumb Code    18  gd32f1x0_adc.o(.text)
    adc_interrupt_flag_get                   0x08002215   Thumb Code    56  gd32f1x0_adc.o(.text)
    adc_interrupt_flag_clear                 0x0800224d   Thumb Code    18  gd32f1x0_adc.o(.text)
    adc_interrupt_enable                     0x08002261   Thumb Code    48  gd32f1x0_adc.o(.text)
    adc_interrupt_disable                    0x08002291   Thumb Code    48  gd32f1x0_adc.o(.text)
    adc_watchdog_single_channel_enable       0x080022c1   Thumb Code    42  gd32f1x0_adc.o(.text)
    adc_watchdog_group_channel_enable        0x080022ed   Thumb Code    48  gd32f1x0_adc.o(.text)
    adc_watchdog_disable                     0x08002329   Thumb Code    24  gd32f1x0_adc.o(.text)
    adc_watchdog_threshold_config            0x08002341   Thumb Code    22  gd32f1x0_adc.o(.text)
    dma_deinit                               0x08002359   Thumb Code    48  gd32f1x0_dma.o(.text)
    dma_struct_para_init                     0x08002389   Thumb Code    24  gd32f1x0_dma.o(.text)
    dma_init                                 0x080023a1   Thumb Code   122  gd32f1x0_dma.o(.text)
    dma_circulation_enable                   0x0800241d   Thumb Code    24  gd32f1x0_dma.o(.text)
    dma_circulation_disable                  0x08002435   Thumb Code    24  gd32f1x0_dma.o(.text)
    dma_memory_to_memory_enable              0x0800244d   Thumb Code    24  gd32f1x0_dma.o(.text)
    dma_memory_to_memory_disable             0x08002465   Thumb Code    24  gd32f1x0_dma.o(.text)
    dma_channel_enable                       0x0800247d   Thumb Code    24  gd32f1x0_dma.o(.text)
    dma_channel_disable                      0x08002495   Thumb Code    24  gd32f1x0_dma.o(.text)
    dma_periph_address_config                0x080024ad   Thumb Code    16  gd32f1x0_dma.o(.text)
    dma_memory_address_config                0x080024bd   Thumb Code    16  gd32f1x0_dma.o(.text)
    dma_transfer_number_config               0x080024cd   Thumb Code    16  gd32f1x0_dma.o(.text)
    dma_transfer_number_get                  0x080024dd   Thumb Code    16  gd32f1x0_dma.o(.text)
    dma_priority_config                      0x080024ed   Thumb Code    26  gd32f1x0_dma.o(.text)
    dma_memory_width_config                  0x08002509   Thumb Code    26  gd32f1x0_dma.o(.text)
    dma_periph_width_config                  0x08002525   Thumb Code    26  gd32f1x0_dma.o(.text)
    dma_memory_increase_enable               0x08002541   Thumb Code    24  gd32f1x0_dma.o(.text)
    dma_memory_increase_disable              0x08002559   Thumb Code    24  gd32f1x0_dma.o(.text)
    dma_periph_increase_enable               0x08002571   Thumb Code    24  gd32f1x0_dma.o(.text)
    dma_periph_increase_disable              0x08002589   Thumb Code    24  gd32f1x0_dma.o(.text)
    dma_transfer_direction_config            0x080025a1   Thumb Code    30  gd32f1x0_dma.o(.text)
    dma_interrupt_flag_get                   0x080025c1   Thumb Code   116  gd32f1x0_dma.o(.text)
    dma_interrupt_flag_clear                 0x08002635   Thumb Code    20  gd32f1x0_dma.o(.text)
    dma_interrupt_enable                     0x08002649   Thumb Code    22  gd32f1x0_dma.o(.text)
    dma_interrupt_disable                    0x08002661   Thumb Code    24  gd32f1x0_dma.o(.text)
    dma_flag_get                             0x08002679   Thumb Code    22  gd32f1x0_dma.o(.text)
    dma_flag_clear                           0x08002691   Thumb Code    20  gd32f1x0_dma.o(.text)
    fmc_unlock                               0x080026a5   Thumb Code    38  gd32f1x0_fmc.o(.text)
    fmc_lock                                 0x080026cd   Thumb Code    18  gd32f1x0_fmc.o(.text)
    fmc_wscnt_set                            0x080026e1   Thumb Code    20  gd32f1x0_fmc.o(.text)
    fmc_wait_state_enable                    0x080026f5   Thumb Code    18  gd32f1x0_fmc.o(.text)
    fmc_wait_state_disable                   0x08002709   Thumb Code    18  gd32f1x0_fmc.o(.text)
    fmc_page_erase                           0x0800271d   Thumb Code   158  gd32f1x0_fmc.o(.text)
    fmc_mass_erase                           0x080027bd   Thumb Code   150  gd32f1x0_fmc.o(.text)
    fmc_word_program                         0x08002855   Thumb Code   150  gd32f1x0_fmc.o(.text)
    fmc_halfword_program                     0x080028ed   Thumb Code   150  gd32f1x0_fmc.o(.text)
    ob_unlock                                0x08002985   Thumb Code    38  gd32f1x0_fmc.o(.text)
    ob_lock                                  0x080029ad   Thumb Code    18  gd32f1x0_fmc.o(.text)
    ob_reset                                 0x080029c1   Thumb Code    18  gd32f1x0_fmc.o(.text)
    ob_erase                                 0x080029d5   Thumb Code   294  gd32f1x0_fmc.o(.text)
    ob_obstat_plevel_get                     0x08002afd   Thumb Code    16  gd32f1x0_fmc.o(.text)
    ob_write_protection_enable               0x08002b0d   Thumb Code   316  gd32f1x0_fmc.o(.text)
    ob_security_protection_config            0x08002c49   Thumb Code   304  gd32f1x0_fmc.o(.text)
    ob_user_write                            0x08002d79   Thumb Code   308  gd32f1x0_fmc.o(.text)
    ob_data_program                          0x08002ead   Thumb Code   304  gd32f1x0_fmc.o(.text)
    ob_user_get                              0x08002fdd   Thumb Code    16  gd32f1x0_fmc.o(.text)
    ob_data_get                              0x08002fed   Thumb Code    14  gd32f1x0_fmc.o(.text)
    ob_write_protection_get                  0x08002ffd   Thumb Code    14  gd32f1x0_fmc.o(.text)
    fmc_interrupt_enable                     0x0800300d   Thumb Code    16  gd32f1x0_fmc.o(.text)
    fmc_interrupt_disable                    0x0800301d   Thumb Code    18  gd32f1x0_fmc.o(.text)
    fmc_flag_get                             0x08003031   Thumb Code    18  gd32f1x0_fmc.o(.text)
    fmc_flag_clear                           0x08003045   Thumb Code    16  gd32f1x0_fmc.o(.text)
    fmc_interrupt_flag_get                   0x08003055   Thumb Code    18  gd32f1x0_fmc.o(.text)
    fmc_interrupt_flag_clear                 0x08003069   Thumb Code    16  gd32f1x0_fmc.o(.text)
    fwdgt_write_disable                      0x08003079   Thumb Code    14  gd32f1x0_fwdgt.o(.text)
    fwdgt_counter_reload                     0x08003089   Thumb Code    16  gd32f1x0_fwdgt.o(.text)
    fwdgt_enable                             0x08003099   Thumb Code    16  gd32f1x0_fwdgt.o(.text)
    fwdgt_window_value_config                0x080030a9   Thumb Code    52  gd32f1x0_fwdgt.o(.text)
    fwdgt_config                             0x080030dd   Thumb Code   100  gd32f1x0_fwdgt.o(.text)
    fwdgt_flag_get                           0x08003141   Thumb Code    18  gd32f1x0_fwdgt.o(.text)
    gpio_deinit                              0x08003155   Thumb Code    58  gd32f1x0_gpio.o(.text)
    gpio_mode_set                            0x08003191   Thumb Code    84  gd32f1x0_gpio.o(.text)
    gpio_output_options_set                  0x080031e5   Thumb Code    70  gd32f1x0_gpio.o(.text)
    gpio_bit_set                             0x0800322d   Thumb Code     4  gd32f1x0_gpio.o(.text)
    gpio_bit_reset                           0x08003231   Thumb Code     4  gd32f1x0_gpio.o(.text)
    gpio_bit_write                           0x08003235   Thumb Code    12  gd32f1x0_gpio.o(.text)
    gpio_port_write                          0x08003241   Thumb Code     4  gd32f1x0_gpio.o(.text)
    gpio_input_bit_get                       0x08003245   Thumb Code    10  gd32f1x0_gpio.o(.text)
    gpio_input_port_get                      0x08003251   Thumb Code     6  gd32f1x0_gpio.o(.text)
    gpio_output_bit_get                      0x08003259   Thumb Code    10  gd32f1x0_gpio.o(.text)
    gpio_output_port_get                     0x08003265   Thumb Code     6  gd32f1x0_gpio.o(.text)
    gpio_af_set                              0x0800326d   Thumb Code   110  gd32f1x0_gpio.o(.text)
    gpio_pin_lock                            0x080032dd   Thumb Code    16  gd32f1x0_gpio.o(.text)
    nvic_priority_group_set                  0x080032ed   Thumb Code    20  gd32f1x0_misc.o(.text)
    nvic_irq_enable                          0x08003301   Thumb Code   168  gd32f1x0_misc.o(.text)
    nvic_irq_disable                         0x080033a9   Thumb Code    30  gd32f1x0_misc.o(.text)
    nvic_vector_table_set                    0x080033c9   Thumb Code    24  gd32f1x0_misc.o(.text)
    system_lowpower_set                      0x080033e1   Thumb Code    16  gd32f1x0_misc.o(.text)
    system_lowpower_reset                    0x080033f1   Thumb Code    18  gd32f1x0_misc.o(.text)
    systick_clksource_set                    0x08003405   Thumb Code    24  gd32f1x0_misc.o(.text)
    rcu_deinit                               0x0800341d   Thumb Code   112  gd32f1x0_rcu.o(.text)
    rcu_periph_clock_enable                  0x0800348d   Thumb Code    30  gd32f1x0_rcu.o(.text)
    rcu_periph_clock_disable                 0x080034ad   Thumb Code    32  gd32f1x0_rcu.o(.text)
    rcu_periph_clock_sleep_enable            0x080034cd   Thumb Code    30  gd32f1x0_rcu.o(.text)
    rcu_periph_clock_sleep_disable           0x080034ed   Thumb Code    32  gd32f1x0_rcu.o(.text)
    rcu_periph_reset_enable                  0x0800350d   Thumb Code    30  gd32f1x0_rcu.o(.text)
    rcu_periph_reset_disable                 0x0800352d   Thumb Code    32  gd32f1x0_rcu.o(.text)
    rcu_bkp_reset_enable                     0x0800354d   Thumb Code    18  gd32f1x0_rcu.o(.text)
    rcu_bkp_reset_disable                    0x08003561   Thumb Code    18  gd32f1x0_rcu.o(.text)
    rcu_system_clock_source_config           0x08003575   Thumb Code    20  gd32f1x0_rcu.o(.text)
    rcu_system_clock_source_get              0x08003589   Thumb Code    16  gd32f1x0_rcu.o(.text)
    rcu_ahb_clock_config                     0x08003599   Thumb Code    20  gd32f1x0_rcu.o(.text)
    rcu_apb1_clock_config                    0x080035ad   Thumb Code    20  gd32f1x0_rcu.o(.text)
    rcu_apb2_clock_config                    0x080035c1   Thumb Code    20  gd32f1x0_rcu.o(.text)
    rcu_adc_clock_config                     0x080035d5   Thumb Code    88  gd32f1x0_rcu.o(.text)
    rcu_usbd_clock_config                    0x0800362d   Thumb Code    24  gd32f1x0_rcu.o(.text)
    rcu_ckout_config                         0x08003645   Thumb Code    22  gd32f1x0_rcu.o(.text)
    rcu_pll_config                           0x0800365d   Thumb Code    36  gd32f1x0_rcu.o(.text)
    rcu_usart_clock_config                   0x08003681   Thumb Code    24  gd32f1x0_rcu.o(.text)
    rcu_cec_clock_config                     0x08003699   Thumb Code    24  gd32f1x0_rcu.o(.text)
    rcu_rtc_clock_config                     0x080036b1   Thumb Code    24  gd32f1x0_rcu.o(.text)
    rcu_hxtal_prediv_config                  0x080036c9   Thumb Code    20  gd32f1x0_rcu.o(.text)
    rcu_lxtal_drive_capability_config        0x080036dd   Thumb Code    24  gd32f1x0_rcu.o(.text)
    rcu_flag_get                             0x080036f5   Thumb Code    26  gd32f1x0_rcu.o(.text)
    rcu_all_reset_flag_clear                 0x08003711   Thumb Code    18  gd32f1x0_rcu.o(.text)
    rcu_interrupt_flag_get                   0x08003725   Thumb Code    18  gd32f1x0_rcu.o(.text)
    rcu_interrupt_flag_clear                 0x08003739   Thumb Code    16  gd32f1x0_rcu.o(.text)
    rcu_interrupt_enable                     0x08003749   Thumb Code    16  gd32f1x0_rcu.o(.text)
    rcu_interrupt_disable                    0x08003759   Thumb Code    18  gd32f1x0_rcu.o(.text)
    rcu_osci_stab_wait                       0x0800376d   Thumb Code   324  gd32f1x0_rcu.o(.text)
    rcu_osci_on                              0x080038b1   Thumb Code    30  gd32f1x0_rcu.o(.text)
    rcu_osci_off                             0x080038d1   Thumb Code    32  gd32f1x0_rcu.o(.text)
    rcu_osci_bypass_mode_enable              0x080038f1   Thumb Code    64  gd32f1x0_rcu.o(.text)
    rcu_osci_bypass_mode_disable             0x08003931   Thumb Code    64  gd32f1x0_rcu.o(.text)
    rcu_hxtal_clock_monitor_enable           0x08003971   Thumb Code    18  gd32f1x0_rcu.o(.text)
    rcu_hxtal_clock_monitor_disable          0x08003985   Thumb Code    18  gd32f1x0_rcu.o(.text)
    rcu_irc8m_adjust_value_set               0x08003999   Thumb Code    22  gd32f1x0_rcu.o(.text)
    rcu_irc14m_adjust_value_set              0x080039b1   Thumb Code    22  gd32f1x0_rcu.o(.text)
    rcu_voltage_key_unlock                   0x080039c9   Thumb Code    30  gd32f1x0_rcu.o(.text)
    rcu_deepsleep_voltage_set                0x080039e9   Thumb Code    24  gd32f1x0_rcu.o(.text)
    rcu_power_down_voltage_set               0x08003a01   Thumb Code    24  gd32f1x0_rcu.o(.text)
    rcu_clock_freq_get                       0x08003a19   Thumb Code   292  gd32f1x0_rcu.o(.text)
    timer_deinit                             0x08003b4d   Thumb Code   194  gd32f1x0_timer.o(.text)
    timer_struct_para_init                   0x08003c11   Thumb Code    16  gd32f1x0_timer.o(.text)
    timer_init                               0x08003c21   Thumb Code   212  gd32f1x0_timer.o(.text)
    timer_enable                             0x08003cf5   Thumb Code    10  gd32f1x0_timer.o(.text)
    timer_disable                            0x08003d01   Thumb Code    10  gd32f1x0_timer.o(.text)
    timer_auto_reload_shadow_enable          0x08003d0d   Thumb Code    10  gd32f1x0_timer.o(.text)
    timer_auto_reload_shadow_disable         0x08003d19   Thumb Code    10  gd32f1x0_timer.o(.text)
    timer_update_event_enable                0x08003d25   Thumb Code    10  gd32f1x0_timer.o(.text)
    timer_update_event_disable               0x08003d31   Thumb Code    10  gd32f1x0_timer.o(.text)
    timer_counter_alignment                  0x08003d3d   Thumb Code    16  gd32f1x0_timer.o(.text)
    timer_counter_up_direction               0x08003d4d   Thumb Code    10  gd32f1x0_timer.o(.text)
    timer_counter_down_direction             0x08003d59   Thumb Code    10  gd32f1x0_timer.o(.text)
    timer_prescaler_config                   0x08003d65   Thumb Code    18  gd32f1x0_timer.o(.text)
    timer_repetition_value_config            0x08003d79   Thumb Code     4  gd32f1x0_timer.o(.text)
    timer_autoreload_value_config            0x08003d7d   Thumb Code     4  gd32f1x0_timer.o(.text)
    timer_counter_value_config               0x08003d81   Thumb Code     4  gd32f1x0_timer.o(.text)
    timer_counter_read                       0x08003d85   Thumb Code     4  gd32f1x0_timer.o(.text)
    timer_prescaler_read                     0x08003d89   Thumb Code     6  gd32f1x0_timer.o(.text)
    timer_single_pulse_mode_config           0x08003d91   Thumb Code    30  gd32f1x0_timer.o(.text)
    timer_update_source_config               0x08003db1   Thumb Code    30  gd32f1x0_timer.o(.text)
    timer_ocpre_clear_source_config          0x08003dd1   Thumb Code    28  gd32f1x0_timer.o(.text)
    timer_interrupt_enable                   0x08003ded   Thumb Code     8  gd32f1x0_timer.o(.text)
    timer_interrupt_disable                  0x08003df5   Thumb Code    10  gd32f1x0_timer.o(.text)
    timer_interrupt_flag_get                 0x08003e01   Thumb Code    22  gd32f1x0_timer.o(.text)
    timer_interrupt_flag_clear               0x08003e19   Thumb Code     6  gd32f1x0_timer.o(.text)
    timer_flag_get                           0x08003e21   Thumb Code    10  gd32f1x0_timer.o(.text)
    timer_flag_clear                         0x08003e2d   Thumb Code     6  gd32f1x0_timer.o(.text)
    timer_dma_enable                         0x08003e35   Thumb Code     8  gd32f1x0_timer.o(.text)
    timer_dma_disable                        0x08003e3d   Thumb Code    10  gd32f1x0_timer.o(.text)
    timer_channel_dma_request_source_select  0x08003e49   Thumb Code    30  gd32f1x0_timer.o(.text)
    timer_dma_transfer_config                0x08003e69   Thumb Code    24  gd32f1x0_timer.o(.text)
    timer_event_software_generate            0x08003e81   Thumb Code     8  gd32f1x0_timer.o(.text)
    timer_break_struct_para_init             0x08003e89   Thumb Code    16  gd32f1x0_timer.o(.text)
    timer_break_config                       0x08003e99   Thumb Code    36  gd32f1x0_timer.o(.text)
    timer_break_enable                       0x08003ebd   Thumb Code    10  gd32f1x0_timer.o(.text)
    timer_break_disable                      0x08003ec9   Thumb Code    10  gd32f1x0_timer.o(.text)
    timer_automatic_output_enable            0x08003ed5   Thumb Code    10  gd32f1x0_timer.o(.text)
    timer_automatic_output_disable           0x08003ee1   Thumb Code    10  gd32f1x0_timer.o(.text)
    timer_primary_output_config              0x08003eed   Thumb Code    18  gd32f1x0_timer.o(.text)
    timer_channel_control_shadow_config      0x08003f01   Thumb Code    16  gd32f1x0_timer.o(.text)
    timer_channel_control_shadow_update_config 0x08003f11   Thumb Code    30  gd32f1x0_timer.o(.text)
    timer_channel_output_struct_para_init    0x08003f31   Thumb Code    12  gd32f1x0_timer.o(.text)
    timer_channel_output_config              0x08003f3d   Thumb Code   550  gd32f1x0_timer.o(.text)
    timer_channel_output_mode_config         0x08004165   Thumb Code    58  gd32f1x0_timer.o(.text)
    timer_channel_output_pulse_value_config  0x080041a1   Thumb Code    12  gd32f1x0_timer.o(.text)
    timer_channel_output_shadow_config       0x080041ad   Thumb Code    58  gd32f1x0_timer.o(.text)
    timer_channel_output_fast_config         0x080041e9   Thumb Code    58  gd32f1x0_timer.o(.text)
    timer_channel_output_clear_config        0x08004225   Thumb Code    58  gd32f1x0_timer.o(.text)
    timer_channel_output_polarity_config     0x08004261   Thumb Code    74  gd32f1x0_timer.o(.text)
    timer_channel_complementary_output_polarity_config 0x080042ad   Thumb Code    74  gd32f1x0_timer.o(.text)
    timer_channel_output_state_config        0x080042f9   Thumb Code    74  gd32f1x0_timer.o(.text)
    timer_channel_complementary_output_state_config 0x08004345   Thumb Code    60  gd32f1x0_timer.o(.text)
    timer_channel_input_struct_para_init     0x08004381   Thumb Code    12  gd32f1x0_timer.o(.text)
    timer_input_capture_config               0x0800438d   Thumb Code   346  gd32f1x0_timer.o(.text)
    timer_channel_input_capture_prescaler_config 0x080044e9   Thumb Code    58  gd32f1x0_timer.o(.text)
    timer_channel_capture_value_register_read 0x08004525   Thumb Code    14  gd32f1x0_timer.o(.text)
    timer_input_pwm_capture_config           0x08004535   Thumb Code   356  gd32f1x0_timer.o(.text)
    timer_hall_mode_config                   0x08004699   Thumb Code    30  gd32f1x0_timer.o(.text)
    timer_input_trigger_source_select        0x080046b9   Thumb Code    16  gd32f1x0_timer.o(.text)
    timer_master_output_trigger_source_select 0x080046c9   Thumb Code    16  gd32f1x0_timer.o(.text)
    timer_slave_mode_select                  0x080046d9   Thumb Code    16  gd32f1x0_timer.o(.text)
    timer_master_slave_mode_config           0x080046e9   Thumb Code    30  gd32f1x0_timer.o(.text)
    timer_external_trigger_config            0x08004709   Thumb Code    34  gd32f1x0_timer.o(.text)
    timer_quadrature_decoder_mode_config     0x0800472d   Thumb Code    78  gd32f1x0_timer.o(.text)
    timer_internal_clock_config              0x0800477d   Thumb Code    10  gd32f1x0_timer.o(.text)
    timer_internal_trigger_as_external_clock_config 0x08004789   Thumb Code    32  gd32f1x0_timer.o(.text)
    timer_external_trigger_as_external_clock_config 0x080047a9   Thumb Code   148  gd32f1x0_timer.o(.text)
    timer_external_clock_mode0_config        0x0800483d   Thumb Code    50  gd32f1x0_timer.o(.text)
    timer_external_clock_mode1_config        0x08004871   Thumb Code    42  gd32f1x0_timer.o(.text)
    timer_external_clock_mode1_disable       0x0800489d   Thumb Code    10  gd32f1x0_timer.o(.text)
    timer_channel_remap_config               0x080048a9   Thumb Code     4  gd32f1x0_timer.o(.text)
    usart_deinit                             0x080048ad   Thumb Code    54  gd32f1x0_usart.o(.text)
    usart_baudrate_set                       0x080048e5   Thumb Code    90  gd32f1x0_usart.o(.text)
    usart_parity_config                      0x08004941   Thumb Code    24  gd32f1x0_usart.o(.text)
    usart_word_length_set                    0x08004959   Thumb Code    24  gd32f1x0_usart.o(.text)
    usart_stop_bit_set                       0x08004971   Thumb Code    24  gd32f1x0_usart.o(.text)
    usart_enable                             0x08004989   Thumb Code    10  gd32f1x0_usart.o(.text)
    usart_disable                            0x08004995   Thumb Code    10  gd32f1x0_usart.o(.text)
    usart_transmit_config                    0x080049a1   Thumb Code    16  gd32f1x0_usart.o(.text)
    usart_receive_config                     0x080049b1   Thumb Code    16  gd32f1x0_usart.o(.text)
    usart_data_transmit                      0x080049c1   Thumb Code     8  gd32f1x0_usart.o(.text)
    usart_data_receive                       0x080049c9   Thumb Code     8  gd32f1x0_usart.o(.text)
    usart_data_first_config                  0x080049d1   Thumb Code    28  gd32f1x0_usart.o(.text)
    usart_invert_config                      0x080049ed   Thumb Code   106  gd32f1x0_usart.o(.text)
    usart_overrun_enable                     0x08004a59   Thumb Code    18  gd32f1x0_usart.o(.text)
    usart_overrun_disable                    0x08004a6d   Thumb Code    18  gd32f1x0_usart.o(.text)
    usart_oversample_config                  0x08004a81   Thumb Code    24  gd32f1x0_usart.o(.text)
    usart_sample_bit_config                  0x08004a99   Thumb Code    24  gd32f1x0_usart.o(.text)
    usart_autobaud_detection_enable          0x08004ab1   Thumb Code    10  gd32f1x0_usart.o(.text)
    usart_autobaud_detection_disable         0x08004abd   Thumb Code    10  gd32f1x0_usart.o(.text)
    usart_autobaud_detection_mode_config     0x08004ac9   Thumb Code    16  gd32f1x0_usart.o(.text)
    usart_mute_mode_enable                   0x08004ad9   Thumb Code    10  gd32f1x0_usart.o(.text)
    usart_mute_mode_disable                  0x08004ae5   Thumb Code    10  gd32f1x0_usart.o(.text)
    usart_mute_mode_wakeup_config            0x08004af1   Thumb Code    24  gd32f1x0_usart.o(.text)
    usart_address_detection_mode_config      0x08004b09   Thumb Code    28  gd32f1x0_usart.o(.text)
    usart_address_config                     0x08004b25   Thumb Code    26  gd32f1x0_usart.o(.text)
    usart_receiver_timeout_enable            0x08004b41   Thumb Code    10  gd32f1x0_usart.o(.text)
    usart_receiver_timeout_disable           0x08004b4d   Thumb Code    10  gd32f1x0_usart.o(.text)
    usart_receiver_timeout_config            0x08004b59   Thumb Code    16  gd32f1x0_usart.o(.text)
    usart_lin_mode_enable                    0x08004b69   Thumb Code    18  gd32f1x0_usart.o(.text)
    usart_lin_mode_disable                   0x08004b7d   Thumb Code    18  gd32f1x0_usart.o(.text)
    usart_lin_break_detection_length_config  0x08004b91   Thumb Code    20  gd32f1x0_usart.o(.text)
    usart_halfduplex_enable                  0x08004ba5   Thumb Code    18  gd32f1x0_usart.o(.text)
    usart_halfduplex_disable                 0x08004bb9   Thumb Code    18  gd32f1x0_usart.o(.text)
    usart_clock_enable                       0x08004bcd   Thumb Code    18  gd32f1x0_usart.o(.text)
    usart_clock_disable                      0x08004be1   Thumb Code    18  gd32f1x0_usart.o(.text)
    usart_synchronous_clock_config           0x08004bf5   Thumb Code    60  gd32f1x0_usart.o(.text)
    usart_smartcard_mode_enable              0x08004c31   Thumb Code    18  gd32f1x0_usart.o(.text)
    usart_smartcard_mode_disable             0x08004c45   Thumb Code    18  gd32f1x0_usart.o(.text)
    usart_smartcard_mode_nack_enable         0x08004c59   Thumb Code    18  gd32f1x0_usart.o(.text)
    usart_smartcard_mode_nack_disable        0x08004c6d   Thumb Code    18  gd32f1x0_usart.o(.text)
    usart_guard_time_config                  0x08004c81   Thumb Code    28  gd32f1x0_usart.o(.text)
    usart_block_length_config                0x08004c9d   Thumb Code    18  gd32f1x0_usart.o(.text)
    usart_smartcard_autoretry_config         0x08004cb1   Thumb Code    30  gd32f1x0_usart.o(.text)
    usart_irda_mode_enable                   0x08004cd1   Thumb Code    18  gd32f1x0_usart.o(.text)
    usart_irda_mode_disable                  0x08004ce5   Thumb Code    18  gd32f1x0_usart.o(.text)
    usart_irda_lowpower_config               0x08004cf9   Thumb Code    20  gd32f1x0_usart.o(.text)
    usart_prescaler_config                   0x08004d0d   Thumb Code    24  gd32f1x0_usart.o(.text)
    usart_hardware_flow_rts_config           0x08004d25   Thumb Code    24  gd32f1x0_usart.o(.text)
    usart_hardware_flow_cts_config           0x08004d3d   Thumb Code    24  gd32f1x0_usart.o(.text)
    usart_rs485_driver_enable                0x08004d55   Thumb Code    18  gd32f1x0_usart.o(.text)
    usart_rs485_driver_disable               0x08004d69   Thumb Code    18  gd32f1x0_usart.o(.text)
    usart_driver_assertime_config            0x08004d7d   Thumb Code    30  gd32f1x0_usart.o(.text)
    usart_driver_deassertime_config          0x08004d9d   Thumb Code    30  gd32f1x0_usart.o(.text)
    usart_depolarity_config                  0x08004dbd   Thumb Code    28  gd32f1x0_usart.o(.text)
    usart_dma_receive_config                 0x08004dd9   Thumb Code    16  gd32f1x0_usart.o(.text)
    usart_dma_transmit_config                0x08004de9   Thumb Code    16  gd32f1x0_usart.o(.text)
    usart_reception_error_dma_disable        0x08004df9   Thumb Code    18  gd32f1x0_usart.o(.text)
    usart_reception_error_dma_enable         0x08004e0d   Thumb Code    18  gd32f1x0_usart.o(.text)
    usart_wakeup_enable                      0x08004e21   Thumb Code    10  gd32f1x0_usart.o(.text)
    usart_wakeup_disable                     0x08004e2d   Thumb Code    10  gd32f1x0_usart.o(.text)
    usart_wakeup_mode_config                 0x08004e39   Thumb Code    28  gd32f1x0_usart.o(.text)
    usart_flag_get                           0x08004e55   Thumb Code    16  gd32f1x0_usart.o(.text)
    usart_flag_clear                         0x08004e65   Thumb Code    18  gd32f1x0_usart.o(.text)
    usart_interrupt_enable                   0x08004e79   Thumb Code    24  gd32f1x0_usart.o(.text)
    usart_interrupt_disable                  0x08004e91   Thumb Code    26  gd32f1x0_usart.o(.text)
    usart_command_enable                     0x08004ead   Thumb Code     8  gd32f1x0_usart.o(.text)
    usart_interrupt_flag_get                 0x08004eb5   Thumb Code    34  gd32f1x0_usart.o(.text)
    usart_interrupt_flag_clear               0x08004ed9   Thumb Code    18  gd32f1x0_usart.o(.text)
    Reset_Handler                            0x08004eed   Thumb Code     8  startup_gd32f1x0.o(.text)
    ADC_CMP_IRQHandler                       0x08004f07   Thumb Code     0  startup_gd32f1x0.o(.text)
    CAN0_RX0_IRQHandler                      0x08004f07   Thumb Code     0  startup_gd32f1x0.o(.text)
    CAN0_RX1_IRQHandler                      0x08004f07   Thumb Code     0  startup_gd32f1x0.o(.text)
    CAN0_SCE_IRQHandler                      0x08004f07   Thumb Code     0  startup_gd32f1x0.o(.text)
    CAN0_TX_IRQHandler                       0x08004f07   Thumb Code     0  startup_gd32f1x0.o(.text)
    CAN1_RX0_IRQHandler                      0x08004f07   Thumb Code     0  startup_gd32f1x0.o(.text)
    CAN1_RX1_IRQHandler                      0x08004f07   Thumb Code     0  startup_gd32f1x0.o(.text)
    CAN1_SCE_IRQHandler                      0x08004f07   Thumb Code     0  startup_gd32f1x0.o(.text)
    CAN1_TX_IRQHandler                       0x08004f07   Thumb Code     0  startup_gd32f1x0.o(.text)
    CEC_IRQHandler                           0x08004f07   Thumb Code     0  startup_gd32f1x0.o(.text)
    DMA_Channel3_4_IRQHandler                0x08004f07   Thumb Code     0  startup_gd32f1x0.o(.text)
    DMA_Channel5_6_IRQHandler                0x08004f07   Thumb Code     0  startup_gd32f1x0.o(.text)
    EXTI0_1_IRQHandler                       0x08004f07   Thumb Code     0  startup_gd32f1x0.o(.text)
    EXTI2_3_IRQHandler                       0x08004f07   Thumb Code     0  startup_gd32f1x0.o(.text)
    EXTI4_15_IRQHandler                      0x08004f07   Thumb Code     0  startup_gd32f1x0.o(.text)
    FMC_IRQHandler                           0x08004f07   Thumb Code     0  startup_gd32f1x0.o(.text)
    I2C0_ER_IRQHandler                       0x08004f07   Thumb Code     0  startup_gd32f1x0.o(.text)
    I2C0_EV_IRQHandler                       0x08004f07   Thumb Code     0  startup_gd32f1x0.o(.text)
    I2C1_ER_IRQHandler                       0x08004f07   Thumb Code     0  startup_gd32f1x0.o(.text)
    I2C1_EV_IRQHandler                       0x08004f07   Thumb Code     0  startup_gd32f1x0.o(.text)
    I2C2_ER_IRQHandler                       0x08004f07   Thumb Code     0  startup_gd32f1x0.o(.text)
    I2C2_EV_IRQHandler                       0x08004f07   Thumb Code     0  startup_gd32f1x0.o(.text)
    LVD_IRQHandler                           0x08004f07   Thumb Code     0  startup_gd32f1x0.o(.text)
    RCU_IRQHandler                           0x08004f07   Thumb Code     0  startup_gd32f1x0.o(.text)
    RTC_IRQHandler                           0x08004f07   Thumb Code     0  startup_gd32f1x0.o(.text)
    SLCD_IRQHandler                          0x08004f07   Thumb Code     0  startup_gd32f1x0.o(.text)
    SPI0_IRQHandler                          0x08004f07   Thumb Code     0  startup_gd32f1x0.o(.text)
    SPI1_IRQHandler                          0x08004f07   Thumb Code     0  startup_gd32f1x0.o(.text)
    SPI2_IRQHandler                          0x08004f07   Thumb Code     0  startup_gd32f1x0.o(.text)
    TIMER0_Channel_IRQHandler                0x08004f07   Thumb Code     0  startup_gd32f1x0.o(.text)
    TIMER14_IRQHandler                       0x08004f07   Thumb Code     0  startup_gd32f1x0.o(.text)
    TIMER15_IRQHandler                       0x08004f07   Thumb Code     0  startup_gd32f1x0.o(.text)
    TIMER16_IRQHandler                       0x08004f07   Thumb Code     0  startup_gd32f1x0.o(.text)
    TIMER1_IRQHandler                        0x08004f07   Thumb Code     0  startup_gd32f1x0.o(.text)
    TIMER2_IRQHandler                        0x08004f07   Thumb Code     0  startup_gd32f1x0.o(.text)
    TIMER5_DAC_IRQHandler                    0x08004f07   Thumb Code     0  startup_gd32f1x0.o(.text)
    TSI_IRQHandler                           0x08004f07   Thumb Code     0  startup_gd32f1x0.o(.text)
    USART0_IRQHandler                        0x08004f07   Thumb Code     0  startup_gd32f1x0.o(.text)
    USART1_IRQHandler                        0x08004f07   Thumb Code     0  startup_gd32f1x0.o(.text)
    USBDWakeUp_IRQHandler                    0x08004f07   Thumb Code     0  startup_gd32f1x0.o(.text)
    USBD_HP_IRQHandler                       0x08004f07   Thumb Code     0  startup_gd32f1x0.o(.text)
    USBD_LP_IRQHandler                       0x08004f07   Thumb Code     0  startup_gd32f1x0.o(.text)
    WWDGT_IRQHandler                         0x08004f07   Thumb Code     0  startup_gd32f1x0.o(.text)
    SystemInit                               0x08004f11   Thumb Code   188  system_gd32f1x0.o(.text)
    SystemCoreClockUpdate                    0x08004fcd   Thumb Code   112  system_gd32f1x0.o(.text)
    __aeabi_fadd                             0x0800504d   Thumb Code   164  fadd.o(.text)
    __aeabi_fsub                             0x080050f1   Thumb Code     6  fadd.o(.text)
    __aeabi_frsub                            0x080050f7   Thumb Code     6  fadd.o(.text)
    __aeabi_fmul                             0x080050fd   Thumb Code   100  fmul.o(.text)
    __aeabi_fdiv                             0x08005161   Thumb Code   124  fdiv.o(.text)
    __aeabi_dadd                             0x080051dd   Thumb Code   322  dadd.o(.text)
    __aeabi_dsub                             0x0800531f   Thumb Code     6  dadd.o(.text)
    __aeabi_drsub                            0x08005325   Thumb Code     6  dadd.o(.text)
    __aeabi_dmul                             0x0800532b   Thumb Code   228  dmul.o(.text)
    __aeabi_ddiv                             0x0800540f   Thumb Code   222  ddiv.o(.text)
    __aeabi_fcmple                           0x080054ed   Thumb Code    28  fcmple.o(.text)
    __aeabi_fcmplt                           0x08005509   Thumb Code    28  fcmplt.o(.text)
    __aeabi_fcmpgt                           0x08005525   Thumb Code    28  fcmpgt.o(.text)
    __aeabi_dcmple                           0x08005541   Thumb Code    54  dcmple.o(.text)
    __aeabi_i2f                              0x08005577   Thumb Code    18  fflti.o(.text)
    __aeabi_ui2f                             0x08005589   Thumb Code    10  ffltui.o(.text)
    __aeabi_i2d                              0x08005593   Thumb Code    34  dflti.o(.text)
    __aeabi_ui2d                             0x080055b5   Thumb Code    26  dfltui.o(.text)
    __aeabi_f2iz                             0x080055cf   Thumb Code    50  ffixi.o(.text)
    __aeabi_d2iz                             0x08005601   Thumb Code    62  dfixi.o(.text)
    __aeabi_f2d                              0x0800563f   Thumb Code    38  f2d.o(.text)
    __aeabi_d2f                              0x08005665   Thumb Code    56  d2f.o(.text)
    __aeabi_llsl                             0x0800569d   Thumb Code    30  llshl.o(.text)
    _ll_shift_l                              0x0800569d   Thumb Code     0  llshl.o(.text)
    __aeabi_llsr                             0x080056bb   Thumb Code    32  llushr.o(.text)
    _ll_ushift_r                             0x080056bb   Thumb Code     0  llushr.o(.text)
    __aeabi_lasr                             0x080056db   Thumb Code    36  llsshr.o(.text)
    _ll_sshift_r                             0x080056db   Thumb Code     0  llsshr.o(.text)
    __I$use$fp                               0x080056ff   Thumb Code     0  iusefp.o(.text)
    _float_round                             0x080056ff   Thumb Code    18  fepilogue.o(.text)
    _float_epilogue                          0x08005711   Thumb Code    92  fepilogue.o(.text)
    _double_round                            0x0800576d   Thumb Code    30  depilogue.o(.text)
    _double_epilogue                         0x0800578b   Thumb Code   156  depilogue.o(.text)
    __scatterload                            0x08005829   Thumb Code    28  init.o(.text)
    __scatterload_rt2                        0x08005829   Thumb Code     0  init.o(.text)
    __scatterload_copy                       0x0800584d   Thumb Code    14  handlers.o(i.__scatterload_copy)
    __scatterload_null                       0x0800585b   Thumb Code     2  handlers.o(i.__scatterload_null)
    __scatterload_zeroinit                   0x0800585d   Thumb Code    14  handlers.o(i.__scatterload_zeroinit)
    hall_to_pos                              0x0800588a   Data           8  bldc.o(.rodata.hall_to_pos)
    lookUpTableAngle                         0x08005894   Data         724  main.o(.rodata.lookUpTableAngle)
    Region$$Table$$Base                      0x08005b68   Number         0  anon$$obj.o(Region$$Table)
    Region$$Table$$Limit                     0x08005b88   Number         0  anon$$obj.o(Region$$Table)
    SystemCoreClock                          0x20000000   Data           4  system_gd32f1x0.o(.data.SystemCoreClock)
    batteryVoltage                           0x20000004   Data           4  bldc.o(.data.batteryVoltage)
    beepsBackwards                           0x20000008   Data           1  main.o(.data.beepsBackwards)
    currentDC                                0x2000000c   Data           4  bldc.o(.data.currentDC)
    iFILTER_SHIFT                            0x20000010   Data           1  bldc.o(.data.iFILTER_SHIFT)
    offsetdc                                 0x20000012   Data           2  bldc.o(.data.offsetdc)
    speedLimit                               0x20000014   Data           2  main.o(.data.speedLimit)
    wState                                   0x20000016   Data           1  main.o(.data.wState)
    wStateSlave                              0x20000017   Data           1  main.o(.data.wStateSlave)
    adc_buffer                               0x20000118   Data           4  bldc.o(.bss.adc_buffer)
    bldc_enable                              0x2000011c   Data           1  bldc.o(.bss.bldc_enable)
    bldc_inputFilterPwm                      0x2000011e   Data           2  bldc.o(.bss.bldc_inputFilterPwm)
    bldc_outputFilterPwm                     0x20000120   Data           2  bldc.o(.bss.bldc_outputFilterPwm)
    buzzerFreq                               0x20000122   Data           1  bldc.o(.bss.buzzerFreq)
    buzzerPattern                            0x20000123   Data           1  bldc.o(.bss.buzzerPattern)
    buzzerTimer                              0x20000124   Data           2  bldc.o(.bss.buzzerTimer)
    buzzerToggle                             0x20000126   Data           1  bldc.o(.bss.buzzerToggle)
    dma_init_struct_adc                      0x20000128   Data          36  setup.o(.bss.dma_init_struct_adc)
    dma_init_struct_usart                    0x2000014c   Data          36  setup.o(.bss.dma_init_struct_usart)
    enable                                   0x20000170   Data           1  main.o(.bss.enable)
    filter_reg                               0x20000174   Data           4  bldc.o(.bss.filter_reg)
    hall                                     0x20000178   Data           1  bldc.o(.bss.hall)
    hall_a                                   0x20000179   Data           1  bldc.o(.bss.hall_a)
    hall_b                                   0x2000017a   Data           1  bldc.o(.bss.hall_b)
    hall_c                                   0x2000017b   Data           1  bldc.o(.bss.hall_c)
    iAdcCounter                              0x2000017c   Data           4  it.o(.bss.iAdcCounter)
    iAdcTicks                                0x20000180   Data           4  it.o(.bss.iAdcTicks)
    iAdcTicks0                               0x20000184   Data           4  it.o(.bss.iAdcTicks0)
    iAnswerMaster                            0x20000188   Data           4  remoteuartbus.o(.bss.iAnswerMaster)
    iBug                                     0x2000018c   Data           4  main.o(.bss.iBug)
    iCounter2Usart0                          0x20000190   Data           4  it.o(.bss.iCounter2Usart0)
    iCounterUsart0                           0x20000194   Data           4  it.o(.bss.iCounterUsart0)
    iOdom                                    0x20000198   Data           4  bldc.o(.bss.iOdom)
    iPwmCounter                              0x2000019c   Data           4  it.o(.bss.iPwmCounter)
    iPwmTicks                                0x200001a0   Data           4  it.o(.bss.iPwmTicks)
    iPwmTicks0                               0x200001a4   Data           4  it.o(.bss.iPwmTicks0)
    iRxDataSize                              0x200001aa   Data           1  remoteuartbus.o(.bss.iRxDataSize)
    iRxDataType                              0x200001ab   Data           1  remoteuartbus.o(.bss.iRxDataType)
    iTimeLastRx                              0x200001ac   Data           4  remoteuartbus.o(.bss.iTimeLastRx)
    iTimeNextLoop                            0x200001b0   Data           4  main.o(.bss.iTimeNextLoop)
    inactivity_timeout_counter               0x200001b4   Data           4  main.o(.bss.inactivity_timeout_counter)
    lastPos                                  0x200001b8   Data           1  bldc.o(.bss.lastPos)
    msTicks                                  0x200001bc   Data           4  it.o(.bss.msTicks)
    oConfig                                  0x200001c0   Data          18  setup.o(.bss.oConfig)
    offsetcount                              0x200001d2   Data           2  bldc.o(.bss.offsetcount)
    pos                                      0x200001d4   Data           1  bldc.o(.bss.pos)
    pwmSlave                                 0x200001d6   Data           2  main.o(.bss.pwmSlave)
    realSpeed                                0x200001d8   Data           4  bldc.o(.bss.realSpeed)
    speed                                    0x200001dc   Data           4  main.o(.bss.speed)
    speedCounter                             0x200001e0   Data           4  bldc.o(.bss.speedCounter)
    speedShutoff                             0x200001e4   Data           4  main.o(.bss.speedShutoff)
    steer                                    0x200001e8   Data           4  main.o(.bss.steer)
    steerCounter                             0x200001ec   Data           4  main.o(.bss.steerCounter)
    timedOut                                 0x200001f0   Data           1  it.o(.bss.timedOut)
    timeoutCounter_ms                        0x200001f4   Data           4  it.o(.bss.timeoutCounter_ms)
    timeoutTimer_paramter_struct             0x200001f8   Data          16  setup.o(.bss.timeoutTimer_paramter_struct)
    timerBldc_break_parameter_struct         0x20000208   Data          24  setup.o(.bss.timerBldc_break_parameter_struct)
    timerBldc_oc_parameter_struct            0x20000220   Data          16  setup.o(.bss.timerBldc_oc_parameter_struct)
    timerBldc_paramter_struct                0x20000230   Data          16  setup.o(.bss.timerBldc_paramter_struct)
    usart0_rx_buf                            0x20000240   Data           1  setup.o(.bss.usart0_rx_buf)
    __initial_sp                             0x20000648   Data           0  startup_gd32f1x0.o(STACK)



==============================================================================

Memory Map of the image

  Image Entry point : 0x08000169

  Load Region LR_IROM1 (Base: 0x08000000, Size: 0x00005ba0, Max: 0x00010000, ABSOLUTE)

    Execution Region ER_IROM1 (Exec base: 0x08000000, Load base: 0x08000000, Size: 0x00005b88, Max: 0x00010000, ABSOLUTE)

    Exec Addr    Load Addr    Size         Type   Attr      Idx    E Section Name        Object

    0x08000000   0x08000000   0x00000168   Data   RO          276    RESET               startup_gd32f1x0.o
    0x08000168   0x08000168   0x00000000   Code   RO          293  * .ARM.Collect$$$$00000000  mc_w.l(entry.o)
    0x08000168   0x08000168   0x00000004   Code   RO          332    .ARM.Collect$$$$00000001  mc_w.l(entry2.o)
    0x0800016c   0x0800016c   0x00000004   Code   RO          335    .ARM.Collect$$$$00000004  mc_w.l(entry5.o)
    0x08000170   0x08000170   0x00000000   Code   RO          337    .ARM.Collect$$$$00000008  mc_w.l(entry7b.o)
    0x08000170   0x08000170   0x00000000   Code   RO          339    .ARM.Collect$$$$0000000A  mc_w.l(entry8b.o)
    0x08000170   0x08000170   0x00000008   Code   RO          340    .ARM.Collect$$$$0000000B  mc_w.l(entry9a.o)
    0x08000178   0x08000178   0x00000000   Code   RO          342    .ARM.Collect$$$$0000000D  mc_w.l(entry10a.o)
    0x08000178   0x08000178   0x00000000   Code   RO          344    .ARM.Collect$$$$0000000F  mc_w.l(entry11a.o)
    0x08000178   0x08000178   0x00000004   Code   RO          333    .ARM.Collect$$$$00002712  mc_w.l(entry2.o)
    0x0800017c   0x0800017c   0x000007e8   Code   RO            1    .text               main.o
    0x08000964   0x08000964   0x00000508   Code   RO           27    .text               bldc.o
    0x08000e6c   0x08000e6c   0x0000006e   Code   RO           61    .text               bldcbc.o
    0x08000eda   0x08000eda   0x00000002   PAD
    0x08000edc   0x08000edc   0x00000a1c   Code   RO           70    .text               setup.o
    0x080018f8   0x080018f8   0x000001a6   Code   RO           89    .text               it.o
    0x08001a9e   0x08001a9e   0x00000002   PAD
    0x08001aa0   0x08001aa0   0x0000006c   Code   RO          111    .text               comms.o
    0x08001b0c   0x08001b0c   0x000002a2   Code   RO          122    .text               remoteuartbus.o
    0x08001dae   0x08001dae   0x00000002   PAD
    0x08001db0   0x08001db0   0x000005a6   Code   RO          145    .text               gd32f1x0_adc.o
    0x08002356   0x08002356   0x00000002   PAD
    0x08002358   0x08002358   0x0000034c   Code   RO          161    .text               gd32f1x0_dma.o
    0x080026a4   0x080026a4   0x000009d4   Code   RO          177    .text               gd32f1x0_fmc.o
    0x08003078   0x08003078   0x000000da   Code   RO          186    .text               gd32f1x0_fwdgt.o
    0x08003152   0x08003152   0x00000002   PAD
    0x08003154   0x08003154   0x00000198   Code   RO          194    .text               gd32f1x0_gpio.o
    0x080032ec   0x080032ec   0x00000130   Code   RO          211    .text               gd32f1x0_misc.o
    0x0800341c   0x0800341c   0x00000730   Code   RO          232    .text               gd32f1x0_rcu.o
    0x08003b4c   0x08003b4c   0x00000d60   Code   RO          249    .text               gd32f1x0_timer.o
    0x080048ac   0x080048ac   0x0000063e   Code   RO          258    .text               gd32f1x0_usart.o
    0x08004eea   0x08004eea   0x00000002   PAD
    0x08004eec   0x08004eec   0x00000024   Code   RO          277    .text               startup_gd32f1x0.o
    0x08004f10   0x08004f10   0x0000013c   Code   RO          283    .text               system_gd32f1x0.o
    0x0800504c   0x0800504c   0x000000b0   Code   RO          296    .text               mf_w.l(fadd.o)
    0x080050fc   0x080050fc   0x00000064   Code   RO          298    .text               mf_w.l(fmul.o)
    0x08005160   0x08005160   0x0000007c   Code   RO          300    .text               mf_w.l(fdiv.o)
    0x080051dc   0x080051dc   0x0000014e   Code   RO          302    .text               mf_w.l(dadd.o)
    0x0800532a   0x0800532a   0x000000e4   Code   RO          304    .text               mf_w.l(dmul.o)
    0x0800540e   0x0800540e   0x000000de   Code   RO          306    .text               mf_w.l(ddiv.o)
    0x080054ec   0x080054ec   0x0000001c   Code   RO          308    .text               mf_w.l(fcmple.o)
    0x08005508   0x08005508   0x0000001c   Code   RO          310    .text               mf_w.l(fcmplt.o)
    0x08005524   0x08005524   0x0000001c   Code   RO          312    .text               mf_w.l(fcmpgt.o)
    0x08005540   0x08005540   0x00000036   Code   RO          314    .text               mf_w.l(dcmple.o)
    0x08005576   0x08005576   0x00000012   Code   RO          316    .text               mf_w.l(fflti.o)
    0x08005588   0x08005588   0x0000000a   Code   RO          318    .text               mf_w.l(ffltui.o)
    0x08005592   0x08005592   0x00000022   Code   RO          320    .text               mf_w.l(dflti.o)
    0x080055b4   0x080055b4   0x0000001a   Code   RO          322    .text               mf_w.l(dfltui.o)
    0x080055ce   0x080055ce   0x00000032   Code   RO          324    .text               mf_w.l(ffixi.o)
    0x08005600   0x08005600   0x0000003e   Code   RO          326    .text               mf_w.l(dfixi.o)
    0x0800563e   0x0800563e   0x00000026   Code   RO          328    .text               mf_w.l(f2d.o)
    0x08005664   0x08005664   0x00000038   Code   RO          330    .text               mf_w.l(d2f.o)
    0x0800569c   0x0800569c   0x0000001e   Code   RO          346    .text               mc_w.l(llshl.o)
    0x080056ba   0x080056ba   0x00000020   Code   RO          348    .text               mc_w.l(llushr.o)
    0x080056da   0x080056da   0x00000024   Code   RO          350    .text               mc_w.l(llsshr.o)
    0x080056fe   0x080056fe   0x00000000   Code   RO          352    .text               mc_w.l(iusefp.o)
    0x080056fe   0x080056fe   0x0000006e   Code   RO          353    .text               mf_w.l(fepilogue.o)
    0x0800576c   0x0800576c   0x000000ba   Code   RO          355    .text               mf_w.l(depilogue.o)
    0x08005826   0x08005826   0x00000002   PAD
    0x08005828   0x08005828   0x00000024   Code   RO          357    .text               mc_w.l(init.o)
    0x0800584c   0x0800584c   0x0000000e   Code   RO          361    i.__scatterload_copy  mc_w.l(handlers.o)
    0x0800585a   0x0800585a   0x00000002   Code   RO          362    i.__scatterload_null  mc_w.l(handlers.o)
    0x0800585c   0x0800585c   0x0000000e   Code   RO          363    i.__scatterload_zeroinit  mc_w.l(handlers.o)
    0x0800586a   0x0800586a   0x0000000c   Data   RO           45    .rodata..L__const.up_or_down.up_down  bldc.o
    0x08005876   0x08005876   0x0000000c   Data   RO          196    .rodata..Lswitch.table.gpio_deinit.1  gd32f1x0_gpio.o
    0x08005882   0x08005882   0x00000008   Data   RO          234    .rodata.cst8        gd32f1x0_rcu.o
    0x0800588a   0x0800588a   0x00000008   Data   RO           46    .rodata.hall_to_pos  bldc.o
    0x08005892   0x08005892   0x00000002   PAD
    0x08005894   0x08005894   0x000002d4   Data   RO           15    .rodata.lookUpTableAngle  main.o
    0x08005b68   0x08005b68   0x00000020   Data   RO          360    Region$$Table       anon$$obj.o


    Execution Region RW_IRAM1 (Exec base: 0x20000000, Load base: 0x08005b88, Size: 0x00000648, Max: 0x00002000, ABSOLUTE)

    Exec Addr    Load Addr    Size         Type   Attr      Idx    E Section Name        Object

    0x20000000   0x08005b88   0x00000004   Data   RW          285    .data.SystemCoreClock  system_gd32f1x0.o
    0x20000004   0x08005b8c   0x00000004   Data   RW           29    .data.batteryVoltage  bldc.o
    0x20000008   0x08005b90   0x00000001   Data   RW           12    .data.beepsBackwards  main.o
    0x20000009   0x08005b91   0x00000003   PAD
    0x2000000c   0x08005b94   0x00000004   Data   RW           30    .data.currentDC     bldc.o
    0x20000010   0x08005b98   0x00000001   Data   RW           36    .data.iFILTER_SHIFT  bldc.o
    0x20000011   0x08005b99   0x00000001   PAD
    0x20000012   0x08005b9a   0x00000002   Data   RW           39    .data.offsetdc      bldc.o
    0x20000014   0x08005b9c   0x00000002   Data   RW            7    .data.speedLimit    main.o
    0x20000016   0x08005b9e   0x00000001   Data   RW            8    .data.wState        main.o
    0x20000017   0x08005b9f   0x00000001   Data   RW            9    .data.wStateSlave   main.o
    0x20000018        -       0x000000ff   Zero   RW          127    .bss.aReceiveBuffer  remoteuartbus.o
    0x20000117   0x08005ba0   0x00000001   PAD
    0x20000118        -       0x00000004   Zero   RW           48    .bss.adc_buffer     bldc.o
    0x2000011c        -       0x00000001   Zero   RW           33    .bss.bldc_enable    bldc.o
    0x2000011d   0x08005ba0   0x00000001   PAD
    0x2000011e        -       0x00000002   Zero   RW           32    .bss.bldc_inputFilterPwm  bldc.o
    0x20000120        -       0x00000002   Zero   RW           35    .bss.bldc_outputFilterPwm  bldc.o
    0x20000122        -       0x00000001   Zero   RW           42    .bss.buzzerFreq     bldc.o
    0x20000123        -       0x00000001   Zero   RW           43    .bss.buzzerPattern  bldc.o
    0x20000124        -       0x00000002   Zero   RW           37    .bss.buzzerTimer    bldc.o
    0x20000126        -       0x00000001   Zero   RW           41    .bss.buzzerToggle   bldc.o
    0x20000127   0x08005ba0   0x00000001   PAD
    0x20000128        -       0x00000024   Zero   RW           76    .bss.dma_init_struct_adc  setup.o
    0x2000014c        -       0x00000024   Zero   RW           77    .bss.dma_init_struct_usart  setup.o
    0x20000170        -       0x00000001   Zero   RW           16    .bss.enable         main.o
    0x20000171   0x08005ba0   0x00000003   PAD
    0x20000174        -       0x00000004   Zero   RW           47    .bss.filter_reg     bldc.o
    0x20000178        -       0x00000001   Zero   RW           34    .bss.hall           bldc.o
    0x20000179        -       0x00000001   Zero   RW           49    .bss.hall_a         bldc.o
    0x2000017a        -       0x00000001   Zero   RW           50    .bss.hall_b         bldc.o
    0x2000017b        -       0x00000001   Zero   RW           51    .bss.hall_c         bldc.o
    0x2000017c        -       0x00000004   Zero   RW           99    .bss.iAdcCounter    it.o
    0x20000180        -       0x00000004   Zero   RW           97    .bss.iAdcTicks      it.o
    0x20000184        -       0x00000004   Zero   RW           98    .bss.iAdcTicks0     it.o
    0x20000188        -       0x00000004   Zero   RW          125    .bss.iAnswerMaster  remoteuartbus.o
    0x2000018c        -       0x00000004   Zero   RW            3    .bss.iBug           main.o
    0x20000190        -       0x00000004   Zero   RW          101    .bss.iCounter2Usart0  it.o
    0x20000194        -       0x00000004   Zero   RW          100    .bss.iCounterUsart0  it.o
    0x20000198        -       0x00000004   Zero   RW           44    .bss.iOdom          bldc.o
    0x2000019c        -       0x00000004   Zero   RW           96    .bss.iPwmCounter    it.o
    0x200001a0        -       0x00000004   Zero   RW           94    .bss.iPwmTicks      it.o
    0x200001a4        -       0x00000004   Zero   RW           95    .bss.iPwmTicks0     it.o
    0x200001a8        -       0x00000002   Zero   RW          126    .bss.iReceivePos    remoteuartbus.o
    0x200001aa        -       0x00000001   Zero   RW          129    .bss.iRxDataSize    remoteuartbus.o
    0x200001ab        -       0x00000001   Zero   RW          128    .bss.iRxDataType    remoteuartbus.o
    0x200001ac        -       0x00000004   Zero   RW          124    .bss.iTimeLastRx    remoteuartbus.o
    0x200001b0        -       0x00000004   Zero   RW           18    .bss.iTimeNextLoop  main.o
    0x200001b4        -       0x00000004   Zero   RW           14    .bss.inactivity_timeout_counter  main.o
    0x200001b8        -       0x00000001   Zero   RW           53    .bss.lastPos        bldc.o
    0x200001b9   0x08005ba0   0x00000003   PAD
    0x200001bc        -       0x00000004   Zero   RW           93    .bss.msTicks        it.o
    0x200001c0        -       0x00000012   Zero   RW           79    .bss.oConfig        setup.o
    0x200001d2        -       0x00000002   Zero   RW           38    .bss.offsetcount    bldc.o
    0x200001d4        -       0x00000001   Zero   RW           52    .bss.pos            bldc.o
    0x200001d5   0x08005ba0   0x00000001   PAD
    0x200001d6        -       0x00000002   Zero   RW           17    .bss.pwmSlave       main.o
    0x200001d8        -       0x00000004   Zero   RW           31    .bss.realSpeed      bldc.o
    0x200001dc        -       0x00000004   Zero   RW            5    .bss.speed          main.o
    0x200001e0        -       0x00000004   Zero   RW           40    .bss.speedCounter   bldc.o
    0x200001e4        -       0x00000004   Zero   RW            6    .bss.speedShutoff   main.o
    0x200001e8        -       0x00000004   Zero   RW           10    .bss.steer          main.o
    0x200001ec        -       0x00000004   Zero   RW            4    .bss.steerCounter   main.o
    0x200001f0        -       0x00000001   Zero   RW           92    .bss.timedOut       it.o
    0x200001f1   0x08005ba0   0x00000003   PAD
    0x200001f4        -       0x00000004   Zero   RW           91    .bss.timeoutCounter_ms  it.o
    0x200001f8        -       0x00000010   Zero   RW           72    .bss.timeoutTimer_paramter_struct  setup.o
    0x20000208        -       0x00000018   Zero   RW           75    .bss.timerBldc_break_parameter_struct  setup.o
    0x20000220        -       0x00000010   Zero   RW           74    .bss.timerBldc_oc_parameter_struct  setup.o
    0x20000230        -       0x00000010   Zero   RW           73    .bss.timerBldc_paramter_struct  setup.o
    0x20000240        -       0x00000001   Zero   RW           78    .bss.usart0_rx_buf  setup.o
    0x20000241   0x08005ba0   0x00000007   PAD
    0x20000248        -       0x00000400   Zero   RW          274    STACK               startup_gd32f1x0.o


==============================================================================

Image component sizes


      Code (inc. data)   RO Data    RW Data    ZI Data      Debug   Object Name

      1288          0         20         11         38       4115   bldc.o
       110          6          0          0          0        937   bldcbc.o
       108          0          0          0          0       2005   comms.o
      1446         16          0          0          0       7602   gd32f1x0_adc.o
       844          8          0          0          0       6135   gd32f1x0_dma.o
      2516          0          0          0          0      13249   gd32f1x0_fmc.o
       218          0          0          0          0       1996   gd32f1x0_fwdgt.o
       408          0         12          0          0       4211   gd32f1x0_gpio.o
       304          0          0          0          0       3163   gd32f1x0_misc.o
      1840         34          8          0          0      13480   gd32f1x0_rcu.o
      3424         44          0          0          0      18343   gd32f1x0_timer.o
      1598          8          0          0          0      11974   gd32f1x0_usart.o
       422          0          0          0         41       2878   it.o
      2024          0        724          5         31       7232   main.o
       674          0          0          0        267       2451   remoteuartbus.o
      2588          0          0          0        163       9836   setup.o
        36          8        360          0       1024        844   startup_gd32f1x0.o
       316         16          0          4          0       1592   system_gd32f1x0.o

    ----------------------------------------------------------------------
     20176        140       1158         24       1584     112043   Object Totals
         0          0         32          0          0          0   (incl. Generated)
        12          0          2          4         20          0   (incl. Padding)

    ----------------------------------------------------------------------

      Code (inc. data)   RO Data    RW Data    ZI Data      Debug   Library Member Name

         0          0          0          0          0          0   entry.o
         0          0          0          0          0          0   entry10a.o
         0          0          0          0          0          0   entry11a.o
         8          4          0          0          0          0   entry2.o
         4          0          0          0          0          0   entry5.o
         0          0          0          0          0          0   entry7b.o
         0          0          0          0          0          0   entry8b.o
         8          4          0          0          0          0   entry9a.o
        30          0          0          0          0          0   handlers.o
        36          8          0          0          0         68   init.o
         0          0          0          0          0          0   iusefp.o
        30          0          0          0          0         68   llshl.o
        36          0          0          0          0         68   llsshr.o
        32          0          0          0          0         68   llushr.o
        56          0          0          0          0         88   d2f.o
       334          0          0          0          0        148   dadd.o
        54          0          0          0          0         80   dcmple.o
       222          0          0          0          0        100   ddiv.o
       186          0          0          0          0        176   depilogue.o
        62          0          0          0          0         80   dfixi.o
        34          0          0          0          0         76   dflti.o
        26          0          0          0          0         76   dfltui.o
       228          0          0          0          0         96   dmul.o
        38          0          0          0          0         68   f2d.o
       176          0          0          0          0        140   fadd.o
        28          0          0          0          0         68   fcmpgt.o
        28          0          0          0          0         68   fcmple.o
        28          0          0          0          0         68   fcmplt.o
       124          0          0          0          0         88   fdiv.o
       110          0          0          0          0        168   fepilogue.o
        50          0          0          0          0         68   ffixi.o
        18          0          0          0          0         68   fflti.o
        10          0          0          0          0         68   ffltui.o
       100          0          0          0          0         76   fmul.o

    ----------------------------------------------------------------------
      2098         16          0          0          0       2140   Library Totals
         2          0          0          0          0          0   (incl. Padding)

    ----------------------------------------------------------------------

      Code (inc. data)   RO Data    RW Data    ZI Data      Debug   Library Name

       184         16          0          0          0        272   mc_w.l
      1912          0          0          0          0       1868   mf_w.l

    ----------------------------------------------------------------------
      2098         16          0          0          0       2140   Library Totals

    ----------------------------------------------------------------------

==============================================================================


      Code (inc. data)   RO Data    RW Data    ZI Data      Debug   

     22274        156       1158         24       1584     112923   Grand Totals
     22274        156       1158         24       1584     112923   ELF Image Totals
     22274        156       1158         24          0          0   ROM Totals

==============================================================================

    Total RO  Size (Code + RO Data)                23432 (  22.88kB)
    Total RW  Size (RW Data + ZI Data)              1608 (   1.57kB)
    Total ROM Size (Code + RO Data + RW Data)      23456 (  22.91kB)

==============================================================================

