Component: Arm Compiler for Embedded 6.23 Tool: armlink [5f102400]

==============================================================================

Section Cross References

    main.o(.text) refers to setup.o(.text) for ConfigRead
    main.o(.text) refers to gd32e23x_gpio.o(.text) for gpio_bit_write
    main.o(.text) refers to bldcsine.o(.text) for InitBldc
    main.o(.text) refers to driver.o(.text) for DriverInit
    main.o(.text) refers to gd32e23x_fwdgt.o(.text) for fwdgt_counter_reload
    main.o(.text) refers to it.o(.text) for millis
    main.o(.text) refers to remotedummy.o(.text) for RemoteUpdate
    main.o(.text) refers to dflti.o(.text) for __aeabi_i2d
    main.o(.text) refers to ddiv.o(.text) for __aeabi_ddiv
    main.o(.text) refers to dadd.o(.text) for __aeabi_dsub
    main.o(.text) refers to dmul.o(.text) for __aeabi_dmul
    main.o(.text) refers to dfixi.o(.text) for __aeabi_d2iz
    main.o(.text) refers to ffltui.o(.text) for __aeabi_ui2f
    main.o(.text) refers to f2d.o(.text) for __aeabi_f2d
    main.o(.text) refers to d2f.o(.text) for __aeabi_d2f
    main.o(.text) refers to fflti.o(.text) for __aeabi_i2f
    main.o(.text) refers to fmul.o(.text) for __aeabi_fmul
    main.o(.text) refers to ffixi.o(.text) for __aeabi_f2iz
    main.o(.text) refers to fadd.o(.text) for __aeabi_fsub
    main.o(.text) refers to fdiv.o(.text) for __aeabi_fdiv
    main.o(.text) refers to fcmplt.o(.text) for __aeabi_fcmplt
    main.o(.text) refers to bldc.o(.text) for SetBldcInput
    main.o(.text) refers to fcmpgt.o(.text) for __aeabi_fcmpgt
    main.o(.text) refers to main.o(.bss..L_MergedGlobals.1) for [Anonymous Symbol]
    main.o(.text) refers to system_gd32e23x.o(.data.SystemCoreClock) for SystemCoreClock
    main.o(.text) refers to main.o(.data..L_MergedGlobals) for [Anonymous Symbol]
    main.o(.text) refers to main.o(.rodata.lookUpTableAngle) for lookUpTableAngle
    main.o(.text) refers to bldc.o(.data..L_MergedGlobals) for batteryVoltage
    main.o(.ARM.exidx) refers to main.o(.text) for [Anonymous Symbol]
    bldc.o(.text) refers to bldc.o(.rodata..L__const.up_or_down.up_down) for [Anonymous Symbol]
    bldc.o(.text) refers to bldc.o(.bss..L_MergedGlobals.1) for [Anonymous Symbol]
    bldc.o(.text) refers to dflti.o(.text) for __aeabi_i2d
    bldc.o(.text) refers to ddiv.o(.text) for __aeabi_ddiv
    bldc.o(.text) refers to dmul.o(.text) for __aeabi_dmul
    bldc.o(.text) refers to dfixi.o(.text) for __aeabi_d2iz
    bldc.o(.text) refers to main.o(.bss..L_MergedGlobals.1) for iDrivingMode
    bldc.o(.text) refers to system_gd32e23x.o(.data.SystemCoreClock) for SystemCoreClock
    bldc.o(.text) refers to bldc.o(.data..L_MergedGlobals) for [Anonymous Symbol]
    bldc.o(.text) refers to f2d.o(.text) for __aeabi_f2d
    bldc.o(.text) refers to dfltui.o(.text) for __aeabi_ui2d
    bldc.o(.text) refers to dadd.o(.text) for __aeabi_dadd
    bldc.o(.text) refers to d2f.o(.text) for __aeabi_d2f
    bldc.o(.text) refers to fcmpgt.o(.text) for __aeabi_fcmpgt
    bldc.o(.text) refers to gd32e23x_timer.o(.text) for timer_automatic_output_disable
    bldc.o(.text) refers to driver.o(.text) for Driver
    bldc.o(.text) refers to bldcsine.o(.text) for bldc_get_pwm
    bldc.o(.text) refers to ffltui.o(.text) for __aeabi_ui2f
    bldc.o(.text) refers to fdiv.o(.text) for __aeabi_fdiv
    bldc.o(.text) refers to it.o(.bss..L_MergedGlobals) for msTicks
    bldc.o(.text) refers to gd32e23x_gpio.o(.text) for gpio_input_bit_get
    bldc.o(.text) refers to bldc.o(.rodata.hall_to_pos) for hall_to_pos
    bldc.o(.text) refers to driver.o(.data..L_MergedGlobals) for iDriverDoEvery
    bldc.o(.ARM.exidx) refers to bldc.o(.text) for [Anonymous Symbol]
    driver.o(.text) refers to fmul.o(.text) for __aeabi_fmul
    driver.o(.text) refers to ffixl.o(.text) for __aeabi_f2lz
    driver.o(.text) refers to ffixi.o(.text) for __aeabi_f2iz
    driver.o(.text) refers to fdiv.o(.text) for __aeabi_fdiv
    driver.o(.text) refers to llmul.o(.text) for __aeabi_lmul
    driver.o(.text) refers to driver.o(.bss..L_MergedGlobals.1) for [Anonymous Symbol]
    driver.o(.text) refers to fflti.o(.text) for __aeabi_i2f
    driver.o(.text) refers to main.o(.bss..L_MergedGlobals.1) for iDrivingMode
    driver.o(.text) refers to driver.o(.data..L_MergedGlobals) for [Anonymous Symbol]
    driver.o(.text) refers to system_gd32e23x.o(.data.SystemCoreClock) for SystemCoreClock
    driver.o(.text) refers to driver.o(.bss.pid) for pid
    driver.o(.text) refers to bldc.o(.bss..L_MergedGlobals.1) for iOdom
    driver.o(.ARM.exidx) refers to driver.o(.text) for [Anonymous Symbol]
    bldcsine.o(.text) refers to gd32e23x_syscfg.o(.text) for syscfg_exti_line_config
    bldcsine.o(.text) refers to gd32e23x_exti.o(.text) for exti_init
    bldcsine.o(.text) refers to gd32e23x_misc.o(.text) for nvic_irq_enable
    bldcsine.o(.text) refers to gd32e23x_rcu.o(.text) for rcu_periph_clock_enable
    bldcsine.o(.text) refers to bldcsine.o(.bss..L_MergedGlobals) for [Anonymous Symbol]
    bldcsine.o(.text) refers to bldc.o(.bss..L_MergedGlobals.1) for buzzerTimer
    bldcsine.o(.text) refers to gd32e23x_gpio.o(.text) for gpio_input_bit_get
    bldcsine.o(.text) refers to bldcsine.o(.rodata.cst8) for [Anonymous Symbol]
    bldcsine.o(.text) refers to bldcsine.o(.rodata.sine_table) for [Anonymous Symbol]
    bldcsine.o(.ARM.exidx) refers to bldcsine.o(.text) for [Anonymous Symbol]
    setup.o(.text) refers to gd32e23x_gpio.o(.text) for gpio_mode_set
    setup.o(.text) refers to gd32e23x_rcu.o(.text) for rcu_flag_get
    setup.o(.text) refers to gd32e23x_fwdgt.o(.text) for fwdgt_config
    setup.o(.text) refers to gd32e23x_timer.o(.text) for timer_deinit
    setup.o(.text) refers to gd32e23x_misc.o(.text) for nvic_irq_enable
    setup.o(.text) refers to setup.o(.bss.timeoutTimer_paramter_struct) for timeoutTimer_paramter_struct
    setup.o(.text) refers to system_gd32e23x.o(.data.SystemCoreClock) for SystemCoreClock
    setup.o(.text) refers to setup.o(.bss..L_MergedGlobals) for [Anonymous Symbol]
    setup.o(.text) refers to gd32e23x_dma.o(.text) for dma_deinit
    setup.o(.text) refers to gd32e23x_adc.o(.text) for adc_channel_length_config
    setup.o(.text) refers to setup.o(.bss.dma_init_struct_adc) for dma_init_struct_adc
    setup.o(.text) refers to bldc.o(.bss..L_MergedGlobals.1) for adc_buffer
    setup.o(.text) refers to gd32e23x_fmc.o(.text) for fmc_unlock
    setup.o(.text) refers to setup.o(.bss.oConfig) for oConfig
    setup.o(.text) refers to system_gd32e23x.o(.text) for SystemCoreClockUpdate
    setup.o(.text) refers to setup.o(.bss.pll_mul) for pll_mul
    setup.o(.text) refers to it.o(.text) for millis
    setup.o(.text) refers to setup.o(.bss.iTestClock) for iTestClock
    setup.o(.ARM.exidx) refers to setup.o(.text) for [Anonymous Symbol]
    it.o(.text) refers to it.o(.bss..L_MergedGlobals) for [Anonymous Symbol]
    it.o(.text) refers to gd32e23x_timer.o(.text) for timer_interrupt_flag_clear
    it.o(.text) refers to main.o(.bss..L_MergedGlobals.1) for speed
    it.o(.text) refers to gd32e23x_adc.o(.text) for adc_software_trigger_enable
    it.o(.text) refers to gd32e23x_dma.o(.text) for dma_interrupt_flag_get
    it.o(.text) refers to bldc.o(.text) for CalculateBLDC
    it.o(.ARM.exidx) refers to it.o(.text) for [Anonymous Symbol]
    comms.o(.text) refers to gd32e23x_usart.o(.text) for usart_data_transmit
    comms.o(.ARM.exidx) refers to comms.o(.text) for [Anonymous Symbol]
    remotedummy.o(.text) refers to strtof.o(i.strtof) for strtof
    remotedummy.o(.text) refers to memcpya.o(.text) for __aeabi_memcpy
    remotedummy.o(.text) refers to strcmp.o(.text) for strcmp
    remotedummy.o(.text) refers to printfa.o(i.__0sprintf) for __2sprintf
    remotedummy.o(.text) refers to ffixi.o(.text) for __aeabi_f2iz
    remotedummy.o(.text) refers to fcmplt.o(.text) for __aeabi_fcmplt
    remotedummy.o(.text) refers to remotedummy.o(.bss.sMessage) for sMessage
    remotedummy.o(.text) refers to main.o(.bss..L_MergedGlobals.1) for iDrivingMode
    remotedummy.o(.text) refers to driver.o(.data..L_MergedGlobals) for aoPIDInit
    remotedummy.o(.text) refers to remotedummy.o(.data..L_MergedGlobals) for [Anonymous Symbol]
    remotedummy.o(.text) refers to remotedummy.o(.bss..L_MergedGlobals.7) for [Anonymous Symbol]
    remotedummy.o(.text) refers to it.o(.bss..L_MergedGlobals) for msTicks
    remotedummy.o(.text) refers to segger_rtt.o(.text) for SEGGER_RTT_GetKey
    remotedummy.o(.text) refers to memcmp.o(.text) for memcmp
    remotedummy.o(.text) refers to driver.o(.text) for DriverInit
    remotedummy.o(.text) refers to dfltui.o(.text) for __aeabi_ui2d
    remotedummy.o(.text) refers to ddiv.o(.text) for __aeabi_ddiv
    remotedummy.o(.text) refers to dmul.o(.text) for __aeabi_dmul
    remotedummy.o(.text) refers to d2f.o(.text) for __aeabi_d2f
    remotedummy.o(.text) refers to fflti.o(.text) for __aeabi_i2f
    remotedummy.o(.text) refers to fmul.o(.text) for __aeabi_fmul
    remotedummy.o(.text) refers to fdiv.o(.text) for __aeabi_fdiv
    remotedummy.o(.text) refers to fcmpgt.o(.text) for __aeabi_fcmpgt
    remotedummy.o(.text) refers to f2d.o(.text) for __aeabi_f2d
    remotedummy.o(.text) refers to setup.o(.text) for add_cr_before_lf_inplace
    remotedummy.o(.text) refers to it.o(.text) for ResetTimeout
    remotedummy.o(.text) refers to remotedummy.o(.bss.aoPIDInitOld) for aoPIDInitOld
    remotedummy.o(.text) refers to bldc.o(.data..L_MergedGlobals) for batteryVoltage
    remotedummy.o(.text) refers to bldc.o(.bss..L_MergedGlobals.1) for iOdom
    remotedummy.o(.ARM.exidx) refers to remotedummy.o(.text) for [Anonymous Symbol]
    segger_rtt.o(.text) refers to memcpya.o(.text) for __aeabi_memcpy
    segger_rtt.o(.text) refers to segger_rtt.o(.bss._SEGGER_RTT) for _SEGGER_RTT
    segger_rtt.o(.text) refers to memseta.o(.text) for __aeabi_memclr4
    segger_rtt.o(.text) refers to segger_rtt.o(.rodata.str1.1) for [Anonymous Symbol]
    segger_rtt.o(.text) refers to segger_rtt.o(.bss._acUpBuffer) for [Anonymous Symbol]
    segger_rtt.o(.text) refers to segger_rtt.o(.bss._acDownBuffer) for [Anonymous Symbol]
    segger_rtt.o(.text) refers to segger_rtt.o(.rodata._DoInit._aInitStr) for [Anonymous Symbol]
    segger_rtt.o(.text) refers to strlen.o(.text) for strlen
    segger_rtt.o(.text) refers to segger_rtt.o(.rodata.cst16) for [Anonymous Symbol]
    segger_rtt.o(.text) refers to segger_rtt.o(.bss._ActiveTerminal) for [Anonymous Symbol]
    segger_rtt.o(.ARM.exidx) refers to segger_rtt.o(.text) for [Anonymous Symbol]
    gd32e23x_adc.o(.text) refers to gd32e23x_rcu.o(.text) for rcu_periph_reset_enable
    gd32e23x_adc.o(.ARM.exidx) refers to gd32e23x_adc.o(.text) for [Anonymous Symbol]
    gd32e23x_dma.o(.text) refers to memseta.o(.text) for __aeabi_memclr4
    gd32e23x_dma.o(.ARM.exidx) refers to gd32e23x_dma.o(.text) for [Anonymous Symbol]
    gd32e23x_exti.o(.ARM.exidx) refers to gd32e23x_exti.o(.text) for [Anonymous Symbol]
    gd32e23x_fmc.o(.ARM.exidx) refers to gd32e23x_fmc.o(.text) for [Anonymous Symbol]
    gd32e23x_fwdgt.o(.ARM.exidx) refers to gd32e23x_fwdgt.o(.text) for [Anonymous Symbol]
    gd32e23x_gpio.o(.text) refers to gd32e23x_rcu.o(.text) for rcu_periph_reset_enable
    gd32e23x_gpio.o(.ARM.exidx) refers to gd32e23x_gpio.o(.text) for [Anonymous Symbol]
    gd32e23x_i2c.o(.text) refers to gd32e23x_rcu.o(.text) for rcu_periph_reset_enable
    gd32e23x_i2c.o(.ARM.exidx) refers to gd32e23x_i2c.o(.text) for [Anonymous Symbol]
    gd32e23x_misc.o(.ARM.exidx) refers to gd32e23x_misc.o(.text) for [Anonymous Symbol]
    gd32e23x_pmu.o(.text) refers to gd32e23x_rcu.o(.text) for rcu_periph_reset_enable
    gd32e23x_pmu.o(.text) refers to gd32e23x_pmu.o(.bss..L_MergedGlobals) for [Anonymous Symbol]
    gd32e23x_pmu.o(.ARM.exidx) refers to gd32e23x_pmu.o(.text) for [Anonymous Symbol]
    gd32e23x_rcu.o(.text) refers to gd32e23x_rcu.o(.rodata.cst8) for [Anonymous Symbol]
    gd32e23x_rcu.o(.ARM.exidx) refers to gd32e23x_rcu.o(.text) for [Anonymous Symbol]
    gd32e23x_syscfg.o(.text) refers to gd32e23x_rcu.o(.text) for rcu_periph_reset_enable
    gd32e23x_syscfg.o(.ARM.exidx) refers to gd32e23x_syscfg.o(.text) for [Anonymous Symbol]
    gd32e23x_timer.o(.text) refers to gd32e23x_rcu.o(.text) for rcu_periph_reset_enable
    gd32e23x_timer.o(.text) refers to memseta.o(.text) for __aeabi_memclr
    gd32e23x_timer.o(.ARM.exidx) refers to gd32e23x_timer.o(.text) for [Anonymous Symbol]
    gd32e23x_usart.o(.text) refers to gd32e23x_rcu.o(.text) for rcu_periph_reset_enable
    gd32e23x_usart.o(.ARM.exidx) refers to gd32e23x_usart.o(.text) for [Anonymous Symbol]
    gd32e23x_wwdgt.o(.text) refers to gd32e23x_rcu.o(.text) for rcu_periph_reset_enable
    gd32e23x_wwdgt.o(.ARM.exidx) refers to gd32e23x_wwdgt.o(.text) for [Anonymous Symbol]
    startup_gd32e23x.o(RESET) refers to startup_gd32e23x.o(STACK) for __initial_sp
    startup_gd32e23x.o(RESET) refers to startup_gd32e23x.o(.text) for Reset_Handler
    startup_gd32e23x.o(RESET) refers to it.o(.text) for NMI_Handler
    startup_gd32e23x.o(RESET) refers to bldcsine.o(.text) for EXTI0_1_IRQHandler
    startup_gd32e23x.o(.text) refers to system_gd32e23x.o(.text) for SystemInit
    startup_gd32e23x.o(.text) refers to entry.o(.ARM.Collect$$$$00000000) for __main
    system_gd32e23x.o(.text) refers to gd32e23x_misc.o(.text) for nvic_vector_table_set
    system_gd32e23x.o(.text) refers to system_gd32e23x.o(.data.SystemCoreClock) for SystemCoreClock
    system_gd32e23x.o(.ARM.exidx) refers to system_gd32e23x.o(.text) for [Anonymous Symbol]
    strtof.o(i.__softfp_strtof) refers (Special) to iusefp.o(.text) for __I$use$fp
    strtof.o(i.__softfp_strtof) refers to strtof.o(.text) for __strtof_int
    strtof.o(i.strtof) refers (Special) to iusefp.o(.text) for __I$use$fp
    strtof.o(i.strtof) refers to strtof.o(.text) for __strtof_int
    entry.o(.ARM.Collect$$$$00000000) refers (Special) to entry10a.o(.ARM.Collect$$$$0000000D) for __rt_final_cpp
    entry.o(.ARM.Collect$$$$00000000) refers (Special) to entry11a.o(.ARM.Collect$$$$0000000F) for __rt_final_exit
    entry.o(.ARM.Collect$$$$00000000) refers (Special) to entry7b.o(.ARM.Collect$$$$00000008) for _main_clock
    entry.o(.ARM.Collect$$$$00000000) refers (Special) to entry8b.o(.ARM.Collect$$$$0000000A) for _main_cpp_init
    entry.o(.ARM.Collect$$$$00000000) refers (Special) to entry9a.o(.ARM.Collect$$$$0000000B) for _main_init
    entry.o(.ARM.Collect$$$$00000000) refers (Special) to entry5.o(.ARM.Collect$$$$00000004) for _main_scatterload
    entry.o(.ARM.Collect$$$$00000000) refers (Special) to entry2.o(.ARM.Collect$$$$00000001) for _main_stk
    printfb.o(i.__0fprintf$bare) refers to printfb.o(i._printf_core) for _printf_core
    printfb.o(i.__0fprintf$bare) refers to fputc.o(i.fputc) for fputc
    printfb.o(i.__0printf$bare) refers to printfb.o(i._printf_core) for _printf_core
    printfb.o(i.__0printf$bare) refers to fputc.o(i.fputc) for fputc
    printfb.o(i.__0printf$bare) refers to stdout.o(.data) for __stdout
    printfb.o(i.__0snprintf$bare) refers to printfb.o(i._printf_core) for _printf_core
    printfb.o(i.__0snprintf$bare) refers to printfb.o(i._snputc) for _snputc
    printfb.o(i.__0sprintf$bare) refers to printfb.o(i._printf_core) for _printf_core
    printfb.o(i.__0sprintf$bare) refers to printfb.o(i._sputc) for _sputc
    printfb.o(i.__0vfprintf$bare) refers to printfb.o(i._printf_core) for _printf_core
    printfb.o(i.__0vfprintf$bare) refers to fputc.o(i.fputc) for fputc
    printfb.o(i.__0vprintf$bare) refers to printfb.o(i._printf_core) for _printf_core
    printfb.o(i.__0vprintf$bare) refers to fputc.o(i.fputc) for fputc
    printfb.o(i.__0vprintf$bare) refers to stdout.o(.data) for __stdout
    printfb.o(i.__0vsnprintf$bare) refers to printfb.o(i._printf_core) for _printf_core
    printfb.o(i.__0vsnprintf$bare) refers to printfb.o(i._snputc) for _snputc
    printfb.o(i.__0vsprintf$bare) refers to printfb.o(i._printf_core) for _printf_core
    printfb.o(i.__0vsprintf$bare) refers to printfb.o(i._sputc) for _sputc
    printf0.o(i.__0fprintf$0) refers to printf0.o(i._printf_core) for _printf_core
    printf0.o(i.__0fprintf$0) refers to fputc.o(i.fputc) for fputc
    printf0.o(i.__0printf$0) refers to printf0.o(i._printf_core) for _printf_core
    printf0.o(i.__0printf$0) refers to fputc.o(i.fputc) for fputc
    printf0.o(i.__0printf$0) refers to stdout.o(.data) for __stdout
    printf0.o(i.__0snprintf$0) refers to printf0.o(i._printf_core) for _printf_core
    printf0.o(i.__0snprintf$0) refers to printf0.o(i._snputc) for _snputc
    printf0.o(i.__0sprintf$0) refers to printf0.o(i._printf_core) for _printf_core
    printf0.o(i.__0sprintf$0) refers to printf0.o(i._sputc) for _sputc
    printf0.o(i.__0vfprintf$0) refers to printf0.o(i._printf_core) for _printf_core
    printf0.o(i.__0vfprintf$0) refers to fputc.o(i.fputc) for fputc
    printf0.o(i.__0vprintf$0) refers to printf0.o(i._printf_core) for _printf_core
    printf0.o(i.__0vprintf$0) refers to fputc.o(i.fputc) for fputc
    printf0.o(i.__0vprintf$0) refers to stdout.o(.data) for __stdout
    printf0.o(i.__0vsnprintf$0) refers to printf0.o(i._printf_core) for _printf_core
    printf0.o(i.__0vsnprintf$0) refers to printf0.o(i._snputc) for _snputc
    printf0.o(i.__0vsprintf$0) refers to printf0.o(i._printf_core) for _printf_core
    printf0.o(i.__0vsprintf$0) refers to printf0.o(i._sputc) for _sputc
    printf1.o(i.__0fprintf$1) refers to printf1.o(i._printf_core) for _printf_core
    printf1.o(i.__0fprintf$1) refers to fputc.o(i.fputc) for fputc
    printf1.o(i.__0printf$1) refers to printf1.o(i._printf_core) for _printf_core
    printf1.o(i.__0printf$1) refers to fputc.o(i.fputc) for fputc
    printf1.o(i.__0printf$1) refers to stdout.o(.data) for __stdout
    printf1.o(i.__0snprintf$1) refers to printf1.o(i._printf_core) for _printf_core
    printf1.o(i.__0snprintf$1) refers to printf1.o(i._snputc) for _snputc
    printf1.o(i.__0sprintf$1) refers to printf1.o(i._printf_core) for _printf_core
    printf1.o(i.__0sprintf$1) refers to printf1.o(i._sputc) for _sputc
    printf1.o(i.__0vfprintf$1) refers to printf1.o(i._printf_core) for _printf_core
    printf1.o(i.__0vfprintf$1) refers to fputc.o(i.fputc) for fputc
    printf1.o(i.__0vprintf$1) refers to printf1.o(i._printf_core) for _printf_core
    printf1.o(i.__0vprintf$1) refers to fputc.o(i.fputc) for fputc
    printf1.o(i.__0vprintf$1) refers to stdout.o(.data) for __stdout
    printf1.o(i.__0vsnprintf$1) refers to printf1.o(i._printf_core) for _printf_core
    printf1.o(i.__0vsnprintf$1) refers to printf1.o(i._snputc) for _snputc
    printf1.o(i.__0vsprintf$1) refers to printf1.o(i._printf_core) for _printf_core
    printf1.o(i.__0vsprintf$1) refers to printf1.o(i._sputc) for _sputc
    printf1.o(i._printf_core) refers to uidiv_div0.o(.text) for __aeabi_uidivmod
    printf2.o(i.__0fprintf$2) refers to printf2.o(i._printf_core) for _printf_core
    printf2.o(i.__0fprintf$2) refers to fputc.o(i.fputc) for fputc
    printf2.o(i.__0printf$2) refers to printf2.o(i._printf_core) for _printf_core
    printf2.o(i.__0printf$2) refers to fputc.o(i.fputc) for fputc
    printf2.o(i.__0printf$2) refers to stdout.o(.data) for __stdout
    printf2.o(i.__0snprintf$2) refers to printf2.o(i._printf_core) for _printf_core
    printf2.o(i.__0snprintf$2) refers to printf2.o(i._snputc) for _snputc
    printf2.o(i.__0sprintf$2) refers to printf2.o(i._printf_core) for _printf_core
    printf2.o(i.__0sprintf$2) refers to printf2.o(i._sputc) for _sputc
    printf2.o(i.__0vfprintf$2) refers to printf2.o(i._printf_core) for _printf_core
    printf2.o(i.__0vfprintf$2) refers to fputc.o(i.fputc) for fputc
    printf2.o(i.__0vprintf$2) refers to printf2.o(i._printf_core) for _printf_core
    printf2.o(i.__0vprintf$2) refers to fputc.o(i.fputc) for fputc
    printf2.o(i.__0vprintf$2) refers to stdout.o(.data) for __stdout
    printf2.o(i.__0vsnprintf$2) refers to printf2.o(i._printf_core) for _printf_core
    printf2.o(i.__0vsnprintf$2) refers to printf2.o(i._snputc) for _snputc
    printf2.o(i.__0vsprintf$2) refers to printf2.o(i._printf_core) for _printf_core
    printf2.o(i.__0vsprintf$2) refers to printf2.o(i._sputc) for _sputc
    printf3.o(i.__0fprintf$3) refers to printf3.o(i._printf_core) for _printf_core
    printf3.o(i.__0fprintf$3) refers to fputc.o(i.fputc) for fputc
    printf3.o(i.__0printf$3) refers to printf3.o(i._printf_core) for _printf_core
    printf3.o(i.__0printf$3) refers to fputc.o(i.fputc) for fputc
    printf3.o(i.__0printf$3) refers to stdout.o(.data) for __stdout
    printf3.o(i.__0snprintf$3) refers to printf3.o(i._printf_core) for _printf_core
    printf3.o(i.__0snprintf$3) refers to printf3.o(i._snputc) for _snputc
    printf3.o(i.__0sprintf$3) refers to printf3.o(i._printf_core) for _printf_core
    printf3.o(i.__0sprintf$3) refers to printf3.o(i._sputc) for _sputc
    printf3.o(i.__0vfprintf$3) refers to printf3.o(i._printf_core) for _printf_core
    printf3.o(i.__0vfprintf$3) refers to fputc.o(i.fputc) for fputc
    printf3.o(i.__0vprintf$3) refers to printf3.o(i._printf_core) for _printf_core
    printf3.o(i.__0vprintf$3) refers to fputc.o(i.fputc) for fputc
    printf3.o(i.__0vprintf$3) refers to stdout.o(.data) for __stdout
    printf3.o(i.__0vsnprintf$3) refers to printf3.o(i._printf_core) for _printf_core
    printf3.o(i.__0vsnprintf$3) refers to printf3.o(i._snputc) for _snputc
    printf3.o(i.__0vsprintf$3) refers to printf3.o(i._printf_core) for _printf_core
    printf3.o(i.__0vsprintf$3) refers to printf3.o(i._sputc) for _sputc
    printf3.o(i._printf_core) refers to uidiv_div0.o(.text) for __aeabi_uidivmod
    printf4.o(i.__0fprintf$4) refers to printf4.o(i._printf_core) for _printf_core
    printf4.o(i.__0fprintf$4) refers to fputc.o(i.fputc) for fputc
    printf4.o(i.__0printf$4) refers to printf4.o(i._printf_core) for _printf_core
    printf4.o(i.__0printf$4) refers to fputc.o(i.fputc) for fputc
    printf4.o(i.__0printf$4) refers to stdout.o(.data) for __stdout
    printf4.o(i.__0snprintf$4) refers to printf4.o(i._printf_core) for _printf_core
    printf4.o(i.__0snprintf$4) refers to printf4.o(i._snputc) for _snputc
    printf4.o(i.__0sprintf$4) refers to printf4.o(i._printf_core) for _printf_core
    printf4.o(i.__0sprintf$4) refers to printf4.o(i._sputc) for _sputc
    printf4.o(i.__0vfprintf$4) refers to printf4.o(i._printf_core) for _printf_core
    printf4.o(i.__0vfprintf$4) refers to fputc.o(i.fputc) for fputc
    printf4.o(i.__0vprintf$4) refers to printf4.o(i._printf_core) for _printf_core
    printf4.o(i.__0vprintf$4) refers to fputc.o(i.fputc) for fputc
    printf4.o(i.__0vprintf$4) refers to stdout.o(.data) for __stdout
    printf4.o(i.__0vsnprintf$4) refers to printf4.o(i._printf_core) for _printf_core
    printf4.o(i.__0vsnprintf$4) refers to printf4.o(i._snputc) for _snputc
    printf4.o(i.__0vsprintf$4) refers to printf4.o(i._printf_core) for _printf_core
    printf4.o(i.__0vsprintf$4) refers to printf4.o(i._sputc) for _sputc
    printf4.o(i._printf_core) refers to uldiv.o(.text) for __aeabi_uldivmod
    printf5.o(i.__0fprintf$5) refers to printf5.o(i._printf_core) for _printf_core
    printf5.o(i.__0fprintf$5) refers to fputc.o(i.fputc) for fputc
    printf5.o(i.__0printf$5) refers to printf5.o(i._printf_core) for _printf_core
    printf5.o(i.__0printf$5) refers to fputc.o(i.fputc) for fputc
    printf5.o(i.__0printf$5) refers to stdout.o(.data) for __stdout
    printf5.o(i.__0snprintf$5) refers to printf5.o(i._printf_core) for _printf_core
    printf5.o(i.__0snprintf$5) refers to printf5.o(i._snputc) for _snputc
    printf5.o(i.__0sprintf$5) refers to printf5.o(i._printf_core) for _printf_core
    printf5.o(i.__0sprintf$5) refers to printf5.o(i._sputc) for _sputc
    printf5.o(i.__0vfprintf$5) refers to printf5.o(i._printf_core) for _printf_core
    printf5.o(i.__0vfprintf$5) refers to fputc.o(i.fputc) for fputc
    printf5.o(i.__0vprintf$5) refers to printf5.o(i._printf_core) for _printf_core
    printf5.o(i.__0vprintf$5) refers to fputc.o(i.fputc) for fputc
    printf5.o(i.__0vprintf$5) refers to stdout.o(.data) for __stdout
    printf5.o(i.__0vsnprintf$5) refers to printf5.o(i._printf_core) for _printf_core
    printf5.o(i.__0vsnprintf$5) refers to printf5.o(i._snputc) for _snputc
    printf5.o(i.__0vsprintf$5) refers to printf5.o(i._printf_core) for _printf_core
    printf5.o(i.__0vsprintf$5) refers to printf5.o(i._sputc) for _sputc
    printf5.o(i._printf_core) refers to uldiv.o(.text) for __aeabi_uldivmod
    printf6.o(i.__0fprintf$6) refers to printf6.o(i._printf_core) for _printf_core
    printf6.o(i.__0fprintf$6) refers to fputc.o(i.fputc) for fputc
    printf6.o(i.__0printf$6) refers to printf6.o(i._printf_core) for _printf_core
    printf6.o(i.__0printf$6) refers to fputc.o(i.fputc) for fputc
    printf6.o(i.__0printf$6) refers to stdout.o(.data) for __stdout
    printf6.o(i.__0snprintf$6) refers to printf6.o(i._printf_core) for _printf_core
    printf6.o(i.__0snprintf$6) refers to printf6.o(i._snputc) for _snputc
    printf6.o(i.__0sprintf$6) refers to printf6.o(i._printf_core) for _printf_core
    printf6.o(i.__0sprintf$6) refers to printf6.o(i._sputc) for _sputc
    printf6.o(i.__0vfprintf$6) refers to printf6.o(i._printf_core) for _printf_core
    printf6.o(i.__0vfprintf$6) refers to fputc.o(i.fputc) for fputc
    printf6.o(i.__0vprintf$6) refers to printf6.o(i._printf_core) for _printf_core
    printf6.o(i.__0vprintf$6) refers to fputc.o(i.fputc) for fputc
    printf6.o(i.__0vprintf$6) refers to stdout.o(.data) for __stdout
    printf6.o(i.__0vsnprintf$6) refers to printf6.o(i._printf_core) for _printf_core
    printf6.o(i.__0vsnprintf$6) refers to printf6.o(i._snputc) for _snputc
    printf6.o(i.__0vsprintf$6) refers to printf6.o(i._printf_core) for _printf_core
    printf6.o(i.__0vsprintf$6) refers to printf6.o(i._sputc) for _sputc
    printf6.o(i._printf_core) refers to printf6.o(i._printf_pre_padding) for _printf_pre_padding
    printf6.o(i._printf_core) refers to printf6.o(i._printf_post_padding) for _printf_post_padding
    printf6.o(i._printf_core) refers to uidiv_div0.o(.text) for __aeabi_uidivmod
    printf7.o(i.__0fprintf$7) refers to printf7.o(i._printf_core) for _printf_core
    printf7.o(i.__0fprintf$7) refers to fputc.o(i.fputc) for fputc
    printf7.o(i.__0printf$7) refers to printf7.o(i._printf_core) for _printf_core
    printf7.o(i.__0printf$7) refers to fputc.o(i.fputc) for fputc
    printf7.o(i.__0printf$7) refers to stdout.o(.data) for __stdout
    printf7.o(i.__0snprintf$7) refers to printf7.o(i._printf_core) for _printf_core
    printf7.o(i.__0snprintf$7) refers to printf7.o(i._snputc) for _snputc
    printf7.o(i.__0sprintf$7) refers to printf7.o(i._printf_core) for _printf_core
    printf7.o(i.__0sprintf$7) refers to printf7.o(i._sputc) for _sputc
    printf7.o(i.__0vfprintf$7) refers to printf7.o(i._printf_core) for _printf_core
    printf7.o(i.__0vfprintf$7) refers to fputc.o(i.fputc) for fputc
    printf7.o(i.__0vprintf$7) refers to printf7.o(i._printf_core) for _printf_core
    printf7.o(i.__0vprintf$7) refers to fputc.o(i.fputc) for fputc
    printf7.o(i.__0vprintf$7) refers to stdout.o(.data) for __stdout
    printf7.o(i.__0vsnprintf$7) refers to printf7.o(i._printf_core) for _printf_core
    printf7.o(i.__0vsnprintf$7) refers to printf7.o(i._snputc) for _snputc
    printf7.o(i.__0vsprintf$7) refers to printf7.o(i._printf_core) for _printf_core
    printf7.o(i.__0vsprintf$7) refers to printf7.o(i._sputc) for _sputc
    printf7.o(i._printf_core) refers to printf7.o(i._printf_pre_padding) for _printf_pre_padding
    printf7.o(i._printf_core) refers to printf7.o(i._printf_post_padding) for _printf_post_padding
    printf7.o(i._printf_core) refers to uldiv.o(.text) for __aeabi_uldivmod
    printf8.o(i.__0fprintf$8) refers to printf8.o(i._printf_core) for _printf_core
    printf8.o(i.__0fprintf$8) refers to fputc.o(i.fputc) for fputc
    printf8.o(i.__0printf$8) refers to printf8.o(i._printf_core) for _printf_core
    printf8.o(i.__0printf$8) refers to fputc.o(i.fputc) for fputc
    printf8.o(i.__0printf$8) refers to stdout.o(.data) for __stdout
    printf8.o(i.__0snprintf$8) refers to printf8.o(i._printf_core) for _printf_core
    printf8.o(i.__0snprintf$8) refers to printf8.o(i._snputc) for _snputc
    printf8.o(i.__0sprintf$8) refers to printf8.o(i._printf_core) for _printf_core
    printf8.o(i.__0sprintf$8) refers to printf8.o(i._sputc) for _sputc
    printf8.o(i.__0vfprintf$8) refers to printf8.o(i._printf_core) for _printf_core
    printf8.o(i.__0vfprintf$8) refers to fputc.o(i.fputc) for fputc
    printf8.o(i.__0vprintf$8) refers to printf8.o(i._printf_core) for _printf_core
    printf8.o(i.__0vprintf$8) refers to fputc.o(i.fputc) for fputc
    printf8.o(i.__0vprintf$8) refers to stdout.o(.data) for __stdout
    printf8.o(i.__0vsnprintf$8) refers to printf8.o(i._printf_core) for _printf_core
    printf8.o(i.__0vsnprintf$8) refers to printf8.o(i._snputc) for _snputc
    printf8.o(i.__0vsprintf$8) refers to printf8.o(i._printf_core) for _printf_core
    printf8.o(i.__0vsprintf$8) refers to printf8.o(i._sputc) for _sputc
    printf8.o(i._printf_core) refers to printf8.o(i._printf_pre_padding) for _printf_pre_padding
    printf8.o(i._printf_core) refers to printf8.o(i._printf_post_padding) for _printf_post_padding
    printf8.o(i._printf_core) refers to uldiv.o(.text) for __aeabi_uldivmod
    printfa.o(i.__0fprintf) refers (Special) to iusefp.o(.text) for __I$use$fp
    printfa.o(i.__0fprintf) refers to printfa.o(i._printf_core) for _printf_core
    printfa.o(i.__0fprintf) refers to fputc.o(i.fputc) for fputc
    printfa.o(i.__0printf) refers (Special) to iusefp.o(.text) for __I$use$fp
    printfa.o(i.__0printf) refers to printfa.o(i._printf_core) for _printf_core
    printfa.o(i.__0printf) refers to fputc.o(i.fputc) for fputc
    printfa.o(i.__0printf) refers to stdout.o(.data) for __stdout
    printfa.o(i.__0snprintf) refers (Special) to iusefp.o(.text) for __I$use$fp
    printfa.o(i.__0snprintf) refers to printfa.o(i._printf_core) for _printf_core
    printfa.o(i.__0snprintf) refers to printfa.o(i._snputc) for _snputc
    printfa.o(i.__0sprintf) refers (Special) to iusefp.o(.text) for __I$use$fp
    printfa.o(i.__0sprintf) refers to printfa.o(i._printf_core) for _printf_core
    printfa.o(i.__0sprintf) refers to printfa.o(i._sputc) for _sputc
    printfa.o(i.__0vfprintf) refers (Special) to iusefp.o(.text) for __I$use$fp
    printfa.o(i.__0vfprintf) refers to printfa.o(i._printf_core) for _printf_core
    printfa.o(i.__0vfprintf) refers to fputc.o(i.fputc) for fputc
    printfa.o(i.__0vprintf) refers (Special) to iusefp.o(.text) for __I$use$fp
    printfa.o(i.__0vprintf) refers to printfa.o(i._printf_core) for _printf_core
    printfa.o(i.__0vprintf) refers to fputc.o(i.fputc) for fputc
    printfa.o(i.__0vprintf) refers to stdout.o(.data) for __stdout
    printfa.o(i.__0vsnprintf) refers (Special) to iusefp.o(.text) for __I$use$fp
    printfa.o(i.__0vsnprintf) refers to printfa.o(i._printf_core) for _printf_core
    printfa.o(i.__0vsnprintf) refers to printfa.o(i._snputc) for _snputc
    printfa.o(i.__0vsprintf) refers (Special) to iusefp.o(.text) for __I$use$fp
    printfa.o(i.__0vsprintf) refers to printfa.o(i._printf_core) for _printf_core
    printfa.o(i.__0vsprintf) refers to printfa.o(i._sputc) for _sputc
    printfa.o(i._fp_digits) refers (Special) to iusefp.o(.text) for __I$use$fp
    printfa.o(i._fp_digits) refers to dmul.o(.text) for __aeabi_dmul
    printfa.o(i._fp_digits) refers to ddiv.o(.text) for __aeabi_ddiv
    printfa.o(i._fp_digits) refers to cdrcmple.o(.text) for __aeabi_cdrcmple
    printfa.o(i._fp_digits) refers to dadd.o(.text) for __aeabi_dadd
    printfa.o(i._fp_digits) refers to dfixul.o(.text) for __aeabi_d2ulz
    printfa.o(i._fp_digits) refers to uldiv.o(.text) for __aeabi_uldivmod
    printfa.o(i._printf_core) refers (Special) to iusefp.o(.text) for __I$use$fp
    printfa.o(i._printf_core) refers to printfa.o(i._printf_pre_padding) for _printf_pre_padding
    printfa.o(i._printf_core) refers to uldiv.o(.text) for __aeabi_uldivmod
    printfa.o(i._printf_core) refers to printfa.o(i._printf_post_padding) for _printf_post_padding
    printfa.o(i._printf_core) refers to printfa.o(i._fp_digits) for _fp_digits
    printfa.o(i._printf_core) refers to uidiv_div0.o(.text) for __aeabi_uidivmod
    printfa.o(i._printf_post_padding) refers (Special) to iusefp.o(.text) for __I$use$fp
    printfa.o(i._printf_pre_padding) refers (Special) to iusefp.o(.text) for __I$use$fp
    printfa.o(i._snputc) refers (Special) to iusefp.o(.text) for __I$use$fp
    printfa.o(i._sputc) refers (Special) to iusefp.o(.text) for __I$use$fp
    fadd.o(.text) refers (Special) to iusefp.o(.text) for __I$use$fp
    fadd.o(.text) refers to fepilogue.o(.text) for _float_epilogue
    fmul.o(.text) refers (Special) to iusefp.o(.text) for __I$use$fp
    fdiv.o(.text) refers (Special) to iusefp.o(.text) for __I$use$fp
    fdiv.o(.text) refers to fepilogue.o(.text) for _float_round
    dadd.o(.text) refers (Special) to iusefp.o(.text) for __I$use$fp
    dadd.o(.text) refers to llshl.o(.text) for __aeabi_llsl
    dadd.o(.text) refers to llsshr.o(.text) for __aeabi_lasr
    dadd.o(.text) refers to depilogue.o(.text) for _double_epilogue
    dmul.o(.text) refers (Special) to iusefp.o(.text) for __I$use$fp
    dmul.o(.text) refers to depilogue.o(.text) for _double_epilogue
    ddiv.o(.text) refers (Special) to iusefp.o(.text) for __I$use$fp
    ddiv.o(.text) refers to depilogue.o(.text) for _double_round
    fcmplt.o(.text) refers (Special) to iusefp.o(.text) for __I$use$fp
    fcmpgt.o(.text) refers (Special) to iusefp.o(.text) for __I$use$fp
    fflti.o(.text) refers (Special) to iusefp.o(.text) for __I$use$fp
    fflti.o(.text) refers to fepilogue.o(.text) for _float_epilogue
    ffltui.o(.text) refers (Special) to iusefp.o(.text) for __I$use$fp
    ffltui.o(.text) refers to fepilogue.o(.text) for _float_epilogue
    dflti.o(.text) refers (Special) to iusefp.o(.text) for __I$use$fp
    dflti.o(.text) refers to depilogue.o(.text) for _double_epilogue
    dfltui.o(.text) refers (Special) to iusefp.o(.text) for __I$use$fp
    dfltui.o(.text) refers to depilogue.o(.text) for _double_epilogue
    ffixi.o(.text) refers (Special) to iusefp.o(.text) for __I$use$fp
    ffixl.o(.text) refers (Special) to iusefp.o(.text) for __I$use$fp
    ffixl.o(.text) refers to llshl.o(.text) for __aeabi_llsl
    dfixi.o(.text) refers (Special) to iusefp.o(.text) for __I$use$fp
    dfixi.o(.text) refers to llushr.o(.text) for __aeabi_llsr
    f2d.o(.text) refers (Special) to iusefp.o(.text) for __I$use$fp
    d2f.o(.text) refers (Special) to iusefp.o(.text) for __I$use$fp
    d2f.o(.text) refers to fepilogue.o(.text) for _float_round
    entry2.o(.ARM.Collect$$$$00000001) refers to entry2.o(.ARM.Collect$$$$00002712) for __lit__00000000
    entry2.o(.ARM.Collect$$$$00002712) refers to startup_gd32e23x.o(STACK) for __initial_sp
    entry2.o(__vectab_stack_and_reset_area) refers to startup_gd32e23x.o(STACK) for __initial_sp
    entry2.o(__vectab_stack_and_reset_area) refers to entry.o(.ARM.Collect$$$$00000000) for __main
    entry5.o(.ARM.Collect$$$$00000004) refers to init.o(.text) for __scatterload
    entry9a.o(.ARM.Collect$$$$0000000B) refers to main.o(.text) for main
    entry9b.o(.ARM.Collect$$$$0000000C) refers to main.o(.text) for main
    fputc.o(i.fputc) refers (Special) to iusesemip.o(.text) for __I$use$semihosting$fputc
    fputc.o(i.fputc) refers (Special) to semi.o(.text) for __semihosting_library_function
    fputc_h.o(i._fputc$hlt) refers (Special) to iusesemip.o(.text) for __I$use$semihosting$fputc
    fputc_h.o(i._fputc$hlt) refers (Special) to semi.o(.text) for __semihosting_library_function
    uldiv.o(.text) refers to llushr.o(.text) for __aeabi_llsr
    uldiv.o(.text) refers to llshl.o(.text) for __aeabi_llsl
    strtof.o(.text) refers to strtod.o(.text) for __strtod_int
    fepilogue.o(.text) refers (Special) to iusefp.o(.text) for __I$use$fp
    depilogue.o(.text) refers (Special) to iusefp.o(.text) for __I$use$fp
    depilogue.o(.text) refers to depilogue.o(i.__ARM_clz) for __ARM_clz
    depilogue.o(.text) refers to llshl.o(.text) for __aeabi_llsl
    depilogue.o(.text) refers to llushr.o(.text) for __aeabi_llsr
    dfixul.o(.text) refers (Special) to iusefp.o(.text) for __I$use$fp
    dfixul.o(.text) refers to llushr.o(.text) for __aeabi_llsr
    dfixul.o(.text) refers to llshl.o(.text) for __aeabi_llsl
    cdrcmple.o(.text) refers (Special) to iusefp.o(.text) for __I$use$fp
    init.o(.text) refers to entry5.o(.ARM.Collect$$$$00000004) for __main_after_scatterload
    idiv_div0.o(.text) refers to uidiv_div0.o(.text) for __aeabi_uidivmod
    strtod.o(.text) refers to scanf_fp.o(.text) for _scanf_real
    strtod.o(.text) refers to _sgetc.o(.text) for _sgetc
    strtod.o(.text) refers to isspace_c.o(.text) for isspace
    isspace_c.o(.text) refers to ctype_c.o(.text) for __ctype_lookup
    scanf_fp.o(.text) refers (Special) to iusefp.o(.text) for __I$use$fp
    scanf_fp.o(.text) refers to llmul.o(.text) for __aeabi_lmul
    scanf_fp.o(.text) refers to dfltul.o(.text) for __aeabi_ul2d
    scanf_fp.o(.text) refers to dmul.o(.text) for __aeabi_dmul
    scanf_fp.o(.text) refers to ddiv.o(.text) for __aeabi_ddiv
    scanf_fp.o(.text) refers to scanf_fp.o(i._is_digit) for _is_digit
    scanf_fp.o(.text) refers to d2f.o(.text) for __aeabi_d2f
    ctype_c.o(.text) refers to ctype_c.o(.constdata) for .constdata
    dfltul.o(.text) refers (Special) to iusefp.o(.text) for __I$use$fp
    dfltul.o(.text) refers to depilogue.o(.text) for _double_epilogue
    depilogue.o(i.__ARM_clz) refers (Special) to iusefp.o(.text) for __I$use$fp
    scanf_fp.o(i._is_digit) refers (Special) to iusefp.o(.text) for __I$use$fp


==============================================================================

Removing Unused input sections from the image.

    Removing main.o(.ARM.exidx), (24 bytes).
    Removing main.o(.data.iBug8), (1 bytes).
    Removing main.o(.data.wStateSlave), (1 bytes).
    Removing main.o(.bss.activateWeakening), (1 bytes).
    Removing main.o(.data.beepsBackwards), (1 bytes).
    Removing main.o(.bss.slaveError), (1 bytes).
    Removing main.o(.ARM.use_no_argv), (4 bytes).
    Removing bldc.o(.ARM.exidx), (48 bytes).
    Removing bldc.o(.bss.realSpeed32_reg), (4 bytes).
    Removing bldc.o(.data.iDriverDo), (2 bytes).
    Removing driver.o(.ARM.exidx), (32 bytes).
    Removing driver.o(.data.iPID_DoI), (2 bytes).
    Removing driver.o(.bss.bErr), (2 bytes).
    Removing bldcbc.o(.text), (0 bytes).
    Removing bldcsine.o(.ARM.exidx), (56 bytes).
    Removing bldcsine.o(.bss.fGradient), (4 bytes).
    Removing bldcsine.o(.bss.fGradientX), (4 bytes).
    Removing setup.o(.ARM.exidx), (176 bytes).
    Removing setup.o(.bss.dev_id), (4 bytes).
    Removing setup.o(.bss.dma_init_struct_usart), (28 bytes).
    Removing setup.o(.bss.usart0_rx_buf), (1 bytes).
    Removing setup.o(.bss.usart1_rx_buf), (1 bytes).
    Removing setup.o(.bss.usart2_rx_buf), (1 bytes).
    Removing it.o(.ARM.exidx), (120 bytes).
    Removing it.o(.bss.iPwmTicks), (4 bytes).
    Removing it.o(.bss.iPwmTicks0), (4 bytes).
    Removing it.o(.bss.iAdcTicks), (4 bytes).
    Removing it.o(.bss.iAdcTicks0), (4 bytes).
    Removing it.o(.bss.iCounterUsart0), (4 bytes).
    Removing it.o(.bss.iCounter2Usart0), (4 bytes).
    Removing it.o(.bss.iCounterUsart1), (4 bytes).
    Removing it.o(.bss.iCounter2Usart1), (4 bytes).
    Removing it.o(.bss.iCounterUsart2), (4 bytes).
    Removing it.o(.bss.iCounter2Usart2), (4 bytes).
    Removing led.o(.text), (0 bytes).
    Removing comms.o(.text), (104 bytes).
    Removing comms.o(.ARM.exidx), (16 bytes).
    Removing remoteuart.o(.text), (0 bytes).
    Removing remotecrsf.o(.text), (0 bytes).
    Removing remotedummy.o(.ARM.exidx), (48 bytes).
    Removing remoteuartbus.o(.text), (0 bytes).
    Removing remoteoptimizepid.o(.text), (0 bytes).
    Removing commsmasterslave.o(.text), (0 bytes).
    Removing commsmasterslave.o(.bss.mosfetOutMaster), (1 bytes).
    Removing commsmasterslave.o(.bss.beepsBackwardsMaster), (1 bytes).
    Removing remoteadc.o(.text), (0 bytes).
    Removing remoteautodetect.o(.text), (0 bytes).
    Removing remoteautodetect.o(.bss.i), (2 bytes).
    Removing remoteros2.o(.text), (0 bytes).
    Removing i2c.o(.text), (0 bytes).
    Removing mpu6050.o(.text), (0 bytes).
    Removing imumpu6050.o(.text), (0 bytes).
    Removing bmi160.o(.text), (0 bytes).
    Removing pilothoverbike.o(.text), (0 bytes).
    Removing pilotuser.o(.text), (0 bytes).
    Removing segger_rtt.o(.ARM.exidx), (296 bytes).
    Removing gd32e23x_adc.o(.ARM.exidx), (272 bytes).
    Removing gd32e23x_dma.o(.ARM.exidx), (216 bytes).
    Removing gd32e23x_exti.o(.ARM.exidx), (96 bytes).
    Removing gd32e23x_fmc.o(.ARM.exidx), (240 bytes).
    Removing gd32e23x_fwdgt.o(.ARM.exidx), (72 bytes).
    Removing gd32e23x_gpio.o(.ARM.exidx), (120 bytes).
    Removing gd32e23x_i2c.o(.text), (872 bytes).
    Removing gd32e23x_i2c.o(.ARM.exidx), (280 bytes).
    Removing gd32e23x_misc.o(.ARM.exidx), (64 bytes).
    Removing gd32e23x_pmu.o(.text), (432 bytes).
    Removing gd32e23x_pmu.o(.ARM.exidx), (104 bytes).
    Removing gd32e23x_pmu.o(.bss..L_MergedGlobals), (12 bytes).
    Removing gd32e23x_rcu.o(.ARM.exidx), (312 bytes).
    Removing gd32e23x_syscfg.o(.ARM.exidx), (80 bytes).
    Removing gd32e23x_timer.o(.ARM.exidx), (584 bytes).
    Removing gd32e23x_usart.o(.text), (1688 bytes).
    Removing gd32e23x_usart.o(.ARM.exidx), (592 bytes).
    Removing gd32e23x_wwdgt.o(.text), (156 bytes).
    Removing gd32e23x_wwdgt.o(.ARM.exidx), (56 bytes).
    Removing startup_gd32e23x.o(HEAP), (1024 bytes).
    Removing system_gd32e23x.o(.ARM.exidx), (16 bytes).

77 unused section(s) (total 8314 bytes) removed from the image.

==============================================================================

Image Symbol Table

    Local Symbols

    Symbol Name                              Value     Ov Type        Size  Object(Section)

    ../clib/division.s                       0x00000000   Number         0  aeabi_sdiv.o ABSOLUTE
    ../clib/division.s                       0x00000000   Number         0  aeabi_sdiv_div0.o ABSOLUTE
    ../clib/longlong.c                       0x00000000   Number         0  llmul.o ABSOLUTE
    ../clib/microlib/ctype/ctype.c           0x00000000   Number         0  isspace_c.o ABSOLUTE
    ../clib/microlib/ctype/ctype.c           0x00000000   Number         0  ctype_c.o ABSOLUTE
    ../clib/microlib/division.c              0x00000000   Number         0  uidiv.o ABSOLUTE
    ../clib/microlib/division.c              0x00000000   Number         0  uldiv.o ABSOLUTE
    ../clib/microlib/division.c              0x00000000   Number         0  uidiv_div0.o ABSOLUTE
    ../clib/microlib/division.c              0x00000000   Number         0  idiv_div0.o ABSOLUTE
    ../clib/microlib/division.c              0x00000000   Number         0  idiv0.o ABSOLUTE
    ../clib/microlib/init/entry.s            0x00000000   Number         0  entry.o ABSOLUTE
    ../clib/microlib/init/entry.s            0x00000000   Number         0  entry2.o ABSOLUTE
    ../clib/microlib/init/entry.s            0x00000000   Number         0  entry5.o ABSOLUTE
    ../clib/microlib/init/entry.s            0x00000000   Number         0  entry7a.o ABSOLUTE
    ../clib/microlib/init/entry.s            0x00000000   Number         0  entry7b.o ABSOLUTE
    ../clib/microlib/init/entry.s            0x00000000   Number         0  entry8a.o ABSOLUTE
    ../clib/microlib/init/entry.s            0x00000000   Number         0  entry8b.o ABSOLUTE
    ../clib/microlib/init/entry.s            0x00000000   Number         0  entry9a.o ABSOLUTE
    ../clib/microlib/init/entry.s            0x00000000   Number         0  entry9b.o ABSOLUTE
    ../clib/microlib/init/entry.s            0x00000000   Number         0  entry10a.o ABSOLUTE
    ../clib/microlib/init/entry.s            0x00000000   Number         0  entry10b.o ABSOLUTE
    ../clib/microlib/init/entry.s            0x00000000   Number         0  entry11a.o ABSOLUTE
    ../clib/microlib/init/entry.s            0x00000000   Number         0  entry11b.o ABSOLUTE
    ../clib/microlib/longlong.c              0x00000000   Number         0  llshl.o ABSOLUTE
    ../clib/microlib/longlong.c              0x00000000   Number         0  llushr.o ABSOLUTE
    ../clib/microlib/longlong.c              0x00000000   Number         0  llsshr.o ABSOLUTE
    ../clib/microlib/printf/printf.c         0x00000000   Number         0  printfb.o ABSOLUTE
    ../clib/microlib/printf/printf.c         0x00000000   Number         0  printf0.o ABSOLUTE
    ../clib/microlib/printf/printf.c         0x00000000   Number         0  printf1.o ABSOLUTE
    ../clib/microlib/printf/printf.c         0x00000000   Number         0  printf2.o ABSOLUTE
    ../clib/microlib/printf/printf.c         0x00000000   Number         0  printf3.o ABSOLUTE
    ../clib/microlib/printf/printf.c         0x00000000   Number         0  printf4.o ABSOLUTE
    ../clib/microlib/printf/printf.c         0x00000000   Number         0  printf5.o ABSOLUTE
    ../clib/microlib/printf/printf.c         0x00000000   Number         0  printf6.o ABSOLUTE
    ../clib/microlib/printf/printf.c         0x00000000   Number         0  printf7.o ABSOLUTE
    ../clib/microlib/printf/printf.c         0x00000000   Number         0  printf8.o ABSOLUTE
    ../clib/microlib/printf/printf.c         0x00000000   Number         0  printfa.o ABSOLUTE
    ../clib/microlib/printf/stubs.s          0x00000000   Number         0  printfstubs.o ABSOLUTE
    ../clib/microlib/stdio/fputc.c           0x00000000   Number         0  fputc.o ABSOLUTE
    ../clib/microlib/stdio/fputc.c           0x00000000   Number         0  fputc_h.o ABSOLUTE
    ../clib/microlib/stdio/semi.s            0x00000000   Number         0  semi.o ABSOLUTE
    ../clib/microlib/stdio/streams.c         0x00000000   Number         0  stdout.o ABSOLUTE
    ../clib/microlib/string/memcmp.c         0x00000000   Number         0  memcmp.o ABSOLUTE
    ../clib/microlib/string/memcpy.c         0x00000000   Number         0  memcpya.o ABSOLUTE
    ../clib/microlib/string/memcpy.c         0x00000000   Number         0  memcpyb.o ABSOLUTE
    ../clib/microlib/string/memset.c         0x00000000   Number         0  memseta.o ABSOLUTE
    ../clib/microlib/string/strcmp.c         0x00000000   Number         0  strcmp.o ABSOLUTE
    ../clib/microlib/string/strlen.c         0x00000000   Number         0  strlen.o ABSOLUTE
    ../clib/microlib/stubs.s                 0x00000000   Number         0  iusefp.o ABSOLUTE
    ../clib/microlib/stubs.s                 0x00000000   Number         0  iusesemip.o ABSOLUTE
    ../clib/scanf.c                          0x00000000   Number         0  strtof.o ABSOLUTE
    ../clib/scanf.c                          0x00000000   Number         0  strtod.o ABSOLUTE
    ../clib/scanf.c                          0x00000000   Number         0  scanf_fp.o ABSOLUTE
    ../clib/scanf.c                          0x00000000   Number         0  _sgetc.o ABSOLUTE
    ../fplib/microlib/d2f.c                  0x00000000   Number         0  d2f.o ABSOLUTE
    ../fplib/microlib/f2d.c                  0x00000000   Number         0  f2d.o ABSOLUTE
    ../fplib/microlib/fpadd.c                0x00000000   Number         0  fadd.o ABSOLUTE
    ../fplib/microlib/fpadd.c                0x00000000   Number         0  dadd.o ABSOLUTE
    ../fplib/microlib/fpcmp.c                0x00000000   Number         0  fcmplt.o ABSOLUTE
    ../fplib/microlib/fpcmp.c                0x00000000   Number         0  fcmpgt.o ABSOLUTE
    ../fplib/microlib/fpdiv.c                0x00000000   Number         0  fdiv.o ABSOLUTE
    ../fplib/microlib/fpdiv.c                0x00000000   Number         0  ddiv.o ABSOLUTE
    ../fplib/microlib/fpepilogue.c           0x00000000   Number         0  fepilogue.o ABSOLUTE
    ../fplib/microlib/fpepilogue.c           0x00000000   Number         0  depilogue.o ABSOLUTE
    ../fplib/microlib/fpfix.c                0x00000000   Number         0  ffixi.o ABSOLUTE
    ../fplib/microlib/fpfix.c                0x00000000   Number         0  ffixl.o ABSOLUTE
    ../fplib/microlib/fpfix.c                0x00000000   Number         0  dfixi.o ABSOLUTE
    ../fplib/microlib/fpfix.c                0x00000000   Number         0  dfixul.o ABSOLUTE
    ../fplib/microlib/fpflt.c                0x00000000   Number         0  fflti.o ABSOLUTE
    ../fplib/microlib/fpflt.c                0x00000000   Number         0  ffltui.o ABSOLUTE
    ../fplib/microlib/fpflt.c                0x00000000   Number         0  dflti.o ABSOLUTE
    ../fplib/microlib/fpflt.c                0x00000000   Number         0  dfltui.o ABSOLUTE
    ../fplib/microlib/fpflt.c                0x00000000   Number         0  dfltul.o ABSOLUTE
    ../fplib/microlib/fpmul.c                0x00000000   Number         0  fmul.o ABSOLUTE
    ../fplib/microlib/fpmul.c                0x00000000   Number         0  dmul.o ABSOLUTE
    ../mathlib/strtof.c                      0x00000000   Number         0  strtof.o ABSOLUTE
    PilotHoverbike.c                         0x00000000   Number         0  pilothoverbike.o ABSOLUTE
    PilotUser.c                              0x00000000   Number         0  pilotuser.o ABSOLUTE
    RTE/Device/GD32E230C8/startup_gd32e23x.s 0x00000000   Number         0  startup_gd32e23x.o ABSOLUTE
    RemoteAdc.c                              0x00000000   Number         0  remoteadc.o ABSOLUTE
    RemoteAutodetect.c                       0x00000000   Number         0  remoteautodetect.o ABSOLUTE
    RemoteROS2.c                             0x00000000   Number         0  remoteros2.o ABSOLUTE
    SEGGER_RTT.c                             0x00000000   Number         0  segger_rtt.o ABSOLUTE
    bldc.c                                   0x00000000   Number         0  bldc.o ABSOLUTE
    bldcBC.c                                 0x00000000   Number         0  bldcbc.o ABSOLUTE
    bldcSINE.c                               0x00000000   Number         0  bldcsine.o ABSOLUTE
    bmi160.c                                 0x00000000   Number         0  bmi160.o ABSOLUTE
    cdrcmple.s                               0x00000000   Number         0  cdrcmple.o ABSOLUTE
    comms.c                                  0x00000000   Number         0  comms.o ABSOLUTE
    commsMasterSlave.c                       0x00000000   Number         0  commsmasterslave.o ABSOLUTE
    dc.s                                     0x00000000   Number         0  dc.o ABSOLUTE
    driver.c                                 0x00000000   Number         0  driver.o ABSOLUTE
    gd32e23x_adc.c                           0x00000000   Number         0  gd32e23x_adc.o ABSOLUTE
    gd32e23x_dma.c                           0x00000000   Number         0  gd32e23x_dma.o ABSOLUTE
    gd32e23x_exti.c                          0x00000000   Number         0  gd32e23x_exti.o ABSOLUTE
    gd32e23x_fmc.c                           0x00000000   Number         0  gd32e23x_fmc.o ABSOLUTE
    gd32e23x_fwdgt.c                         0x00000000   Number         0  gd32e23x_fwdgt.o ABSOLUTE
    gd32e23x_gpio.c                          0x00000000   Number         0  gd32e23x_gpio.o ABSOLUTE
    gd32e23x_i2c.c                           0x00000000   Number         0  gd32e23x_i2c.o ABSOLUTE
    gd32e23x_misc.c                          0x00000000   Number         0  gd32e23x_misc.o ABSOLUTE
    gd32e23x_pmu.c                           0x00000000   Number         0  gd32e23x_pmu.o ABSOLUTE
    gd32e23x_rcu.c                           0x00000000   Number         0  gd32e23x_rcu.o ABSOLUTE
    gd32e23x_syscfg.c                        0x00000000   Number         0  gd32e23x_syscfg.o ABSOLUTE
    gd32e23x_timer.c                         0x00000000   Number         0  gd32e23x_timer.o ABSOLUTE
    gd32e23x_usart.c                         0x00000000   Number         0  gd32e23x_usart.o ABSOLUTE
    gd32e23x_wwdgt.c                         0x00000000   Number         0  gd32e23x_wwdgt.o ABSOLUTE
    handlers.s                               0x00000000   Number         0  handlers.o ABSOLUTE
    i2c.c                                    0x00000000   Number         0  i2c.o ABSOLUTE
    imuMPU6050.c                             0x00000000   Number         0  imumpu6050.o ABSOLUTE
    init.s                                   0x00000000   Number         0  init.o ABSOLUTE
    it.c                                     0x00000000   Number         0  it.o ABSOLUTE
    led.c                                    0x00000000   Number         0  led.o ABSOLUTE
    main.c                                   0x00000000   Number         0  main.o ABSOLUTE
    mpu6050.c                                0x00000000   Number         0  mpu6050.o ABSOLUTE
    remoteCrsf.c                             0x00000000   Number         0  remotecrsf.o ABSOLUTE
    remoteDummy.c                            0x00000000   Number         0  remotedummy.o ABSOLUTE
    remoteOptimizePID.c                      0x00000000   Number         0  remoteoptimizepid.o ABSOLUTE
    remoteUart.c                             0x00000000   Number         0  remoteuart.o ABSOLUTE
    remoteUartBus.c                          0x00000000   Number         0  remoteuartbus.o ABSOLUTE
    setup.c                                  0x00000000   Number         0  setup.o ABSOLUTE
    system_gd32e23x.c                        0x00000000   Number         0  system_gd32e23x.o ABSOLUTE
    RESET                                    0x08000000   Section      204  startup_gd32e23x.o(RESET)
    .ARM.Collect$$$$00000000                 0x080000cc   Section        0  entry.o(.ARM.Collect$$$$00000000)
    .ARM.Collect$$$$00000001                 0x080000cc   Section        4  entry2.o(.ARM.Collect$$$$00000001)
    .ARM.Collect$$$$00000004                 0x080000d0   Section        4  entry5.o(.ARM.Collect$$$$00000004)
    .ARM.Collect$$$$00000008                 0x080000d4   Section        0  entry7b.o(.ARM.Collect$$$$00000008)
    .ARM.Collect$$$$0000000A                 0x080000d4   Section        0  entry8b.o(.ARM.Collect$$$$0000000A)
    .ARM.Collect$$$$0000000B                 0x080000d4   Section        8  entry9a.o(.ARM.Collect$$$$0000000B)
    __lit__00000000                          0x080000dc   Data           4  entry2.o(.ARM.Collect$$$$00002712)
    .ARM.Collect$$$$0000000D                 0x080000dc   Section        0  entry10a.o(.ARM.Collect$$$$0000000D)
    .ARM.Collect$$$$0000000F                 0x080000dc   Section        0  entry11a.o(.ARM.Collect$$$$0000000F)
    .ARM.Collect$$$$00002712                 0x080000dc   Section        4  entry2.o(.ARM.Collect$$$$00002712)
    [Anonymous Symbol]                       0x080000e0   Section        0  main.o(.text)
    __arm_cp.0_0                             0x08000440   Number         4  main.o(.text)
    __arm_cp.0_1                             0x08000444   Number         4  main.o(.text)
    __arm_cp.0_2                             0x08000448   Number         4  main.o(.text)
    __arm_cp.0_3                             0x0800044c   Number         4  main.o(.text)
    __arm_cp.0_4                             0x08000450   Number         4  main.o(.text)
    __arm_cp.0_5                             0x08000454   Number         4  main.o(.text)
    __arm_cp.0_6                             0x08000458   Number         4  main.o(.text)
    __arm_cp.0_7                             0x0800045c   Number         4  main.o(.text)
    __arm_cp.0_8                             0x08000460   Number         4  main.o(.text)
    __arm_cp.0_9                             0x08000464   Number         4  main.o(.text)
    __arm_cp.0_10                            0x08000468   Number         4  main.o(.text)
    __arm_cp.0_11                            0x0800046c   Number         4  main.o(.text)
    __arm_cp.0_12                            0x08000470   Number         4  main.o(.text)
    __arm_cp.0_13                            0x08000474   Number         4  main.o(.text)
    __arm_cp.0_14                            0x08000478   Number         4  main.o(.text)
    __arm_cp.0_15                            0x0800047c   Number         4  main.o(.text)
    __arm_cp.0_16                            0x08000480   Number         4  main.o(.text)
    __arm_cp.0_17                            0x08000484   Number         4  main.o(.text)
    __arm_cp.0_18                            0x08000488   Number         4  main.o(.text)
    __arm_cp.0_19                            0x0800048c   Number         4  main.o(.text)
    __arm_cp.0_20                            0x08000490   Number         4  main.o(.text)
    __arm_cp.0_21                            0x08000494   Number         4  main.o(.text)
    __arm_cp.0_22                            0x08000498   Number         4  main.o(.text)
    __arm_cp.0_23                            0x0800049c   Number         4  main.o(.text)
    __arm_cp.1_0                             0x080004f8   Number         4  main.o(.text)
    __arm_cp.1_1                             0x080004fc   Number         4  main.o(.text)
    __arm_cp.2_0                             0x08000578   Number         4  main.o(.text)
    __arm_cp.2_1                             0x0800057c   Number         4  main.o(.text)
    __arm_cp.2_2                             0x08000580   Number         4  main.o(.text)
    [Anonymous Symbol]                       0x08000584   Section        0  bldc.o(.text)
    __arm_cp.1_0                             0x080005b8   Number         4  bldc.o(.text)
    __arm_cp.2_0                             0x080005c4   Number         4  bldc.o(.text)
    __arm_cp.3_0                             0x08000628   Number         4  bldc.o(.text)
    __arm_cp.3_1                             0x0800062c   Number         4  bldc.o(.text)
    __arm_cp.3_2                             0x08000630   Number         4  bldc.o(.text)
    __arm_cp.3_3                             0x08000634   Number         4  bldc.o(.text)
    __arm_cp.4_0                             0x0800064c   Number         4  bldc.o(.text)
    __arm_cp.4_1                             0x08000650   Number         4  bldc.o(.text)
    __arm_cp.5_0                             0x080009c4   Number         4  bldc.o(.text)
    __arm_cp.5_1                             0x080009c8   Number         4  bldc.o(.text)
    __arm_cp.5_2                             0x080009cc   Number         4  bldc.o(.text)
    __arm_cp.5_3                             0x080009d0   Number         4  bldc.o(.text)
    __arm_cp.5_4                             0x080009d4   Number         4  bldc.o(.text)
    __arm_cp.5_5                             0x080009d8   Number         4  bldc.o(.text)
    __arm_cp.5_6                             0x080009dc   Number         4  bldc.o(.text)
    __arm_cp.5_7                             0x080009e0   Number         4  bldc.o(.text)
    __arm_cp.5_8                             0x080009e4   Number         4  bldc.o(.text)
    __arm_cp.5_9                             0x080009e8   Number         4  bldc.o(.text)
    __arm_cp.5_10                            0x080009ec   Number         4  bldc.o(.text)
    __arm_cp.5_11                            0x080009f0   Number         4  bldc.o(.text)
    __arm_cp.5_12                            0x080009f4   Number         4  bldc.o(.text)
    __arm_cp.5_13                            0x080009f8   Number         4  bldc.o(.text)
    __arm_cp.5_14                            0x080009fc   Number         4  bldc.o(.text)
    __arm_cp.5_15                            0x08000a00   Number         4  bldc.o(.text)
    __arm_cp.5_16                            0x08000a04   Number         4  bldc.o(.text)
    __arm_cp.5_17                            0x08000a08   Number         4  bldc.o(.text)
    __arm_cp.5_18                            0x08000a0c   Number         4  bldc.o(.text)
    __arm_cp.5_19                            0x08000a10   Number         4  bldc.o(.text)
    __arm_cp.5_20                            0x08000a14   Number         4  bldc.o(.text)
    __arm_cp.5_21                            0x08000a18   Number         4  bldc.o(.text)
    __arm_cp.5_22                            0x08000a1c   Number         4  bldc.o(.text)
    __arm_cp.5_23                            0x08000a20   Number         4  bldc.o(.text)
    __arm_cp.5_24                            0x08000a24   Number         4  bldc.o(.text)
    __arm_cp.5_25                            0x08000a28   Number         4  bldc.o(.text)
    __arm_cp.5_26                            0x08000a2c   Number         4  bldc.o(.text)
    __arm_cp.5_27                            0x08000a30   Number         4  bldc.o(.text)
    __arm_cp.5_28                            0x08000a34   Number         4  bldc.o(.text)
    [Anonymous Symbol]                       0x08000a38   Section        0  driver.o(.text)
    __arm_cp.0_0                             0x08000aa4   Number         4  driver.o(.text)
    __arm_cp.1_0                             0x08000bb8   Number         4  driver.o(.text)
    __arm_cp.2_0                             0x08000c30   Number         4  driver.o(.text)
    __arm_cp.2_1                             0x08000c34   Number         4  driver.o(.text)
    __arm_cp.2_2                             0x08000c38   Number         4  driver.o(.text)
    __arm_cp.2_3                             0x08000c3c   Number         4  driver.o(.text)
    __arm_cp.3_0                             0x08000c74   Number         4  driver.o(.text)
    __arm_cp.3_1                             0x08000c78   Number         4  driver.o(.text)
    __arm_cp.3_2                             0x08000c7c   Number         4  driver.o(.text)
    __arm_cp.3_3                             0x08000c80   Number         4  driver.o(.text)
    [Anonymous Symbol]                       0x08000c84   Section        0  bldcsine.o(.text)
    __arm_cp.1_0                             0x08000ce8   Number         4  bldcsine.o(.text)
    __arm_cp.1_1                             0x08000cec   Number         4  bldcsine.o(.text)
    __arm_cp.1_2                             0x08000cf0   Number         4  bldcsine.o(.text)
    __arm_cp.1_3                             0x08000cf4   Number         4  bldcsine.o(.text)
    __arm_cp.1_4                             0x08000cf8   Number         4  bldcsine.o(.text)
    __arm_cp.2_0                             0x08000d70   Number         4  bldcsine.o(.text)
    __arm_cp.2_1                             0x08000d74   Number         4  bldcsine.o(.text)
    __arm_cp.2_2                             0x08000d78   Number         4  bldcsine.o(.text)
    __arm_cp.2_3                             0x08000d7c   Number         4  bldcsine.o(.text)
    __arm_cp.2_4                             0x08000d80   Number         4  bldcsine.o(.text)
    __arm_cp.2_5                             0x08000d84   Number         4  bldcsine.o(.text)
    __arm_cp.6_0                             0x08000ed8   Number         4  bldcsine.o(.text)
    __arm_cp.6_1                             0x08000edc   Number         4  bldcsine.o(.text)
    __arm_cp.6_2                             0x08000ee0   Number         4  bldcsine.o(.text)
    __arm_cp.6_3                             0x08000ee4   Number         4  bldcsine.o(.text)
    __arm_cp.6_4                             0x08000ee8   Number         4  bldcsine.o(.text)
    __arm_cp.6_5                             0x08000eec   Number         4  bldcsine.o(.text)
    __arm_cp.6_6                             0x08000ef0   Number         4  bldcsine.o(.text)
    [Anonymous Symbol]                       0x08000ef4   Section        0  setup.o(.text)
    __arm_cp.3_0                             0x08000f8c   Number         4  setup.o(.text)
    __arm_cp.3_1                             0x08000f90   Number         4  setup.o(.text)
    __arm_cp.4_0                             0x08000fec   Number         4  setup.o(.text)
    __arm_cp.4_1                             0x08000ff0   Number         4  setup.o(.text)
    __arm_cp.4_2                             0x08000ff4   Number         4  setup.o(.text)
    __arm_cp.5_0                             0x08001178   Number         4  setup.o(.text)
    __arm_cp.5_1                             0x0800117c   Number         4  setup.o(.text)
    __arm_cp.5_2                             0x08001180   Number         4  setup.o(.text)
    __arm_cp.5_3                             0x08001184   Number         4  setup.o(.text)
    __arm_cp.5_4                             0x08001188   Number         4  setup.o(.text)
    __arm_cp.5_5                             0x0800118c   Number         4  setup.o(.text)
    __arm_cp.5_6                             0x08001190   Number         4  setup.o(.text)
    __arm_cp.5_7                             0x08001194   Number         4  setup.o(.text)
    __arm_cp.5_8                             0x08001198   Number         4  setup.o(.text)
    __arm_cp.6_0                             0x0800130c   Number         4  setup.o(.text)
    __arm_cp.6_1                             0x08001310   Number         4  setup.o(.text)
    __arm_cp.6_2                             0x08001314   Number         4  setup.o(.text)
    __arm_cp.6_3                             0x08001318   Number         4  setup.o(.text)
    __arm_cp.6_4                             0x0800131c   Number         4  setup.o(.text)
    __arm_cp.6_5                             0x08001320   Number         4  setup.o(.text)
    __arm_cp.6_6                             0x08001324   Number         4  setup.o(.text)
    __arm_cp.6_7                             0x08001328   Number         4  setup.o(.text)
    __arm_cp.6_8                             0x0800132c   Number         4  setup.o(.text)
    __arm_cp.6_9                             0x08001330   Number         4  setup.o(.text)
    __arm_cp.6_10                            0x08001334   Number         4  setup.o(.text)
    __arm_cp.7_0                             0x08001408   Number         4  setup.o(.text)
    __arm_cp.7_1                             0x0800140c   Number         4  setup.o(.text)
    __arm_cp.7_2                             0x08001410   Number         4  setup.o(.text)
    __arm_cp.7_3                             0x08001414   Number         4  setup.o(.text)
    __arm_cp.16_0                            0x080014b4   Number         4  setup.o(.text)
    __arm_cp.16_1                            0x080014b8   Number         4  setup.o(.text)
    __arm_cp.17_0                            0x080014ec   Number         4  setup.o(.text)
    __arm_cp.17_1                            0x080014f0   Number         4  setup.o(.text)
    __arm_cp.17_2                            0x080014f4   Number         4  setup.o(.text)
    __arm_cp.17_3                            0x080014f8   Number         4  setup.o(.text)
    __arm_cp.18_0                            0x0800153c   Number         4  setup.o(.text)
    __arm_cp.18_1                            0x08001540   Number         4  setup.o(.text)
    __arm_cp.18_2                            0x08001544   Number         4  setup.o(.text)
    __arm_cp.18_3                            0x08001548   Number         4  setup.o(.text)
    __arm_cp.19_0                            0x08001564   Number         4  setup.o(.text)
    __arm_cp.19_1                            0x08001568   Number         4  setup.o(.text)
    __arm_cp.19_2                            0x0800156c   Number         4  setup.o(.text)
    __arm_cp.20_0                            0x08001594   Number         4  setup.o(.text)
    __arm_cp.20_1                            0x08001598   Number         4  setup.o(.text)
    [Anonymous Symbol]                       0x080015f4   Section        0  it.o(.text)
    __arm_cp.0_0                             0x08001600   Number         4  it.o(.text)
    __arm_cp.1_0                             0x0800160c   Number         4  it.o(.text)
    __arm_cp.2_0                             0x0800163c   Number         4  it.o(.text)
    __arm_cp.2_1                             0x08001640   Number         4  it.o(.text)
    __arm_cp.2_2                             0x08001644   Number         4  it.o(.text)
    __arm_cp.2_3                             0x08001648   Number         4  it.o(.text)
    __arm_cp.3_0                             0x0800169c   Number         4  it.o(.text)
    __arm_cp.3_1                             0x080016a0   Number         4  it.o(.text)
    __arm_cp.4_0                             0x080016e4   Number         4  it.o(.text)
    __arm_cp.5_0                             0x080016f0   Number         4  it.o(.text)
    __arm_cp.6_0                             0x08001708   Number         4  it.o(.text)
    [Anonymous Symbol]                       0x0800171c   Section        0  remotedummy.o(.text)
    __arm_cp.1_2                             0x080018e0   Number         4  remotedummy.o(.text)
    __arm_cp.1_4                             0x080018f4   Number         4  remotedummy.o(.text)
    __arm_cp.1_5                             0x080018f8   Number         4  remotedummy.o(.text)
    __arm_cp.1_6                             0x080018fc   Number         4  remotedummy.o(.text)
    __arm_cp.1_7                             0x08001900   Number         4  remotedummy.o(.text)
    __arm_cp.1_8                             0x08001904   Number         4  remotedummy.o(.text)
    __arm_cp.1_10                            0x08001920   Number         4  remotedummy.o(.text)
    __arm_cp.2_0                             0x08001968   Number         4  remotedummy.o(.text)
    __arm_cp.3_0                             0x08001b68   Number         4  remotedummy.o(.text)
    __arm_cp.3_1                             0x08001b6c   Number         4  remotedummy.o(.text)
    __arm_cp.3_2                             0x08001b70   Number         4  remotedummy.o(.text)
    __arm_cp.3_3                             0x08001b74   Number         4  remotedummy.o(.text)
    __arm_cp.3_4                             0x08001b78   Number         4  remotedummy.o(.text)
    __arm_cp.3_5                             0x08001b7c   Number         4  remotedummy.o(.text)
    __arm_cp.3_7                             0x08001b90   Number         4  remotedummy.o(.text)
    __arm_cp.3_8                             0x08001b94   Number         4  remotedummy.o(.text)
    __arm_cp.3_9                             0x08001b98   Number         4  remotedummy.o(.text)
    __arm_cp.3_10                            0x08001b9c   Number         4  remotedummy.o(.text)
    __arm_cp.3_11                            0x08001ba0   Number         4  remotedummy.o(.text)
    __arm_cp.3_12                            0x08001ba4   Number         4  remotedummy.o(.text)
    __arm_cp.3_13                            0x08001ba8   Number         4  remotedummy.o(.text)
    __arm_cp.3_14                            0x08001bac   Number         4  remotedummy.o(.text)
    __arm_cp.3_15                            0x08001bb0   Number         4  remotedummy.o(.text)
    __arm_cp.3_16                            0x08001bb4   Number         4  remotedummy.o(.text)
    __arm_cp.3_17                            0x08001bb8   Number         4  remotedummy.o(.text)
    __arm_cp.3_19                            0x08001bfc   Number         4  remotedummy.o(.text)
    [Anonymous Symbol]                       0x08001c30   Section        0  segger_rtt.o(.text)
    __arm_cp.0_0                             0x08001cac   Number         4  segger_rtt.o(.text)
    _DoInit                                  0x08001cb1   Thumb Code    84  segger_rtt.o(.text)
    __arm_cp.1_0                             0x08001d04   Number         4  segger_rtt.o(.text)
    __arm_cp.1_1                             0x08001d08   Number         4  segger_rtt.o(.text)
    __arm_cp.1_2                             0x08001d0c   Number         4  segger_rtt.o(.text)
    __arm_cp.1_3                             0x08001d10   Number         4  segger_rtt.o(.text)
    __arm_cp.1_4                             0x08001d14   Number         4  segger_rtt.o(.text)
    __arm_cp.2_0                             0x08001d94   Number         4  segger_rtt.o(.text)
    __arm_cp.5_0                             0x08001e5c   Number         4  segger_rtt.o(.text)
    __arm_cp.6_0                             0x08001ed4   Number         4  segger_rtt.o(.text)
    __arm_cp.7_0                             0x08001f38   Number         4  segger_rtt.o(.text)
    _GetAvailWriteSpace                      0x08001f3d   Thumb Code    22  segger_rtt.o(.text)
    _WriteNoCheck                            0x08001f53   Thumb Code    62  segger_rtt.o(.text)
    _WriteBlocking                           0x08001f91   Thumb Code    94  segger_rtt.o(.text)
    __arm_cp.11_0                            0x08002050   Number         4  segger_rtt.o(.text)
    __arm_cp.12_0                            0x08002084   Number         4  segger_rtt.o(.text)
    __arm_cp.13_0                            0x080020b8   Number         4  segger_rtt.o(.text)
    __arm_cp.15_0                            0x08002108   Number         4  segger_rtt.o(.text)
    __arm_cp.16_0                            0x08002158   Number         4  segger_rtt.o(.text)
    __arm_cp.17_0                            0x080021b4   Number         4  segger_rtt.o(.text)
    __arm_cp.20_0                            0x080021fc   Number         4  segger_rtt.o(.text)
    __arm_cp.21_0                            0x08002210   Number         4  segger_rtt.o(.text)
    __arm_cp.22_0                            0x08002224   Number         4  segger_rtt.o(.text)
    __arm_cp.23_0                            0x08002288   Number         4  segger_rtt.o(.text)
    __arm_cp.24_0                            0x080022ec   Number         4  segger_rtt.o(.text)
    __arm_cp.25_0                            0x0800233c   Number         4  segger_rtt.o(.text)
    __arm_cp.26_0                            0x08002390   Number         4  segger_rtt.o(.text)
    __arm_cp.27_0                            0x080023c8   Number         4  segger_rtt.o(.text)
    __arm_cp.28_0                            0x08002400   Number         4  segger_rtt.o(.text)
    __arm_cp.29_0                            0x08002438   Number         4  segger_rtt.o(.text)
    __arm_cp.30_0                            0x08002470   Number         4  segger_rtt.o(.text)
    __arm_cp.32_0                            0x080024ec   Number         4  segger_rtt.o(.text)
    __arm_cp.32_1                            0x080024f0   Number         4  segger_rtt.o(.text)
    __arm_cp.32_2                            0x080024f4   Number         4  segger_rtt.o(.text)
    __arm_cp.33_0                            0x0800259c   Number         4  segger_rtt.o(.text)
    __arm_cp.33_1                            0x080025a0   Number         4  segger_rtt.o(.text)
    _PostTerminalSwitch                      0x080025a5   Thumb Code    28  segger_rtt.o(.text)
    __arm_cp.34_0                            0x080025c0   Number         4  segger_rtt.o(.text)
    __arm_cp.34_1                            0x080025c4   Number         4  segger_rtt.o(.text)
    __arm_cp.35_0                            0x080025d4   Number         4  segger_rtt.o(.text)
    __arm_cp.36_0                            0x080025f8   Number         4  segger_rtt.o(.text)
    [Anonymous Symbol]                       0x080025fc   Section        0  gd32e23x_adc.o(.text)
    __arm_cp.0_0                             0x08002614   Number         4  gd32e23x_adc.o(.text)
    __arm_cp.1_0                             0x0800262c   Number         4  gd32e23x_adc.o(.text)
    __arm_cp.2_0                             0x0800263c   Number         4  gd32e23x_adc.o(.text)
    __arm_cp.3_0                             0x08002660   Number         4  gd32e23x_adc.o(.text)
    __arm_cp.4_0                             0x08002674   Number         4  gd32e23x_adc.o(.text)
    __arm_cp.5_0                             0x08002688   Number         4  gd32e23x_adc.o(.text)
    __arm_cp.6_0                             0x0800269c   Number         4  gd32e23x_adc.o(.text)
    __arm_cp.7_0                             0x080026b0   Number         4  gd32e23x_adc.o(.text)
    __arm_cp.8_0                             0x080026f4   Number         4  gd32e23x_adc.o(.text)
    __arm_cp.9_0                             0x08002748   Number         4  gd32e23x_adc.o(.text)
    __arm_cp.10_0                            0x08002764   Number         4  gd32e23x_adc.o(.text)
    __arm_cp.11_0                            0x08002798   Number         4  gd32e23x_adc.o(.text)
    __arm_cp.11_1                            0x0800279c   Number         4  gd32e23x_adc.o(.text)
    __arm_cp.11_2                            0x080027a0   Number         4  gd32e23x_adc.o(.text)
    __arm_cp.12_0                            0x08002820   Number         4  gd32e23x_adc.o(.text)
    __arm_cp.13_0                            0x08002870   Number         4  gd32e23x_adc.o(.text)
    __arm_cp.14_0                            0x08002890   Number         4  gd32e23x_adc.o(.text)
    __arm_cp.14_1                            0x08002894   Number         4  gd32e23x_adc.o(.text)
    __arm_cp.15_0                            0x080028d8   Number         4  gd32e23x_adc.o(.text)
    __arm_cp.16_0                            0x080028fc   Number         4  gd32e23x_adc.o(.text)
    __arm_cp.16_1                            0x08002900   Number         4  gd32e23x_adc.o(.text)
    __arm_cp.16_2                            0x08002904   Number         4  gd32e23x_adc.o(.text)
    __arm_cp.17_0                            0x08002928   Number         4  gd32e23x_adc.o(.text)
    __arm_cp.18_0                            0x08002934   Number         4  gd32e23x_adc.o(.text)
    __arm_cp.19_0                            0x0800296c   Number         4  gd32e23x_adc.o(.text)
    __arm_cp.20_0                            0x0800297c   Number         4  gd32e23x_adc.o(.text)
    __arm_cp.21_0                            0x0800298c   Number         4  gd32e23x_adc.o(.text)
    __arm_cp.22_0                            0x080029c0   Number         4  gd32e23x_adc.o(.text)
    __arm_cp.23_0                            0x080029d0   Number         4  gd32e23x_adc.o(.text)
    __arm_cp.24_0                            0x080029fc   Number         4  gd32e23x_adc.o(.text)
    __arm_cp.25_0                            0x08002a28   Number         4  gd32e23x_adc.o(.text)
    __arm_cp.26_0                            0x08002a48   Number         4  gd32e23x_adc.o(.text)
    __arm_cp.26_1                            0x08002a4c   Number         4  gd32e23x_adc.o(.text)
    __arm_cp.26_2                            0x08002a50   Number         4  gd32e23x_adc.o(.text)
    __arm_cp.27_0                            0x08002a74   Number         4  gd32e23x_adc.o(.text)
    __arm_cp.27_1                            0x08002a78   Number         4  gd32e23x_adc.o(.text)
    __arm_cp.28_0                            0x08002a94   Number         4  gd32e23x_adc.o(.text)
    __arm_cp.28_1                            0x08002a98   Number         4  gd32e23x_adc.o(.text)
    __arm_cp.29_0                            0x08002aac   Number         4  gd32e23x_adc.o(.text)
    __arm_cp.29_1                            0x08002ab0   Number         4  gd32e23x_adc.o(.text)
    __arm_cp.30_0                            0x08002ac8   Number         4  gd32e23x_adc.o(.text)
    __arm_cp.31_0                            0x08002af4   Number         4  gd32e23x_adc.o(.text)
    __arm_cp.31_1                            0x08002af8   Number         4  gd32e23x_adc.o(.text)
    __arm_cp.32_0                            0x08002b08   Number         4  gd32e23x_adc.o(.text)
    __arm_cp.33_0                            0x08002b18   Number         4  gd32e23x_adc.o(.text)
    [Anonymous Symbol]                       0x08002b1c   Section        0  gd32e23x_dma.o(.text)
    __arm_cp.0_0                             0x08002b48   Number         4  gd32e23x_dma.o(.text)
    __arm_cp.2_0                             0x08002bc8   Number         4  gd32e23x_dma.o(.text)
    __arm_cp.3_0                             0x08002bdc   Number         4  gd32e23x_dma.o(.text)
    __arm_cp.4_0                             0x08002bf0   Number         4  gd32e23x_dma.o(.text)
    __arm_cp.5_0                             0x08002c04   Number         4  gd32e23x_dma.o(.text)
    __arm_cp.6_0                             0x08002c1c   Number         4  gd32e23x_dma.o(.text)
    __arm_cp.7_0                             0x08002c34   Number         4  gd32e23x_dma.o(.text)
    __arm_cp.8_0                             0x08002c48   Number         4  gd32e23x_dma.o(.text)
    __arm_cp.9_0                             0x08002c58   Number         4  gd32e23x_dma.o(.text)
    __arm_cp.10_0                            0x08002c68   Number         4  gd32e23x_dma.o(.text)
    __arm_cp.11_0                            0x08002c78   Number         4  gd32e23x_dma.o(.text)
    __arm_cp.12_0                            0x08002c88   Number         4  gd32e23x_dma.o(.text)
    __arm_cp.13_0                            0x08002ca4   Number         4  gd32e23x_dma.o(.text)
    __arm_cp.14_0                            0x08002cc0   Number         4  gd32e23x_dma.o(.text)
    __arm_cp.15_0                            0x08002cdc   Number         4  gd32e23x_dma.o(.text)
    __arm_cp.16_0                            0x08002cf0   Number         4  gd32e23x_dma.o(.text)
    __arm_cp.17_0                            0x08002d04   Number         4  gd32e23x_dma.o(.text)
    __arm_cp.18_0                            0x08002d18   Number         4  gd32e23x_dma.o(.text)
    __arm_cp.19_0                            0x08002d2c   Number         4  gd32e23x_dma.o(.text)
    __arm_cp.20_0                            0x08002d4c   Number         4  gd32e23x_dma.o(.text)
    __arm_cp.21_0                            0x08002d60   Number         4  gd32e23x_dma.o(.text)
    __arm_cp.22_0                            0x08002d74   Number         4  gd32e23x_dma.o(.text)
    __arm_cp.23_0                            0x08002db0   Number         4  gd32e23x_dma.o(.text)
    __arm_cp.24_0                            0x08002dc4   Number         4  gd32e23x_dma.o(.text)
    __arm_cp.25_0                            0x08002dd8   Number         4  gd32e23x_dma.o(.text)
    __arm_cp.26_0                            0x08002dec   Number         4  gd32e23x_dma.o(.text)
    [Anonymous Symbol]                       0x08002df0   Section        0  gd32e23x_exti.o(.text)
    __arm_cp.0_0                             0x08002e04   Number         4  gd32e23x_exti.o(.text)
    __arm_cp.0_1                             0x08002e08   Number         4  gd32e23x_exti.o(.text)
    __arm_cp.1_0                             0x08002e68   Number         4  gd32e23x_exti.o(.text)
    __arm_cp.2_0                             0x08002e78   Number         4  gd32e23x_exti.o(.text)
    __arm_cp.3_0                             0x08002e88   Number         4  gd32e23x_exti.o(.text)
    __arm_cp.4_0                             0x08002e98   Number         4  gd32e23x_exti.o(.text)
    __arm_cp.5_0                             0x08002ea8   Number         4  gd32e23x_exti.o(.text)
    __arm_cp.6_0                             0x08002eb8   Number         4  gd32e23x_exti.o(.text)
    __arm_cp.7_0                             0x08002ec4   Number         4  gd32e23x_exti.o(.text)
    __arm_cp.8_0                             0x08002ee0   Number         4  gd32e23x_exti.o(.text)
    __arm_cp.9_0                             0x08002eec   Number         4  gd32e23x_exti.o(.text)
    __arm_cp.10_0                            0x08002efc   Number         4  gd32e23x_exti.o(.text)
    __arm_cp.11_0                            0x08002f0c   Number         4  gd32e23x_exti.o(.text)
    [Anonymous Symbol]                       0x08002f10   Section        0  gd32e23x_fmc.o(.text)
    __arm_cp.0_0                             0x08002f24   Number         4  gd32e23x_fmc.o(.text)
    __arm_cp.0_1                             0x08002f28   Number         4  gd32e23x_fmc.o(.text)
    __arm_cp.0_2                             0x08002f2c   Number         4  gd32e23x_fmc.o(.text)
    __arm_cp.1_0                             0x08002f3c   Number         4  gd32e23x_fmc.o(.text)
    __arm_cp.2_0                             0x08002f50   Number         4  gd32e23x_fmc.o(.text)
    __arm_cp.3_0                             0x08002f60   Number         4  gd32e23x_fmc.o(.text)
    __arm_cp.4_0                             0x08002f70   Number         4  gd32e23x_fmc.o(.text)
    __arm_cp.5_0                             0x08002fa8   Number         4  gd32e23x_fmc.o(.text)
    __arm_cp.7_0                             0x08002ffc   Number         4  gd32e23x_fmc.o(.text)
    __arm_cp.8_0                             0x08003048   Number         4  gd32e23x_fmc.o(.text)
    __arm_cp.9_0                             0x0800307c   Number         4  gd32e23x_fmc.o(.text)
    __arm_cp.10_0                            0x0800309c   Number         4  gd32e23x_fmc.o(.text)
    __arm_cp.10_1                            0x080030a0   Number         4  gd32e23x_fmc.o(.text)
    __arm_cp.10_2                            0x080030a4   Number         4  gd32e23x_fmc.o(.text)
    __arm_cp.11_0                            0x080030b8   Number         4  gd32e23x_fmc.o(.text)
    __arm_cp.12_0                            0x080030cc   Number         4  gd32e23x_fmc.o(.text)
    __arm_cp.14_0                            0x0800313c   Number         4  gd32e23x_fmc.o(.text)
    __arm_cp.14_1                            0x08003140   Number         4  gd32e23x_fmc.o(.text)
    __arm_cp.14_2                            0x08003144   Number         4  gd32e23x_fmc.o(.text)
    __arm_cp.15_0                            0x08003154   Number         4  gd32e23x_fmc.o(.text)
    __arm_cp.16_0                            0x0800319c   Number         4  gd32e23x_fmc.o(.text)
    __arm_cp.16_1                            0x080031a0   Number         4  gd32e23x_fmc.o(.text)
    __arm_cp.16_2                            0x080031a4   Number         4  gd32e23x_fmc.o(.text)
    __arm_cp.16_3                            0x080031a8   Number         4  gd32e23x_fmc.o(.text)
    __arm_cp.17_0                            0x0800321c   Number         4  gd32e23x_fmc.o(.text)
    __arm_cp.17_1                            0x08003220   Number         4  gd32e23x_fmc.o(.text)
    __arm_cp.17_2                            0x08003224   Number         4  gd32e23x_fmc.o(.text)
    __arm_cp.18_0                            0x08003298   Number         4  gd32e23x_fmc.o(.text)
    __arm_cp.18_1                            0x0800329c   Number         4  gd32e23x_fmc.o(.text)
    __arm_cp.19_0                            0x080032e0   Number         4  gd32e23x_fmc.o(.text)
    __arm_cp.19_1                            0x080032e4   Number         4  gd32e23x_fmc.o(.text)
    __arm_cp.19_2                            0x080032e8   Number         4  gd32e23x_fmc.o(.text)
    __arm_cp.20_0                            0x080032f8   Number         4  gd32e23x_fmc.o(.text)
    __arm_cp.21_0                            0x08003304   Number         4  gd32e23x_fmc.o(.text)
    __arm_cp.22_0                            0x08003310   Number         4  gd32e23x_fmc.o(.text)
    __arm_cp.23_0                            0x08003320   Number         4  gd32e23x_fmc.o(.text)
    __arm_cp.24_0                            0x08003330   Number         4  gd32e23x_fmc.o(.text)
    __arm_cp.25_0                            0x08003340   Number         4  gd32e23x_fmc.o(.text)
    __arm_cp.26_0                            0x0800334c   Number         4  gd32e23x_fmc.o(.text)
    __arm_cp.27_0                            0x08003374   Number         4  gd32e23x_fmc.o(.text)
    __arm_cp.28_0                            0x08003380   Number         4  gd32e23x_fmc.o(.text)
    __arm_cp.29_0                            0x080033a4   Number         4  gd32e23x_fmc.o(.text)
    [Anonymous Symbol]                       0x080033a8   Section        0  gd32e23x_fwdgt.o(.text)
    __arm_cp.0_0                             0x080033b0   Number         4  gd32e23x_fwdgt.o(.text)
    __arm_cp.0_1                             0x080033b4   Number         4  gd32e23x_fwdgt.o(.text)
    __arm_cp.1_0                             0x080033c0   Number         4  gd32e23x_fwdgt.o(.text)
    __arm_cp.2_0                             0x080033cc   Number         4  gd32e23x_fwdgt.o(.text)
    __arm_cp.2_1                             0x080033d0   Number         4  gd32e23x_fwdgt.o(.text)
    __arm_cp.3_0                             0x080033f8   Number         4  gd32e23x_fwdgt.o(.text)
    __arm_cp.3_1                             0x080033fc   Number         4  gd32e23x_fwdgt.o(.text)
    __arm_cp.3_2                             0x08003400   Number         4  gd32e23x_fwdgt.o(.text)
    __arm_cp.4_0                             0x0800342c   Number         4  gd32e23x_fwdgt.o(.text)
    __arm_cp.4_1                             0x08003430   Number         4  gd32e23x_fwdgt.o(.text)
    __arm_cp.4_2                             0x08003434   Number         4  gd32e23x_fwdgt.o(.text)
    __arm_cp.4_3                             0x08003438   Number         4  gd32e23x_fwdgt.o(.text)
    __arm_cp.5_0                             0x08003464   Number         4  gd32e23x_fwdgt.o(.text)
    __arm_cp.5_1                             0x08003468   Number         4  gd32e23x_fwdgt.o(.text)
    __arm_cp.5_2                             0x0800346c   Number         4  gd32e23x_fwdgt.o(.text)
    __arm_cp.5_3                             0x08003470   Number         4  gd32e23x_fwdgt.o(.text)
    __arm_cp.6_0                             0x0800347c   Number         4  gd32e23x_fwdgt.o(.text)
    __arm_cp.6_1                             0x08003480   Number         4  gd32e23x_fwdgt.o(.text)
    __arm_cp.7_0                             0x080034c4   Number         4  gd32e23x_fwdgt.o(.text)
    __arm_cp.7_1                             0x080034c8   Number         4  gd32e23x_fwdgt.o(.text)
    __arm_cp.7_2                             0x080034cc   Number         4  gd32e23x_fwdgt.o(.text)
    __arm_cp.7_3                             0x080034d0   Number         4  gd32e23x_fwdgt.o(.text)
    __arm_cp.7_4                             0x080034d4   Number         4  gd32e23x_fwdgt.o(.text)
    __arm_cp.8_0                             0x080034e4   Number         4  gd32e23x_fwdgt.o(.text)
    [Anonymous Symbol]                       0x080034e8   Section        0  gd32e23x_gpio.o(.text)
    __arm_cp.14_0                            0x08003654   Number         4  gd32e23x_gpio.o(.text)
    [Anonymous Symbol]                       0x08003658   Section        0  gd32e23x_misc.o(.text)
    __arm_cp.0_0                             0x080036a4   Number         4  gd32e23x_misc.o(.text)
    __arm_cp.0_1                             0x080036a8   Number         4  gd32e23x_misc.o(.text)
    __arm_cp.0_2                             0x080036ac   Number         4  gd32e23x_misc.o(.text)
    __arm_cp.1_0                             0x080036d4   Number         4  gd32e23x_misc.o(.text)
    __NVIC_SystemReset                       0x080036dd   Thumb Code    20  gd32e23x_misc.o(.text)
    __arm_cp.3_0                             0x080036f0   Number         4  gd32e23x_misc.o(.text)
    __arm_cp.3_1                             0x080036f4   Number         4  gd32e23x_misc.o(.text)
    __arm_cp.4_0                             0x08003704   Number         4  gd32e23x_misc.o(.text)
    __arm_cp.4_1                             0x08003708   Number         4  gd32e23x_misc.o(.text)
    __arm_cp.5_0                             0x08003718   Number         4  gd32e23x_misc.o(.text)
    __arm_cp.6_0                             0x08003728   Number         4  gd32e23x_misc.o(.text)
    __arm_cp.7_0                             0x08003744   Number         4  gd32e23x_misc.o(.text)
    [Anonymous Symbol]                       0x08003748   Section        0  gd32e23x_rcu.o(.text)
    __arm_cp.0_0                             0x080037a0   Number         4  gd32e23x_rcu.o(.text)
    __arm_cp.0_1                             0x080037a4   Number         4  gd32e23x_rcu.o(.text)
    __arm_cp.0_2                             0x080037a8   Number         4  gd32e23x_rcu.o(.text)
    __arm_cp.0_3                             0x080037ac   Number         4  gd32e23x_rcu.o(.text)
    __arm_cp.1_0                             0x080037c4   Number         4  gd32e23x_rcu.o(.text)
    __arm_cp.2_0                             0x080037dc   Number         4  gd32e23x_rcu.o(.text)
    __arm_cp.3_0                             0x080037f4   Number         4  gd32e23x_rcu.o(.text)
    __arm_cp.4_0                             0x0800380c   Number         4  gd32e23x_rcu.o(.text)
    __arm_cp.5_0                             0x08003824   Number         4  gd32e23x_rcu.o(.text)
    __arm_cp.6_0                             0x0800383c   Number         4  gd32e23x_rcu.o(.text)
    __arm_cp.7_0                             0x08003850   Number         4  gd32e23x_rcu.o(.text)
    __arm_cp.8_0                             0x08003864   Number         4  gd32e23x_rcu.o(.text)
    __arm_cp.9_0                             0x08003878   Number         4  gd32e23x_rcu.o(.text)
    __arm_cp.10_0                            0x08003888   Number         4  gd32e23x_rcu.o(.text)
    __arm_cp.11_0                            0x0800389c   Number         4  gd32e23x_rcu.o(.text)
    __arm_cp.12_0                            0x080038b0   Number         4  gd32e23x_rcu.o(.text)
    __arm_cp.13_0                            0x080038c4   Number         4  gd32e23x_rcu.o(.text)
    __arm_cp.14_0                            0x08003988   Number         4  gd32e23x_rcu.o(.text)
    __arm_cp.14_1                            0x0800398c   Number         4  gd32e23x_rcu.o(.text)
    __arm_cp.15_0                            0x080039a4   Number         4  gd32e23x_rcu.o(.text)
    __arm_cp.16_0                            0x080039c0   Number         4  gd32e23x_rcu.o(.text)
    __arm_cp.16_1                            0x080039c4   Number         4  gd32e23x_rcu.o(.text)
    __arm_cp.17_0                            0x080039dc   Number         4  gd32e23x_rcu.o(.text)
    __arm_cp.18_0                            0x080039f4   Number         4  gd32e23x_rcu.o(.text)
    __arm_cp.19_0                            0x08003a08   Number         4  gd32e23x_rcu.o(.text)
    __arm_cp.20_0                            0x08003a20   Number         4  gd32e23x_rcu.o(.text)
    __arm_cp.21_0                            0x08003a38   Number         4  gd32e23x_rcu.o(.text)
    __arm_cp.22_0                            0x08003a4c   Number         4  gd32e23x_rcu.o(.text)
    __arm_cp.23_0                            0x08003a64   Number         4  gd32e23x_rcu.o(.text)
    __arm_cp.24_0                            0x08003a7c   Number         4  gd32e23x_rcu.o(.text)
    __arm_cp.25_0                            0x08003a94   Number         4  gd32e23x_rcu.o(.text)
    __arm_cp.26_0                            0x08003aac   Number         4  gd32e23x_rcu.o(.text)
    __arm_cp.27_0                            0x08003b98   Number         4  gd32e23x_rcu.o(.text)
    __arm_cp.27_1                            0x08003b9c   Number         4  gd32e23x_rcu.o(.text)
    __arm_cp.27_2                            0x08003ba0   Number         4  gd32e23x_rcu.o(.text)
    __arm_cp.28_0                            0x08003bb8   Number         4  gd32e23x_rcu.o(.text)
    __arm_cp.29_0                            0x08003bd0   Number         4  gd32e23x_rcu.o(.text)
    __arm_cp.30_0                            0x08003c00   Number         4  gd32e23x_rcu.o(.text)
    __arm_cp.30_1                            0x08003c04   Number         4  gd32e23x_rcu.o(.text)
    __arm_cp.31_0                            0x08003c34   Number         4  gd32e23x_rcu.o(.text)
    __arm_cp.31_1                            0x08003c38   Number         4  gd32e23x_rcu.o(.text)
    __arm_cp.31_2                            0x08003c3c   Number         4  gd32e23x_rcu.o(.text)
    __arm_cp.32_0                            0x08003c50   Number         4  gd32e23x_rcu.o(.text)
    __arm_cp.33_0                            0x08003c64   Number         4  gd32e23x_rcu.o(.text)
    __arm_cp.34_0                            0x08003c78   Number         4  gd32e23x_rcu.o(.text)
    __arm_cp.35_0                            0x08003c8c   Number         4  gd32e23x_rcu.o(.text)
    __arm_cp.36_0                            0x08003ca4   Number         4  gd32e23x_rcu.o(.text)
    __arm_cp.36_1                            0x08003ca8   Number         4  gd32e23x_rcu.o(.text)
    __arm_cp.37_0                            0x08003cc0   Number         4  gd32e23x_rcu.o(.text)
    __arm_cp.38_0                            0x08003dbc   Number         4  gd32e23x_rcu.o(.text)
    __arm_cp.38_1                            0x08003dc0   Number         4  gd32e23x_rcu.o(.text)
    __arm_cp.38_2                            0x08003dc4   Number         4  gd32e23x_rcu.o(.text)
    __arm_cp.38_4                            0x08003dd8   Number         4  gd32e23x_rcu.o(.text)
    __arm_cp.38_5                            0x08003ddc   Number         4  gd32e23x_rcu.o(.text)
    __arm_cp.38_6                            0x08003de0   Number         4  gd32e23x_rcu.o(.text)
    [Anonymous Symbol]                       0x08003de4   Section        0  gd32e23x_syscfg.o(.text)
    __arm_cp.1_0                             0x08003e08   Number         4  gd32e23x_syscfg.o(.text)
    __arm_cp.2_0                             0x08003e18   Number         4  gd32e23x_syscfg.o(.text)
    __arm_cp.3_0                             0x08003e2c   Number         4  gd32e23x_syscfg.o(.text)
    __arm_cp.4_0                             0x08003e40   Number         4  gd32e23x_syscfg.o(.text)
    __arm_cp.5_0                             0x08003e8c   Number         4  gd32e23x_syscfg.o(.text)
    __arm_cp.6_0                             0x08003e9c   Number         4  gd32e23x_syscfg.o(.text)
    __arm_cp.7_0                             0x08003eb0   Number         4  gd32e23x_syscfg.o(.text)
    __arm_cp.8_0                             0x08003ec0   Number         4  gd32e23x_syscfg.o(.text)
    __arm_cp.9_0                             0x08003ed0   Number         4  gd32e23x_syscfg.o(.text)
    [Anonymous Symbol]                       0x08003ed4   Section        0  gd32e23x_timer.o(.text)
    __arm_cp.0_0                             0x08003f2c   Number         4  gd32e23x_timer.o(.text)
    __arm_cp.0_1                             0x08003f30   Number         4  gd32e23x_timer.o(.text)
    __arm_cp.0_2                             0x08003f34   Number         4  gd32e23x_timer.o(.text)
    __arm_cp.0_3                             0x08003f38   Number         4  gd32e23x_timer.o(.text)
    __arm_cp.0_4                             0x08003f3c   Number         4  gd32e23x_timer.o(.text)
    __arm_cp.0_5                             0x08003f40   Number         4  gd32e23x_timer.o(.text)
    __arm_cp.0_6                             0x08003f44   Number         4  gd32e23x_timer.o(.text)
    __arm_cp.0_7                             0x08003f48   Number         4  gd32e23x_timer.o(.text)
    __arm_cp.1_0                             0x08003f5c   Number         4  gd32e23x_timer.o(.text)
    __arm_cp.2_0                             0x08004000   Number         4  gd32e23x_timer.o(.text)
    __arm_cp.2_1                             0x08004004   Number         4  gd32e23x_timer.o(.text)
    __arm_cp.2_2                             0x08004008   Number         4  gd32e23x_timer.o(.text)
    __arm_cp.2_3                             0x0800400c   Number         4  gd32e23x_timer.o(.text)
    __arm_cp.2_4                             0x08004010   Number         4  gd32e23x_timer.o(.text)
    __arm_cp.2_5                             0x08004014   Number         4  gd32e23x_timer.o(.text)
    __arm_cp.30_0                            0x08004168   Number         4  gd32e23x_timer.o(.text)
    __arm_cp.42_0                            0x08004434   Number         4  gd32e23x_timer.o(.text)
    __arm_cp.42_1                            0x08004438   Number         4  gd32e23x_timer.o(.text)
    __arm_cp.42_2                            0x0800443c   Number         4  gd32e23x_timer.o(.text)
    __arm_cp.42_3                            0x08004440   Number         4  gd32e23x_timer.o(.text)
    __arm_cp.42_4                            0x08004444   Number         4  gd32e23x_timer.o(.text)
    __arm_cp.53_0                            0x08004850   Number         4  gd32e23x_timer.o(.text)
    __arm_cp.53_1                            0x08004854   Number         4  gd32e23x_timer.o(.text)
    __arm_cp.56_0                            0x08004a18   Number         4  gd32e23x_timer.o(.text)
    __arm_cp.56_1                            0x08004a1c   Number         4  gd32e23x_timer.o(.text)
    __arm_cp.56_2                            0x08004a20   Number         4  gd32e23x_timer.o(.text)
    __arm_cp.63_0                            0x08004ae8   Number         4  gd32e23x_timer.o(.text)
    .text                                    0x08004c20   Section       28  startup_gd32e23x.o(.text)
    [Anonymous Symbol]                       0x08004c3c   Section        0  system_gd32e23x.o(.text)
    __arm_cp.0_0                             0x08004d0c   Number         4  system_gd32e23x.o(.text)
    __arm_cp.0_1                             0x08004d10   Number         4  system_gd32e23x.o(.text)
    __arm_cp.0_2                             0x08004d14   Number         4  system_gd32e23x.o(.text)
    __arm_cp.0_3                             0x08004d18   Number         4  system_gd32e23x.o(.text)
    __arm_cp.0_4                             0x08004d1c   Number         4  system_gd32e23x.o(.text)
    __arm_cp.0_5                             0x08004d20   Number         4  system_gd32e23x.o(.text)
    __arm_cp.1_0                             0x08004d80   Number         4  system_gd32e23x.o(.text)
    __arm_cp.1_1                             0x08004d84   Number         4  system_gd32e23x.o(.text)
    __arm_cp.1_2                             0x08004d88   Number         4  system_gd32e23x.o(.text)
    __arm_cp.1_3                             0x08004d8c   Number         4  system_gd32e23x.o(.text)
    .text                                    0x08004da0   Section        0  llmul.o(.text)
    .text                                    0x08004dd0   Section        0  memcpya.o(.text)
    .text                                    0x08004df4   Section        0  memseta.o(.text)
    .text                                    0x08004e18   Section        0  strlen.o(.text)
    .text                                    0x08004e26   Section        0  strcmp.o(.text)
    .text                                    0x08004e42   Section        0  memcmp.o(.text)
    .text                                    0x08004e5c   Section        0  fadd.o(.text)
    .text                                    0x08004f0e   Section        0  fmul.o(.text)
    .text                                    0x08004f88   Section        0  fdiv.o(.text)
    .text                                    0x08005004   Section        0  dadd.o(.text)
    .text                                    0x08005168   Section        0  dmul.o(.text)
    .text                                    0x08005238   Section        0  ddiv.o(.text)
    .text                                    0x08005328   Section        0  fcmplt.o(.text)
    .text                                    0x08005344   Section        0  fcmpgt.o(.text)
    .text                                    0x08005360   Section        0  fflti.o(.text)
    .text                                    0x08005376   Section        0  ffltui.o(.text)
    .text                                    0x08005384   Section        0  dflti.o(.text)
    .text                                    0x080053ac   Section        0  dfltui.o(.text)
    .text                                    0x080053c8   Section        0  ffixi.o(.text)
    .text                                    0x080053fa   Section        0  ffixl.o(.text)
    .text                                    0x0800543c   Section        0  dfixi.o(.text)
    .text                                    0x08005484   Section        0  f2d.o(.text)
    .text                                    0x080054ac   Section        0  d2f.o(.text)
    .text                                    0x080054e4   Section        0  uldiv.o(.text)
    .text                                    0x08005544   Section        0  llshl.o(.text)
    .text                                    0x08005564   Section        0  llushr.o(.text)
    .text                                    0x08005586   Section        0  llsshr.o(.text)
    .text                                    0x080055ac   Section        0  strtof.o(.text)
    .text                                    0x080055b8   Section        0  iusefp.o(.text)
    .text                                    0x080055b8   Section        0  fepilogue.o(.text)
    .text                                    0x0800563a   Section        0  depilogue.o(.text)
    .text                                    0x080056f8   Section        0  dfixul.o(.text)
    .text                                    0x08005738   Section       40  cdrcmple.o(.text)
    .text                                    0x08005760   Section       48  init.o(.text)
    .text                                    0x08005790   Section        0  uidiv_div0.o(.text)
    _local_sscanf                            0x080057d1   Thumb Code    64  strtod.o(.text)
    .text                                    0x080057d0   Section        0  strtod.o(.text)
    .text                                    0x08005884   Section        0  isspace_c.o(.text)
    _fp_value                                0x08005895   Thumb Code   286  scanf_fp.o(.text)
    .text                                    0x08005894   Section        0  scanf_fp.o(.text)
    .text                                    0x08005c08   Section        0  _sgetc.o(.text)
    .text                                    0x08005c4c   Section        0  ctype_c.o(.text)
    .text                                    0x08005c70   Section        0  dfltul.o(.text)
    i.__0sprintf                             0x08005c8c   Section        0  printfa.o(i.__0sprintf)
    i.__ARM_clz                              0x08005cb4   Section        0  depilogue.o(i.__ARM_clz)
    i.__scatterload_copy                     0x08005ce2   Section       14  handlers.o(i.__scatterload_copy)
    i.__scatterload_null                     0x08005cf0   Section        2  handlers.o(i.__scatterload_null)
    i.__scatterload_zeroinit                 0x08005cf2   Section       14  handlers.o(i.__scatterload_zeroinit)
    _fp_digits                               0x08005d01   Thumb Code   344  printfa.o(i._fp_digits)
    i._fp_digits                             0x08005d00   Section        0  printfa.o(i._fp_digits)
    i._is_digit                              0x08005e74   Section        0  scanf_fp.o(i._is_digit)
    _printf_core                             0x08005e85   Thumb Code  1754  printfa.o(i._printf_core)
    i._printf_core                           0x08005e84   Section        0  printfa.o(i._printf_core)
    _printf_post_padding                     0x08006571   Thumb Code    32  printfa.o(i._printf_post_padding)
    i._printf_post_padding                   0x08006570   Section        0  printfa.o(i._printf_post_padding)
    _printf_pre_padding                      0x08006591   Thumb Code    44  printfa.o(i._printf_pre_padding)
    i._printf_pre_padding                    0x08006590   Section        0  printfa.o(i._printf_pre_padding)
    _sputc                                   0x080065bd   Thumb Code    10  printfa.o(i._sputc)
    i._sputc                                 0x080065bc   Section        0  printfa.o(i._sputc)
    i.strtof                                 0x080065c6   Section        0  strtof.o(i.strtof)
    .constdata                               0x080065da   Section       64  ctype_c.o(.constdata)
    [Anonymous Symbol]                       0x0800661a   Section        0  bldc.o(.rodata..L__const.up_or_down.up_down)
    _DoInit._aInitStr                        0x08006626   Data          17  segger_rtt.o(.rodata._DoInit._aInitStr)
    [Anonymous Symbol]                       0x08006626   Section        0  segger_rtt.o(.rodata._DoInit._aInitStr)
    _aTerminalId                             0x08006637   Data          16  segger_rtt.o(.rodata.cst16)
    [Anonymous Symbol]                       0x08006637   Section        0  segger_rtt.o(.rodata.cst16)
    hall_to_sector                           0x08006647   Data           8  bldcsine.o(.rodata.cst8)
    [Anonymous Symbol]                       0x08006647   Section        0  bldcsine.o(.rodata.cst8)
    [Anonymous Symbol]                       0x0800664f   Section        0  gd32e23x_rcu.o(.rodata.cst8)
    sine_table                               0x08006934   Data         720  bldcsine.o(.rodata.sine_table)
    [Anonymous Symbol]                       0x08006934   Section        0  bldcsine.o(.rodata.sine_table)
    [Anonymous Symbol]                       0x08006c04   Section        0  segger_rtt.o(.rodata.str1.1)
    [Anonymous Symbol]                       0x20000000   Section        0  main.o(.data..L_MergedGlobals)
    [Anonymous Symbol]                       0x20000004   Section        0  bldc.o(.data..L_MergedGlobals)
    [Anonymous Symbol]                       0x20000018   Section        0  driver.o(.data..L_MergedGlobals)
    [Anonymous Symbol]                       0x20000070   Section        0  remotedummy.o(.data..L_MergedGlobals)
    [Anonymous Symbol]                       0x20000080   Section        0  bldcsine.o(.bss..L_MergedGlobals)
    [Anonymous Symbol]                       0x200000b0   Section        0  setup.o(.bss..L_MergedGlobals)
    [Anonymous Symbol]                       0x200000dc   Section        0  it.o(.bss..L_MergedGlobals)
    TIMER0_BRK_UP_TRG_COM_IRQHandler.interrupt_toggle 0x200000dd   Data           1  it.o(.bss..L_MergedGlobals)
    [Anonymous Symbol]                       0x20000100   Section        0  main.o(.bss..L_MergedGlobals.1)
    [Anonymous Symbol]                       0x20000124   Section        0  bldc.o(.bss..L_MergedGlobals.1)
    [Anonymous Symbol]                       0x20000180   Section        0  driver.o(.bss..L_MergedGlobals.1)
    [Anonymous Symbol]                       0x200001b4   Section        0  remotedummy.o(.bss..L_MergedGlobals.7)
    buffer_index                             0x200001c0   Data           4  remotedummy.o(.bss..L_MergedGlobals.7)
    message_buffer                           0x200001c8   Data          64  remotedummy.o(.bss..L_MergedGlobals.7)
    _ActiveTerminal                          0x20000208   Data           1  segger_rtt.o(.bss._ActiveTerminal)
    [Anonymous Symbol]                       0x20000208   Section        0  segger_rtt.o(.bss._ActiveTerminal)
    _acDownBuffer                            0x200002b4   Data          16  segger_rtt.o(.bss._acDownBuffer)
    [Anonymous Symbol]                       0x200002b4   Section        0  segger_rtt.o(.bss._acDownBuffer)
    _acUpBuffer                              0x200002c4   Data        1024  segger_rtt.o(.bss._acUpBuffer)
    [Anonymous Symbol]                       0x200002c4   Section        0  segger_rtt.o(.bss._acUpBuffer)
    STACK                                    0x20000998   Section     1024  startup_gd32e23x.o(STACK)

    Global Symbols

    Symbol Name                              Value     Ov Type        Size  Object(Section)

    BuildAttributes$$THM_ISAv3M$S$8M$PE$A:L22$X:L11$S22$IEEE1$IW$~IW$USESV6$~STKCKD$USESV7$~SHL$OTIME$ROPI$IEEEJ$EBA8$MICROLIB$REQ8$PRES8$EABIv2 0x00000000   Number         0  anon$$obj.o ABSOLUTE
    _printf_a                                0x00000000   Number         0  printfstubs.o ABSOLUTE
    _printf_c                                0x00000000   Number         0  printfstubs.o ABSOLUTE
    _printf_charcount                        0x00000000   Number         0  printfstubs.o ABSOLUTE
    _printf_d                                0x00000000   Number         0  printfstubs.o ABSOLUTE
    _printf_e                                0x00000000   Number         0  printfstubs.o ABSOLUTE
    _printf_f                                0x00000000   Number         0  printfstubs.o ABSOLUTE
    _printf_flags                            0x00000000   Number         0  printfstubs.o ABSOLUTE
    _printf_fp_dec                           0x00000000   Number         0  printfstubs.o ABSOLUTE
    _printf_fp_hex                           0x00000000   Number         0  printfstubs.o ABSOLUTE
    _printf_g                                0x00000000   Number         0  printfstubs.o ABSOLUTE
    _printf_i                                0x00000000   Number         0  printfstubs.o ABSOLUTE
    _printf_int_dec                          0x00000000   Number         0  printfstubs.o ABSOLUTE
    _printf_l                                0x00000000   Number         0  printfstubs.o ABSOLUTE
    _printf_lc                               0x00000000   Number         0  printfstubs.o ABSOLUTE
    _printf_ll                               0x00000000   Number         0  printfstubs.o ABSOLUTE
    _printf_lld                              0x00000000   Number         0  printfstubs.o ABSOLUTE
    _printf_lli                              0x00000000   Number         0  printfstubs.o ABSOLUTE
    _printf_llo                              0x00000000   Number         0  printfstubs.o ABSOLUTE
    _printf_llu                              0x00000000   Number         0  printfstubs.o ABSOLUTE
    _printf_llx                              0x00000000   Number         0  printfstubs.o ABSOLUTE
    _printf_longlong_dec                     0x00000000   Number         0  printfstubs.o ABSOLUTE
    _printf_longlong_hex                     0x00000000   Number         0  printfstubs.o ABSOLUTE
    _printf_longlong_oct                     0x00000000   Number         0  printfstubs.o ABSOLUTE
    _printf_ls                               0x00000000   Number         0  printfstubs.o ABSOLUTE
    _printf_mbtowc                           0x00000000   Number         0  printfstubs.o ABSOLUTE
    _printf_n                                0x00000000   Number         0  printfstubs.o ABSOLUTE
    _printf_o                                0x00000000   Number         0  printfstubs.o ABSOLUTE
    _printf_p                                0x00000000   Number         0  printfstubs.o ABSOLUTE
    _printf_percent                          0x00000000   Number         0  printfstubs.o ABSOLUTE
    _printf_pre_padding                      0x00000000   Number         0  printfstubs.o ABSOLUTE
    _printf_return_value                     0x00000000   Number         0  printfstubs.o ABSOLUTE
    _printf_s                                0x00000000   Number         0  printfstubs.o ABSOLUTE
    _printf_sizespec                         0x00000000   Number         0  printfstubs.o ABSOLUTE
    _printf_str                              0x00000000   Number         0  printfstubs.o ABSOLUTE
    _printf_truncate_signed                  0x00000000   Number         0  printfstubs.o ABSOLUTE
    _printf_truncate_unsigned                0x00000000   Number         0  printfstubs.o ABSOLUTE
    _printf_u                                0x00000000   Number         0  printfstubs.o ABSOLUTE
    _printf_wc                               0x00000000   Number         0  printfstubs.o ABSOLUTE
    _printf_wctomb                           0x00000000   Number         0  printfstubs.o ABSOLUTE
    _printf_widthprec                        0x00000000   Number         0  printfstubs.o ABSOLUTE
    _printf_x                                0x00000000   Number         0  printfstubs.o ABSOLUTE
    __cpp_initialize__aeabi_                  - Undefined Weak Reference
    __cxa_finalize                            - Undefined Weak Reference
    __decompress                              - Undefined Weak Reference
    _clock_init                               - Undefined Weak Reference
    _microlib_exit                            - Undefined Weak Reference
    __Vectors_Size                           0x000000cc   Number         0  startup_gd32e23x.o ABSOLUTE
    __Vectors                                0x08000000   Data           4  startup_gd32e23x.o(RESET)
    __Vectors_End                            0x080000cc   Data           0  startup_gd32e23x.o(RESET)
    __main                                   0x080000cd   Thumb Code     0  entry.o(.ARM.Collect$$$$00000000)
    _main_stk                                0x080000cd   Thumb Code     0  entry2.o(.ARM.Collect$$$$00000001)
    _main_scatterload                        0x080000d1   Thumb Code     0  entry5.o(.ARM.Collect$$$$00000004)
    __main_after_scatterload                 0x080000d5   Thumb Code     0  entry5.o(.ARM.Collect$$$$00000004)
    _main_clock                              0x080000d5   Thumb Code     0  entry7b.o(.ARM.Collect$$$$00000008)
    _main_cpp_init                           0x080000d5   Thumb Code     0  entry8b.o(.ARM.Collect$$$$0000000A)
    _main_init                               0x080000d5   Thumb Code     0  entry9a.o(.ARM.Collect$$$$0000000B)
    __rt_final_cpp                           0x080000dd   Thumb Code     0  entry10a.o(.ARM.Collect$$$$0000000D)
    __rt_final_exit                          0x080000dd   Thumb Code     0  entry11a.o(.ARM.Collect$$$$0000000F)
    main                                     0x080000e1   Thumb Code   864  main.o(.text)
    ShutOff                                  0x080004a1   Thumb Code    88  main.o(.text)
    ShowBatteryState                         0x08000501   Thumb Code   120  main.o(.text)
    modulo                                   0x08000585   Thumb Code    22  bldc.o(.text)
    up_or_down                               0x0800059d   Thumb Code    28  bldc.o(.text)
    SetEnable                                0x080005bd   Thumb Code     8  bldc.o(.text)
    SetBldcInput                             0x080005c9   Thumb Code    96  bldc.o(.text)
    SetFilter                                0x08000639   Thumb Code    20  bldc.o(.text)
    CalculateBLDC                            0x08000655   Thumb Code   880  bldc.o(.text)
    PID_Init                                 0x08000a39   Thumb Code   108  driver.o(.text)
    PID_Update                               0x08000aa9   Thumb Code   272  driver.o(.text)
    DriverInit                               0x08000bbd   Thumb Code   116  driver.o(.text)
    Driver                                   0x08000c41   Thumb Code    52  driver.o(.text)
    InitEXTI                                 0x08000c85   Thumb Code    62  bldcsine.o(.text)
    InitBldc                                 0x08000cc5   Thumb Code    36  bldcsine.o(.text)
    _HandleEXTI                              0x08000cfd   Thumb Code   116  bldcsine.o(.text)
    EXTI0_1_IRQHandler                       0x08000d89   Thumb Code     4  bldcsine.o(.text)
    EXTI2_3_IRQHandler                       0x08000d8d   Thumb Code     4  bldcsine.o(.text)
    EXTI4_15_IRQHandler                      0x08000d91   Thumb Code     4  bldcsine.o(.text)
    bldc_get_pwm                             0x08000d95   Thumb Code   324  bldcsine.o(.text)
    pinMode                                  0x08000ef5   Thumb Code    52  setup.o(.text)
    pinModePull                              0x08000f29   Thumb Code    46  setup.o(.text)
    Interrupt_init                           0x08000f57   Thumb Code     2  setup.o(.text)
    Watchdog_init                            0x08000f59   Thumb Code    52  setup.o(.text)
    TimeoutTimer_init                        0x08000f95   Thumb Code    88  setup.o(.text)
    GPIO_init                                0x08000ff9   Thumb Code   384  setup.o(.text)
    PWM_init                                 0x0800119d   Thumb Code   368  setup.o(.text)
    ADC_init                                 0x08001339   Thumb Code   208  setup.o(.text)
    USART0_Init                              0x08001419   Thumb Code     2  setup.o(.text)
    USART1_Init                              0x0800141b   Thumb Code     2  setup.o(.text)
    USART2_Init                              0x0800141d   Thumb Code     2  setup.o(.text)
    flashErase                               0x0800141f   Thumb Code    30  setup.o(.text)
    flashRead                                0x0800143d   Thumb Code     4  setup.o(.text)
    flashWrite                               0x08001441   Thumb Code    38  setup.o(.text)
    flashWriteBuffer                         0x08001467   Thumb Code    30  setup.o(.text)
    flashReadBuffer                          0x08001485   Thumb Code    20  setup.o(.text)
    ConfigReset                              0x08001499   Thumb Code    28  setup.o(.text)
    ConfigWrite                              0x080014bd   Thumb Code    48  setup.o(.text)
    ConfigRead                               0x080014fd   Thumb Code    64  setup.o(.text)
    Clock_init                               0x0800154d   Thumb Code    24  setup.o(.text)
    Clock_test                               0x08001571   Thumb Code    36  setup.o(.text)
    add_cr_before_lf_inplace                 0x0800159d   Thumb Code    88  setup.o(.text)
    SysTick_Handler                          0x080015f5   Thumb Code    12  it.o(.text)
    ResetTimeout                             0x08001605   Thumb Code     8  it.o(.text)
    TIMER13_IRQHandler                       0x08001611   Thumb Code    44  it.o(.text)
    TIMER0_BRK_UP_TRG_COM_IRQHandler         0x0800164d   Thumb Code    80  it.o(.text)
    DMA_Channel0_IRQHandler                  0x080016a5   Thumb Code    64  it.o(.text)
    millis                                   0x080016e9   Thumb Code     8  it.o(.text)
    Delay                                    0x080016f5   Thumb Code    20  it.o(.text)
    NMI_Handler                              0x0800170d   Thumb Code     2  it.o(.text)
    HardFault_Handler                        0x0800170f   Thumb Code     2  it.o(.text)
    MemManage_Handler                        0x08001711   Thumb Code     2  it.o(.text)
    BusFault_Handler                         0x08001713   Thumb Code     2  it.o(.text)
    UsageFault_Handler                       0x08001715   Thumb Code     2  it.o(.text)
    SVC_Handler                              0x08001717   Thumb Code     2  it.o(.text)
    DebugMon_Handler                         0x08001719   Thumb Code     2  it.o(.text)
    PendSV_Handler                           0x0800171b   Thumb Code     2  it.o(.text)
    _TestKey                                 0x0800171d   Thumb Code    82  remotedummy.o(.text)
    parse_message                            0x08001771   Thumb Code   300  remotedummy.o(.text)
    check_rtt_for_message                    0x0800192d   Thumb Code    60  remotedummy.o(.text)
    RemoteUpdate                             0x0800196d   Thumb Code   508  remotedummy.o(.text)
    RemoteCallback                           0x08001c2d   Thumb Code     2  remotedummy.o(.text)
    RemoteCalculate                          0x08001c2f   Thumb Code     2  remotedummy.o(.text)
    SEGGER_RTT_ReadUpBufferNoLock            0x08001c31   Thumb Code   124  segger_rtt.o(.text)
    SEGGER_RTT_ReadNoLock                    0x08001d19   Thumb Code   124  segger_rtt.o(.text)
    SEGGER_RTT_ReadUpBuffer                  0x08001d99   Thumb Code    26  segger_rtt.o(.text)
    SEGGER_RTT_Read                          0x08001db3   Thumb Code    26  segger_rtt.o(.text)
    SEGGER_RTT_WriteWithOverwriteNoLock      0x08001dcd   Thumb Code   144  segger_rtt.o(.text)
    SEGGER_RTT_WriteSkipNoLock               0x08001e61   Thumb Code   116  segger_rtt.o(.text)
    SEGGER_RTT_WriteDownBufferNoLock         0x08001ed9   Thumb Code    96  segger_rtt.o(.text)
    SEGGER_RTT_WriteNoLock                   0x08001ff1   Thumb Code    96  segger_rtt.o(.text)
    SEGGER_RTT_WriteDownBuffer               0x08002055   Thumb Code    48  segger_rtt.o(.text)
    SEGGER_RTT_Write                         0x08002089   Thumb Code    48  segger_rtt.o(.text)
    SEGGER_RTT_WriteString                   0x080020bd   Thumb Code    28  segger_rtt.o(.text)
    SEGGER_RTT_PutCharSkipNoLock             0x080020d9   Thumb Code    48  segger_rtt.o(.text)
    SEGGER_RTT_PutCharSkip                   0x0800210d   Thumb Code    76  segger_rtt.o(.text)
    SEGGER_RTT_PutChar                       0x0800215d   Thumb Code    88  segger_rtt.o(.text)
    SEGGER_RTT_GetKey                        0x080021b9   Thumb Code    28  segger_rtt.o(.text)
    SEGGER_RTT_WaitKey                       0x080021d5   Thumb Code    12  segger_rtt.o(.text)
    SEGGER_RTT_HasKey                        0x080021e1   Thumb Code    28  segger_rtt.o(.text)
    SEGGER_RTT_HasData                       0x08002201   Thumb Code    16  segger_rtt.o(.text)
    SEGGER_RTT_HasDataUp                     0x08002215   Thumb Code    16  segger_rtt.o(.text)
    SEGGER_RTT_AllocDownBuffer               0x08002229   Thumb Code    96  segger_rtt.o(.text)
    SEGGER_RTT_AllocUpBuffer                 0x0800228d   Thumb Code    96  segger_rtt.o(.text)
    SEGGER_RTT_ConfigUpBuffer                0x080022f1   Thumb Code    76  segger_rtt.o(.text)
    SEGGER_RTT_ConfigDownBuffer              0x08002341   Thumb Code    80  segger_rtt.o(.text)
    SEGGER_RTT_SetNameUpBuffer               0x08002395   Thumb Code    52  segger_rtt.o(.text)
    SEGGER_RTT_SetNameDownBuffer             0x080023cd   Thumb Code    52  segger_rtt.o(.text)
    SEGGER_RTT_SetFlagsUpBuffer              0x08002405   Thumb Code    52  segger_rtt.o(.text)
    SEGGER_RTT_SetFlagsDownBuffer            0x0800243d   Thumb Code    52  segger_rtt.o(.text)
    SEGGER_RTT_Init                          0x08002475   Thumb Code     2  segger_rtt.o(.text)
    SEGGER_RTT_SetTerminal                   0x08002479   Thumb Code   116  segger_rtt.o(.text)
    SEGGER_RTT_TerminalOut                   0x080024f9   Thumb Code   164  segger_rtt.o(.text)
    SEGGER_RTT_GetAvailWriteSpace            0x080025c9   Thumb Code    12  segger_rtt.o(.text)
    SEGGER_RTT_GetBytesInBuffer              0x080025d9   Thumb Code    32  segger_rtt.o(.text)
    adc_deinit                               0x080025fd   Thumb Code    24  gd32e23x_adc.o(.text)
    adc_enable                               0x08002619   Thumb Code    20  gd32e23x_adc.o(.text)
    adc_disable                              0x08002631   Thumb Code    12  gd32e23x_adc.o(.text)
    adc_calibration_enable                   0x08002641   Thumb Code    32  gd32e23x_adc.o(.text)
    adc_dma_mode_enable                      0x08002665   Thumb Code    16  gd32e23x_adc.o(.text)
    adc_dma_mode_disable                     0x08002679   Thumb Code    16  gd32e23x_adc.o(.text)
    adc_tempsensor_vrefint_enable            0x0800268d   Thumb Code    16  gd32e23x_adc.o(.text)
    adc_tempsensor_vrefint_disable           0x080026a1   Thumb Code    16  gd32e23x_adc.o(.text)
    adc_discontinuous_mode_config            0x080026b5   Thumb Code    64  gd32e23x_adc.o(.text)
    adc_special_function_config              0x080026f9   Thumb Code    80  gd32e23x_adc.o(.text)
    adc_data_alignment_config                0x0800274d   Thumb Code    24  gd32e23x_adc.o(.text)
    adc_channel_length_config                0x08002769   Thumb Code    48  gd32e23x_adc.o(.text)
    adc_regular_channel_config               0x080027a5   Thumb Code   124  gd32e23x_adc.o(.text)
    adc_inserted_channel_config              0x08002825   Thumb Code    76  gd32e23x_adc.o(.text)
    adc_inserted_channel_offset_config       0x08002875   Thumb Code    28  gd32e23x_adc.o(.text)
    adc_external_trigger_config              0x08002899   Thumb Code    64  gd32e23x_adc.o(.text)
    adc_external_trigger_source_config       0x080028dd   Thumb Code    32  gd32e23x_adc.o(.text)
    adc_software_trigger_enable              0x08002909   Thumb Code    32  gd32e23x_adc.o(.text)
    adc_regular_data_read                    0x0800292d   Thumb Code     8  gd32e23x_adc.o(.text)
    adc_inserted_data_read                   0x08002939   Thumb Code    52  gd32e23x_adc.o(.text)
    adc_flag_get                             0x08002971   Thumb Code    12  gd32e23x_adc.o(.text)
    adc_flag_clear                           0x08002981   Thumb Code    12  gd32e23x_adc.o(.text)
    adc_interrupt_flag_get                   0x08002991   Thumb Code    48  gd32e23x_adc.o(.text)
    adc_interrupt_flag_clear                 0x080029c5   Thumb Code    12  gd32e23x_adc.o(.text)
    adc_interrupt_enable                     0x080029d5   Thumb Code    40  gd32e23x_adc.o(.text)
    adc_interrupt_disable                    0x08002a01   Thumb Code    40  gd32e23x_adc.o(.text)
    adc_watchdog_single_channel_enable       0x08002a2d   Thumb Code    28  gd32e23x_adc.o(.text)
    adc_watchdog_group_channel_enable        0x08002a55   Thumb Code    32  gd32e23x_adc.o(.text)
    adc_watchdog_disable                     0x08002a89   Thumb Code    12  gd32e23x_adc.o(.text)
    adc_watchdog_threshold_config            0x08002a9d   Thumb Code    16  gd32e23x_adc.o(.text)
    adc_resolution_config                    0x08002ab5   Thumb Code    20  gd32e23x_adc.o(.text)
    adc_oversample_mode_config               0x08002acd   Thumb Code    40  gd32e23x_adc.o(.text)
    adc_oversample_mode_enable               0x08002afd   Thumb Code    12  gd32e23x_adc.o(.text)
    adc_oversample_mode_disable              0x08002b0d   Thumb Code    12  gd32e23x_adc.o(.text)
    dma_deinit                               0x08002b1d   Thumb Code    44  gd32e23x_dma.o(.text)
    dma_struct_para_init                     0x08002b4d   Thumb Code    10  gd32e23x_dma.o(.text)
    dma_init                                 0x08002b59   Thumb Code   112  gd32e23x_dma.o(.text)
    dma_channel_disable                      0x08002bcd   Thumb Code    16  gd32e23x_dma.o(.text)
    dma_circulation_enable                   0x08002be1   Thumb Code    16  gd32e23x_dma.o(.text)
    dma_circulation_disable                  0x08002bf5   Thumb Code    16  gd32e23x_dma.o(.text)
    dma_memory_to_memory_enable              0x08002c09   Thumb Code    20  gd32e23x_dma.o(.text)
    dma_memory_to_memory_disable             0x08002c21   Thumb Code    20  gd32e23x_dma.o(.text)
    dma_channel_enable                       0x08002c39   Thumb Code    16  gd32e23x_dma.o(.text)
    dma_periph_address_config                0x08002c4d   Thumb Code    12  gd32e23x_dma.o(.text)
    dma_memory_address_config                0x08002c5d   Thumb Code    12  gd32e23x_dma.o(.text)
    dma_transfer_number_config               0x08002c6d   Thumb Code    12  gd32e23x_dma.o(.text)
    dma_transfer_number_get                  0x08002c7d   Thumb Code    12  gd32e23x_dma.o(.text)
    dma_priority_config                      0x08002c8d   Thumb Code    24  gd32e23x_dma.o(.text)
    dma_memory_width_config                  0x08002ca9   Thumb Code    24  gd32e23x_dma.o(.text)
    dma_periph_width_config                  0x08002cc5   Thumb Code    24  gd32e23x_dma.o(.text)
    dma_memory_increase_enable               0x08002ce1   Thumb Code    16  gd32e23x_dma.o(.text)
    dma_memory_increase_disable              0x08002cf5   Thumb Code    16  gd32e23x_dma.o(.text)
    dma_periph_increase_enable               0x08002d09   Thumb Code    16  gd32e23x_dma.o(.text)
    dma_periph_increase_disable              0x08002d1d   Thumb Code    16  gd32e23x_dma.o(.text)
    dma_transfer_direction_config            0x08002d31   Thumb Code    28  gd32e23x_dma.o(.text)
    dma_flag_get                             0x08002d51   Thumb Code    16  gd32e23x_dma.o(.text)
    dma_flag_clear                           0x08002d65   Thumb Code    16  gd32e23x_dma.o(.text)
    dma_interrupt_flag_get                   0x08002d79   Thumb Code    56  gd32e23x_dma.o(.text)
    dma_interrupt_flag_clear                 0x08002db5   Thumb Code    16  gd32e23x_dma.o(.text)
    dma_interrupt_enable                     0x08002dc9   Thumb Code    16  gd32e23x_dma.o(.text)
    dma_interrupt_disable                    0x08002ddd   Thumb Code    16  gd32e23x_dma.o(.text)
    exti_deinit                              0x08002df1   Thumb Code    20  gd32e23x_exti.o(.text)
    exti_init                                0x08002e0d   Thumb Code    92  gd32e23x_exti.o(.text)
    exti_interrupt_enable                    0x08002e6d   Thumb Code    12  gd32e23x_exti.o(.text)
    exti_event_enable                        0x08002e7d   Thumb Code    12  gd32e23x_exti.o(.text)
    exti_interrupt_disable                   0x08002e8d   Thumb Code    12  gd32e23x_exti.o(.text)
    exti_event_disable                       0x08002e9d   Thumb Code    12  gd32e23x_exti.o(.text)
    exti_flag_get                            0x08002ead   Thumb Code    12  gd32e23x_exti.o(.text)
    exti_flag_clear                          0x08002ebd   Thumb Code     8  gd32e23x_exti.o(.text)
    exti_interrupt_flag_get                  0x08002ec9   Thumb Code    24  gd32e23x_exti.o(.text)
    exti_interrupt_flag_clear                0x08002ee5   Thumb Code     8  gd32e23x_exti.o(.text)
    exti_software_interrupt_enable           0x08002ef1   Thumb Code    12  gd32e23x_exti.o(.text)
    exti_software_interrupt_disable          0x08002f01   Thumb Code    12  gd32e23x_exti.o(.text)
    fmc_unlock                               0x08002f11   Thumb Code    20  gd32e23x_fmc.o(.text)
    fmc_lock                                 0x08002f31   Thumb Code    12  gd32e23x_fmc.o(.text)
    fmc_wscnt_set                            0x08002f41   Thumb Code    16  gd32e23x_fmc.o(.text)
    fmc_prefetch_enable                      0x08002f55   Thumb Code    12  gd32e23x_fmc.o(.text)
    fmc_prefetch_disable                     0x08002f65   Thumb Code    12  gd32e23x_fmc.o(.text)
    fmc_page_erase                           0x08002f75   Thumb Code    52  gd32e23x_fmc.o(.text)
    fmc_ready_wait                           0x08002fad   Thumb Code    32  gd32e23x_fmc.o(.text)
    fmc_mass_erase                           0x08002fcd   Thumb Code    48  gd32e23x_fmc.o(.text)
    fmc_doubleword_program                   0x08003001   Thumb Code    72  gd32e23x_fmc.o(.text)
    fmc_word_program                         0x0800304d   Thumb Code    48  gd32e23x_fmc.o(.text)
    ob_unlock                                0x08003081   Thumb Code    28  gd32e23x_fmc.o(.text)
    ob_lock                                  0x080030a9   Thumb Code    16  gd32e23x_fmc.o(.text)
    ob_reset                                 0x080030bd   Thumb Code    16  gd32e23x_fmc.o(.text)
    option_byte_value_get                    0x080030d1   Thumb Code     4  gd32e23x_fmc.o(.text)
    ob_erase                                 0x080030d5   Thumb Code   104  gd32e23x_fmc.o(.text)
    ob_obstat_plevel_get                     0x08003149   Thumb Code    12  gd32e23x_fmc.o(.text)
    ob_write_protection_enable               0x08003159   Thumb Code    68  gd32e23x_fmc.o(.text)
    ob_security_protection_config            0x080031ad   Thumb Code   112  gd32e23x_fmc.o(.text)
    ob_user_write                            0x08003229   Thumb Code   112  gd32e23x_fmc.o(.text)
    ob_data_program                          0x080032a1   Thumb Code    64  gd32e23x_fmc.o(.text)
    ob_user_get                              0x080032ed   Thumb Code    12  gd32e23x_fmc.o(.text)
    ob_data_get                              0x080032fd   Thumb Code     8  gd32e23x_fmc.o(.text)
    ob_write_protection_get                  0x08003309   Thumb Code     8  gd32e23x_fmc.o(.text)
    fmc_interrupt_enable                     0x08003315   Thumb Code    12  gd32e23x_fmc.o(.text)
    fmc_interrupt_disable                    0x08003325   Thumb Code    12  gd32e23x_fmc.o(.text)
    fmc_flag_get                             0x08003335   Thumb Code    12  gd32e23x_fmc.o(.text)
    fmc_flag_clear                           0x08003345   Thumb Code     8  gd32e23x_fmc.o(.text)
    fmc_interrupt_flag_get                   0x08003351   Thumb Code    36  gd32e23x_fmc.o(.text)
    fmc_interrupt_flag_clear                 0x08003379   Thumb Code     8  gd32e23x_fmc.o(.text)
    fmc_state_get                            0x08003385   Thumb Code    32  gd32e23x_fmc.o(.text)
    fwdgt_write_enable                       0x080033a9   Thumb Code     8  gd32e23x_fwdgt.o(.text)
    fwdgt_write_disable                      0x080033b9   Thumb Code     8  gd32e23x_fwdgt.o(.text)
    fwdgt_enable                             0x080033c5   Thumb Code     8  gd32e23x_fwdgt.o(.text)
    fwdgt_prescaler_value_config             0x080033d5   Thumb Code    36  gd32e23x_fwdgt.o(.text)
    fwdgt_reload_value_config                0x08003405   Thumb Code    40  gd32e23x_fwdgt.o(.text)
    fwdgt_window_value_config                0x0800343d   Thumb Code    40  gd32e23x_fwdgt.o(.text)
    fwdgt_counter_reload                     0x08003475   Thumb Code     8  gd32e23x_fwdgt.o(.text)
    fwdgt_config                             0x08003485   Thumb Code    64  gd32e23x_fwdgt.o(.text)
    fwdgt_flag_get                           0x080034d9   Thumb Code    12  gd32e23x_fwdgt.o(.text)
    gpio_deinit                              0x080034e9   Thumb Code    52  gd32e23x_gpio.o(.text)
    gpio_mode_set                            0x08003529   Thumb Code    62  gd32e23x_gpio.o(.text)
    gpio_output_options_set                  0x08003567   Thumb Code    64  gd32e23x_gpio.o(.text)
    gpio_bit_set                             0x080035a7   Thumb Code     4  gd32e23x_gpio.o(.text)
    gpio_bit_reset                           0x080035ab   Thumb Code     4  gd32e23x_gpio.o(.text)
    gpio_bit_write                           0x080035af   Thumb Code    12  gd32e23x_gpio.o(.text)
    gpio_port_write                          0x080035bb   Thumb Code     4  gd32e23x_gpio.o(.text)
    gpio_input_bit_get                       0x080035bf   Thumb Code    10  gd32e23x_gpio.o(.text)
    gpio_input_port_get                      0x080035c9   Thumb Code     6  gd32e23x_gpio.o(.text)
    gpio_output_bit_get                      0x080035cf   Thumb Code    10  gd32e23x_gpio.o(.text)
    gpio_output_port_get                     0x080035d9   Thumb Code     6  gd32e23x_gpio.o(.text)
    gpio_af_set                              0x080035df   Thumb Code    86  gd32e23x_gpio.o(.text)
    gpio_pin_lock                            0x08003635   Thumb Code    18  gd32e23x_gpio.o(.text)
    gpio_bit_toggle                          0x08003647   Thumb Code     4  gd32e23x_gpio.o(.text)
    gpio_port_toggle                         0x0800364d   Thumb Code     8  gd32e23x_gpio.o(.text)
    nvic_irq_enable                          0x08003659   Thumb Code    76  gd32e23x_misc.o(.text)
    nvic_irq_disable                         0x080036b1   Thumb Code    36  gd32e23x_misc.o(.text)
    nvic_system_reset                        0x080036d9   Thumb Code     4  gd32e23x_misc.o(.text)
    nvic_vector_table_set                    0x080036f9   Thumb Code    12  gd32e23x_misc.o(.text)
    system_lowpower_set                      0x0800370d   Thumb Code    12  gd32e23x_misc.o(.text)
    system_lowpower_reset                    0x0800371d   Thumb Code    12  gd32e23x_misc.o(.text)
    systick_clksource_set                    0x0800372d   Thumb Code    24  gd32e23x_misc.o(.text)
    rcu_deinit                               0x08003749   Thumb Code    88  gd32e23x_rcu.o(.text)
    rcu_periph_clock_enable                  0x080037b1   Thumb Code    20  gd32e23x_rcu.o(.text)
    rcu_periph_clock_disable                 0x080037c9   Thumb Code    20  gd32e23x_rcu.o(.text)
    rcu_periph_clock_sleep_enable            0x080037e1   Thumb Code    20  gd32e23x_rcu.o(.text)
    rcu_periph_clock_sleep_disable           0x080037f9   Thumb Code    20  gd32e23x_rcu.o(.text)
    rcu_periph_reset_enable                  0x08003811   Thumb Code    20  gd32e23x_rcu.o(.text)
    rcu_periph_reset_disable                 0x08003829   Thumb Code    20  gd32e23x_rcu.o(.text)
    rcu_bkp_reset_enable                     0x08003841   Thumb Code    16  gd32e23x_rcu.o(.text)
    rcu_bkp_reset_disable                    0x08003855   Thumb Code    16  gd32e23x_rcu.o(.text)
    rcu_system_clock_source_config           0x08003869   Thumb Code    16  gd32e23x_rcu.o(.text)
    rcu_system_clock_source_get              0x0800387d   Thumb Code    12  gd32e23x_rcu.o(.text)
    rcu_ahb_clock_config                     0x0800388d   Thumb Code    16  gd32e23x_rcu.o(.text)
    rcu_apb1_clock_config                    0x080038a1   Thumb Code    16  gd32e23x_rcu.o(.text)
    rcu_apb2_clock_config                    0x080038b5   Thumb Code    16  gd32e23x_rcu.o(.text)
    rcu_adc_clock_config                     0x080038c9   Thumb Code   192  gd32e23x_rcu.o(.text)
    rcu_ckout_config                         0x08003991   Thumb Code    20  gd32e23x_rcu.o(.text)
    rcu_pll_config                           0x080039a9   Thumb Code    24  gd32e23x_rcu.o(.text)
    rcu_usart_clock_config                   0x080039c9   Thumb Code    20  gd32e23x_rcu.o(.text)
    rcu_rtc_clock_config                     0x080039e1   Thumb Code    20  gd32e23x_rcu.o(.text)
    rcu_hxtal_prediv_config                  0x080039f9   Thumb Code    16  gd32e23x_rcu.o(.text)
    rcu_lxtal_drive_capability_config        0x08003a0d   Thumb Code    20  gd32e23x_rcu.o(.text)
    rcu_flag_get                             0x08003a25   Thumb Code    20  gd32e23x_rcu.o(.text)
    rcu_all_reset_flag_clear                 0x08003a3d   Thumb Code    16  gd32e23x_rcu.o(.text)
    rcu_interrupt_flag_get                   0x08003a51   Thumb Code    20  gd32e23x_rcu.o(.text)
    rcu_interrupt_flag_clear                 0x08003a69   Thumb Code    20  gd32e23x_rcu.o(.text)
    rcu_interrupt_enable                     0x08003a81   Thumb Code    20  gd32e23x_rcu.o(.text)
    rcu_interrupt_disable                    0x08003a99   Thumb Code    20  gd32e23x_rcu.o(.text)
    rcu_osci_stab_wait                       0x08003ab1   Thumb Code   232  gd32e23x_rcu.o(.text)
    rcu_osci_on                              0x08003ba5   Thumb Code    20  gd32e23x_rcu.o(.text)
    rcu_osci_off                             0x08003bbd   Thumb Code    20  gd32e23x_rcu.o(.text)
    rcu_osci_bypass_mode_enable              0x08003bd5   Thumb Code    44  gd32e23x_rcu.o(.text)
    rcu_osci_bypass_mode_disable             0x08003c09   Thumb Code    44  gd32e23x_rcu.o(.text)
    rcu_hxtal_clock_monitor_enable           0x08003c41   Thumb Code    16  gd32e23x_rcu.o(.text)
    rcu_hxtal_clock_monitor_disable          0x08003c55   Thumb Code    16  gd32e23x_rcu.o(.text)
    rcu_irc8m_adjust_value_set               0x08003c69   Thumb Code    16  gd32e23x_rcu.o(.text)
    rcu_irc28m_adjust_value_set              0x08003c7d   Thumb Code    16  gd32e23x_rcu.o(.text)
    rcu_voltage_key_unlock                   0x08003c91   Thumb Code    20  gd32e23x_rcu.o(.text)
    rcu_deepsleep_voltage_set                0x08003cad   Thumb Code    20  gd32e23x_rcu.o(.text)
    rcu_clock_freq_get                       0x08003cc5   Thumb Code   248  gd32e23x_rcu.o(.text)
    syscfg_deinit                            0x08003de5   Thumb Code    24  gd32e23x_syscfg.o(.text)
    syscfg_dma_remap_enable                  0x08003dfd   Thumb Code    12  gd32e23x_syscfg.o(.text)
    syscfg_dma_remap_disable                 0x08003e0d   Thumb Code    12  gd32e23x_syscfg.o(.text)
    syscfg_high_current_enable               0x08003e1d   Thumb Code    16  gd32e23x_syscfg.o(.text)
    syscfg_high_current_disable              0x08003e31   Thumb Code    16  gd32e23x_syscfg.o(.text)
    syscfg_exti_line_config                  0x08003e45   Thumb Code    72  gd32e23x_syscfg.o(.text)
    syscfg_lock_config                       0x08003e91   Thumb Code    12  gd32e23x_syscfg.o(.text)
    irq_latency_set                          0x08003ea1   Thumb Code    16  gd32e23x_syscfg.o(.text)
    syscfg_flag_get                          0x08003eb5   Thumb Code    12  gd32e23x_syscfg.o(.text)
    syscfg_flag_clear                        0x08003ec5   Thumb Code    12  gd32e23x_syscfg.o(.text)
    timer_deinit                             0x08003ed5   Thumb Code    88  gd32e23x_timer.o(.text)
    timer_struct_para_init                   0x08003f4d   Thumb Code    16  gd32e23x_timer.o(.text)
    timer_init                               0x08003f61   Thumb Code   160  gd32e23x_timer.o(.text)
    timer_enable                             0x08004019   Thumb Code    10  gd32e23x_timer.o(.text)
    timer_disable                            0x08004023   Thumb Code    10  gd32e23x_timer.o(.text)
    timer_auto_reload_shadow_enable          0x0800402d   Thumb Code    10  gd32e23x_timer.o(.text)
    timer_auto_reload_shadow_disable         0x08004037   Thumb Code    10  gd32e23x_timer.o(.text)
    timer_update_event_enable                0x08004041   Thumb Code    10  gd32e23x_timer.o(.text)
    timer_update_event_disable               0x0800404b   Thumb Code    10  gd32e23x_timer.o(.text)
    timer_counter_alignment                  0x08004055   Thumb Code    16  gd32e23x_timer.o(.text)
    timer_counter_up_direction               0x08004065   Thumb Code    10  gd32e23x_timer.o(.text)
    timer_counter_down_direction             0x0800406f   Thumb Code    10  gd32e23x_timer.o(.text)
    timer_prescaler_config                   0x08004079   Thumb Code    16  gd32e23x_timer.o(.text)
    timer_repetition_value_config            0x08004089   Thumb Code     4  gd32e23x_timer.o(.text)
    timer_autoreload_value_config            0x0800408d   Thumb Code     4  gd32e23x_timer.o(.text)
    timer_counter_value_config               0x08004091   Thumb Code     4  gd32e23x_timer.o(.text)
    timer_counter_read                       0x08004095   Thumb Code     4  gd32e23x_timer.o(.text)
    timer_prescaler_read                     0x08004099   Thumb Code     6  gd32e23x_timer.o(.text)
    timer_single_pulse_mode_config           0x0800409f   Thumb Code    26  gd32e23x_timer.o(.text)
    timer_update_source_config               0x080040b9   Thumb Code    26  gd32e23x_timer.o(.text)
    timer_ocpre_clear_source_config          0x080040d3   Thumb Code    26  gd32e23x_timer.o(.text)
    timer_interrupt_enable                   0x080040ed   Thumb Code     8  gd32e23x_timer.o(.text)
    timer_interrupt_disable                  0x080040f5   Thumb Code     8  gd32e23x_timer.o(.text)
    timer_interrupt_flag_get                 0x080040fd   Thumb Code    20  gd32e23x_timer.o(.text)
    timer_interrupt_flag_clear               0x08004111   Thumb Code     8  gd32e23x_timer.o(.text)
    timer_flag_get                           0x08004119   Thumb Code    10  gd32e23x_timer.o(.text)
    timer_flag_clear                         0x08004123   Thumb Code     8  gd32e23x_timer.o(.text)
    timer_dma_enable                         0x0800412b   Thumb Code     8  gd32e23x_timer.o(.text)
    timer_dma_disable                        0x08004133   Thumb Code     8  gd32e23x_timer.o(.text)
    timer_channel_dma_request_source_select  0x0800413b   Thumb Code    26  gd32e23x_timer.o(.text)
    timer_dma_transfer_config                0x08004155   Thumb Code    20  gd32e23x_timer.o(.text)
    timer_event_software_generate            0x0800416d   Thumb Code     8  gd32e23x_timer.o(.text)
    timer_break_struct_para_init             0x08004175   Thumb Code    10  gd32e23x_timer.o(.text)
    timer_break_config                       0x0800417f   Thumb Code    30  gd32e23x_timer.o(.text)
    timer_break_enable                       0x0800419d   Thumb Code    12  gd32e23x_timer.o(.text)
    timer_break_disable                      0x080041a9   Thumb Code    12  gd32e23x_timer.o(.text)
    timer_automatic_output_enable            0x080041b5   Thumb Code    12  gd32e23x_timer.o(.text)
    timer_automatic_output_disable           0x080041c1   Thumb Code    12  gd32e23x_timer.o(.text)
    timer_primary_output_config              0x080041cd   Thumb Code    22  gd32e23x_timer.o(.text)
    timer_channel_control_shadow_config      0x080041e3   Thumb Code    18  gd32e23x_timer.o(.text)
    timer_channel_control_shadow_update_config 0x080041f5   Thumb Code    26  gd32e23x_timer.o(.text)
    timer_channel_output_struct_para_init    0x0800420f   Thumb Code    10  gd32e23x_timer.o(.text)
    timer_channel_output_config              0x08004219   Thumb Code   540  gd32e23x_timer.o(.text)
    timer_channel_output_mode_config         0x08004449   Thumb Code    90  gd32e23x_timer.o(.text)
    timer_channel_output_pulse_value_config  0x080044a3   Thumb Code    14  gd32e23x_timer.o(.text)
    timer_channel_output_shadow_config       0x080044b1   Thumb Code    90  gd32e23x_timer.o(.text)
    timer_channel_output_fast_config         0x0800450d   Thumb Code    90  gd32e23x_timer.o(.text)
    timer_channel_output_clear_config        0x08004569   Thumb Code    90  gd32e23x_timer.o(.text)
    timer_channel_output_polarity_config     0x080045c5   Thumb Code    90  gd32e23x_timer.o(.text)
    timer_channel_complementary_output_polarity_config 0x08004621   Thumb Code    90  gd32e23x_timer.o(.text)
    timer_channel_output_state_config        0x0800467d   Thumb Code    90  gd32e23x_timer.o(.text)
    timer_channel_complementary_output_state_config 0x080046d7   Thumb Code    54  gd32e23x_timer.o(.text)
    timer_channel_input_struct_para_init     0x0800470d   Thumb Code    14  gd32e23x_timer.o(.text)
    timer_input_capture_config               0x0800471d   Thumb Code   308  gd32e23x_timer.o(.text)
    timer_channel_input_capture_prescaler_config 0x08004859   Thumb Code    90  gd32e23x_timer.o(.text)
    timer_channel_capture_value_register_read 0x080048b3   Thumb Code    18  gd32e23x_timer.o(.text)
    timer_input_pwm_capture_config           0x080048c5   Thumb Code   340  gd32e23x_timer.o(.text)
    timer_hall_mode_config                   0x08004a25   Thumb Code    26  gd32e23x_timer.o(.text)
    timer_input_trigger_source_select        0x08004a3f   Thumb Code    16  gd32e23x_timer.o(.text)
    timer_master_output_trigger_source_select 0x08004a4f   Thumb Code    16  gd32e23x_timer.o(.text)
    timer_slave_mode_select                  0x08004a5f   Thumb Code    16  gd32e23x_timer.o(.text)
    timer_master_slave_mode_config           0x08004a6f   Thumb Code    26  gd32e23x_timer.o(.text)
    timer_external_trigger_config            0x08004a89   Thumb Code    30  gd32e23x_timer.o(.text)
    timer_quadrature_decoder_mode_config     0x08004aa9   Thumb Code    64  gd32e23x_timer.o(.text)
    timer_internal_clock_config              0x08004aed   Thumb Code    10  gd32e23x_timer.o(.text)
    timer_internal_trigger_as_external_clock_config 0x08004af7   Thumb Code    30  gd32e23x_timer.o(.text)
    timer_external_trigger_as_external_clock_config 0x08004b15   Thumb Code   148  gd32e23x_timer.o(.text)
    timer_external_clock_mode0_config        0x08004ba9   Thumb Code    24  gd32e23x_timer.o(.text)
    timer_external_clock_mode1_config        0x08004bc1   Thumb Code    20  gd32e23x_timer.o(.text)
    timer_external_clock_mode1_disable       0x08004bd5   Thumb Code    12  gd32e23x_timer.o(.text)
    timer_channel_remap_config               0x08004be1   Thumb Code     4  gd32e23x_timer.o(.text)
    timer_write_chxval_register_config       0x08004be5   Thumb Code    30  gd32e23x_timer.o(.text)
    timer_output_value_selection_config      0x08004c03   Thumb Code    30  gd32e23x_timer.o(.text)
    Reset_Handler                            0x08004c21   Thumb Code     8  startup_gd32e23x.o(.text)
    ADC_CMP_IRQHandler                       0x08004c33   Thumb Code     0  startup_gd32e23x.o(.text)
    DMA_Channel1_2_IRQHandler                0x08004c33   Thumb Code     0  startup_gd32e23x.o(.text)
    DMA_Channel3_4_IRQHandler                0x08004c33   Thumb Code     0  startup_gd32e23x.o(.text)
    FMC_IRQHandler                           0x08004c33   Thumb Code     0  startup_gd32e23x.o(.text)
    I2C0_ER_IRQHandler                       0x08004c33   Thumb Code     0  startup_gd32e23x.o(.text)
    I2C0_EV_IRQHandler                       0x08004c33   Thumb Code     0  startup_gd32e23x.o(.text)
    I2C1_ER_IRQHandler                       0x08004c33   Thumb Code     0  startup_gd32e23x.o(.text)
    I2C1_EV_IRQHandler                       0x08004c33   Thumb Code     0  startup_gd32e23x.o(.text)
    LVD_IRQHandler                           0x08004c33   Thumb Code     0  startup_gd32e23x.o(.text)
    RCU_IRQHandler                           0x08004c33   Thumb Code     0  startup_gd32e23x.o(.text)
    RTC_IRQHandler                           0x08004c33   Thumb Code     0  startup_gd32e23x.o(.text)
    SPI0_IRQHandler                          0x08004c33   Thumb Code     0  startup_gd32e23x.o(.text)
    SPI1_IRQHandler                          0x08004c33   Thumb Code     0  startup_gd32e23x.o(.text)
    TIMER0_Channel_IRQHandler                0x08004c33   Thumb Code     0  startup_gd32e23x.o(.text)
    TIMER14_IRQHandler                       0x08004c33   Thumb Code     0  startup_gd32e23x.o(.text)
    TIMER15_IRQHandler                       0x08004c33   Thumb Code     0  startup_gd32e23x.o(.text)
    TIMER16_IRQHandler                       0x08004c33   Thumb Code     0  startup_gd32e23x.o(.text)
    TIMER2_IRQHandler                        0x08004c33   Thumb Code     0  startup_gd32e23x.o(.text)
    TIMER5_IRQHandler                        0x08004c33   Thumb Code     0  startup_gd32e23x.o(.text)
    USART0_IRQHandler                        0x08004c33   Thumb Code     0  startup_gd32e23x.o(.text)
    USART1_IRQHandler                        0x08004c33   Thumb Code     0  startup_gd32e23x.o(.text)
    WWDGT_IRQHandler                         0x08004c33   Thumb Code     0  startup_gd32e23x.o(.text)
    SystemInit                               0x08004c3d   Thumb Code   208  system_gd32e23x.o(.text)
    SystemCoreClockUpdate                    0x08004d25   Thumb Code    92  system_gd32e23x.o(.text)
    __aeabi_lmul                             0x08004da1   Thumb Code    48  llmul.o(.text)
    _ll_mul                                  0x08004da1   Thumb Code     0  llmul.o(.text)
    __aeabi_memcpy                           0x08004dd1   Thumb Code    36  memcpya.o(.text)
    __aeabi_memcpy4                          0x08004dd1   Thumb Code     0  memcpya.o(.text)
    __aeabi_memcpy8                          0x08004dd1   Thumb Code     0  memcpya.o(.text)
    __aeabi_memset                           0x08004df5   Thumb Code    14  memseta.o(.text)
    __aeabi_memset4                          0x08004df5   Thumb Code     0  memseta.o(.text)
    __aeabi_memset8                          0x08004df5   Thumb Code     0  memseta.o(.text)
    __aeabi_memclr                           0x08004e03   Thumb Code     4  memseta.o(.text)
    __aeabi_memclr4                          0x08004e03   Thumb Code     0  memseta.o(.text)
    __aeabi_memclr8                          0x08004e03   Thumb Code     0  memseta.o(.text)
    _memset$wrapper                          0x08004e07   Thumb Code    18  memseta.o(.text)
    strlen                                   0x08004e19   Thumb Code    14  strlen.o(.text)
    strcmp                                   0x08004e27   Thumb Code    28  strcmp.o(.text)
    memcmp                                   0x08004e43   Thumb Code    26  memcmp.o(.text)
    __aeabi_fadd                             0x08004e5d   Thumb Code   162  fadd.o(.text)
    __aeabi_fsub                             0x08004eff   Thumb Code     8  fadd.o(.text)
    __aeabi_frsub                            0x08004f07   Thumb Code     8  fadd.o(.text)
    __aeabi_fmul                             0x08004f0f   Thumb Code   122  fmul.o(.text)
    __aeabi_fdiv                             0x08004f89   Thumb Code   124  fdiv.o(.text)
    __aeabi_dadd                             0x08005005   Thumb Code   328  dadd.o(.text)
    __aeabi_dsub                             0x0800514d   Thumb Code    12  dadd.o(.text)
    __aeabi_drsub                            0x08005159   Thumb Code    12  dadd.o(.text)
    __aeabi_dmul                             0x08005169   Thumb Code   202  dmul.o(.text)
    __aeabi_ddiv                             0x08005239   Thumb Code   234  ddiv.o(.text)
    __aeabi_fcmplt                           0x08005329   Thumb Code    28  fcmplt.o(.text)
    __aeabi_fcmpgt                           0x08005345   Thumb Code    28  fcmpgt.o(.text)
    __aeabi_i2f                              0x08005361   Thumb Code    22  fflti.o(.text)
    __aeabi_ui2f                             0x08005377   Thumb Code    14  ffltui.o(.text)
    __aeabi_i2d                              0x08005385   Thumb Code    34  dflti.o(.text)
    __aeabi_ui2d                             0x080053ad   Thumb Code    24  dfltui.o(.text)
    __aeabi_f2iz                             0x080053c9   Thumb Code    50  ffixi.o(.text)
    __aeabi_f2lz                             0x080053fb   Thumb Code    64  ffixl.o(.text)
    __aeabi_d2iz                             0x0800543d   Thumb Code    62  dfixi.o(.text)
    __aeabi_f2d                              0x08005485   Thumb Code    40  f2d.o(.text)
    __aeabi_d2f                              0x080054ad   Thumb Code    56  d2f.o(.text)
    __aeabi_uldivmod                         0x080054e5   Thumb Code    96  uldiv.o(.text)
    __aeabi_llsl                             0x08005545   Thumb Code    32  llshl.o(.text)
    _ll_shift_l                              0x08005545   Thumb Code     0  llshl.o(.text)
    __aeabi_llsr                             0x08005565   Thumb Code    34  llushr.o(.text)
    _ll_ushift_r                             0x08005565   Thumb Code     0  llushr.o(.text)
    __aeabi_lasr                             0x08005587   Thumb Code    38  llsshr.o(.text)
    _ll_sshift_r                             0x08005587   Thumb Code     0  llsshr.o(.text)
    __strtof_int                             0x080055ad   Thumb Code    12  strtof.o(.text)
    __I$use$fp                               0x080055b9   Thumb Code     0  iusefp.o(.text)
    _float_round                             0x080055b9   Thumb Code    16  fepilogue.o(.text)
    _float_epilogue                          0x080055c9   Thumb Code   114  fepilogue.o(.text)
    _double_round                            0x0800563b   Thumb Code    26  depilogue.o(.text)
    _double_epilogue                         0x08005655   Thumb Code   164  depilogue.o(.text)
    __aeabi_d2ulz                            0x080056f9   Thumb Code    54  dfixul.o(.text)
    __aeabi_cdrcmple                         0x08005739   Thumb Code    38  cdrcmple.o(.text)
    __scatterload                            0x08005761   Thumb Code    38  init.o(.text)
    __scatterload_rt2                        0x08005761   Thumb Code     0  init.o(.text)
    __aeabi_uidiv$div0                       0x08005791   Thumb Code     0  uidiv_div0.o(.text)
    __aeabi_uidivmod                         0x08005791   Thumb Code    62  uidiv_div0.o(.text)
    __strtod_int                             0x08005811   Thumb Code    98  strtod.o(.text)
    isspace                                  0x08005885   Thumb Code    14  isspace_c.o(.text)
    _scanf_real                              0x080059b3   Thumb Code     0  scanf_fp.o(.text)
    _scanf_really_real                       0x080059b3   Thumb Code   584  scanf_fp.o(.text)
    _sgetc                                   0x08005c09   Thumb Code    32  _sgetc.o(.text)
    _sbackspace                              0x08005c29   Thumb Code    36  _sgetc.o(.text)
    __ctype_lookup                           0x08005c4d   Thumb Code    32  ctype_c.o(.text)
    __aeabi_ul2d                             0x08005c71   Thumb Code    22  dfltul.o(.text)
    __0sprintf                               0x08005c8d   Thumb Code    36  printfa.o(i.__0sprintf)
    __1sprintf                               0x08005c8d   Thumb Code     0  printfa.o(i.__0sprintf)
    __2sprintf                               0x08005c8d   Thumb Code     0  printfa.o(i.__0sprintf)
    __c89sprintf                             0x08005c8d   Thumb Code     0  printfa.o(i.__0sprintf)
    sprintf                                  0x08005c8d   Thumb Code     0  printfa.o(i.__0sprintf)
    __ARM_clz                                0x08005cb5   Thumb Code    46  depilogue.o(i.__ARM_clz)
    __scatterload_copy                       0x08005ce3   Thumb Code    14  handlers.o(i.__scatterload_copy)
    __scatterload_null                       0x08005cf1   Thumb Code     2  handlers.o(i.__scatterload_null)
    __scatterload_zeroinit                   0x08005cf3   Thumb Code    14  handlers.o(i.__scatterload_zeroinit)
    _is_digit                                0x08005e75   Thumb Code    14  scanf_fp.o(i._is_digit)
    strtof                                   0x080065c7   Thumb Code    20  strtof.o(i.strtof)
    __ctype_categories                       0x080065da   Data          64  ctype_c.o(.constdata)
    hall_to_pos                              0x08006657   Data           8  bldc.o(.rodata.hall_to_pos)
    lookUpTableAngle                         0x08006660   Data         724  main.o(.rodata.lookUpTableAngle)
    Region$$Table$$Base                      0x08006c10   Number         0  anon$$obj.o(Region$$Table)
    Region$$Table$$Limit                     0x08006c30   Number         0  anon$$obj.o(Region$$Table)
    wState                                   0x20000000   Data           1  main.o(.data..L_MergedGlobals)
    speedLimit                               0x20000002   Data           2  main.o(.data..L_MergedGlobals)
    iFILTER_SHIFT                            0x20000004   Data           1  bldc.o(.data..L_MergedGlobals)
    iFILTER_SHIFTDo                          0x20000005   Data           1  bldc.o(.data..L_MergedGlobals)
    offsetdc                                 0x20000006   Data           2  bldc.o(.data..L_MergedGlobals)
    batteryVoltage                           0x20000008   Data           4  bldc.o(.data..L_MergedGlobals)
    currentDC                                0x2000000c   Data           4  bldc.o(.data..L_MergedGlobals)
    revs32Scale                              0x20000010   Data           4  bldc.o(.data..L_MergedGlobals)
    revs32ScaleSlow                          0x20000014   Data           4  bldc.o(.data..L_MergedGlobals)
    iDriverDoEvery                           0x20000018   Data           2  driver.o(.data..L_MergedGlobals)
    aoPIDInit                                0x2000001c   Data          84  driver.o(.data..L_MergedGlobals)
    bRemoteInit                              0x20000070   Data           1  remotedummy.o(.data..L_MergedGlobals)
    iRemotePeriod                            0x20000071   Data           1  remotedummy.o(.data..L_MergedGlobals)
    iOldRemotePeriod                         0x20000072   Data           1  remotedummy.o(.data..L_MergedGlobals)
    fRemoteScaleMax                          0x20000074   Data           4  remotedummy.o(.data..L_MergedGlobals)
    SystemCoreClock                          0x20000078   Data           4  system_gd32e23x.o(.data.SystemCoreClock)
    sectorChange                             0x20000080   Data           1  bldcsine.o(.bss..L_MergedGlobals)
    sector                                   0x20000081   Data           1  bldcsine.o(.bss..L_MergedGlobals)
    sector10x                                0x20000082   Data           1  bldcsine.o(.bss..L_MergedGlobals)
    bInterrupt                               0x20000083   Data           1  bldcsine.o(.bss..L_MergedGlobals)
    hall_last                                0x20000084   Data           1  bldcsine.o(.bss..L_MergedGlobals)
    angle_deg                                0x20000086   Data           2  bldcsine.o(.bss..L_MergedGlobals)
    angle_deg_add                            0x20000088   Data           2  bldcsine.o(.bss..L_MergedGlobals)
    angle_deg_final                          0x2000008a   Data           2  bldcsine.o(.bss..L_MergedGlobals)
    angle_idx                                0x2000008c   Data           2  bldcsine.o(.bss..L_MergedGlobals)
    hall_time_last                           0x2000008e   Data           2  bldcsine.o(.bss..L_MergedGlobals)
    hall_time_step                           0x20000090   Data           2  bldcsine.o(.bss..L_MergedGlobals)
    iDT                                      0x20000092   Data           2  bldcsine.o(.bss..L_MergedGlobals)
    iAdd                                     0x20000094   Data           2  bldcsine.o(.bss..L_MergedGlobals)
    pwmGo                                    0x20000098   Data           4  bldcsine.o(.bss..L_MergedGlobals)
    hall_time_step_LPR                       0x2000009c   Data           4  bldcsine.o(.bss..L_MergedGlobals)
    hall_time_step_LP                        0x200000a0   Data           4  bldcsine.o(.bss..L_MergedGlobals)
    aHallEXTI                                0x200000a4   Data          12  bldcsine.o(.bss..L_MergedGlobals)
    timerBldc_oc_parameter_struct            0x200000b0   Data          12  setup.o(.bss..L_MergedGlobals)
    timerBldc_break_parameter_struct         0x200000bc   Data          14  setup.o(.bss..L_MergedGlobals)
    timerBldc_paramter_struct                0x200000cc   Data          16  setup.o(.bss..L_MergedGlobals)
    timedOut                                 0x200000dc   Data           1  it.o(.bss..L_MergedGlobals)
    timeoutCounter_ms                        0x200000e0   Data           4  it.o(.bss..L_MergedGlobals)
    msTicks                                  0x200000e4   Data           4  it.o(.bss..L_MergedGlobals)
    iPwmCounter                              0x200000e8   Data           4  it.o(.bss..L_MergedGlobals)
    iPwmTime                                 0x200000ec   Data           4  it.o(.bss..L_MergedGlobals)
    iPwmRate                                 0x200000f0   Data           4  it.o(.bss..L_MergedGlobals)
    iAdcCounter                              0x200000f4   Data           4  it.o(.bss..L_MergedGlobals)
    iAdcTime                                 0x200000f8   Data           4  it.o(.bss..L_MergedGlobals)
    iAdcRate                                 0x200000fc   Data           4  it.o(.bss..L_MergedGlobals)
    iDrivingMode                             0x20000100   Data           1  main.o(.bss..L_MergedGlobals.1)
    bRemoteTimeout                           0x20000101   Data           1  main.o(.bss..L_MergedGlobals.1)
    bPilotTimeout                            0x20000102   Data           1  main.o(.bss..L_MergedGlobals.1)
    enable                                   0x20000103   Data           1  main.o(.bss..L_MergedGlobals.1)
    pwmSlave                                 0x20000104   Data           2  main.o(.bss..L_MergedGlobals.1)
    iBug                                     0x20000108   Data           4  main.o(.bss..L_MergedGlobals.1)
    steerCounter                             0x2000010c   Data           4  main.o(.bss..L_MergedGlobals.1)
    speed                                    0x20000110   Data           4  main.o(.bss..L_MergedGlobals.1)
    speedShutoff                             0x20000114   Data           4  main.o(.bss..L_MergedGlobals.1)
    steer                                    0x20000118   Data           4  main.o(.bss..L_MergedGlobals.1)
    inactivity_timeout_counter               0x2000011c   Data           4  main.o(.bss..L_MergedGlobals.1)
    iTimeNextLoop                            0x20000120   Data           4  main.o(.bss..L_MergedGlobals.1)
    bldc_enable                              0x20000124   Data           1  bldc.o(.bss..L_MergedGlobals.1)
    hall                                     0x20000125   Data           1  bldc.o(.bss..L_MergedGlobals.1)
    iDrivingModeOverride                     0x20000126   Data           1  bldc.o(.bss..L_MergedGlobals.1)
    hall_a                                   0x20000127   Data           1  bldc.o(.bss..L_MergedGlobals.1)
    hall_b                                   0x20000128   Data           1  bldc.o(.bss..L_MergedGlobals.1)
    hall_c                                   0x20000129   Data           1  bldc.o(.bss..L_MergedGlobals.1)
    pos                                      0x2000012a   Data           1  bldc.o(.bss..L_MergedGlobals.1)
    lastPos                                  0x2000012b   Data           1  bldc.o(.bss..L_MergedGlobals.1)
    buzzerTimer                              0x2000012c   Data           2  bldc.o(.bss..L_MergedGlobals.1)
    offsetcount                              0x2000012e   Data           2  bldc.o(.bss..L_MergedGlobals.1)
    realSpeed                                0x20000130   Data           4  bldc.o(.bss..L_MergedGlobals.1)
    revs32                                   0x20000134   Data           4  bldc.o(.bss..L_MergedGlobals.1)
    torque32                                 0x20000138   Data           4  bldc.o(.bss..L_MergedGlobals.1)
    revs32_reg                               0x2000013c   Data           4  bldc.o(.bss..L_MergedGlobals.1)
    torque32_reg                             0x20000140   Data           4  bldc.o(.bss..L_MergedGlobals.1)
    revs32x                                  0x20000144   Data           4  bldc.o(.bss..L_MergedGlobals.1)
    iBldcInput                               0x20000148   Data           4  bldc.o(.bss..L_MergedGlobals.1)
    bldc_inputFilterPwm                      0x2000014c   Data           4  bldc.o(.bss..L_MergedGlobals.1)
    bldc_outputFilterPwm                     0x20000150   Data           4  bldc.o(.bss..L_MergedGlobals.1)
    speedCounter                             0x20000154   Data           4  bldc.o(.bss..L_MergedGlobals.1)
    speedCounterSlow                         0x20000158   Data           4  bldc.o(.bss..L_MergedGlobals.1)
    speedCounterLog                          0x2000015c   Data           4  bldc.o(.bss..L_MergedGlobals.1)
    speedCounterSlowLog                      0x20000160   Data           4  bldc.o(.bss..L_MergedGlobals.1)
    iOdom                                    0x20000164   Data           4  bldc.o(.bss..L_MergedGlobals.1)
    iOdomLast                                0x20000168   Data           4  bldc.o(.bss..L_MergedGlobals.1)
    filter_reg                               0x2000016c   Data           4  bldc.o(.bss..L_MergedGlobals.1)
    iBuzzCounter                             0x20000170   Data           4  bldc.o(.bss..L_MergedGlobals.1)
    iBuzzTime                                0x20000174   Data           4  bldc.o(.bss..L_MergedGlobals.1)
    iBuzzRate                                0x20000178   Data           4  bldc.o(.bss..L_MergedGlobals.1)
    adc_buffer                               0x2000017c   Data           4  bldc.o(.bss..L_MergedGlobals.1)
    error                                    0x20000180   Data           4  driver.o(.bss..L_MergedGlobals.1)
    delta_error                              0x20000184   Data           4  driver.o(.bss..L_MergedGlobals.1)
    p_outH                                   0x20000188   Data           4  driver.o(.bss..L_MergedGlobals.1)
    p_outL                                   0x2000018c   Data           4  driver.o(.bss..L_MergedGlobals.1)
    i_outH                                   0x20000190   Data           4  driver.o(.bss..L_MergedGlobals.1)
    i_outL                                   0x20000194   Data           4  driver.o(.bss..L_MergedGlobals.1)
    d_outH                                   0x20000198   Data           4  driver.o(.bss..L_MergedGlobals.1)
    d_outL                                   0x2000019c   Data           4  driver.o(.bss..L_MergedGlobals.1)
    p_out32                                  0x200001a0   Data           4  driver.o(.bss..L_MergedGlobals.1)
    i_out32                                  0x200001a4   Data           4  driver.o(.bss..L_MergedGlobals.1)
    d_out32                                  0x200001a8   Data           4  driver.o(.bss..L_MergedGlobals.1)
    output32                                 0x200001ac   Data           4  driver.o(.bss..L_MergedGlobals.1)
    output                                   0x200001b0   Data           4  driver.o(.bss..L_MergedGlobals.1)
    iOldDrivingMode                          0x200001b4   Data           1  remotedummy.o(.bss..L_MergedGlobals.7)
    iCounterLog                              0x200001b6   Data           2  remotedummy.o(.bss..L_MergedGlobals.7)
    iRemoteMax                               0x200001b8   Data           4  remotedummy.o(.bss..L_MergedGlobals.7)
    iTimeNextLog                             0x200001bc   Data           4  remotedummy.o(.bss..L_MergedGlobals.7)
    msTicksInit                              0x200001c4   Data           4  remotedummy.o(.bss..L_MergedGlobals.7)
    _SEGGER_RTT                              0x2000020c   Data         168  segger_rtt.o(.bss._SEGGER_RTT)
    aoPIDInitOld                             0x200006c4   Data          84  remotedummy.o(.bss.aoPIDInitOld)
    dma_init_struct_adc                      0x20000718   Data          28  setup.o(.bss.dma_init_struct_adc)
    iTestClock                               0x20000734   Data           4  setup.o(.bss.iTestClock)
    oConfig                                  0x20000738   Data          20  setup.o(.bss.oConfig)
    pid                                      0x20000750   Data          48  driver.o(.bss.pid)
    pll_mul                                  0x20000780   Data           4  setup.o(.bss.pll_mul)
    sMessage                                 0x20000784   Data         512  remotedummy.o(.bss.sMessage)
    timeoutTimer_paramter_struct             0x20000984   Data          16  setup.o(.bss.timeoutTimer_paramter_struct)
    __initial_sp                             0x20000d98   Data           0  startup_gd32e23x.o(STACK)



==============================================================================

Memory Map of the image

  Image Entry point : 0x080000cd

  Load Region LR_IROM1 (Base: 0x08000000, Size: 0x00006cb0, Max: 0x00010000, ABSOLUTE)

    Execution Region ER_IROM1 (Exec base: 0x08000000, Load base: 0x08000000, Size: 0x00006c30, Max: 0x00010000, ABSOLUTE)

    Exec Addr    Load Addr    Size         Type   Attr      Idx    E Section Name        Object

    0x08000000   0x08000000   0x000000cc   Data   RO          278    RESET               startup_gd32e23x.o
    0x080000cc   0x080000cc   0x00000000   Code   RO          298  * .ARM.Collect$$$$00000000  mc_p.l(entry.o)
    0x080000cc   0x080000cc   0x00000004   Code   RO          610    .ARM.Collect$$$$00000001  mc_p.l(entry2.o)
    0x080000d0   0x080000d0   0x00000004   Code   RO          613    .ARM.Collect$$$$00000004  mc_p.l(entry5.o)
    0x080000d4   0x080000d4   0x00000000   Code   RO          615    .ARM.Collect$$$$00000008  mc_p.l(entry7b.o)
    0x080000d4   0x080000d4   0x00000000   Code   RO          617    .ARM.Collect$$$$0000000A  mc_p.l(entry8b.o)
    0x080000d4   0x080000d4   0x00000008   Code   RO          618    .ARM.Collect$$$$0000000B  mc_p.l(entry9a.o)
    0x080000dc   0x080000dc   0x00000000   Code   RO          620    .ARM.Collect$$$$0000000D  mc_p.l(entry10a.o)
    0x080000dc   0x080000dc   0x00000000   Code   RO          622    .ARM.Collect$$$$0000000F  mc_p.l(entry11a.o)
    0x080000dc   0x080000dc   0x00000004   Code   RO          611    .ARM.Collect$$$$00002712  mc_p.l(entry2.o)
    0x080000e0   0x080000e0   0x000004a4   Code   RO            1    .text               main.o
    0x08000584   0x08000584   0x000004b4   Code   RO           18    .text               bldc.o
    0x08000a38   0x08000a38   0x0000024c   Code   RO           32    .text               driver.o
    0x08000c84   0x08000c84   0x00000270   Code   RO           46    .text               bldcsine.o
    0x08000ef4   0x08000ef4   0x00000700   Code   RO           59    .text               setup.o
    0x080015f4   0x080015f4   0x00000128   Code   RO           79    .text               it.o
    0x0800171c   0x0800171c   0x00000514   Code   RO          109    .text               remotedummy.o
    0x08001c30   0x08001c30   0x000009cc   Code   RO          144    .text               segger_rtt.o
    0x080025fc   0x080025fc   0x00000520   Code   RO          160    .text               gd32e23x_adc.o
    0x08002b1c   0x08002b1c   0x000002d4   Code   RO          168    .text               gd32e23x_dma.o
    0x08002df0   0x08002df0   0x00000120   Code   RO          176    .text               gd32e23x_exti.o
    0x08002f10   0x08002f10   0x00000498   Code   RO          184    .text               gd32e23x_fmc.o
    0x080033a8   0x080033a8   0x00000140   Code   RO          192    .text               gd32e23x_fwdgt.o
    0x080034e8   0x080034e8   0x00000170   Code   RO          200    .text               gd32e23x_gpio.o
    0x08003658   0x08003658   0x000000f0   Code   RO          216    .text               gd32e23x_misc.o
    0x08003748   0x08003748   0x0000069c   Code   RO          233    .text               gd32e23x_rcu.o
    0x08003de4   0x08003de4   0x000000f0   Code   RO          243    .text               gd32e23x_syscfg.o
    0x08003ed4   0x08003ed4   0x00000d4c   Code   RO          251    .text               gd32e23x_timer.o
    0x08004c20   0x08004c20   0x0000001c   Code   RO          279    .text               startup_gd32e23x.o
    0x08004c3c   0x08004c3c   0x00000164   Code   RO          285    .text               system_gd32e23x.o
    0x08004da0   0x08004da0   0x00000030   Code   RO          301    .text               mc_p.l(llmul.o)
    0x08004dd0   0x08004dd0   0x00000024   Code   RO          303    .text               mc_p.l(memcpya.o)
    0x08004df4   0x08004df4   0x00000024   Code   RO          305    .text               mc_p.l(memseta.o)
    0x08004e18   0x08004e18   0x0000000e   Code   RO          307    .text               mc_p.l(strlen.o)
    0x08004e26   0x08004e26   0x0000001c   Code   RO          309    .text               mc_p.l(strcmp.o)
    0x08004e42   0x08004e42   0x0000001a   Code   RO          311    .text               mc_p.l(memcmp.o)
    0x08004e5c   0x08004e5c   0x000000b2   Code   RO          576    .text               mf_p.l(fadd.o)
    0x08004f0e   0x08004f0e   0x0000007a   Code   RO          578    .text               mf_p.l(fmul.o)
    0x08004f88   0x08004f88   0x0000007c   Code   RO          580    .text               mf_p.l(fdiv.o)
    0x08005004   0x08005004   0x00000164   Code   RO          582    .text               mf_p.l(dadd.o)
    0x08005168   0x08005168   0x000000d0   Code   RO          584    .text               mf_p.l(dmul.o)
    0x08005238   0x08005238   0x000000f0   Code   RO          586    .text               mf_p.l(ddiv.o)
    0x08005328   0x08005328   0x0000001c   Code   RO          588    .text               mf_p.l(fcmplt.o)
    0x08005344   0x08005344   0x0000001c   Code   RO          590    .text               mf_p.l(fcmpgt.o)
    0x08005360   0x08005360   0x00000016   Code   RO          592    .text               mf_p.l(fflti.o)
    0x08005376   0x08005376   0x0000000e   Code   RO          594    .text               mf_p.l(ffltui.o)
    0x08005384   0x08005384   0x00000028   Code   RO          596    .text               mf_p.l(dflti.o)
    0x080053ac   0x080053ac   0x0000001c   Code   RO          598    .text               mf_p.l(dfltui.o)
    0x080053c8   0x080053c8   0x00000032   Code   RO          600    .text               mf_p.l(ffixi.o)
    0x080053fa   0x080053fa   0x00000040   Code   RO          602    .text               mf_p.l(ffixl.o)
    0x0800543a   0x0800543a   0x00000002   PAD
    0x0800543c   0x0800543c   0x00000048   Code   RO          604    .text               mf_p.l(dfixi.o)
    0x08005484   0x08005484   0x00000028   Code   RO          606    .text               mf_p.l(f2d.o)
    0x080054ac   0x080054ac   0x00000038   Code   RO          608    .text               mf_p.l(d2f.o)
    0x080054e4   0x080054e4   0x00000060   Code   RO          633    .text               mc_p.l(uldiv.o)
    0x08005544   0x08005544   0x00000020   Code   RO          635    .text               mc_p.l(llshl.o)
    0x08005564   0x08005564   0x00000022   Code   RO          637    .text               mc_p.l(llushr.o)
    0x08005586   0x08005586   0x00000026   Code   RO          639    .text               mc_p.l(llsshr.o)
    0x080055ac   0x080055ac   0x0000000c   Code   RO          641    .text               mc_p.l(strtof.o)
    0x080055b8   0x080055b8   0x00000000   Code   RO          643    .text               mc_p.l(iusefp.o)
    0x080055b8   0x080055b8   0x00000082   Code   RO          644    .text               mf_p.l(fepilogue.o)
    0x0800563a   0x0800563a   0x000000be   Code   RO          646    .text               mf_p.l(depilogue.o)
    0x080056f8   0x080056f8   0x00000040   Code   RO          650    .text               mf_p.l(dfixul.o)
    0x08005738   0x08005738   0x00000028   Code   RO          652    .text               mf_p.l(cdrcmple.o)
    0x08005760   0x08005760   0x00000030   Code   RO          654    .text               mc_p.l(init.o)
    0x08005790   0x08005790   0x0000003e   Code   RO          659    .text               mc_p.l(uidiv_div0.o)
    0x080057ce   0x080057ce   0x00000002   PAD
    0x080057d0   0x080057d0   0x000000b4   Code   RO          665    .text               mc_p.l(strtod.o)
    0x08005884   0x08005884   0x0000000e   Code   RO          668    .text               mc_p.l(isspace_c.o)
    0x08005892   0x08005892   0x00000002   PAD
    0x08005894   0x08005894   0x00000374   Code   RO          670    .text               mc_p.l(scanf_fp.o)
    0x08005c08   0x08005c08   0x00000044   Code   RO          674    .text               mc_p.l(_sgetc.o)
    0x08005c4c   0x08005c4c   0x00000024   Code   RO          676    .text               mc_p.l(ctype_c.o)
    0x08005c70   0x08005c70   0x0000001c   Code   RO          679    .text               mf_p.l(dfltul.o)
    0x08005c8c   0x08005c8c   0x00000028   Code   RO          550    i.__0sprintf        mc_p.l(printfa.o)
    0x08005cb4   0x08005cb4   0x0000002e   Code   RO          648    i.__ARM_clz         mf_p.l(depilogue.o)
    0x08005ce2   0x08005ce2   0x0000000e   Code   RO          683    i.__scatterload_copy  mc_p.l(handlers.o)
    0x08005cf0   0x08005cf0   0x00000002   Code   RO          684    i.__scatterload_null  mc_p.l(handlers.o)
    0x08005cf2   0x08005cf2   0x0000000e   Code   RO          685    i.__scatterload_zeroinit  mc_p.l(handlers.o)
    0x08005d00   0x08005d00   0x00000174   Code   RO          555    i._fp_digits        mc_p.l(printfa.o)
    0x08005e74   0x08005e74   0x0000000e   Code   RO          672    i._is_digit         mc_p.l(scanf_fp.o)
    0x08005e82   0x08005e82   0x00000002   PAD
    0x08005e84   0x08005e84   0x000006ec   Code   RO          556    i._printf_core      mc_p.l(printfa.o)
    0x08006570   0x08006570   0x00000020   Code   RO          557    i._printf_post_padding  mc_p.l(printfa.o)
    0x08006590   0x08006590   0x0000002c   Code   RO          558    i._printf_pre_padding  mc_p.l(printfa.o)
    0x080065bc   0x080065bc   0x0000000a   Code   RO          560    i._sputc            mc_p.l(printfa.o)
    0x080065c6   0x080065c6   0x00000014   Code   RO          295    i.strtof            m_ps.l(strtof.o)
    0x080065da   0x080065da   0x00000040   Data   RO          677    .constdata          mc_p.l(ctype_c.o)
    0x0800661a   0x0800661a   0x0000000c   Data   RO           22    .rodata..L__const.up_or_down.up_down  bldc.o
    0x08006626   0x08006626   0x00000011   Data   RO          149    .rodata._DoInit._aInitStr  segger_rtt.o
    0x08006637   0x08006637   0x00000010   Data   RO          147    .rodata.cst16       segger_rtt.o
    0x08006647   0x08006647   0x00000008   Data   RO           50    .rodata.cst8        bldcsine.o
    0x0800664f   0x0800664f   0x00000008   Data   RO          235    .rodata.cst8        gd32e23x_rcu.o
    0x08006657   0x08006657   0x00000008   Data   RO           23    .rodata.hall_to_pos  bldc.o
    0x0800665f   0x0800665f   0x00000001   PAD
    0x08006660   0x08006660   0x000002d4   Data   RO            8    .rodata.lookUpTableAngle  main.o
    0x08006934   0x08006934   0x000002d0   Data   RO           51    .rodata.sine_table  bldcsine.o
    0x08006c04   0x08006c04   0x00000009   Data   RO          150    .rodata.str1.1      segger_rtt.o
    0x08006c0d   0x08006c0d   0x00000003   PAD
    0x08006c10   0x08006c10   0x00000020   Data   RO          682    Region$$Table       anon$$obj.o


    Execution Region RW_IRAM1 (Exec base: 0x20000000, Load base: 0x08006c30, Size: 0x00000d98, Max: 0x00002000, ABSOLUTE)

    Exec Addr    Load Addr    Size         Type   Attr      Idx    E Section Name        Object

    0x20000000   0x08006c30   0x00000004   Data   RW           10    .data..L_MergedGlobals  main.o
    0x20000004   0x08006c34   0x00000014   Data   RW           24    .data..L_MergedGlobals  bldc.o
    0x20000018   0x08006c48   0x00000058   Data   RW           37    .data..L_MergedGlobals  driver.o
    0x20000070   0x08006ca0   0x00000008   Data   RW          113    .data..L_MergedGlobals  remotedummy.o
    0x20000078   0x08006ca8   0x00000004   Data   RW          287    .data.SystemCoreClock  system_gd32e23x.o
    0x2000007c   0x08006cac   0x00000004   PAD
    0x20000080        -       0x00000030   Zero   RW           52    .bss..L_MergedGlobals  bldcsine.o
    0x200000b0        -       0x0000002c   Zero   RW           71    .bss..L_MergedGlobals  setup.o
    0x200000dc        -       0x00000024   Zero   RW           91    .bss..L_MergedGlobals  it.o
    0x20000100        -       0x00000024   Zero   RW           11    .bss..L_MergedGlobals.1  main.o
    0x20000124        -       0x0000005c   Zero   RW           25    .bss..L_MergedGlobals.1  bldc.o
    0x20000180        -       0x00000034   Zero   RW           38    .bss..L_MergedGlobals.1  driver.o
    0x200001b4        -       0x00000054   Zero   RW          114    .bss..L_MergedGlobals.7  remotedummy.o
    0x20000208        -       0x00000001   Zero   RW          148    .bss._ActiveTerminal  segger_rtt.o
    0x20000209   0x08006cac   0x00000003   PAD
    0x2000020c        -       0x000000a8   Zero   RW          146    .bss._SEGGER_RTT    segger_rtt.o
    0x200002b4        -       0x00000010   Zero   RW          152    .bss._acDownBuffer  segger_rtt.o
    0x200002c4        -       0x00000400   Zero   RW          151    .bss._acUpBuffer    segger_rtt.o
    0x200006c4        -       0x00000054   Zero   RW          112    .bss.aoPIDInitOld   remotedummy.o
    0x20000718        -       0x0000001c   Zero   RW           62    .bss.dma_init_struct_adc  setup.o
    0x20000734        -       0x00000004   Zero   RW           66    .bss.iTestClock     setup.o
    0x20000738        -       0x00000014   Zero   RW           63    .bss.oConfig        setup.o
    0x2000074c   0x08006cac   0x00000004   PAD
    0x20000750        -       0x00000030   Zero   RW           35    .bss.pid            driver.o
    0x20000780        -       0x00000004   Zero   RW           65    .bss.pll_mul        setup.o
    0x20000784        -       0x00000200   Zero   RW          111    .bss.sMessage       remotedummy.o
    0x20000984        -       0x00000010   Zero   RW           61    .bss.timeoutTimer_paramter_struct  setup.o
    0x20000994   0x08006cac   0x00000004   PAD
    0x20000998        -       0x00000400   Zero   RW          276    STACK               startup_gd32e23x.o


==============================================================================

Image component sizes


      Code (inc. data)   RO Data    RW Data    ZI Data      Debug   Object Name

      1204        148         20         20         92       4588   bldc.o
       624         72        728          0         48       5499   bldcsine.o
       588         40          0         88        100       3514   driver.o
      1312        192          0          0          0       7673   gd32e23x_adc.o
       724        104          0          0          0       6089   gd32e23x_dma.o
       288         52          0          0          0       2993   gd32e23x_exti.o
      1176        168          0          0          0       6803   gd32e23x_fmc.o
       320         96          0          0          0       2827   gd32e23x_fwdgt.o
       368         16          0          0          0       4541   gd32e23x_gpio.o
       240         44          0          0          0       3776   gd32e23x_misc.o
      1692        236          8          0          0      12635   gd32e23x_rcu.o
       240         36          0          0          0       2879   gd32e23x_syscfg.o
      3404        108          0          0          0      18607   gd32e23x_timer.o
       296         44          0          0         36       3041   it.o
      1188        116        724          4         36       5311   main.o
      1300        344          0          8        680       3707   remotedummy.o
      2508        144         42          0       1209      16810   segger_rtt.o
      1792        176          0          0        116       9987   setup.o
        28          8        204          0       1024        668   startup_gd32e23x.o
       356         56          0          4          0       2089   system_gd32e23x.o

    ----------------------------------------------------------------------
     19648       2200       1762        124       3356     124037   Object Totals
         0          0         32          0          0          0   (incl. Generated)
         0          0          4          0         15          0   (incl. Padding)

    ----------------------------------------------------------------------

      Code (inc. data)   RO Data    RW Data    ZI Data      Debug   Library Member Name

        20          0          0          0          0         68   strtof.o
        68          0          0          0          0         76   _sgetc.o
        36          4         64          0          0         60   ctype_c.o
         0          0          0          0          0          0   entry.o
         0          0          0          0          0          0   entry10a.o
         0          0          0          0          0          0   entry11a.o
         8          4          0          0          0          0   entry2.o
         4          0          0          0          0          0   entry5.o
         0          0          0          0          0          0   entry7b.o
         0          0          0          0          0          0   entry8b.o
         8          4          0          0          0          0   entry9a.o
        30          0          0          0          0          0   handlers.o
        48         10          0          0          0         68   init.o
        14          0          0          0          0         68   isspace_c.o
         0          0          0          0          0          0   iusefp.o
        48          0          0          0          0         72   llmul.o
        32          0          0          0          0         68   llshl.o
        38          0          0          0          0         68   llsshr.o
        34          0          0          0          0         68   llushr.o
        26          0          0          0          0         72   memcmp.o
        36          0          0          0          0         60   memcpya.o
        36          0          0          0          0        100   memseta.o
      2270         94          0          0          0        472   printfa.o
       898         14          0          0          0        184   scanf_fp.o
        28          0          0          0          0         68   strcmp.o
        14          0          0          0          0         60   strlen.o
       180         18          0          0          0        120   strtod.o
        12          0          0          0          0         68   strtof.o
        62          0          0          0          0         72   uidiv_div0.o
        96          0          0          0          0         84   uldiv.o
        40          2          0          0          0         68   cdrcmple.o
        56          0          0          0          0         68   d2f.o
       356          4          0          0          0        140   dadd.o
       240          6          0          0          0         84   ddiv.o
       236          0          0          0          0        216   depilogue.o
        72         10          0          0          0         72   dfixi.o
        64         10          0          0          0         68   dfixul.o
        40          6          0          0          0         68   dflti.o
        28          4          0          0          0         68   dfltui.o
        28          6          0          0          0         68   dfltul.o
       208          6          0          0          0         88   dmul.o
        40          0          0          0          0         60   f2d.o
       178          0          0          0          0        108   fadd.o
        28          0          0          0          0         60   fcmpgt.o
        28          0          0          0          0         60   fcmplt.o
       124          0          0          0          0         72   fdiv.o
       130          0          0          0          0        144   fepilogue.o
        50          0          0          0          0         60   ffixi.o
        64          0          0          0          0         68   ffixl.o
        22          0          0          0          0         68   fflti.o
        14          0          0          0          0         68   ffltui.o
       122          0          0          0          0         72   fmul.o

    ----------------------------------------------------------------------
      6222        202         64          0          0       3824   Library Totals
         8          0          0          0          0          0   (incl. Padding)

    ----------------------------------------------------------------------

      Code (inc. data)   RO Data    RW Data    ZI Data      Debug   Library Name

        20          0          0          0          0         68   m_ps.l
      4026        148         64          0          0       1908   mc_p.l
      2168         54          0          0          0       1848   mf_p.l

    ----------------------------------------------------------------------
      6222        202         64          0          0       3824   Library Totals

    ----------------------------------------------------------------------

==============================================================================


      Code (inc. data)   RO Data    RW Data    ZI Data      Debug   

     25870       2402       1826        124       3356     125621   Grand Totals
     25870       2402       1826        124       3356     125621   ELF Image Totals
     25870       2402       1826        124          0          0   ROM Totals

==============================================================================

    Total RO  Size (Code + RO Data)                27696 (  27.05kB)
    Total RW  Size (RW Data + ZI Data)              3480 (   3.40kB)
    Total ROM Size (Code + RO Data + RW Data)      27820 (  27.17kB)

==============================================================================

