Component: Arm Compiler for Embedded 6.23 Tool: armlink [5f102400]

==============================================================================

Section Cross References

    main.o(.text) refers to main.o(.bss.iBug) for iBug
    main.o(.text) refers to setup.o(.text) for ConfigRead
    main.o(.text) refers to system_gd32f10x.o(.text) for SystemCoreClockUpdate
    main.o(.text) refers to system_gd32f10x.o(.data.SystemCoreClock) for SystemCoreClock
    main.o(.text) refers to gd32f10x_gpio.o(.text) for gpio_bit_write
    main.o(.text) refers to bldcsine.o(.text) for InitBldc
    main.o(.text) refers to gd32f10x_fwdgt.o(.text) for fwdgt_counter_reload
    main.o(.text) refers to bldc.o(.bss.buzzerFreq) for buzzerFreq
    main.o(.text) refers to it.o(.text) for Delay
    main.o(.text) refers to main.o(.bss.iTimeNextLoop) for iTimeNextLoop
    main.o(.text) refers to main.o(.bss.speed) for speed
    main.o(.text) refers to main.o(.bss.steerCounter) for steerCounter
    main.o(.text) refers to remoteuart.o(.text) for RemoteUpdate
    main.o(.text) refers to main.o(.bss.speedShutoff) for speedShutoff
    main.o(.text) refers to ffltui.o(.text) for __aeabi_ui2f
    main.o(.text) refers to f2d.o(.text) for __aeabi_f2d
    main.o(.text) refers to dmul.o(.text) for __aeabi_dmul
    main.o(.text) refers to ddiv.o(.text) for __aeabi_ddiv
    main.o(.text) refers to dadd.o(.text) for __aeabi_dadd
    main.o(.text) refers to d2f.o(.text) for __aeabi_d2f
    main.o(.text) refers to main.o(.data.speedLimit) for speedLimit
    main.o(.text) refers to main.o(.bss.steer) for steer
    main.o(.text) refers to fflti.o(.text) for __aeabi_i2f
    main.o(.text) refers to fmul.o(.text) for __aeabi_fmul
    main.o(.text) refers to ffixi.o(.text) for __aeabi_f2iz
    main.o(.text) refers to fadd.o(.text) for __aeabi_fsub
    main.o(.text) refers to fdiv.o(.text) for __aeabi_fdiv
    main.o(.text) refers to main.o(.rodata.lookUpTableAngle) for lookUpTableAngle
    main.o(.text) refers to fcmplt.o(.text) for __aeabi_fcmplt
    main.o(.text) refers to main.o(.bss.pwmSlave) for pwmSlave
    main.o(.text) refers to bldc.o(.text) for SetPWM
    main.o(.text) refers to main.o(.bss.enable) for enable
    main.o(.text) refers to it.o(.bss.timedOut) for timedOut
    main.o(.text) refers to main.o(.data.wStateSlave) for wStateSlave
    main.o(.text) refers to commsmasterslave.o(.text) for SendSlave
    main.o(.text) refers to bldc.o(.data.batteryVoltage) for batteryVoltage
    main.o(.text) refers to fcmple.o(.text) for __aeabi_fcmple
    main.o(.text) refers to main.o(.data.wState) for wState
    main.o(.text) refers to main.o(.data.beepsBackwards) for beepsBackwards
    main.o(.text) refers to dcmple.o(.text) for __aeabi_dcmple
    main.o(.text) refers to bldc.o(.bss.buzzerPattern) for buzzerPattern
    main.o(.text) refers to main.o(.bss.inactivity_timeout_counter) for inactivity_timeout_counter
    main.o(.text) refers to gd32f10x_usart.o(.text) for usart_deinit
    main.o(.ARM.exidx) refers to main.o(.text) for [Anonymous Symbol]
    bldc.o(.text) refers to bldc.o(.rodata..L__const.up_or_down.up_down) for .L__const.up_or_down.up_down
    bldc.o(.text) refers to bldc.o(.bss.bldc_enable) for bldc_enable
    bldc.o(.text) refers to dflti.o(.text) for __aeabi_i2d
    bldc.o(.text) refers to ddiv.o(.text) for __aeabi_ddiv
    bldc.o(.text) refers to dmul.o(.text) for __aeabi_dmul
    bldc.o(.text) refers to dfixi.o(.text) for __aeabi_d2iz
    bldc.o(.text) refers to bldc.o(.bss.bldc_inputFilterPwm) for bldc_inputFilterPwm
    bldc.o(.text) refers to bldc.o(.data.iFILTER_SHIFT) for iFILTER_SHIFT
    bldc.o(.text) refers to bldc.o(.bss.bldc_outputFilterPwm) for bldc_outputFilterPwm
    bldc.o(.text) refers to bldc.o(.bss.filter_reg) for filter_reg
    bldc.o(.text) refers to bldc.o(.bss.offsetcount) for offsetcount
    bldc.o(.text) refers to bldc.o(.bss.adc_buffer) for adc_buffer
    bldc.o(.text) refers to bldc.o(.data.offsetdc) for offsetdc
    bldc.o(.text) refers to bldc.o(.bss.buzzerTimer) for buzzerTimer
    bldc.o(.text) refers to bldc.o(.data.batteryVoltage) for batteryVoltage
    bldc.o(.text) refers to f2d.o(.text) for __aeabi_f2d
    bldc.o(.text) refers to dfltui.o(.text) for __aeabi_ui2d
    bldc.o(.text) refers to dadd.o(.text) for __aeabi_dadd
    bldc.o(.text) refers to d2f.o(.text) for __aeabi_d2f
    bldc.o(.text) refers to main.o(.bss.iBug) for iBug
    bldc.o(.text) refers to bldc.o(.bss.buzzerFreq) for buzzerFreq
    bldc.o(.text) refers to bldc.o(.bss.buzzerPattern) for buzzerPattern
    bldc.o(.text) refers to gd32f10x_gpio.o(.text) for gpio_bit_write
    bldc.o(.text) refers to bldc.o(.data.currentDC) for currentDC
    bldc.o(.text) refers to fcmpgt.o(.text) for __aeabi_fcmpgt
    bldc.o(.text) refers to it.o(.bss.timedOut) for timedOut
    bldc.o(.text) refers to gd32f10x_timer.o(.text) for timer_automatic_output_enable
    bldc.o(.text) refers to bldc.o(.bss.hall_a) for hall_a
    bldc.o(.text) refers to bldc.o(.bss.hall_b) for hall_b
    bldc.o(.text) refers to bldc.o(.bss.hall_c) for hall_c
    bldc.o(.text) refers to bldc.o(.bss.hall) for hall
    bldc.o(.text) refers to bldc.o(.rodata.hall_to_pos) for hall_to_pos
    bldc.o(.text) refers to bldc.o(.bss.pos) for pos
    bldc.o(.text) refers to bldcsine.o(.text) for bldc_get_pwm
    bldc.o(.text) refers to bldc.o(.bss.lastPos) for lastPos
    bldc.o(.text) refers to bldc.o(.bss.iOdom) for iOdom
    bldc.o(.text) refers to bldc.o(.bss.speedCounter) for speedCounter
    bldc.o(.text) refers to ffltui.o(.text) for __aeabi_ui2f
    bldc.o(.text) refers to fdiv.o(.text) for __aeabi_fdiv
    bldc.o(.text) refers to bldc.o(.bss.realSpeed) for realSpeed
    bldc.o(.text) refers to bldc.o(.bss.buzzerToggle) for buzzerToggle
    bldc.o(.ARM.exidx) refers to bldc.o(.text) for [Anonymous Symbol]
    bldcsine.o(.text) refers to gd32f10x_rcu.o(.text) for rcu_periph_clock_enable
    bldcsine.o(.text) refers to gd32f10x_gpio.o(.text) for gpio_init
    bldcsine.o(.text) refers to gd32f10x_exti.o(.text) for exti_init
    bldcsine.o(.text) refers to gd32f10x_misc.o(.text) for nvic_irq_enable
    bldcsine.o(.text) refers to bldcsine.o(.bss.bInterrupt) for bInterrupt
    bldcsine.o(.text) refers to bldc.o(.bss.buzzerTimer) for buzzerTimer
    bldcsine.o(.text) refers to bldcsine.o(.bss.hall_time_last) for hall_time_last
    bldcsine.o(.text) refers to bldcsine.o(.bss.hall_time_step) for hall_time_step
    bldcsine.o(.text) refers to bldc.o(.bss.hall) for hall
    bldcsine.o(.text) refers to bldcsine.o(.bss.hall_last) for hall_last
    bldcsine.o(.text) refers to bldcsine.o(.bss.iExti0) for iExti0
    bldcsine.o(.text) refers to bldcsine.o(.bss.iExti1) for iExti1
    bldcsine.o(.text) refers to bldcsine.o(.bss.iExti2) for iExti2
    bldcsine.o(.text) refers to bldcsine.o(.bss.pwmGo) for pwmGo
    bldcsine.o(.text) refers to bldcsine.o(.rodata.cst8) for hall_to_sector
    bldcsine.o(.text) refers to bldcsine.o(.bss.sector) for sector
    bldcsine.o(.text) refers to bldcsine.o(.bss.sector10x) for sector10x
    bldcsine.o(.text) refers to fflti.o(.text) for __aeabi_i2f
    bldcsine.o(.text) refers to fmul.o(.text) for __aeabi_fmul
    bldcsine.o(.text) refers to bldcsine.o(.bss.angle_deg) for angle_deg
    bldcsine.o(.text) refers to bldcsine.o(.bss.hall_time_step_LPR) for hall_time_step_LPR
    bldcsine.o(.text) refers to bldcsine.o(.bss.angle_deg_add) for angle_deg_add
    bldcsine.o(.text) refers to bldcsine.o(.bss.sectorChange) for sectorChange
    bldcsine.o(.text) refers to bldcsine.o(.bss.hall_time_step_LP) for hall_time_step_LP
    bldcsine.o(.text) refers to bldcsine.o(.bss.iDT) for iDT
    bldcsine.o(.text) refers to dfltui.o(.text) for __aeabi_ui2d
    bldcsine.o(.text) refers to ddiv.o(.text) for __aeabi_ddiv
    bldcsine.o(.text) refers to d2f.o(.text) for __aeabi_d2f
    bldcsine.o(.text) refers to bldcsine.o(.bss.fGradient) for fGradient
    bldcsine.o(.text) refers to bldcsine.o(.bss.fGradientX) for fGradientX
    bldcsine.o(.text) refers to ffltui.o(.text) for __aeabi_ui2f
    bldcsine.o(.text) refers to bldcsine.o(.bss.fDT) for fDT
    bldcsine.o(.text) refers to fcmpge.o(.text) for __aeabi_fcmpge
    bldcsine.o(.text) refers to fadd.o(.text) for __aeabi_fadd
    bldcsine.o(.text) refers to bldcsine.o(.bss.angle_deg_final) for angle_deg_final
    bldcsine.o(.text) refers to ffixi.o(.text) for __aeabi_f2iz
    bldcsine.o(.text) refers to bldcsine.o(.rodata.sine_table) for sine_table
    bldcsine.o(.text) refers to bldcsine.o(.bss.angle_idx) for angle_idx
    bldcsine.o(.ARM.exidx) refers to bldcsine.o(.text) for [Anonymous Symbol]
    setup.o(.text) refers to gd32f10x_misc.o(.text) for nvic_priority_group_set
    setup.o(.text) refers to gd32f10x_rcu.o(.text) for rcu_flag_get
    setup.o(.text) refers to gd32f10x_fwdgt.o(.text) for fwdgt_config
    setup.o(.text) refers to gd32f10x_timer.o(.text) for timer_deinit
    setup.o(.text) refers to setup.o(.bss.timeoutTimer_paramter_struct) for timeoutTimer_paramter_struct
    setup.o(.text) refers to gd32f10x_gpio.o(.text) for gpio_init
    setup.o(.text) refers to setup.o(.bss.timerBldc_paramter_struct) for timerBldc_paramter_struct
    setup.o(.text) refers to setup.o(.bss.timerBldc_oc_parameter_struct) for timerBldc_oc_parameter_struct
    setup.o(.text) refers to setup.o(.bss.timerBldc_break_parameter_struct) for timerBldc_break_parameter_struct
    setup.o(.text) refers to gd32f10x_dma.o(.text) for dma_deinit
    setup.o(.text) refers to setup.o(.bss.dma_init_struct_adc) for dma_init_struct_adc
    setup.o(.text) refers to bldc.o(.bss.adc_buffer) for adc_buffer
    setup.o(.text) refers to gd32f10x_adc.o(.text) for adc_channel_length_config
    setup.o(.text) refers to gd32f10x_usart.o(.text) for usart_deinit
    setup.o(.text) refers to setup.o(.bss.dma_init_struct_usart) for dma_init_struct_usart
    setup.o(.text) refers to setup.o(.bss.usart0_rx_buf) for usart0_rx_buf
    setup.o(.text) refers to setup.o(.bss.usart2_rx_buf) for usart2_rx_buf
    setup.o(.text) refers to gd32f10x_fmc.o(.text) for fmc_unlock
    setup.o(.text) refers to setup.o(.bss.oConfig) for oConfig
    setup.o(.ARM.exidx) refers to setup.o(.text) for [Anonymous Symbol]
    it.o(.text) refers to it.o(.bss.msTicks) for msTicks
    it.o(.text) refers to it.o(.bss.timeoutCounter_ms) for timeoutCounter_ms
    it.o(.text) refers to it.o(.bss.timedOut) for timedOut
    it.o(.text) refers to main.o(.bss.steer) for steer
    it.o(.text) refers to main.o(.bss.speed) for speed
    it.o(.text) refers to main.o(.data.beepsBackwards) for beepsBackwards
    it.o(.text) refers to gd32f10x_timer.o(.text) for timer_interrupt_flag_clear
    it.o(.text) refers to it.o(.bss.iPwmCounter) for iPwmCounter
    it.o(.text) refers to it.o(.bss.iPwmTicks0) for iPwmTicks0
    it.o(.text) refers to it.o(.bss.iPwmTicks) for iPwmTicks
    it.o(.text) refers to gd32f10x_adc.o(.text) for adc_software_trigger_enable
    it.o(.text) refers to it.o(.bss.iAdcCounter) for iAdcCounter
    it.o(.text) refers to it.o(.bss.iAdcTicks0) for iAdcTicks0
    it.o(.text) refers to it.o(.bss.iAdcTicks) for iAdcTicks
    it.o(.text) refers to bldc.o(.text) for CalculateBLDC
    it.o(.text) refers to gd32f10x_dma.o(.text) for dma_interrupt_flag_get
    it.o(.text) refers to it.o(.bss.iCounterUsart0) for iCounterUsart0
    it.o(.text) refers to it.o(.bss.iCounter2Usart0) for iCounter2Usart0
    it.o(.text) refers to remoteuart.o(.text) for RemoteCallback
    it.o(.text) refers to it.o(.bss.iCounterUsart2) for iCounterUsart2
    it.o(.text) refers to it.o(.bss.iCounter2Usart2) for iCounter2Usart2
    it.o(.text) refers to commsmasterslave.o(.text) for UpdateUSARTMasterSlaveInput
    it.o(.ARM.exidx) refers to it.o(.text) for [Anonymous Symbol]
    comms.o(.text) refers to gd32f10x_usart.o(.text) for usart_data_transmit
    comms.o(.ARM.exidx) refers to comms.o(.text) for [Anonymous Symbol]
    remoteuart.o(.text) refers to it.o(.text) for millis
    remoteuart.o(.text) refers to remoteuart.o(.bss.iTimeLastRx) for iTimeLastRx
    remoteuart.o(.text) refers to main.o(.bss.steer) for steer
    remoteuart.o(.text) refers to main.o(.bss.speed) for speed
    remoteuart.o(.text) refers to remoteuart.o(.bss.iTimeNextTx) for iTimeNextTx
    remoteuart.o(.text) refers to bldc.o(.data.batteryVoltage) for batteryVoltage
    remoteuart.o(.text) refers to fmul.o(.text) for __aeabi_fmul
    remoteuart.o(.text) refers to ffixi.o(.text) for __aeabi_f2iz
    remoteuart.o(.text) refers to bldc.o(.data.currentDC) for currentDC
    remoteuart.o(.text) refers to bldc.o(.bss.realSpeed) for realSpeed
    remoteuart.o(.text) refers to bldc.o(.bss.iOdom) for iOdom
    remoteuart.o(.text) refers to main.o(.bss.oDataSlave) for oDataSlave
    remoteuart.o(.text) refers to comms.o(.text) for CalcCRC
    remoteuart.o(.text) refers to remoteuart.o(.data.iReceivePos) for iReceivePos
    remoteuart.o(.text) refers to setup.o(.bss.usart0_rx_buf) for usart0_rx_buf
    remoteuart.o(.text) refers to remoteuart.o(.bss.aReceiveBuffer) for aReceiveBuffer
    remoteuart.o(.text) refers to main.o(.data.wState) for wState
    remoteuart.o(.text) refers to main.o(.data.wStateSlave) for wStateSlave
    remoteuart.o(.ARM.exidx) refers to remoteuart.o(.text) for [Anonymous Symbol]
    commsmasterslave.o(.text) refers to setup.o(.bss.usart2_rx_buf) for usart2_rx_buf
    commsmasterslave.o(.text) refers to commsmasterslave.o(.data.iReceivePos) for iReceivePos
    commsmasterslave.o(.text) refers to commsmasterslave.o(.bss.aReceiveBuffer) for aReceiveBuffer
    commsmasterslave.o(.text) refers to comms.o(.text) for CalcCRC
    commsmasterslave.o(.text) refers to main.o(.bss.oDataSlave) for oDataSlave
    commsmasterslave.o(.text) refers to main.o(.data.wStateSlave) for wStateSlave
    commsmasterslave.o(.ARM.exidx) refers to commsmasterslave.o(.text) for [Anonymous Symbol]
    gd32f10x_adc.o(.text) refers to gd32f10x_rcu.o(.text) for rcu_periph_reset_enable
    gd32f10x_adc.o(.ARM.exidx) refers to gd32f10x_adc.o(.text) for [Anonymous Symbol]
    gd32f10x_dma.o(.ARM.exidx) refers to gd32f10x_dma.o(.text) for [Anonymous Symbol]
    gd32f10x_exti.o(.ARM.exidx) refers to gd32f10x_exti.o(.text) for [Anonymous Symbol]
    gd32f10x_fmc.o(.ARM.exidx) refers to gd32f10x_fmc.o(.text) for [Anonymous Symbol]
    gd32f10x_fwdgt.o(.ARM.exidx) refers to gd32f10x_fwdgt.o(.text) for [Anonymous Symbol]
    gd32f10x_gpio.o(.text) refers to gd32f10x_rcu.o(.text) for rcu_periph_reset_enable
    gd32f10x_gpio.o(.ARM.exidx) refers to gd32f10x_gpio.o(.text) for [Anonymous Symbol]
    gd32f10x_i2c.o(.text) refers to gd32f10x_rcu.o(.text) for rcu_periph_reset_enable
    gd32f10x_i2c.o(.ARM.exidx) refers to gd32f10x_i2c.o(.text) for [Anonymous Symbol]
    gd32f10x_misc.o(.ARM.exidx) refers to gd32f10x_misc.o(.text) for [Anonymous Symbol]
    gd32f10x_pmu.o(.text) refers to gd32f10x_rcu.o(.text) for rcu_periph_reset_enable
    gd32f10x_pmu.o(.ARM.exidx) refers to gd32f10x_pmu.o(.text) for [Anonymous Symbol]
    gd32f10x_rcu.o(.text) refers to gd32f10x_rcu.o(.rodata.cst8) for .L__const.rcu_clock_freq_get.apb2_exp
    gd32f10x_rcu.o(.ARM.exidx) refers to gd32f10x_rcu.o(.text) for [Anonymous Symbol]
    gd32f10x_timer.o(.text) refers to gd32f10x_rcu.o(.text) for rcu_periph_reset_enable
    gd32f10x_timer.o(.ARM.exidx) refers to gd32f10x_timer.o(.text) for [Anonymous Symbol]
    gd32f10x_usart.o(.text) refers to gd32f10x_rcu.o(.text) for rcu_periph_reset_enable
    gd32f10x_usart.o(.ARM.exidx) refers to gd32f10x_usart.o(.text) for [Anonymous Symbol]
    gd32f10x_wwdgt.o(.text) refers to gd32f10x_rcu.o(.text) for rcu_periph_reset_enable
    gd32f10x_wwdgt.o(.ARM.exidx) refers to gd32f10x_wwdgt.o(.text) for [Anonymous Symbol]
    startup_gd32f10x_hd.o(RESET) refers to startup_gd32f10x_hd.o(STACK) for __initial_sp
    startup_gd32f10x_hd.o(RESET) refers to startup_gd32f10x_hd.o(.text) for Reset_Handler
    startup_gd32f10x_hd.o(RESET) refers to it.o(.text) for NMI_Handler
    startup_gd32f10x_hd.o(RESET) refers to bldcsine.o(.text) for EXTI0_IRQHandler
    startup_gd32f10x_hd.o(.text) refers to system_gd32f10x.o(.text) for SystemInit
    startup_gd32f10x_hd.o(.text) refers to entry.o(.ARM.Collect$$$$00000000) for __main
    system_gd32f10x.o(.text) refers to system_gd32f10x.o(.data.SystemCoreClock) for SystemCoreClock
    system_gd32f10x.o(.ARM.exidx) refers to system_gd32f10x.o(.text) for [Anonymous Symbol]
    entry.o(.ARM.Collect$$$$00000000) refers (Special) to entry10a.o(.ARM.Collect$$$$0000000D) for __rt_final_cpp
    entry.o(.ARM.Collect$$$$00000000) refers (Special) to entry11a.o(.ARM.Collect$$$$0000000F) for __rt_final_exit
    entry.o(.ARM.Collect$$$$00000000) refers (Special) to entry7b.o(.ARM.Collect$$$$00000008) for _main_clock
    entry.o(.ARM.Collect$$$$00000000) refers (Special) to entry8b.o(.ARM.Collect$$$$0000000A) for _main_cpp_init
    entry.o(.ARM.Collect$$$$00000000) refers (Special) to entry9a.o(.ARM.Collect$$$$0000000B) for _main_init
    entry.o(.ARM.Collect$$$$00000000) refers (Special) to entry5.o(.ARM.Collect$$$$00000004) for _main_scatterload
    entry.o(.ARM.Collect$$$$00000000) refers (Special) to entry2.o(.ARM.Collect$$$$00000001) for _main_stk
    fadd.o(.text) refers (Special) to iusefp.o(.text) for __I$use$fp
    fadd.o(.text) refers to fepilogue.o(.text) for _float_epilogue
    fmul.o(.text) refers (Special) to iusefp.o(.text) for __I$use$fp
    fdiv.o(.text) refers (Special) to iusefp.o(.text) for __I$use$fp
    fdiv.o(.text) refers to fepilogue.o(.text) for _float_round
    dadd.o(.text) refers (Special) to iusefp.o(.text) for __I$use$fp
    dadd.o(.text) refers to llshl.o(.text) for __aeabi_llsl
    dadd.o(.text) refers to llsshr.o(.text) for __aeabi_lasr
    dadd.o(.text) refers to depilogue.o(.text) for _double_epilogue
    dmul.o(.text) refers (Special) to iusefp.o(.text) for __I$use$fp
    dmul.o(.text) refers to depilogue.o(.text) for _double_epilogue
    ddiv.o(.text) refers (Special) to iusefp.o(.text) for __I$use$fp
    ddiv.o(.text) refers to depilogue.o(.text) for _double_round
    fcmple.o(.text) refers (Special) to iusefp.o(.text) for __I$use$fp
    fcmplt.o(.text) refers (Special) to iusefp.o(.text) for __I$use$fp
    fcmpge.o(.text) refers (Special) to iusefp.o(.text) for __I$use$fp
    fcmpgt.o(.text) refers (Special) to iusefp.o(.text) for __I$use$fp
    dcmple.o(.text) refers (Special) to iusefp.o(.text) for __I$use$fp
    fflti.o(.text) refers (Special) to iusefp.o(.text) for __I$use$fp
    fflti.o(.text) refers to fepilogue.o(.text) for _float_epilogue
    ffltui.o(.text) refers (Special) to iusefp.o(.text) for __I$use$fp
    ffltui.o(.text) refers to fepilogue.o(.text) for _float_epilogue
    dflti.o(.text) refers (Special) to iusefp.o(.text) for __I$use$fp
    dflti.o(.text) refers to depilogue.o(.text) for _double_epilogue
    dfltui.o(.text) refers (Special) to iusefp.o(.text) for __I$use$fp
    dfltui.o(.text) refers to depilogue.o(.text) for _double_epilogue
    ffixi.o(.text) refers (Special) to iusefp.o(.text) for __I$use$fp
    dfixi.o(.text) refers (Special) to iusefp.o(.text) for __I$use$fp
    dfixi.o(.text) refers to llushr.o(.text) for __aeabi_llsr
    f2d.o(.text) refers (Special) to iusefp.o(.text) for __I$use$fp
    d2f.o(.text) refers (Special) to iusefp.o(.text) for __I$use$fp
    d2f.o(.text) refers to fepilogue.o(.text) for _float_round
    entry2.o(.ARM.Collect$$$$00000001) refers to entry2.o(.ARM.Collect$$$$00002712) for __lit__00000000
    entry2.o(.ARM.Collect$$$$00002712) refers to startup_gd32f10x_hd.o(STACK) for __initial_sp
    entry2.o(__vectab_stack_and_reset_area) refers to startup_gd32f10x_hd.o(STACK) for __initial_sp
    entry2.o(__vectab_stack_and_reset_area) refers to entry.o(.ARM.Collect$$$$00000000) for __main
    entry5.o(.ARM.Collect$$$$00000004) refers to init.o(.text) for __scatterload
    entry9a.o(.ARM.Collect$$$$0000000B) refers to main.o(.text) for main
    entry9b.o(.ARM.Collect$$$$0000000C) refers to main.o(.text) for main
    fepilogue.o(.text) refers (Special) to iusefp.o(.text) for __I$use$fp
    depilogue.o(.text) refers (Special) to iusefp.o(.text) for __I$use$fp
    depilogue.o(.text) refers to llshl.o(.text) for __aeabi_llsl
    depilogue.o(.text) refers to llushr.o(.text) for __aeabi_llsr
    init.o(.text) refers to entry5.o(.ARM.Collect$$$$00000004) for __main_after_scatterload


==============================================================================

Removing Unused input sections from the image.

    Removing main.o(.ARM.exidx), (24 bytes).
    Removing main.o(.bss.activateWeakening), (1 bytes).
    Removing main.o(.bss.slaveError), (1 bytes).
    Removing main.o(.ARM.use_no_argv), (4 bytes).
    Removing bldc.o(.ARM.exidx), (48 bytes).
    Removing bldcbc.o(.text), (0 bytes).
    Removing bldcsine.o(.ARM.exidx), (72 bytes).
    Removing bldcsine.o(.bss.iExti), (4 bytes).
    Removing setup.o(.ARM.exidx), (144 bytes).
    Removing setup.o(.bss.usart1_rx_buf), (1 bytes).
    Removing it.o(.ARM.exidx), (136 bytes).
    Removing led.o(.text), (0 bytes).
    Removing comms.o(.ARM.exidx), (16 bytes).
    Removing remoteuart.o(.ARM.exidx), (16 bytes).
    Removing remoteuart.o(.bss.aiDebug), (14 bytes).
    Removing remotecrsf.o(.text), (0 bytes).
    Removing remotedummy.o(.text), (0 bytes).
    Removing remoteuartbus.o(.text), (0 bytes).
    Removing commsmasterslave.o(.ARM.exidx), (24 bytes).
    Removing commsmasterslave.o(.bss.mosfetOutMaster), (1 bytes).
    Removing commsmasterslave.o(.bss.beepsBackwardsMaster), (1 bytes).
    Removing remoteadc.o(.text), (0 bytes).
    Removing remoteautodetect.o(.text), (0 bytes).
    Removing remoteautodetect.o(.bss.i), (2 bytes).
    Removing gd32f10x_adc.o(.ARM.exidx), (272 bytes).
    Removing gd32f10x_dma.o(.ARM.exidx), (216 bytes).
    Removing gd32f10x_exti.o(.ARM.exidx), (96 bytes).
    Removing gd32f10x_fmc.o(.ARM.exidx), (272 bytes).
    Removing gd32f10x_fwdgt.o(.ARM.exidx), (48 bytes).
    Removing gd32f10x_gpio.o(.ARM.exidx), (136 bytes).
    Removing gd32f10x_i2c.o(.text), (794 bytes).
    Removing gd32f10x_i2c.o(.ARM.exidx), (240 bytes).
    Removing gd32f10x_misc.o(.ARM.exidx), (56 bytes).
    Removing gd32f10x_pmu.o(.text), (362 bytes).
    Removing gd32f10x_pmu.o(.ARM.exidx), (96 bytes).
    Removing gd32f10x_rcu.o(.ARM.exidx), (288 bytes).
    Removing gd32f10x_timer.o(.ARM.exidx), (552 bytes).
    Removing gd32f10x_usart.o(.ARM.exidx), (344 bytes).
    Removing gd32f10x_wwdgt.o(.text), (170 bytes).
    Removing gd32f10x_wwdgt.o(.ARM.exidx), (56 bytes).
    Removing startup_gd32f10x_hd.o(HEAP), (8192 bytes).
    Removing system_gd32f10x.o(.ARM.exidx), (16 bytes).

42 unused section(s) (total 12715 bytes) removed from the image.

==============================================================================

Image Symbol Table

    Local Symbols

    Symbol Name                              Value     Ov Type        Size  Object(Section)

    ../clib/microlib/init/entry.s            0x00000000   Number         0  entry.o ABSOLUTE
    ../clib/microlib/init/entry.s            0x00000000   Number         0  entry2.o ABSOLUTE
    ../clib/microlib/init/entry.s            0x00000000   Number         0  entry5.o ABSOLUTE
    ../clib/microlib/init/entry.s            0x00000000   Number         0  entry7a.o ABSOLUTE
    ../clib/microlib/init/entry.s            0x00000000   Number         0  entry7b.o ABSOLUTE
    ../clib/microlib/init/entry.s            0x00000000   Number         0  entry8a.o ABSOLUTE
    ../clib/microlib/init/entry.s            0x00000000   Number         0  entry8b.o ABSOLUTE
    ../clib/microlib/init/entry.s            0x00000000   Number         0  entry9a.o ABSOLUTE
    ../clib/microlib/init/entry.s            0x00000000   Number         0  entry9b.o ABSOLUTE
    ../clib/microlib/init/entry.s            0x00000000   Number         0  entry10a.o ABSOLUTE
    ../clib/microlib/init/entry.s            0x00000000   Number         0  entry10b.o ABSOLUTE
    ../clib/microlib/init/entry.s            0x00000000   Number         0  entry11a.o ABSOLUTE
    ../clib/microlib/init/entry.s            0x00000000   Number         0  entry11b.o ABSOLUTE
    ../clib/microlib/longlong.c              0x00000000   Number         0  llshl.o ABSOLUTE
    ../clib/microlib/longlong.c              0x00000000   Number         0  llushr.o ABSOLUTE
    ../clib/microlib/longlong.c              0x00000000   Number         0  llsshr.o ABSOLUTE
    ../clib/microlib/stubs.s                 0x00000000   Number         0  iusefp.o ABSOLUTE
    ../fplib/microlib/d2f.c                  0x00000000   Number         0  d2f.o ABSOLUTE
    ../fplib/microlib/f2d.c                  0x00000000   Number         0  f2d.o ABSOLUTE
    ../fplib/microlib/fpadd.c                0x00000000   Number         0  fadd.o ABSOLUTE
    ../fplib/microlib/fpadd.c                0x00000000   Number         0  dadd.o ABSOLUTE
    ../fplib/microlib/fpcmp.c                0x00000000   Number         0  fcmple.o ABSOLUTE
    ../fplib/microlib/fpcmp.c                0x00000000   Number         0  fcmplt.o ABSOLUTE
    ../fplib/microlib/fpcmp.c                0x00000000   Number         0  fcmpge.o ABSOLUTE
    ../fplib/microlib/fpcmp.c                0x00000000   Number         0  fcmpgt.o ABSOLUTE
    ../fplib/microlib/fpcmp.c                0x00000000   Number         0  dcmple.o ABSOLUTE
    ../fplib/microlib/fpdiv.c                0x00000000   Number         0  fdiv.o ABSOLUTE
    ../fplib/microlib/fpdiv.c                0x00000000   Number         0  ddiv.o ABSOLUTE
    ../fplib/microlib/fpepilogue.c           0x00000000   Number         0  fepilogue.o ABSOLUTE
    ../fplib/microlib/fpepilogue.c           0x00000000   Number         0  depilogue.o ABSOLUTE
    ../fplib/microlib/fpfix.c                0x00000000   Number         0  ffixi.o ABSOLUTE
    ../fplib/microlib/fpfix.c                0x00000000   Number         0  dfixi.o ABSOLUTE
    ../fplib/microlib/fpflt.c                0x00000000   Number         0  fflti.o ABSOLUTE
    ../fplib/microlib/fpflt.c                0x00000000   Number         0  ffltui.o ABSOLUTE
    ../fplib/microlib/fpflt.c                0x00000000   Number         0  dflti.o ABSOLUTE
    ../fplib/microlib/fpflt.c                0x00000000   Number         0  dfltui.o ABSOLUTE
    ../fplib/microlib/fpmul.c                0x00000000   Number         0  fmul.o ABSOLUTE
    ../fplib/microlib/fpmul.c                0x00000000   Number         0  dmul.o ABSOLUTE
    RTE/Device/GD32F103C8/startup_gd32f10x_hd.s 0x00000000   Number         0  startup_gd32f10x_hd.o ABSOLUTE
    RemoteAdc.c                              0x00000000   Number         0  remoteadc.o ABSOLUTE
    RemoteAutodetect.c                       0x00000000   Number         0  remoteautodetect.o ABSOLUTE
    bldc.c                                   0x00000000   Number         0  bldc.o ABSOLUTE
    bldcBC.c                                 0x00000000   Number         0  bldcbc.o ABSOLUTE
    bldcSINE.c                               0x00000000   Number         0  bldcsine.o ABSOLUTE
    comms.c                                  0x00000000   Number         0  comms.o ABSOLUTE
    commsMasterSlave.c                       0x00000000   Number         0  commsmasterslave.o ABSOLUTE
    dc.s                                     0x00000000   Number         0  dc.o ABSOLUTE
    gd32f10x_adc.c                           0x00000000   Number         0  gd32f10x_adc.o ABSOLUTE
    gd32f10x_dma.c                           0x00000000   Number         0  gd32f10x_dma.o ABSOLUTE
    gd32f10x_exti.c                          0x00000000   Number         0  gd32f10x_exti.o ABSOLUTE
    gd32f10x_fmc.c                           0x00000000   Number         0  gd32f10x_fmc.o ABSOLUTE
    gd32f10x_fwdgt.c                         0x00000000   Number         0  gd32f10x_fwdgt.o ABSOLUTE
    gd32f10x_gpio.c                          0x00000000   Number         0  gd32f10x_gpio.o ABSOLUTE
    gd32f10x_i2c.c                           0x00000000   Number         0  gd32f10x_i2c.o ABSOLUTE
    gd32f10x_misc.c                          0x00000000   Number         0  gd32f10x_misc.o ABSOLUTE
    gd32f10x_pmu.c                           0x00000000   Number         0  gd32f10x_pmu.o ABSOLUTE
    gd32f10x_rcu.c                           0x00000000   Number         0  gd32f10x_rcu.o ABSOLUTE
    gd32f10x_timer.c                         0x00000000   Number         0  gd32f10x_timer.o ABSOLUTE
    gd32f10x_usart.c                         0x00000000   Number         0  gd32f10x_usart.o ABSOLUTE
    gd32f10x_wwdgt.c                         0x00000000   Number         0  gd32f10x_wwdgt.o ABSOLUTE
    handlers.s                               0x00000000   Number         0  handlers.o ABSOLUTE
    init.s                                   0x00000000   Number         0  init.o ABSOLUTE
    it.c                                     0x00000000   Number         0  it.o ABSOLUTE
    led.c                                    0x00000000   Number         0  led.o ABSOLUTE
    main.c                                   0x00000000   Number         0  main.o ABSOLUTE
    remoteCrsf.c                             0x00000000   Number         0  remotecrsf.o ABSOLUTE
    remoteDummy.c                            0x00000000   Number         0  remotedummy.o ABSOLUTE
    remoteUart.c                             0x00000000   Number         0  remoteuart.o ABSOLUTE
    remoteUartBus.c                          0x00000000   Number         0  remoteuartbus.o ABSOLUTE
    setup.c                                  0x00000000   Number         0  setup.o ABSOLUTE
    system_gd32f10x.c                        0x00000000   Number         0  system_gd32f10x.o ABSOLUTE
    RESET                                    0x08000000   Section      304  startup_gd32f10x_hd.o(RESET)
    .ARM.Collect$$$$00000000                 0x08000130   Section        0  entry.o(.ARM.Collect$$$$00000000)
    .ARM.Collect$$$$00000001                 0x08000130   Section        4  entry2.o(.ARM.Collect$$$$00000001)
    .ARM.Collect$$$$00000004                 0x08000134   Section        4  entry5.o(.ARM.Collect$$$$00000004)
    .ARM.Collect$$$$00000008                 0x08000138   Section        0  entry7b.o(.ARM.Collect$$$$00000008)
    .ARM.Collect$$$$0000000A                 0x08000138   Section        0  entry8b.o(.ARM.Collect$$$$0000000A)
    .ARM.Collect$$$$0000000B                 0x08000138   Section        8  entry9a.o(.ARM.Collect$$$$0000000B)
    __lit__00000000                          0x08000140   Data           4  entry2.o(.ARM.Collect$$$$00002712)
    .ARM.Collect$$$$0000000D                 0x08000140   Section        0  entry10a.o(.ARM.Collect$$$$0000000D)
    .ARM.Collect$$$$0000000F                 0x08000140   Section        0  entry11a.o(.ARM.Collect$$$$0000000F)
    .ARM.Collect$$$$00002712                 0x08000140   Section        4  entry2.o(.ARM.Collect$$$$00002712)
    [Anonymous Symbol]                       0x08000144   Section        0  main.o(.text)
    [Anonymous Symbol]                       0x080008f4   Section        0  bldc.o(.text)
    [Anonymous Symbol]                       0x08000e08   Section        0  bldcsine.o(.text)
    [Anonymous Symbol]                       0x08001430   Section        0  setup.o(.text)
    [Anonymous Symbol]                       0x08001c4c   Section        0  it.o(.text)
    [Anonymous Symbol]                       0x08001e64   Section        0  comms.o(.text)
    [Anonymous Symbol]                       0x08001ee0   Section        0  remoteuart.o(.text)
    [Anonymous Symbol]                       0x0800208c   Section        0  commsmasterslave.o(.text)
    [Anonymous Symbol]                       0x08002178   Section        0  gd32f10x_adc.o(.text)
    [Anonymous Symbol]                       0x08002608   Section        0  gd32f10x_dma.o(.text)
    [Anonymous Symbol]                       0x08002a0c   Section        0  gd32f10x_exti.o(.text)
    [Anonymous Symbol]                       0x08002b78   Section        0  gd32f10x_fmc.o(.text)
    [Anonymous Symbol]                       0x08003bac   Section        0  gd32f10x_fwdgt.o(.text)
    [Anonymous Symbol]                       0x08003c64   Section        0  gd32f10x_gpio.o(.text)
    [Anonymous Symbol]                       0x08003ee0   Section        0  gd32f10x_misc.o(.text)
    [Anonymous Symbol]                       0x08003fc8   Section        0  gd32f10x_rcu.o(.text)
    [Anonymous Symbol]                       0x080045a0   Section        0  gd32f10x_timer.o(.text)
    [Anonymous Symbol]                       0x080052f8   Section        0  gd32f10x_usart.o(.text)
    .text                                    0x08005660   Section       36  startup_gd32f10x_hd.o(.text)
    [Anonymous Symbol]                       0x08005684   Section        0  system_gd32f10x.o(.text)
    .text                                    0x080057ea   Section        0  fadd.o(.text)
    .text                                    0x0800589a   Section        0  fmul.o(.text)
    .text                                    0x080058fe   Section        0  fdiv.o(.text)
    .text                                    0x0800597a   Section        0  dadd.o(.text)
    .text                                    0x08005ac8   Section        0  dmul.o(.text)
    .text                                    0x08005bac   Section        0  ddiv.o(.text)
    .text                                    0x08005c8a   Section        0  fcmple.o(.text)
    .text                                    0x08005ca6   Section        0  fcmplt.o(.text)
    .text                                    0x08005cc2   Section        0  fcmpge.o(.text)
    .text                                    0x08005cde   Section        0  fcmpgt.o(.text)
    .text                                    0x08005cfa   Section        0  dcmple.o(.text)
    .text                                    0x08005d30   Section        0  fflti.o(.text)
    .text                                    0x08005d42   Section        0  ffltui.o(.text)
    .text                                    0x08005d4c   Section        0  dflti.o(.text)
    .text                                    0x08005d6e   Section        0  dfltui.o(.text)
    .text                                    0x08005d88   Section        0  ffixi.o(.text)
    .text                                    0x08005dba   Section        0  dfixi.o(.text)
    .text                                    0x08005df8   Section        0  f2d.o(.text)
    .text                                    0x08005e1e   Section        0  d2f.o(.text)
    .text                                    0x08005e56   Section        0  llshl.o(.text)
    .text                                    0x08005e74   Section        0  llushr.o(.text)
    .text                                    0x08005e94   Section        0  llsshr.o(.text)
    .text                                    0x08005eb8   Section        0  iusefp.o(.text)
    .text                                    0x08005eb8   Section        0  fepilogue.o(.text)
    .text                                    0x08005f26   Section        0  depilogue.o(.text)
    .text                                    0x08005fe0   Section       48  init.o(.text)
    i.__scatterload_copy                     0x08006010   Section       14  handlers.o(i.__scatterload_copy)
    i.__scatterload_null                     0x0800601e   Section        2  handlers.o(i.__scatterload_null)
    i.__scatterload_zeroinit                 0x08006020   Section       14  handlers.o(i.__scatterload_zeroinit)
    .L__const.up_or_down.up_down             0x0800602e   Data          12  bldc.o(.rodata..L__const.up_or_down.up_down)
    hall_to_sector                           0x0800603a   Data           8  bldcsine.o(.rodata.cst8)
    [Anonymous Symbol]                       0x0800603a   Section        0  bldcsine.o(.rodata.cst8)
    .L__const.rcu_clock_freq_get.apb2_exp    0x08006042   Data           8  gd32f10x_rcu.o(.rodata.cst8)
    sine_table                               0x08006328   Data         720  bldcsine.o(.rodata.sine_table)
    [Anonymous Symbol]                       0x08006328   Section        0  bldcsine.o(.rodata.sine_table)
    iReceivePos                              0x20000012   Data           2  remoteuart.o(.data.iReceivePos)
    [Anonymous Symbol]                       0x20000012   Section        0  remoteuart.o(.data.iReceivePos)
    iReceivePos                              0x20000014   Data           2  commsmasterslave.o(.data.iReceivePos)
    [Anonymous Symbol]                       0x20000014   Section        0  commsmasterslave.o(.data.iReceivePos)
    aReceiveBuffer                           0x20000020   Data           9  remoteuart.o(.bss.aReceiveBuffer)
    [Anonymous Symbol]                       0x20000020   Section        0  remoteuart.o(.bss.aReceiveBuffer)
    aReceiveBuffer                           0x20000029   Data          16  commsmasterslave.o(.bss.aReceiveBuffer)
    [Anonymous Symbol]                       0x20000029   Section        0  commsmasterslave.o(.bss.aReceiveBuffer)
    STACK                                    0x200001a0   Section     8192  startup_gd32f10x_hd.o(STACK)

    Global Symbols

    Symbol Name                              Value     Ov Type        Size  Object(Section)

    BuildAttributes$$THM_ISAv4$P$D$K$B$S$PE$A:L22UL41UL21$X:L11$S22US41US21$IEEE1$IW$~IW$USESV6$~STKCKD$USESV7$~SHL$OTIME$ROPI$EBA8$MICROLIB$REQ8$PRES8$EABIv2 0x00000000   Number         0  anon$$obj.o ABSOLUTE
    __cpp_initialize__aeabi_                  - Undefined Weak Reference
    __cxa_finalize                            - Undefined Weak Reference
    __decompress                              - Undefined Weak Reference
    _clock_init                               - Undefined Weak Reference
    _microlib_exit                            - Undefined Weak Reference
    __Vectors_Size                           0x00000130   Number         0  startup_gd32f10x_hd.o ABSOLUTE
    __Vectors                                0x08000000   Data           4  startup_gd32f10x_hd.o(RESET)
    __Vectors_End                            0x08000130   Data           0  startup_gd32f10x_hd.o(RESET)
    __main                                   0x08000131   Thumb Code     0  entry.o(.ARM.Collect$$$$00000000)
    _main_stk                                0x08000131   Thumb Code     0  entry2.o(.ARM.Collect$$$$00000001)
    _main_scatterload                        0x08000135   Thumb Code     0  entry5.o(.ARM.Collect$$$$00000004)
    __main_after_scatterload                 0x08000139   Thumb Code     0  entry5.o(.ARM.Collect$$$$00000004)
    _main_clock                              0x08000139   Thumb Code     0  entry7b.o(.ARM.Collect$$$$00000008)
    _main_cpp_init                           0x08000139   Thumb Code     0  entry8b.o(.ARM.Collect$$$$0000000A)
    _main_init                               0x08000139   Thumb Code     0  entry9a.o(.ARM.Collect$$$$0000000B)
    __rt_final_cpp                           0x08000141   Thumb Code     0  entry10a.o(.ARM.Collect$$$$0000000D)
    __rt_final_exit                          0x08000141   Thumb Code     0  entry11a.o(.ARM.Collect$$$$0000000F)
    main                                     0x08000145   Thumb Code  1658  main.o(.text)
    ShutOff                                  0x080007c1   Thumb Code   148  main.o(.text)
    ShowBatteryState                         0x08000855   Thumb Code   160  main.o(.text)
    modulo                                   0x080008f5   Thumb Code    22  bldc.o(.text)
    up_or_down                               0x0800090d   Thumb Code    66  bldc.o(.text)
    SetEnable                                0x08000951   Thumb Code    12  bldc.o(.text)
    SetPWM                                   0x0800095d   Thumb Code    74  bldc.o(.text)
    SetFilter                                0x080009a9   Thumb Code    46  bldc.o(.text)
    CalculateBLDC                            0x080009d9   Thumb Code  1070  bldc.o(.text)
    GPIO_Config                              0x08000e09   Thumb Code    58  bldcsine.o(.text)
    EXTI_Config                              0x08000e45   Thumb Code    78  bldcsine.o(.text)
    NVIC_Config                              0x08000e95   Thumb Code    36  bldcsine.o(.text)
    _HandleEXTI                              0x08000eb9   Thumb Code   116  bldcsine.o(.text)
    EXTI0_IRQHandler                         0x08000f2d   Thumb Code   150  bldcsine.o(.text)
    EXTI1_IRQHandler                         0x08000fc5   Thumb Code   150  bldcsine.o(.text)
    EXTI2_IRQHandler                         0x0800105d   Thumb Code   150  bldcsine.o(.text)
    InitBldc                                 0x080010f5   Thumb Code   168  bldcsine.o(.text)
    bldc_get_pwm                             0x0800119d   Thumb Code   658  bldcsine.o(.text)
    Interrupt_init                           0x08001431   Thumb Code     8  setup.o(.text)
    Watchdog_init                            0x08001439   Thumb Code    44  setup.o(.text)
    TimeoutTimer_init                        0x08001465   Thumb Code    94  setup.o(.text)
    GPIO_init                                0x080014c5   Thumb Code   272  setup.o(.text)
    PWM_init                                 0x080015d5   Thumb Code   362  setup.o(.text)
    ADC_init                                 0x08001741   Thumb Code   276  setup.o(.text)
    USART0_Init                              0x08001855   Thumb Code   276  setup.o(.text)
    USART1_Init                              0x08001969   Thumb Code     2  setup.o(.text)
    USART2_Init                              0x0800196d   Thumb Code   280  setup.o(.text)
    flashErase                               0x08001a85   Thumb Code    30  setup.o(.text)
    flashRead                                0x08001aa5   Thumb Code     4  setup.o(.text)
    flashWrite                               0x08001aa9   Thumb Code    40  setup.o(.text)
    flashWriteBuffer                         0x08001ad1   Thumb Code    66  setup.o(.text)
    flashReadBuffer                          0x08001b15   Thumb Code    26  setup.o(.text)
    ConfigReset                              0x08001b31   Thumb Code    36  setup.o(.text)
    ConfigWrite                              0x08001b55   Thumb Code    98  setup.o(.text)
    ConfigRead                               0x08001bb9   Thumb Code   112  setup.o(.text)
    confErase                                0x08001c29   Thumb Code    34  setup.o(.text)
    SysTick_Handler                          0x08001c4d   Thumb Code    16  it.o(.text)
    ResetTimeout                             0x08001c5d   Thumb Code    14  it.o(.text)
    TIMER3_IRQHandler                        0x08001c6d   Thumb Code    96  it.o(.text)
    TIMER0_UP_IRQHandler                     0x08001ccd   Thumb Code    90  it.o(.text)
    DMA0_Channel0_IRQHandler                 0x08001d29   Thumb Code   100  it.o(.text)
    DMA0_Channel4_IRQHandler                 0x08001d8d   Thumb Code    70  it.o(.text)
    DMA0_Channel2_IRQHandler                 0x08001dd5   Thumb Code    70  it.o(.text)
    millis                                   0x08001e1d   Thumb Code    12  it.o(.text)
    Delay                                    0x08001e29   Thumb Code    28  it.o(.text)
    NMI_Handler                              0x08001e45   Thumb Code     2  it.o(.text)
    HardFault_Handler                        0x08001e49   Thumb Code     2  it.o(.text)
    MemManage_Handler                        0x08001e4d   Thumb Code     2  it.o(.text)
    BusFault_Handler                         0x08001e51   Thumb Code     2  it.o(.text)
    UsageFault_Handler                       0x08001e55   Thumb Code     2  it.o(.text)
    SVC_Handler                              0x08001e59   Thumb Code     2  it.o(.text)
    DebugMon_Handler                         0x08001e5d   Thumb Code     2  it.o(.text)
    PendSV_Handler                           0x08001e61   Thumb Code     2  it.o(.text)
    SendBuffer                               0x08001e65   Thumb Code    54  comms.o(.text)
    CalcCRC                                  0x08001e9d   Thumb Code    68  comms.o(.text)
    RemoteUpdate                             0x08001ee1   Thumb Code   260  remoteuart.o(.text)
    RemoteCallback                           0x08001fe5   Thumb Code   166  remoteuart.o(.text)
    UpdateUSARTMasterSlaveInput              0x0800208d   Thumb Code   112  commsmasterslave.o(.text)
    ProessReceived                           0x080020fd   Thumb Code    32  commsmasterslave.o(.text)
    SendSlave                                0x0800211d   Thumb Code    90  commsmasterslave.o(.text)
    adc_deinit                               0x08002179   Thumb Code    72  gd32f10x_adc.o(.text)
    adc_mode_config                          0x080021c1   Thumb Code    24  gd32f10x_adc.o(.text)
    adc_special_function_config              0x080021d9   Thumb Code    90  gd32f10x_adc.o(.text)
    adc_data_alignment_config                0x08002235   Thumb Code    18  gd32f10x_adc.o(.text)
    adc_enable                               0x08002249   Thumb Code    18  gd32f10x_adc.o(.text)
    adc_disable                              0x0800225d   Thumb Code    10  gd32f10x_adc.o(.text)
    adc_calibration_enable                   0x08002269   Thumb Code    32  gd32f10x_adc.o(.text)
    adc_tempsensor_vrefint_enable            0x08002289   Thumb Code    18  gd32f10x_adc.o(.text)
    adc_tempsensor_vrefint_disable           0x0800229d   Thumb Code    18  gd32f10x_adc.o(.text)
    adc_dma_mode_enable                      0x080022b1   Thumb Code    10  gd32f10x_adc.o(.text)
    adc_dma_mode_disable                     0x080022bd   Thumb Code    10  gd32f10x_adc.o(.text)
    adc_discontinuous_mode_config            0x080022c9   Thumb Code    60  gd32f10x_adc.o(.text)
    adc_channel_length_config                0x08002305   Thumb Code    58  gd32f10x_adc.o(.text)
    adc_regular_channel_config               0x08002341   Thumb Code   116  gd32f10x_adc.o(.text)
    adc_inserted_channel_config              0x080023b5   Thumb Code   100  gd32f10x_adc.o(.text)
    adc_inserted_channel_offset_config       0x08002419   Thumb Code    26  gd32f10x_adc.o(.text)
    adc_external_trigger_source_config       0x08002435   Thumb Code    34  gd32f10x_adc.o(.text)
    adc_external_trigger_config              0x08002459   Thumb Code    62  gd32f10x_adc.o(.text)
    adc_software_trigger_enable              0x08002499   Thumb Code    28  gd32f10x_adc.o(.text)
    adc_regular_data_read                    0x080024b5   Thumb Code     6  gd32f10x_adc.o(.text)
    adc_inserted_data_read                   0x080024bd   Thumb Code    20  gd32f10x_adc.o(.text)
    adc_sync_mode_convert_value_read         0x080024d1   Thumb Code    12  gd32f10x_adc.o(.text)
    adc_watchdog_single_channel_enable       0x080024dd   Thumb Code    34  gd32f10x_adc.o(.text)
    adc_watchdog_group_channel_enable        0x08002501   Thumb Code    40  gd32f10x_adc.o(.text)
    adc_watchdog_disable                     0x08002535   Thumb Code    16  gd32f10x_adc.o(.text)
    adc_watchdog_threshold_config            0x08002545   Thumb Code    14  gd32f10x_adc.o(.text)
    adc_flag_get                             0x08002555   Thumb Code    10  gd32f10x_adc.o(.text)
    adc_flag_clear                           0x08002561   Thumb Code    10  gd32f10x_adc.o(.text)
    adc_regular_software_startconv_flag_get  0x0800256d   Thumb Code     8  gd32f10x_adc.o(.text)
    adc_inserted_software_startconv_flag_get 0x08002575   Thumb Code     8  gd32f10x_adc.o(.text)
    adc_interrupt_flag_get                   0x0800257d   Thumb Code    48  gd32f10x_adc.o(.text)
    adc_interrupt_flag_clear                 0x080025ad   Thumb Code    10  gd32f10x_adc.o(.text)
    adc_interrupt_enable                     0x080025b9   Thumb Code    40  gd32f10x_adc.o(.text)
    adc_interrupt_disable                    0x080025e1   Thumb Code    40  gd32f10x_adc.o(.text)
    dma_deinit                               0x08002609   Thumb Code    60  gd32f10x_dma.o(.text)
    dma_struct_para_init                     0x08002645   Thumb Code    20  gd32f10x_dma.o(.text)
    dma_init                                 0x08002659   Thumb Code   116  gd32f10x_dma.o(.text)
    dma_circulation_enable                   0x080026cd   Thumb Code    36  gd32f10x_dma.o(.text)
    dma_circulation_disable                  0x080026f1   Thumb Code    36  gd32f10x_dma.o(.text)
    dma_memory_to_memory_enable              0x08002715   Thumb Code    36  gd32f10x_dma.o(.text)
    dma_memory_to_memory_disable             0x08002739   Thumb Code    36  gd32f10x_dma.o(.text)
    dma_channel_enable                       0x0800275d   Thumb Code    36  gd32f10x_dma.o(.text)
    dma_channel_disable                      0x08002781   Thumb Code    36  gd32f10x_dma.o(.text)
    dma_periph_address_config                0x080027a5   Thumb Code    30  gd32f10x_dma.o(.text)
    dma_memory_address_config                0x080027c5   Thumb Code    30  gd32f10x_dma.o(.text)
    dma_transfer_number_config               0x080027e5   Thumb Code    32  gd32f10x_dma.o(.text)
    dma_transfer_number_get                  0x08002805   Thumb Code    30  gd32f10x_dma.o(.text)
    dma_priority_config                      0x08002825   Thumb Code    38  gd32f10x_dma.o(.text)
    dma_memory_width_config                  0x0800284d   Thumb Code    38  gd32f10x_dma.o(.text)
    dma_periph_width_config                  0x08002875   Thumb Code    38  gd32f10x_dma.o(.text)
    dma_memory_increase_enable               0x0800289d   Thumb Code    36  gd32f10x_dma.o(.text)
    dma_memory_increase_disable              0x080028c1   Thumb Code    36  gd32f10x_dma.o(.text)
    dma_periph_increase_enable               0x080028e5   Thumb Code    36  gd32f10x_dma.o(.text)
    dma_periph_increase_disable              0x08002909   Thumb Code    36  gd32f10x_dma.o(.text)
    dma_transfer_direction_config            0x0800292d   Thumb Code    42  gd32f10x_dma.o(.text)
    dma_flag_get                             0x08002959   Thumb Code    16  gd32f10x_dma.o(.text)
    dma_flag_clear                           0x08002969   Thumb Code    14  gd32f10x_dma.o(.text)
    dma_interrupt_flag_get                   0x08002979   Thumb Code    58  gd32f10x_dma.o(.text)
    dma_interrupt_flag_clear                 0x080029b5   Thumb Code    14  gd32f10x_dma.o(.text)
    dma_interrupt_enable                     0x080029c5   Thumb Code    34  gd32f10x_dma.o(.text)
    dma_interrupt_disable                    0x080029e9   Thumb Code    34  gd32f10x_dma.o(.text)
    exti_deinit                              0x08002a0d   Thumb Code    22  gd32f10x_exti.o(.text)
    exti_init                                0x08002a25   Thumb Code   156  gd32f10x_exti.o(.text)
    exti_interrupt_enable                    0x08002ac1   Thumb Code    16  gd32f10x_exti.o(.text)
    exti_event_enable                        0x08002ad1   Thumb Code    16  gd32f10x_exti.o(.text)
    exti_interrupt_disable                   0x08002ae1   Thumb Code    18  gd32f10x_exti.o(.text)
    exti_event_disable                       0x08002af5   Thumb Code    18  gd32f10x_exti.o(.text)
    exti_flag_get                            0x08002b09   Thumb Code    18  gd32f10x_exti.o(.text)
    exti_flag_clear                          0x08002b1d   Thumb Code    12  gd32f10x_exti.o(.text)
    exti_interrupt_flag_get                  0x08002b29   Thumb Code    32  gd32f10x_exti.o(.text)
    exti_interrupt_flag_clear                0x08002b49   Thumb Code    12  gd32f10x_exti.o(.text)
    exti_software_interrupt_enable           0x08002b55   Thumb Code    16  gd32f10x_exti.o(.text)
    exti_software_interrupt_disable          0x08002b65   Thumb Code    18  gd32f10x_exti.o(.text)
    fmc_wscnt_set                            0x08002b79   Thumb Code    20  gd32f10x_fmc.o(.text)
    fmc_unlock                               0x08002b8d   Thumb Code    80  gd32f10x_fmc.o(.text)
    fmc_bank0_unlock                         0x08002bdd   Thumb Code    38  gd32f10x_fmc.o(.text)
    fmc_bank1_unlock                         0x08002c05   Thumb Code    38  gd32f10x_fmc.o(.text)
    fmc_lock                                 0x08002c2d   Thumb Code    44  gd32f10x_fmc.o(.text)
    fmc_bank0_lock                           0x08002c59   Thumb Code    18  gd32f10x_fmc.o(.text)
    fmc_bank1_lock                           0x08002c6d   Thumb Code    18  gd32f10x_fmc.o(.text)
    fmc_page_erase                           0x08002c81   Thumb Code   462  gd32f10x_fmc.o(.text)
    fmc_bank0_ready_wait                     0x08002e51   Thumb Code    68  gd32f10x_fmc.o(.text)
    fmc_bank1_ready_wait                     0x08002e95   Thumb Code    68  gd32f10x_fmc.o(.text)
    fmc_mass_erase                           0x08002ed9   Thumb Code   458  gd32f10x_fmc.o(.text)
    fmc_bank0_erase                          0x080030a5   Thumb Code   150  gd32f10x_fmc.o(.text)
    fmc_bank1_erase                          0x0800313d   Thumb Code   150  gd32f10x_fmc.o(.text)
    fmc_word_program                         0x080031d5   Thumb Code   424  gd32f10x_fmc.o(.text)
    fmc_halfword_program                     0x0800337d   Thumb Code   424  gd32f10x_fmc.o(.text)
    ob_unlock                                0x08003525   Thumb Code    44  gd32f10x_fmc.o(.text)
    ob_lock                                  0x08003551   Thumb Code    18  gd32f10x_fmc.o(.text)
    ob_erase                                 0x08003565   Thumb Code   270  gd32f10x_fmc.o(.text)
    ob_spc_get                               0x08003675   Thumb Code    16  gd32f10x_fmc.o(.text)
    ob_write_protection_enable               0x08003685   Thumb Code   380  gd32f10x_fmc.o(.text)
    ob_security_protection_config            0x08003801   Thumb Code   260  gd32f10x_fmc.o(.text)
    ob_user_write                            0x08003905   Thumb Code   184  gd32f10x_fmc.o(.text)
    ob_data_program                          0x080039bd   Thumb Code   152  gd32f10x_fmc.o(.text)
    ob_user_get                              0x08003a55   Thumb Code    16  gd32f10x_fmc.o(.text)
    ob_data_get                              0x08003a65   Thumb Code    16  gd32f10x_fmc.o(.text)
    ob_write_protection_get                  0x08003a75   Thumb Code    12  gd32f10x_fmc.o(.text)
    fmc_interrupt_enable                     0x08003a81   Thumb Code    30  gd32f10x_fmc.o(.text)
    fmc_interrupt_disable                    0x08003aa1   Thumb Code    32  gd32f10x_fmc.o(.text)
    fmc_flag_get                             0x08003ac1   Thumb Code    26  gd32f10x_fmc.o(.text)
    fmc_flag_clear                           0x08003add   Thumb Code    30  gd32f10x_fmc.o(.text)
    fmc_interrupt_flag_get                   0x08003afd   Thumb Code    72  gd32f10x_fmc.o(.text)
    fmc_interrupt_flag_clear                 0x08003b45   Thumb Code    30  gd32f10x_fmc.o(.text)
    fmc_bank0_state_get                      0x08003b65   Thumb Code    36  gd32f10x_fmc.o(.text)
    fmc_bank1_state_get                      0x08003b89   Thumb Code    36  gd32f10x_fmc.o(.text)
    fwdgt_write_enable                       0x08003bad   Thumb Code    16  gd32f10x_fwdgt.o(.text)
    fwdgt_write_disable                      0x08003bbd   Thumb Code    14  gd32f10x_fwdgt.o(.text)
    fwdgt_enable                             0x08003bcd   Thumb Code    16  gd32f10x_fwdgt.o(.text)
    fwdgt_counter_reload                     0x08003bdd   Thumb Code    16  gd32f10x_fwdgt.o(.text)
    fwdgt_config                             0x08003bed   Thumb Code   100  gd32f10x_fwdgt.o(.text)
    fwdgt_flag_get                           0x08003c51   Thumb Code    18  gd32f10x_fwdgt.o(.text)
    gpio_deinit                              0x08003c65   Thumb Code    42  gd32f10x_gpio.o(.text)
    gpio_afio_deinit                         0x08003c91   Thumb Code    22  gd32f10x_gpio.o(.text)
    gpio_init                                0x08003ca9   Thumb Code   170  gd32f10x_gpio.o(.text)
    gpio_bit_set                             0x08003d55   Thumb Code     4  gd32f10x_gpio.o(.text)
    gpio_bit_reset                           0x08003d59   Thumb Code     4  gd32f10x_gpio.o(.text)
    gpio_bit_write                           0x08003d5d   Thumb Code    12  gd32f10x_gpio.o(.text)
    gpio_port_write                          0x08003d69   Thumb Code     4  gd32f10x_gpio.o(.text)
    gpio_input_bit_get                       0x08003d6d   Thumb Code    10  gd32f10x_gpio.o(.text)
    gpio_input_port_get                      0x08003d79   Thumb Code     6  gd32f10x_gpio.o(.text)
    gpio_output_bit_get                      0x08003d81   Thumb Code    10  gd32f10x_gpio.o(.text)
    gpio_output_port_get                     0x08003d8d   Thumb Code     6  gd32f10x_gpio.o(.text)
    gpio_pin_remap_config                    0x08003d95   Thumb Code   128  gd32f10x_gpio.o(.text)
    gpio_exti_source_select                  0x08003e15   Thumb Code   130  gd32f10x_gpio.o(.text)
    gpio_event_output_config                 0x08003e99   Thumb Code    22  gd32f10x_gpio.o(.text)
    gpio_event_output_enable                 0x08003eb1   Thumb Code    16  gd32f10x_gpio.o(.text)
    gpio_event_output_disable                0x08003ec1   Thumb Code    16  gd32f10x_gpio.o(.text)
    gpio_pin_lock                            0x08003ed1   Thumb Code    16  gd32f10x_gpio.o(.text)
    nvic_priority_group_set                  0x08003ee1   Thumb Code    20  gd32f10x_misc.o(.text)
    nvic_irq_enable                          0x08003ef5   Thumb Code   100  gd32f10x_misc.o(.text)
    nvic_irq_disable                         0x08003f59   Thumb Code    28  gd32f10x_misc.o(.text)
    nvic_vector_table_set                    0x08003f75   Thumb Code    24  gd32f10x_misc.o(.text)
    system_lowpower_set                      0x08003f8d   Thumb Code    16  gd32f10x_misc.o(.text)
    system_lowpower_reset                    0x08003f9d   Thumb Code    18  gd32f10x_misc.o(.text)
    systick_clksource_set                    0x08003fb1   Thumb Code    24  gd32f10x_misc.o(.text)
    rcu_deinit                               0x08003fc9   Thumb Code   106  gd32f10x_rcu.o(.text)
    rcu_osci_stab_wait                       0x08004035   Thumb Code   264  gd32f10x_rcu.o(.text)
    rcu_periph_clock_enable                  0x0800413d   Thumb Code    30  gd32f10x_rcu.o(.text)
    rcu_periph_clock_disable                 0x0800415d   Thumb Code    32  gd32f10x_rcu.o(.text)
    rcu_periph_clock_sleep_enable            0x0800417d   Thumb Code    30  gd32f10x_rcu.o(.text)
    rcu_periph_clock_sleep_disable           0x0800419d   Thumb Code    32  gd32f10x_rcu.o(.text)
    rcu_periph_reset_enable                  0x080041bd   Thumb Code    30  gd32f10x_rcu.o(.text)
    rcu_periph_reset_disable                 0x080041dd   Thumb Code    32  gd32f10x_rcu.o(.text)
    rcu_bkp_reset_enable                     0x080041fd   Thumb Code    18  gd32f10x_rcu.o(.text)
    rcu_bkp_reset_disable                    0x08004211   Thumb Code    18  gd32f10x_rcu.o(.text)
    rcu_system_clock_source_config           0x08004225   Thumb Code    20  gd32f10x_rcu.o(.text)
    rcu_system_clock_source_get              0x08004239   Thumb Code    16  gd32f10x_rcu.o(.text)
    rcu_ahb_clock_config                     0x08004249   Thumb Code    20  gd32f10x_rcu.o(.text)
    rcu_apb1_clock_config                    0x0800425d   Thumb Code    20  gd32f10x_rcu.o(.text)
    rcu_apb2_clock_config                    0x08004271   Thumb Code    20  gd32f10x_rcu.o(.text)
    rcu_ckout0_config                        0x08004285   Thumb Code    20  gd32f10x_rcu.o(.text)
    rcu_pll_config                           0x08004299   Thumb Code    32  gd32f10x_rcu.o(.text)
    rcu_predv0_config                        0x080042b9   Thumb Code    26  gd32f10x_rcu.o(.text)
    rcu_adc_clock_config                     0x080042d5   Thumb Code    64  gd32f10x_rcu.o(.text)
    rcu_usb_clock_config                     0x08004315   Thumb Code    20  gd32f10x_rcu.o(.text)
    rcu_rtc_clock_config                     0x08004329   Thumb Code    20  gd32f10x_rcu.o(.text)
    rcu_flag_get                             0x0800433d   Thumb Code    26  gd32f10x_rcu.o(.text)
    rcu_all_reset_flag_clear                 0x08004359   Thumb Code    18  gd32f10x_rcu.o(.text)
    rcu_interrupt_flag_get                   0x0800436d   Thumb Code    26  gd32f10x_rcu.o(.text)
    rcu_interrupt_flag_clear                 0x08004389   Thumb Code    30  gd32f10x_rcu.o(.text)
    rcu_interrupt_enable                     0x080043a9   Thumb Code    30  gd32f10x_rcu.o(.text)
    rcu_interrupt_disable                    0x080043c9   Thumb Code    32  gd32f10x_rcu.o(.text)
    rcu_osci_on                              0x080043e9   Thumb Code    30  gd32f10x_rcu.o(.text)
    rcu_osci_off                             0x08004409   Thumb Code    32  gd32f10x_rcu.o(.text)
    rcu_osci_bypass_mode_enable              0x08004429   Thumb Code    64  gd32f10x_rcu.o(.text)
    rcu_osci_bypass_mode_disable             0x08004469   Thumb Code    64  gd32f10x_rcu.o(.text)
    rcu_hxtal_clock_monitor_enable           0x080044a9   Thumb Code    18  gd32f10x_rcu.o(.text)
    rcu_hxtal_clock_monitor_disable          0x080044bd   Thumb Code    18  gd32f10x_rcu.o(.text)
    rcu_irc8m_adjust_value_set               0x080044d1   Thumb Code    18  gd32f10x_rcu.o(.text)
    rcu_deepsleep_voltage_set                0x080044e5   Thumb Code    16  gd32f10x_rcu.o(.text)
    rcu_clock_freq_get                       0x080044f5   Thumb Code   156  gd32f10x_rcu.o(.text)
    timer_deinit                             0x080045a1   Thumb Code   194  gd32f10x_timer.o(.text)
    timer_struct_para_init                   0x08004665   Thumb Code    18  gd32f10x_timer.o(.text)
    timer_init                               0x08004679   Thumb Code   288  gd32f10x_timer.o(.text)
    timer_enable                             0x08004799   Thumb Code    10  gd32f10x_timer.o(.text)
    timer_disable                            0x080047a5   Thumb Code    10  gd32f10x_timer.o(.text)
    timer_auto_reload_shadow_enable          0x080047b1   Thumb Code    10  gd32f10x_timer.o(.text)
    timer_auto_reload_shadow_disable         0x080047bd   Thumb Code    10  gd32f10x_timer.o(.text)
    timer_update_event_enable                0x080047c9   Thumb Code    10  gd32f10x_timer.o(.text)
    timer_update_event_disable               0x080047d5   Thumb Code    10  gd32f10x_timer.o(.text)
    timer_counter_alignment                  0x080047e1   Thumb Code    16  gd32f10x_timer.o(.text)
    timer_counter_up_direction               0x080047f1   Thumb Code    10  gd32f10x_timer.o(.text)
    timer_counter_down_direction             0x080047fd   Thumb Code    10  gd32f10x_timer.o(.text)
    timer_prescaler_config                   0x08004809   Thumb Code    18  gd32f10x_timer.o(.text)
    timer_repetition_value_config            0x0800481d   Thumb Code     4  gd32f10x_timer.o(.text)
    timer_autoreload_value_config            0x08004821   Thumb Code     4  gd32f10x_timer.o(.text)
    timer_counter_value_config               0x08004825   Thumb Code     4  gd32f10x_timer.o(.text)
    timer_counter_read                       0x08004829   Thumb Code     4  gd32f10x_timer.o(.text)
    timer_prescaler_read                     0x0800482d   Thumb Code     6  gd32f10x_timer.o(.text)
    timer_single_pulse_mode_config           0x08004835   Thumb Code    28  gd32f10x_timer.o(.text)
    timer_update_source_config               0x08004851   Thumb Code    28  gd32f10x_timer.o(.text)
    timer_dma_enable                         0x0800486d   Thumb Code     8  gd32f10x_timer.o(.text)
    timer_dma_disable                        0x08004875   Thumb Code    10  gd32f10x_timer.o(.text)
    timer_channel_dma_request_source_select  0x08004881   Thumb Code    28  gd32f10x_timer.o(.text)
    timer_dma_transfer_config                0x0800489d   Thumb Code    24  gd32f10x_timer.o(.text)
    timer_event_software_generate            0x080048b5   Thumb Code     8  gd32f10x_timer.o(.text)
    timer_break_struct_para_init             0x080048bd   Thumb Code    12  gd32f10x_timer.o(.text)
    timer_break_config                       0x080048c9   Thumb Code    38  gd32f10x_timer.o(.text)
    timer_break_enable                       0x080048f1   Thumb Code    10  gd32f10x_timer.o(.text)
    timer_break_disable                      0x080048fd   Thumb Code    10  gd32f10x_timer.o(.text)
    timer_automatic_output_enable            0x08004909   Thumb Code    10  gd32f10x_timer.o(.text)
    timer_automatic_output_disable           0x08004915   Thumb Code    10  gd32f10x_timer.o(.text)
    timer_primary_output_config              0x08004921   Thumb Code    18  gd32f10x_timer.o(.text)
    timer_channel_control_shadow_config      0x08004935   Thumb Code    16  gd32f10x_timer.o(.text)
    timer_channel_control_shadow_update_config 0x08004945   Thumb Code    30  gd32f10x_timer.o(.text)
    timer_channel_output_struct_para_init    0x08004965   Thumb Code    10  gd32f10x_timer.o(.text)
    timer_channel_output_config              0x08004971   Thumb Code   532  gd32f10x_timer.o(.text)
    timer_channel_output_mode_config         0x08004b85   Thumb Code    56  gd32f10x_timer.o(.text)
    timer_channel_output_pulse_value_config  0x08004bbd   Thumb Code    16  gd32f10x_timer.o(.text)
    timer_channel_output_shadow_config       0x08004bcd   Thumb Code    56  gd32f10x_timer.o(.text)
    timer_channel_output_fast_config         0x08004c05   Thumb Code    56  gd32f10x_timer.o(.text)
    timer_channel_output_clear_config        0x08004c3d   Thumb Code    56  gd32f10x_timer.o(.text)
    timer_channel_output_polarity_config     0x08004c75   Thumb Code    68  gd32f10x_timer.o(.text)
    timer_channel_complementary_output_polarity_config 0x08004cb9   Thumb Code    56  gd32f10x_timer.o(.text)
    timer_channel_output_state_config        0x08004cf1   Thumb Code    68  gd32f10x_timer.o(.text)
    timer_channel_complementary_output_state_config 0x08004d35   Thumb Code    56  gd32f10x_timer.o(.text)
    timer_channel_input_struct_para_init     0x08004d6d   Thumb Code    12  gd32f10x_timer.o(.text)
    timer_input_capture_config               0x08004d79   Thumb Code   350  gd32f10x_timer.o(.text)
    timer_channel_input_capture_prescaler_config 0x08004ed9   Thumb Code    56  gd32f10x_timer.o(.text)
    timer_channel_capture_value_register_read 0x08004f11   Thumb Code    18  gd32f10x_timer.o(.text)
    timer_input_pwm_capture_config           0x08004f25   Thumb Code   354  gd32f10x_timer.o(.text)
    timer_hall_mode_config                   0x08005089   Thumb Code    28  gd32f10x_timer.o(.text)
    timer_input_trigger_source_select        0x080050a5   Thumb Code    16  gd32f10x_timer.o(.text)
    timer_master_output_trigger_source_select 0x080050b5   Thumb Code    16  gd32f10x_timer.o(.text)
    timer_slave_mode_select                  0x080050c5   Thumb Code    16  gd32f10x_timer.o(.text)
    timer_master_slave_mode_config           0x080050d5   Thumb Code    28  gd32f10x_timer.o(.text)
    timer_external_trigger_config            0x080050f1   Thumb Code    34  gd32f10x_timer.o(.text)
    timer_quadrature_decoder_mode_config     0x08005115   Thumb Code    78  gd32f10x_timer.o(.text)
    timer_internal_clock_config              0x08005165   Thumb Code    10  gd32f10x_timer.o(.text)
    timer_internal_trigger_as_external_clock_config 0x08005171   Thumb Code    32  gd32f10x_timer.o(.text)
    timer_external_trigger_as_external_clock_config 0x08005191   Thumb Code   172  gd32f10x_timer.o(.text)
    timer_external_clock_mode0_config        0x0800523d   Thumb Code    50  gd32f10x_timer.o(.text)
    timer_external_clock_mode1_config        0x08005271   Thumb Code    42  gd32f10x_timer.o(.text)
    timer_external_clock_mode1_disable       0x0800529d   Thumb Code    10  gd32f10x_timer.o(.text)
    timer_interrupt_enable                   0x080052a9   Thumb Code     8  gd32f10x_timer.o(.text)
    timer_interrupt_disable                  0x080052b1   Thumb Code    10  gd32f10x_timer.o(.text)
    timer_interrupt_flag_get                 0x080052bd   Thumb Code    22  gd32f10x_timer.o(.text)
    timer_interrupt_flag_clear               0x080052d5   Thumb Code    10  gd32f10x_timer.o(.text)
    timer_flag_get                           0x080052e1   Thumb Code    10  gd32f10x_timer.o(.text)
    timer_flag_clear                         0x080052ed   Thumb Code    10  gd32f10x_timer.o(.text)
    usart_deinit                             0x080052f9   Thumb Code   122  gd32f10x_usart.o(.text)
    usart_baudrate_set                       0x08005375   Thumb Code   106  gd32f10x_usart.o(.text)
    usart_parity_config                      0x080053e1   Thumb Code    16  gd32f10x_usart.o(.text)
    usart_word_length_set                    0x080053f1   Thumb Code    16  gd32f10x_usart.o(.text)
    usart_stop_bit_set                       0x08005401   Thumb Code    16  gd32f10x_usart.o(.text)
    usart_enable                             0x08005411   Thumb Code    10  gd32f10x_usart.o(.text)
    usart_disable                            0x0800541d   Thumb Code    10  gd32f10x_usart.o(.text)
    usart_transmit_config                    0x08005429   Thumb Code    12  gd32f10x_usart.o(.text)
    usart_receive_config                     0x08005435   Thumb Code    12  gd32f10x_usart.o(.text)
    usart_data_transmit                      0x08005441   Thumb Code     8  gd32f10x_usart.o(.text)
    usart_data_receive                       0x08005449   Thumb Code     8  gd32f10x_usart.o(.text)
    usart_address_config                     0x08005451   Thumb Code    20  gd32f10x_usart.o(.text)
    usart_mute_mode_enable                   0x08005465   Thumb Code    10  gd32f10x_usart.o(.text)
    usart_mute_mode_disable                  0x08005471   Thumb Code    10  gd32f10x_usart.o(.text)
    usart_mute_mode_wakeup_config            0x0800547d   Thumb Code    16  gd32f10x_usart.o(.text)
    usart_lin_mode_enable                    0x0800548d   Thumb Code    10  gd32f10x_usart.o(.text)
    usart_lin_mode_disable                   0x08005499   Thumb Code    10  gd32f10x_usart.o(.text)
    usart_lin_break_detection_length_config  0x080054a5   Thumb Code    20  gd32f10x_usart.o(.text)
    usart_send_break                         0x080054b9   Thumb Code    10  gd32f10x_usart.o(.text)
    usart_halfduplex_enable                  0x080054c5   Thumb Code    10  gd32f10x_usart.o(.text)
    usart_halfduplex_disable                 0x080054d1   Thumb Code    10  gd32f10x_usart.o(.text)
    usart_synchronous_clock_enable           0x080054dd   Thumb Code    10  gd32f10x_usart.o(.text)
    usart_synchronous_clock_disable          0x080054e9   Thumb Code    10  gd32f10x_usart.o(.text)
    usart_synchronous_clock_config           0x080054f5   Thumb Code    30  gd32f10x_usart.o(.text)
    usart_guard_time_config                  0x08005515   Thumb Code    20  gd32f10x_usart.o(.text)
    usart_smartcard_mode_enable              0x08005529   Thumb Code    10  gd32f10x_usart.o(.text)
    usart_smartcard_mode_disable             0x08005535   Thumb Code    10  gd32f10x_usart.o(.text)
    usart_smartcard_mode_nack_enable         0x08005541   Thumb Code    10  gd32f10x_usart.o(.text)
    usart_smartcard_mode_nack_disable        0x0800554d   Thumb Code    10  gd32f10x_usart.o(.text)
    usart_irda_mode_enable                   0x08005559   Thumb Code    10  gd32f10x_usart.o(.text)
    usart_irda_mode_disable                  0x08005565   Thumb Code    10  gd32f10x_usart.o(.text)
    usart_prescaler_config                   0x08005571   Thumb Code    16  gd32f10x_usart.o(.text)
    usart_irda_lowpower_config               0x08005581   Thumb Code    20  gd32f10x_usart.o(.text)
    usart_hardware_flow_rts_config           0x08005595   Thumb Code    12  gd32f10x_usart.o(.text)
    usart_hardware_flow_cts_config           0x080055a1   Thumb Code    12  gd32f10x_usart.o(.text)
    usart_dma_receive_config                 0x080055ad   Thumb Code    12  gd32f10x_usart.o(.text)
    usart_dma_transmit_config                0x080055b9   Thumb Code    12  gd32f10x_usart.o(.text)
    usart_flag_get                           0x080055c5   Thumb Code    16  gd32f10x_usart.o(.text)
    usart_flag_clear                         0x080055d5   Thumb Code    24  gd32f10x_usart.o(.text)
    usart_interrupt_enable                   0x080055ed   Thumb Code    24  gd32f10x_usart.o(.text)
    usart_interrupt_disable                  0x08005605   Thumb Code    26  gd32f10x_usart.o(.text)
    usart_interrupt_flag_get                 0x08005621   Thumb Code    40  gd32f10x_usart.o(.text)
    usart_interrupt_flag_clear               0x08005649   Thumb Code    24  gd32f10x_usart.o(.text)
    Reset_Handler                            0x08005661   Thumb Code     8  startup_gd32f10x_hd.o(.text)
    ADC0_1_IRQHandler                        0x0800567b   Thumb Code     0  startup_gd32f10x_hd.o(.text)
    ADC2_IRQHandler                          0x0800567b   Thumb Code     0  startup_gd32f10x_hd.o(.text)
    CAN0_EWMC_IRQHandler                     0x0800567b   Thumb Code     0  startup_gd32f10x_hd.o(.text)
    CAN0_RX1_IRQHandler                      0x0800567b   Thumb Code     0  startup_gd32f10x_hd.o(.text)
    DMA0_Channel1_IRQHandler                 0x0800567b   Thumb Code     0  startup_gd32f10x_hd.o(.text)
    DMA0_Channel3_IRQHandler                 0x0800567b   Thumb Code     0  startup_gd32f10x_hd.o(.text)
    DMA0_Channel5_IRQHandler                 0x0800567b   Thumb Code     0  startup_gd32f10x_hd.o(.text)
    DMA0_Channel6_IRQHandler                 0x0800567b   Thumb Code     0  startup_gd32f10x_hd.o(.text)
    DMA1_Channel0_IRQHandler                 0x0800567b   Thumb Code     0  startup_gd32f10x_hd.o(.text)
    DMA1_Channel1_IRQHandler                 0x0800567b   Thumb Code     0  startup_gd32f10x_hd.o(.text)
    DMA1_Channel2_IRQHandler                 0x0800567b   Thumb Code     0  startup_gd32f10x_hd.o(.text)
    DMA1_Channel3_4_IRQHandler               0x0800567b   Thumb Code     0  startup_gd32f10x_hd.o(.text)
    EXMC_IRQHandler                          0x0800567b   Thumb Code     0  startup_gd32f10x_hd.o(.text)
    EXTI10_15_IRQHandler                     0x0800567b   Thumb Code     0  startup_gd32f10x_hd.o(.text)
    EXTI3_IRQHandler                         0x0800567b   Thumb Code     0  startup_gd32f10x_hd.o(.text)
    EXTI4_IRQHandler                         0x0800567b   Thumb Code     0  startup_gd32f10x_hd.o(.text)
    EXTI5_9_IRQHandler                       0x0800567b   Thumb Code     0  startup_gd32f10x_hd.o(.text)
    FMC_IRQHandler                           0x0800567b   Thumb Code     0  startup_gd32f10x_hd.o(.text)
    I2C0_ER_IRQHandler                       0x0800567b   Thumb Code     0  startup_gd32f10x_hd.o(.text)
    I2C0_EV_IRQHandler                       0x0800567b   Thumb Code     0  startup_gd32f10x_hd.o(.text)
    I2C1_ER_IRQHandler                       0x0800567b   Thumb Code     0  startup_gd32f10x_hd.o(.text)
    I2C1_EV_IRQHandler                       0x0800567b   Thumb Code     0  startup_gd32f10x_hd.o(.text)
    LVD_IRQHandler                           0x0800567b   Thumb Code     0  startup_gd32f10x_hd.o(.text)
    RCU_IRQHandler                           0x0800567b   Thumb Code     0  startup_gd32f10x_hd.o(.text)
    RTC_Alarm_IRQHandler                     0x0800567b   Thumb Code     0  startup_gd32f10x_hd.o(.text)
    RTC_IRQHandler                           0x0800567b   Thumb Code     0  startup_gd32f10x_hd.o(.text)
    SDIO_IRQHandler                          0x0800567b   Thumb Code     0  startup_gd32f10x_hd.o(.text)
    SPI0_IRQHandler                          0x0800567b   Thumb Code     0  startup_gd32f10x_hd.o(.text)
    SPI1_IRQHandler                          0x0800567b   Thumb Code     0  startup_gd32f10x_hd.o(.text)
    SPI2_IRQHandler                          0x0800567b   Thumb Code     0  startup_gd32f10x_hd.o(.text)
    TAMPER_IRQHandler                        0x0800567b   Thumb Code     0  startup_gd32f10x_hd.o(.text)
    TIMER0_BRK_IRQHandler                    0x0800567b   Thumb Code     0  startup_gd32f10x_hd.o(.text)
    TIMER0_Channel_IRQHandler                0x0800567b   Thumb Code     0  startup_gd32f10x_hd.o(.text)
    TIMER0_TRG_CMT_IRQHandler                0x0800567b   Thumb Code     0  startup_gd32f10x_hd.o(.text)
    TIMER1_IRQHandler                        0x0800567b   Thumb Code     0  startup_gd32f10x_hd.o(.text)
    TIMER2_IRQHandler                        0x0800567b   Thumb Code     0  startup_gd32f10x_hd.o(.text)
    TIMER4_IRQHandler                        0x0800567b   Thumb Code     0  startup_gd32f10x_hd.o(.text)
    TIMER5_IRQHandler                        0x0800567b   Thumb Code     0  startup_gd32f10x_hd.o(.text)
    TIMER6_IRQHandler                        0x0800567b   Thumb Code     0  startup_gd32f10x_hd.o(.text)
    TIMER7_BRK_IRQHandler                    0x0800567b   Thumb Code     0  startup_gd32f10x_hd.o(.text)
    TIMER7_Channel_IRQHandler                0x0800567b   Thumb Code     0  startup_gd32f10x_hd.o(.text)
    TIMER7_TRG_CMT_IRQHandler                0x0800567b   Thumb Code     0  startup_gd32f10x_hd.o(.text)
    TIMER7_UP_IRQHandler                     0x0800567b   Thumb Code     0  startup_gd32f10x_hd.o(.text)
    UART3_IRQHandler                         0x0800567b   Thumb Code     0  startup_gd32f10x_hd.o(.text)
    UART4_IRQHandler                         0x0800567b   Thumb Code     0  startup_gd32f10x_hd.o(.text)
    USART0_IRQHandler                        0x0800567b   Thumb Code     0  startup_gd32f10x_hd.o(.text)
    USART1_IRQHandler                        0x0800567b   Thumb Code     0  startup_gd32f10x_hd.o(.text)
    USART2_IRQHandler                        0x0800567b   Thumb Code     0  startup_gd32f10x_hd.o(.text)
    USBD_HP_CAN0_TX_IRQHandler               0x0800567b   Thumb Code     0  startup_gd32f10x_hd.o(.text)
    USBD_LP_CAN0_RX0_IRQHandler              0x0800567b   Thumb Code     0  startup_gd32f10x_hd.o(.text)
    USBD_WKUP_IRQHandler                     0x0800567b   Thumb Code     0  startup_gd32f10x_hd.o(.text)
    WWDGT_IRQHandler                         0x0800567b   Thumb Code     0  startup_gd32f10x_hd.o(.text)
    SystemInit                               0x08005685   Thumb Code   266  system_gd32f10x.o(.text)
    SystemCoreClockUpdate                    0x08005791   Thumb Code    90  system_gd32f10x.o(.text)
    __aeabi_fadd                             0x080057eb   Thumb Code   164  fadd.o(.text)
    __aeabi_fsub                             0x0800588f   Thumb Code     6  fadd.o(.text)
    __aeabi_frsub                            0x08005895   Thumb Code     6  fadd.o(.text)
    __aeabi_fmul                             0x0800589b   Thumb Code   100  fmul.o(.text)
    __aeabi_fdiv                             0x080058ff   Thumb Code   124  fdiv.o(.text)
    __aeabi_dadd                             0x0800597b   Thumb Code   322  dadd.o(.text)
    __aeabi_dsub                             0x08005abd   Thumb Code     6  dadd.o(.text)
    __aeabi_drsub                            0x08005ac3   Thumb Code     6  dadd.o(.text)
    __aeabi_dmul                             0x08005ac9   Thumb Code   228  dmul.o(.text)
    __aeabi_ddiv                             0x08005bad   Thumb Code   222  ddiv.o(.text)
    __aeabi_fcmple                           0x08005c8b   Thumb Code    28  fcmple.o(.text)
    __aeabi_fcmplt                           0x08005ca7   Thumb Code    28  fcmplt.o(.text)
    __aeabi_fcmpge                           0x08005cc3   Thumb Code    28  fcmpge.o(.text)
    __aeabi_fcmpgt                           0x08005cdf   Thumb Code    28  fcmpgt.o(.text)
    __aeabi_dcmple                           0x08005cfb   Thumb Code    54  dcmple.o(.text)
    __aeabi_i2f                              0x08005d31   Thumb Code    18  fflti.o(.text)
    __aeabi_ui2f                             0x08005d43   Thumb Code    10  ffltui.o(.text)
    __aeabi_i2d                              0x08005d4d   Thumb Code    34  dflti.o(.text)
    __aeabi_ui2d                             0x08005d6f   Thumb Code    26  dfltui.o(.text)
    __aeabi_f2iz                             0x08005d89   Thumb Code    50  ffixi.o(.text)
    __aeabi_d2iz                             0x08005dbb   Thumb Code    62  dfixi.o(.text)
    __aeabi_f2d                              0x08005df9   Thumb Code    38  f2d.o(.text)
    __aeabi_d2f                              0x08005e1f   Thumb Code    56  d2f.o(.text)
    __aeabi_llsl                             0x08005e57   Thumb Code    30  llshl.o(.text)
    _ll_shift_l                              0x08005e57   Thumb Code     0  llshl.o(.text)
    __aeabi_llsr                             0x08005e75   Thumb Code    32  llushr.o(.text)
    _ll_ushift_r                             0x08005e75   Thumb Code     0  llushr.o(.text)
    __aeabi_lasr                             0x08005e95   Thumb Code    36  llsshr.o(.text)
    _ll_sshift_r                             0x08005e95   Thumb Code     0  llsshr.o(.text)
    __I$use$fp                               0x08005eb9   Thumb Code     0  iusefp.o(.text)
    _float_round                             0x08005eb9   Thumb Code    18  fepilogue.o(.text)
    _float_epilogue                          0x08005ecb   Thumb Code    92  fepilogue.o(.text)
    _double_round                            0x08005f27   Thumb Code    30  depilogue.o(.text)
    _double_epilogue                         0x08005f45   Thumb Code   156  depilogue.o(.text)
    __scatterload                            0x08005fe1   Thumb Code    38  init.o(.text)
    __scatterload_rt2                        0x08005fe1   Thumb Code     0  init.o(.text)
    __scatterload_copy                       0x08006011   Thumb Code    14  handlers.o(i.__scatterload_copy)
    __scatterload_null                       0x0800601f   Thumb Code     2  handlers.o(i.__scatterload_null)
    __scatterload_zeroinit                   0x08006021   Thumb Code    14  handlers.o(i.__scatterload_zeroinit)
    hall_to_pos                              0x0800604a   Data           8  bldc.o(.rodata.hall_to_pos)
    lookUpTableAngle                         0x08006054   Data         724  main.o(.rodata.lookUpTableAngle)
    Region$$Table$$Base                      0x080065f8   Number         0  anon$$obj.o(Region$$Table)
    Region$$Table$$Limit                     0x08006618   Number         0  anon$$obj.o(Region$$Table)
    SystemCoreClock                          0x20000000   Data           4  system_gd32f10x.o(.data.SystemCoreClock)
    batteryVoltage                           0x20000004   Data           4  bldc.o(.data.batteryVoltage)
    beepsBackwards                           0x20000008   Data           1  main.o(.data.beepsBackwards)
    currentDC                                0x2000000c   Data           4  bldc.o(.data.currentDC)
    iFILTER_SHIFT                            0x20000010   Data           1  bldc.o(.data.iFILTER_SHIFT)
    offsetdc                                 0x20000016   Data           2  bldc.o(.data.offsetdc)
    speedLimit                               0x20000018   Data           2  main.o(.data.speedLimit)
    wState                                   0x2000001a   Data           1  main.o(.data.wState)
    wStateSlave                              0x2000001b   Data           1  main.o(.data.wStateSlave)
    adc_buffer                               0x2000003a   Data           4  bldc.o(.bss.adc_buffer)
    angle_deg                                0x20000040   Data           4  bldcsine.o(.bss.angle_deg)
    angle_deg_add                            0x20000044   Data           4  bldcsine.o(.bss.angle_deg_add)
    angle_deg_final                          0x20000048   Data           4  bldcsine.o(.bss.angle_deg_final)
    angle_idx                                0x2000004c   Data           2  bldcsine.o(.bss.angle_idx)
    bInterrupt                               0x2000004e   Data           1  bldcsine.o(.bss.bInterrupt)
    bldc_enable                              0x2000004f   Data           1  bldc.o(.bss.bldc_enable)
    bldc_inputFilterPwm                      0x20000050   Data           2  bldc.o(.bss.bldc_inputFilterPwm)
    bldc_outputFilterPwm                     0x20000052   Data           2  bldc.o(.bss.bldc_outputFilterPwm)
    buzzerFreq                               0x20000054   Data           1  bldc.o(.bss.buzzerFreq)
    buzzerPattern                            0x20000055   Data           1  bldc.o(.bss.buzzerPattern)
    buzzerTimer                              0x20000056   Data           2  bldc.o(.bss.buzzerTimer)
    buzzerToggle                             0x20000058   Data           1  bldc.o(.bss.buzzerToggle)
    dma_init_struct_adc                      0x2000005c   Data          28  setup.o(.bss.dma_init_struct_adc)
    dma_init_struct_usart                    0x20000078   Data          28  setup.o(.bss.dma_init_struct_usart)
    enable                                   0x20000094   Data           1  main.o(.bss.enable)
    fDT                                      0x20000098   Data           4  bldcsine.o(.bss.fDT)
    fGradient                                0x2000009c   Data           4  bldcsine.o(.bss.fGradient)
    fGradientX                               0x200000a0   Data           4  bldcsine.o(.bss.fGradientX)
    filter_reg                               0x200000a4   Data           4  bldc.o(.bss.filter_reg)
    hall                                     0x200000a8   Data           1  bldc.o(.bss.hall)
    hall_a                                   0x200000a9   Data           1  bldc.o(.bss.hall_a)
    hall_b                                   0x200000aa   Data           1  bldc.o(.bss.hall_b)
    hall_c                                   0x200000ab   Data           1  bldc.o(.bss.hall_c)
    hall_last                                0x200000ac   Data           1  bldcsine.o(.bss.hall_last)
    hall_time_last                           0x200000ae   Data           2  bldcsine.o(.bss.hall_time_last)
    hall_time_step                           0x200000b0   Data           2  bldcsine.o(.bss.hall_time_step)
    hall_time_step_LP                        0x200000b4   Data           4  bldcsine.o(.bss.hall_time_step_LP)
    hall_time_step_LPR                       0x200000b8   Data           4  bldcsine.o(.bss.hall_time_step_LPR)
    iAdcCounter                              0x200000bc   Data           4  it.o(.bss.iAdcCounter)
    iAdcTicks                                0x200000c0   Data           4  it.o(.bss.iAdcTicks)
    iAdcTicks0                               0x200000c4   Data           4  it.o(.bss.iAdcTicks0)
    iBug                                     0x200000c8   Data           4  main.o(.bss.iBug)
    iCounter2Usart0                          0x200000cc   Data           4  it.o(.bss.iCounter2Usart0)
    iCounter2Usart2                          0x200000d0   Data           4  it.o(.bss.iCounter2Usart2)
    iCounterUsart0                           0x200000d4   Data           4  it.o(.bss.iCounterUsart0)
    iCounterUsart2                           0x200000d8   Data           4  it.o(.bss.iCounterUsart2)
    iDT                                      0x200000dc   Data           2  bldcsine.o(.bss.iDT)
    iExti0                                   0x200000de   Data           2  bldcsine.o(.bss.iExti0)
    iExti1                                   0x200000e0   Data           2  bldcsine.o(.bss.iExti1)
    iExti2                                   0x200000e2   Data           2  bldcsine.o(.bss.iExti2)
    iOdom                                    0x200000e4   Data           4  bldc.o(.bss.iOdom)
    iPwmCounter                              0x200000e8   Data           4  it.o(.bss.iPwmCounter)
    iPwmTicks                                0x200000ec   Data           4  it.o(.bss.iPwmTicks)
    iPwmTicks0                               0x200000f0   Data           4  it.o(.bss.iPwmTicks0)
    iTimeLastRx                              0x200000f4   Data           4  remoteuart.o(.bss.iTimeLastRx)
    iTimeNextLoop                            0x200000f8   Data           4  main.o(.bss.iTimeNextLoop)
    iTimeNextTx                              0x200000fc   Data           4  remoteuart.o(.bss.iTimeNextTx)
    inactivity_timeout_counter               0x20000100   Data           4  main.o(.bss.inactivity_timeout_counter)
    lastPos                                  0x20000104   Data           1  bldc.o(.bss.lastPos)
    msTicks                                  0x20000108   Data           4  it.o(.bss.msTicks)
    oConfig                                  0x2000010c   Data          18  setup.o(.bss.oConfig)
    oDataSlave                               0x20000120   Data          16  main.o(.bss.oDataSlave)
    offsetcount                              0x20000130   Data           2  bldc.o(.bss.offsetcount)
    pos                                      0x20000132   Data           1  bldc.o(.bss.pos)
    pwmGo                                    0x20000134   Data           4  bldcsine.o(.bss.pwmGo)
    pwmSlave                                 0x20000138   Data           2  main.o(.bss.pwmSlave)
    realSpeed                                0x2000013c   Data           4  bldc.o(.bss.realSpeed)
    sector                                   0x20000140   Data           1  bldcsine.o(.bss.sector)
    sector10x                                0x20000141   Data           1  bldcsine.o(.bss.sector10x)
    sectorChange                             0x20000142   Data           1  bldcsine.o(.bss.sectorChange)
    speed                                    0x20000144   Data           4  main.o(.bss.speed)
    speedCounter                             0x20000148   Data           4  bldc.o(.bss.speedCounter)
    speedShutoff                             0x2000014c   Data           4  main.o(.bss.speedShutoff)
    steer                                    0x20000150   Data           4  main.o(.bss.steer)
    steerCounter                             0x20000154   Data           4  main.o(.bss.steerCounter)
    timedOut                                 0x20000158   Data           1  it.o(.bss.timedOut)
    timeoutCounter_ms                        0x2000015c   Data           4  it.o(.bss.timeoutCounter_ms)
    timeoutTimer_paramter_struct             0x20000160   Data          16  setup.o(.bss.timeoutTimer_paramter_struct)
    timerBldc_break_parameter_struct         0x20000170   Data          14  setup.o(.bss.timerBldc_break_parameter_struct)
    timerBldc_oc_parameter_struct            0x2000017e   Data          12  setup.o(.bss.timerBldc_oc_parameter_struct)
    timerBldc_paramter_struct                0x2000018c   Data          16  setup.o(.bss.timerBldc_paramter_struct)
    usart0_rx_buf                            0x2000019c   Data           1  setup.o(.bss.usart0_rx_buf)
    usart2_rx_buf                            0x2000019d   Data           1  setup.o(.bss.usart2_rx_buf)
    __initial_sp                             0x200021a0   Data           0  startup_gd32f10x_hd.o(STACK)



==============================================================================

Memory Map of the image

  Image Entry point : 0x08000131

  Load Region LR_IROM1 (Base: 0x08000000, Size: 0x00006638, Max: 0x00010000, ABSOLUTE)

    Execution Region ER_IROM1 (Exec base: 0x08000000, Load base: 0x08000000, Size: 0x00006618, Max: 0x00010000, ABSOLUTE)

    Exec Addr    Load Addr    Size         Type   Attr      Idx    E Section Name        Object

    0x08000000   0x08000000   0x00000130   Data   RO          289    RESET               startup_gd32f10x_hd.o
    0x08000130   0x08000130   0x00000000   Code   RO          305  * .ARM.Collect$$$$00000000  mc_w.l(entry.o)
    0x08000130   0x08000130   0x00000004   Code   RO          346    .ARM.Collect$$$$00000001  mc_w.l(entry2.o)
    0x08000134   0x08000134   0x00000004   Code   RO          349    .ARM.Collect$$$$00000004  mc_w.l(entry5.o)
    0x08000138   0x08000138   0x00000000   Code   RO          351    .ARM.Collect$$$$00000008  mc_w.l(entry7b.o)
    0x08000138   0x08000138   0x00000000   Code   RO          353    .ARM.Collect$$$$0000000A  mc_w.l(entry8b.o)
    0x08000138   0x08000138   0x00000008   Code   RO          354    .ARM.Collect$$$$0000000B  mc_w.l(entry9a.o)
    0x08000140   0x08000140   0x00000000   Code   RO          356    .ARM.Collect$$$$0000000D  mc_w.l(entry10a.o)
    0x08000140   0x08000140   0x00000000   Code   RO          358    .ARM.Collect$$$$0000000F  mc_w.l(entry11a.o)
    0x08000140   0x08000140   0x00000004   Code   RO          347    .ARM.Collect$$$$00002712  mc_w.l(entry2.o)
    0x08000144   0x08000144   0x000007b0   Code   RO            1    .text               main.o
    0x080008f4   0x080008f4   0x00000512   Code   RO           28    .text               bldc.o
    0x08000e06   0x08000e06   0x00000002   PAD
    0x08000e08   0x08000e08   0x00000626   Code   RO           63    .text               bldcsine.o
    0x0800142e   0x0800142e   0x00000002   PAD
    0x08001430   0x08001430   0x0000081a   Code   RO           96    .text               setup.o
    0x08001c4a   0x08001c4a   0x00000002   PAD
    0x08001c4c   0x08001c4c   0x00000216   Code   RO          115    .text               it.o
    0x08001e62   0x08001e62   0x00000002   PAD
    0x08001e64   0x08001e64   0x0000007c   Code   RO          137    .text               comms.o
    0x08001ee0   0x08001ee0   0x000001aa   Code   RO          145    .text               remoteuart.o
    0x0800208a   0x0800208a   0x00000002   PAD
    0x0800208c   0x0800208c   0x000000ea   Code   RO          161    .text               commsmasterslave.o
    0x08002176   0x08002176   0x00000002   PAD
    0x08002178   0x08002178   0x00000490   Code   RO          180    .text               gd32f10x_adc.o
    0x08002608   0x08002608   0x00000402   Code   RO          188    .text               gd32f10x_dma.o
    0x08002a0a   0x08002a0a   0x00000002   PAD
    0x08002a0c   0x08002a0c   0x0000016a   Code   RO          196    .text               gd32f10x_exti.o
    0x08002b76   0x08002b76   0x00000002   PAD
    0x08002b78   0x08002b78   0x00001034   Code   RO          204    .text               gd32f10x_fmc.o
    0x08003bac   0x08003bac   0x000000b6   Code   RO          213    .text               gd32f10x_fwdgt.o
    0x08003c62   0x08003c62   0x00000002   PAD
    0x08003c64   0x08003c64   0x0000027c   Code   RO          221    .text               gd32f10x_gpio.o
    0x08003ee0   0x08003ee0   0x000000e8   Code   RO          237    .text               gd32f10x_misc.o
    0x08003fc8   0x08003fc8   0x000005d8   Code   RO          253    .text               gd32f10x_rcu.o
    0x080045a0   0x080045a0   0x00000d56   Code   RO          262    .text               gd32f10x_timer.o
    0x080052f6   0x080052f6   0x00000002   PAD
    0x080052f8   0x080052f8   0x00000368   Code   RO          271    .text               gd32f10x_usart.o
    0x08005660   0x08005660   0x00000024   Code   RO          290    .text               startup_gd32f10x_hd.o
    0x08005684   0x08005684   0x00000166   Code   RO          296    .text               system_gd32f10x.o
    0x080057ea   0x080057ea   0x000000b0   Code   RO          308    .text               mf_w.l(fadd.o)
    0x0800589a   0x0800589a   0x00000064   Code   RO          310    .text               mf_w.l(fmul.o)
    0x080058fe   0x080058fe   0x0000007c   Code   RO          312    .text               mf_w.l(fdiv.o)
    0x0800597a   0x0800597a   0x0000014e   Code   RO          314    .text               mf_w.l(dadd.o)
    0x08005ac8   0x08005ac8   0x000000e4   Code   RO          316    .text               mf_w.l(dmul.o)
    0x08005bac   0x08005bac   0x000000de   Code   RO          318    .text               mf_w.l(ddiv.o)
    0x08005c8a   0x08005c8a   0x0000001c   Code   RO          320    .text               mf_w.l(fcmple.o)
    0x08005ca6   0x08005ca6   0x0000001c   Code   RO          322    .text               mf_w.l(fcmplt.o)
    0x08005cc2   0x08005cc2   0x0000001c   Code   RO          324    .text               mf_w.l(fcmpge.o)
    0x08005cde   0x08005cde   0x0000001c   Code   RO          326    .text               mf_w.l(fcmpgt.o)
    0x08005cfa   0x08005cfa   0x00000036   Code   RO          328    .text               mf_w.l(dcmple.o)
    0x08005d30   0x08005d30   0x00000012   Code   RO          330    .text               mf_w.l(fflti.o)
    0x08005d42   0x08005d42   0x0000000a   Code   RO          332    .text               mf_w.l(ffltui.o)
    0x08005d4c   0x08005d4c   0x00000022   Code   RO          334    .text               mf_w.l(dflti.o)
    0x08005d6e   0x08005d6e   0x0000001a   Code   RO          336    .text               mf_w.l(dfltui.o)
    0x08005d88   0x08005d88   0x00000032   Code   RO          338    .text               mf_w.l(ffixi.o)
    0x08005dba   0x08005dba   0x0000003e   Code   RO          340    .text               mf_w.l(dfixi.o)
    0x08005df8   0x08005df8   0x00000026   Code   RO          342    .text               mf_w.l(f2d.o)
    0x08005e1e   0x08005e1e   0x00000038   Code   RO          344    .text               mf_w.l(d2f.o)
    0x08005e56   0x08005e56   0x0000001e   Code   RO          360    .text               mc_w.l(llshl.o)
    0x08005e74   0x08005e74   0x00000020   Code   RO          362    .text               mc_w.l(llushr.o)
    0x08005e94   0x08005e94   0x00000024   Code   RO          364    .text               mc_w.l(llsshr.o)
    0x08005eb8   0x08005eb8   0x00000000   Code   RO          366    .text               mc_w.l(iusefp.o)
    0x08005eb8   0x08005eb8   0x0000006e   Code   RO          367    .text               mf_w.l(fepilogue.o)
    0x08005f26   0x08005f26   0x000000ba   Code   RO          369    .text               mf_w.l(depilogue.o)
    0x08005fe0   0x08005fe0   0x00000030   Code   RO          371    .text               mc_w.l(init.o)
    0x08006010   0x08006010   0x0000000e   Code   RO          375    i.__scatterload_copy  mc_w.l(handlers.o)
    0x0800601e   0x0800601e   0x00000002   Code   RO          376    i.__scatterload_null  mc_w.l(handlers.o)
    0x08006020   0x08006020   0x0000000e   Code   RO          377    i.__scatterload_zeroinit  mc_w.l(handlers.o)
    0x0800602e   0x0800602e   0x0000000c   Data   RO           46    .rodata..L__const.up_or_down.up_down  bldc.o
    0x0800603a   0x0800603a   0x00000008   Data   RO           85    .rodata.cst8        bldcsine.o
    0x08006042   0x08006042   0x00000008   Data   RO          255    .rodata.cst8        gd32f10x_rcu.o
    0x0800604a   0x0800604a   0x00000008   Data   RO           47    .rodata.hall_to_pos  bldc.o
    0x08006052   0x08006052   0x00000002   PAD
    0x08006054   0x08006054   0x000002d4   Data   RO           15    .rodata.lookUpTableAngle  main.o
    0x08006328   0x08006328   0x000002d0   Data   RO           88    .rodata.sine_table  bldcsine.o
    0x080065f8   0x080065f8   0x00000020   Data   RO          374    Region$$Table       anon$$obj.o


    Execution Region RW_IRAM1 (Exec base: 0x20000000, Load base: 0x08006618, Size: 0x000021a0, Max: 0x00005000, ABSOLUTE)

    Exec Addr    Load Addr    Size         Type   Attr      Idx    E Section Name        Object

    0x20000000   0x08006618   0x00000004   Data   RW          298    .data.SystemCoreClock  system_gd32f10x.o
    0x20000004   0x0800661c   0x00000004   Data   RW           30    .data.batteryVoltage  bldc.o
    0x20000008   0x08006620   0x00000001   Data   RW           12    .data.beepsBackwards  main.o
    0x20000009   0x08006621   0x00000003   PAD
    0x2000000c   0x08006624   0x00000004   Data   RW           31    .data.currentDC     bldc.o
    0x20000010   0x08006628   0x00000001   Data   RW           37    .data.iFILTER_SHIFT  bldc.o
    0x20000011   0x08006629   0x00000001   PAD
    0x20000012   0x0800662a   0x00000002   Data   RW          149    .data.iReceivePos   remoteuart.o
    0x20000014   0x0800662c   0x00000002   Data   RW          165    .data.iReceivePos   commsmasterslave.o
    0x20000016   0x0800662e   0x00000002   Data   RW           40    .data.offsetdc      bldc.o
    0x20000018   0x08006630   0x00000002   Data   RW            7    .data.speedLimit    main.o
    0x2000001a   0x08006632   0x00000001   Data   RW            8    .data.wState        main.o
    0x2000001b   0x08006633   0x00000001   Data   RW            9    .data.wStateSlave   main.o
    0x2000001c   0x08006634   0x00000004   PAD
    0x20000020        -       0x00000009   Zero   RW          150    .bss.aReceiveBuffer  remoteuart.o
    0x20000029        -       0x00000010   Zero   RW          166    .bss.aReceiveBuffer  commsmasterslave.o
    0x20000039   0x08006634   0x00000001   PAD
    0x2000003a        -       0x00000004   Zero   RW           49    .bss.adc_buffer     bldc.o
    0x2000003e   0x08006634   0x00000002   PAD
    0x20000040        -       0x00000004   Zero   RW           69    .bss.angle_deg      bldcsine.o
    0x20000044        -       0x00000004   Zero   RW           70    .bss.angle_deg_add  bldcsine.o
    0x20000048        -       0x00000004   Zero   RW           71    .bss.angle_deg_final  bldcsine.o
    0x2000004c        -       0x00000002   Zero   RW           72    .bss.angle_idx      bldcsine.o
    0x2000004e        -       0x00000001   Zero   RW           78    .bss.bInterrupt     bldcsine.o
    0x2000004f        -       0x00000001   Zero   RW           34    .bss.bldc_enable    bldc.o
    0x20000050        -       0x00000002   Zero   RW           33    .bss.bldc_inputFilterPwm  bldc.o
    0x20000052        -       0x00000002   Zero   RW           36    .bss.bldc_outputFilterPwm  bldc.o
    0x20000054        -       0x00000001   Zero   RW           43    .bss.buzzerFreq     bldc.o
    0x20000055        -       0x00000001   Zero   RW           44    .bss.buzzerPattern  bldc.o
    0x20000056        -       0x00000002   Zero   RW           38    .bss.buzzerTimer    bldc.o
    0x20000058        -       0x00000001   Zero   RW           42    .bss.buzzerToggle   bldc.o
    0x20000059   0x08006634   0x00000003   PAD
    0x2000005c        -       0x0000001c   Zero   RW          102    .bss.dma_init_struct_adc  setup.o
    0x20000078        -       0x0000001c   Zero   RW          103    .bss.dma_init_struct_usart  setup.o
    0x20000094        -       0x00000001   Zero   RW           16    .bss.enable         main.o
    0x20000095   0x08006634   0x00000003   PAD
    0x20000098        -       0x00000004   Zero   RW           68    .bss.fDT            bldcsine.o
    0x2000009c        -       0x00000004   Zero   RW           82    .bss.fGradient      bldcsine.o
    0x200000a0        -       0x00000004   Zero   RW           83    .bss.fGradientX     bldcsine.o
    0x200000a4        -       0x00000004   Zero   RW           48    .bss.filter_reg     bldc.o
    0x200000a8        -       0x00000001   Zero   RW           35    .bss.hall           bldc.o
    0x200000a9        -       0x00000001   Zero   RW           50    .bss.hall_a         bldc.o
    0x200000aa        -       0x00000001   Zero   RW           51    .bss.hall_b         bldc.o
    0x200000ab        -       0x00000001   Zero   RW           52    .bss.hall_c         bldc.o
    0x200000ac        -       0x00000001   Zero   RW           81    .bss.hall_last      bldcsine.o
    0x200000ad   0x08006634   0x00000001   PAD
    0x200000ae        -       0x00000002   Zero   RW           79    .bss.hall_time_last  bldcsine.o
    0x200000b0        -       0x00000002   Zero   RW           80    .bss.hall_time_step  bldcsine.o
    0x200000b2   0x08006634   0x00000002   PAD
    0x200000b4        -       0x00000004   Zero   RW           87    .bss.hall_time_step_LP  bldcsine.o
    0x200000b8        -       0x00000004   Zero   RW           86    .bss.hall_time_step_LPR  bldcsine.o
    0x200000bc        -       0x00000004   Zero   RW          125    .bss.iAdcCounter    it.o
    0x200000c0        -       0x00000004   Zero   RW          123    .bss.iAdcTicks      it.o
    0x200000c4        -       0x00000004   Zero   RW          124    .bss.iAdcTicks0     it.o
    0x200000c8        -       0x00000004   Zero   RW            3    .bss.iBug           main.o
    0x200000cc        -       0x00000004   Zero   RW          127    .bss.iCounter2Usart0  it.o
    0x200000d0        -       0x00000004   Zero   RW          129    .bss.iCounter2Usart2  it.o
    0x200000d4        -       0x00000004   Zero   RW          126    .bss.iCounterUsart0  it.o
    0x200000d8        -       0x00000004   Zero   RW          128    .bss.iCounterUsart2  it.o
    0x200000dc        -       0x00000002   Zero   RW           84    .bss.iDT            bldcsine.o
    0x200000de        -       0x00000002   Zero   RW           75    .bss.iExti0         bldcsine.o
    0x200000e0        -       0x00000002   Zero   RW           76    .bss.iExti1         bldcsine.o
    0x200000e2        -       0x00000002   Zero   RW           77    .bss.iExti2         bldcsine.o
    0x200000e4        -       0x00000004   Zero   RW           45    .bss.iOdom          bldc.o
    0x200000e8        -       0x00000004   Zero   RW          122    .bss.iPwmCounter    it.o
    0x200000ec        -       0x00000004   Zero   RW          120    .bss.iPwmTicks      it.o
    0x200000f0        -       0x00000004   Zero   RW          121    .bss.iPwmTicks0     it.o
    0x200000f4        -       0x00000004   Zero   RW          147    .bss.iTimeLastRx    remoteuart.o
    0x200000f8        -       0x00000004   Zero   RW           18    .bss.iTimeNextLoop  main.o
    0x200000fc        -       0x00000004   Zero   RW          148    .bss.iTimeNextTx    remoteuart.o
    0x20000100        -       0x00000004   Zero   RW           14    .bss.inactivity_timeout_counter  main.o
    0x20000104        -       0x00000001   Zero   RW           54    .bss.lastPos        bldc.o
    0x20000105   0x08006634   0x00000003   PAD
    0x20000108        -       0x00000004   Zero   RW          119    .bss.msTicks        it.o
    0x2000010c        -       0x00000012   Zero   RW          106    .bss.oConfig        setup.o
    0x2000011e   0x08006634   0x00000002   PAD
    0x20000120        -       0x00000010   Zero   RW           19    .bss.oDataSlave     main.o
    0x20000130        -       0x00000002   Zero   RW           39    .bss.offsetcount    bldc.o
    0x20000132        -       0x00000001   Zero   RW           53    .bss.pos            bldc.o
    0x20000133   0x08006634   0x00000001   PAD
    0x20000134        -       0x00000004   Zero   RW           73    .bss.pwmGo          bldcsine.o
    0x20000138        -       0x00000002   Zero   RW           17    .bss.pwmSlave       main.o
    0x2000013a   0x08006634   0x00000002   PAD
    0x2000013c        -       0x00000004   Zero   RW           32    .bss.realSpeed      bldc.o
    0x20000140        -       0x00000001   Zero   RW           66    .bss.sector         bldcsine.o
    0x20000141        -       0x00000001   Zero   RW           67    .bss.sector10x      bldcsine.o
    0x20000142        -       0x00000001   Zero   RW           65    .bss.sectorChange   bldcsine.o
    0x20000143   0x08006634   0x00000001   PAD
    0x20000144        -       0x00000004   Zero   RW            5    .bss.speed          main.o
    0x20000148        -       0x00000004   Zero   RW           41    .bss.speedCounter   bldc.o
    0x2000014c        -       0x00000004   Zero   RW            6    .bss.speedShutoff   main.o
    0x20000150        -       0x00000004   Zero   RW           10    .bss.steer          main.o
    0x20000154        -       0x00000004   Zero   RW            4    .bss.steerCounter   main.o
    0x20000158        -       0x00000001   Zero   RW          118    .bss.timedOut       it.o
    0x20000159   0x08006634   0x00000003   PAD
    0x2000015c        -       0x00000004   Zero   RW          117    .bss.timeoutCounter_ms  it.o
    0x20000160        -       0x00000010   Zero   RW           98    .bss.timeoutTimer_paramter_struct  setup.o
    0x20000170        -       0x0000000e   Zero   RW          101    .bss.timerBldc_break_parameter_struct  setup.o
    0x2000017e        -       0x0000000c   Zero   RW          100    .bss.timerBldc_oc_parameter_struct  setup.o
    0x2000018a   0x08006634   0x00000002   PAD
    0x2000018c        -       0x00000010   Zero   RW           99    .bss.timerBldc_paramter_struct  setup.o
    0x2000019c        -       0x00000001   Zero   RW          104    .bss.usart0_rx_buf  setup.o
    0x2000019d        -       0x00000001   Zero   RW          105    .bss.usart2_rx_buf  setup.o
    0x2000019e   0x08006634   0x00000002   PAD
    0x200001a0        -       0x00002000   Zero   RW          287    STACK               startup_gd32f10x_hd.o


==============================================================================

Image component sizes


      Code (inc. data)   RO Data    RW Data    ZI Data      Debug   Object Name

      1298          0         20         11         38       3933   bldc.o
      1574          0        728          0         55       6746   bldcsine.o
       124          0          0          0          0       1861   comms.o
       234          0          0          2         16       2077   commsmasterslave.o
      1168         12          0          0          0       8244   gd32f10x_adc.o
      1026          0          0          0          0       7161   gd32f10x_dma.o
       362          0          0          0          0       3103   gd32f10x_exti.o
      4148          0          0          0          0      20412   gd32f10x_fmc.o
       182          0          0          0          0       1773   gd32f10x_fwdgt.o
       636          0          0          0          0       5053   gd32f10x_gpio.o
       232          0          0          0          0       3268   gd32f10x_misc.o
      1496         20          8          0          0      11583   gd32f10x_rcu.o
      3414         40          0          0          0      18238   gd32f10x_timer.o
       872          0          0          0          0       8444   gd32f10x_usart.o
       534          0          0          0         49       3039   it.o
      1968          0        724          5         47       7446   main.o
       426          0          0          2         17       1797   remoteuart.o
      2074          0          0          0        134       9099   setup.o
        36          8        304          0       8192        852   startup_gd32f10x_hd.o
       358          0          0          4          0       1467   system_gd32f10x.o

    ----------------------------------------------------------------------
     22182         80       1818         28       8580     125596   Object Totals
         0          0         32          0          0          0   (incl. Generated)
        20          0          2          4         32          0   (incl. Padding)

    ----------------------------------------------------------------------

      Code (inc. data)   RO Data    RW Data    ZI Data      Debug   Library Member Name

         0          0          0          0          0          0   entry.o
         0          0          0          0          0          0   entry10a.o
         0          0          0          0          0          0   entry11a.o
         8          4          0          0          0          0   entry2.o
         4          0          0          0          0          0   entry5.o
         0          0          0          0          0          0   entry7b.o
         0          0          0          0          0          0   entry8b.o
         8          4          0          0          0          0   entry9a.o
        30          0          0          0          0          0   handlers.o
        48         10          0          0          0         68   init.o
         0          0          0          0          0          0   iusefp.o
        30          0          0          0          0         68   llshl.o
        36          0          0          0          0         68   llsshr.o
        32          0          0          0          0         68   llushr.o
        56          0          0          0          0         88   d2f.o
       334          0          0          0          0        148   dadd.o
        54          0          0          0          0         80   dcmple.o
       222          0          0          0          0        100   ddiv.o
       186          0          0          0          0        176   depilogue.o
        62          0          0          0          0         80   dfixi.o
        34          0          0          0          0         76   dflti.o
        26          0          0          0          0         76   dfltui.o
       228          0          0          0          0         96   dmul.o
        38          0          0          0          0         68   f2d.o
       176          0          0          0          0        140   fadd.o
        28          0          0          0          0         68   fcmpge.o
        28          0          0          0          0         68   fcmpgt.o
        28          0          0          0          0         68   fcmple.o
        28          0          0          0          0         68   fcmplt.o
       124          0          0          0          0         88   fdiv.o
       110          0          0          0          0        168   fepilogue.o
        50          0          0          0          0         68   ffixi.o
        18          0          0          0          0         68   fflti.o
        10          0          0          0          0         68   ffltui.o
       100          0          0          0          0         76   fmul.o

    ----------------------------------------------------------------------
      2136         18          0          0          0       2208   Library Totals
         0          0          0          0          0          0   (incl. Padding)

    ----------------------------------------------------------------------

      Code (inc. data)   RO Data    RW Data    ZI Data      Debug   Library Name

       196         18          0          0          0        272   mc_w.l
      1940          0          0          0          0       1936   mf_w.l

    ----------------------------------------------------------------------
      2136         18          0          0          0       2208   Library Totals

    ----------------------------------------------------------------------

==============================================================================


      Code (inc. data)   RO Data    RW Data    ZI Data      Debug   

     24318         98       1818         28       8580     126452   Grand Totals
     24318         98       1818         28       8580     126452   ELF Image Totals
     24318         98       1818         28          0          0   ROM Totals

==============================================================================

    Total RO  Size (Code + RO Data)                26136 (  25.52kB)
    Total RW  Size (RW Data + ZI Data)              8608 (   8.41kB)
    Total ROM Size (Code + RO Data + RW Data)      26164 (  25.55kB)

==============================================================================

