Component: Arm Compiler for Embedded 6.19 Tool: armlink [5e73cb00]

==============================================================================

Section Cross References

    main.o(.text) refers to remoteautodetect.o(.text) for AutodetectInit
    main.o(.text) refers to system_gd32f1x0.o(.text) for SystemCoreClockUpdate
    main.o(.text) refers to system_gd32f1x0.o(.data.SystemCoreClock) for SystemCoreClock
    main.o(.text) refers to setup.o(.text) for Watchdog_init
    main.o(.text) refers to main.o(.bss.iTimeNextLoop) for iTimeNextLoop
    main.o(.text) refers to main.o(.bss.steerCounter) for steerCounter
    main.o(.text) refers to gd32f1x0_fwdgt.o(.text) for fwdgt_counter_reload
    main.o(.text) refers to it.o(.text) for millis
    main.o(.text) refers to bldc.o(.text) for SetEnable
    main.o(.ARM.exidx) refers to main.o(.text) for [Anonymous Symbol]
    bldc.o(.text) refers to bldc.o(.rodata..L__const.up_or_down.up_down) for .L__const.up_or_down.up_down
    bldc.o(.text) refers to bldc.o(.bss.bldc_enable) for bldc_enable
    bldc.o(.text) refers to dflti.o(.text) for __aeabi_i2d
    bldc.o(.text) refers to dmul.o(.text) for __aeabi_dmul
    bldc.o(.text) refers to dcmplt.o(.text) for __aeabi_dcmplt
    bldc.o(.text) refers to dfixi.o(.text) for __aeabi_d2iz
    bldc.o(.text) refers to bldc.o(.bss.bldc_inputFilterPwm) for bldc_inputFilterPwm
    bldc.o(.text) refers to bldc.o(.bss.buzzerTimer) for buzzerTimer
    bldc.o(.text) refers to bldc.o(.data.currentDC) for currentDC
    bldc.o(.text) refers to fcmpgt.o(.text) for __aeabi_fcmpgt
    bldc.o(.text) refers to it.o(.bss.timedOut) for timedOut
    bldc.o(.text) refers to gd32f1x0_timer.o(.text) for timer_automatic_output_enable
    bldc.o(.text) refers to remoteautodetect.o(.data.HALL_A) for HALL_A
    bldc.o(.text) refers to gd32f1x0_gpio.o(.text) for gpio_input_bit_get
    bldc.o(.text) refers to remoteautodetect.o(.data.HALL_B) for HALL_B
    bldc.o(.text) refers to bldc.o(.bss.hall_a) for hall_a
    bldc.o(.text) refers to remoteautodetect.o(.data.HALL_C) for HALL_C
    bldc.o(.text) refers to bldc.o(.bss.hall_b) for hall_b
    bldc.o(.text) refers to bldc.o(.bss.hall_c) for hall_c
    bldc.o(.text) refers to bldc.o(.rodata.hall_to_pos) for hall_to_pos
    bldc.o(.text) refers to bldc.o(.bss.hall) for hall
    bldc.o(.text) refers to remoteautodetect.o(.text) for AutodetectBldc
    bldc.o(.text) refers to bldc.o(.bss.pos) for pos
    bldc.o(.text) refers to bldc.o(.bss.filter_reg) for filter_reg
    bldc.o(.text) refers to bldc.o(.bss.bldc_outputFilterPwm) for bldc_outputFilterPwm
    bldc.o(.text) refers to bldc.o(.bss.lastPos) for lastPos
    bldc.o(.text) refers to bldc.o(.bss.iOdom) for iOdom
    bldc.o(.text) refers to bldc.o(.bss.speedCounter) for speedCounter
    bldc.o(.text) refers to ffltui.o(.text) for __aeabi_ui2f
    bldc.o(.text) refers to fdiv.o(.text) for __aeabi_fdiv
    bldc.o(.text) refers to bldc.o(.bss.realSpeed) for realSpeed
    bldc.o(.ARM.exidx) refers to bldc.o(.text) for [Anonymous Symbol]
    setup.o(.text) refers to gd32f1x0_gpio.o(.text) for gpio_mode_set
    setup.o(.text) refers to gd32f1x0_misc.o(.text) for nvic_priority_group_set
    setup.o(.text) refers to gd32f1x0_rcu.o(.text) for rcu_flag_get
    setup.o(.text) refers to gd32f1x0_fwdgt.o(.text) for fwdgt_config
    setup.o(.text) refers to gd32f1x0_timer.o(.text) for timer_deinit
    setup.o(.text) refers to setup.o(.bss.timeoutTimer_paramter_struct) for timeoutTimer_paramter_struct
    setup.o(.text) refers to setup.o(.bss.timerBldc_paramter_struct) for timerBldc_paramter_struct
    setup.o(.text) refers to setup.o(.bss.timerBldc_oc_parameter_struct) for timerBldc_oc_parameter_struct
    setup.o(.text) refers to setup.o(.bss.timerBldc_break_parameter_struct) for timerBldc_break_parameter_struct
    setup.o(.text) refers to gd32f1x0_dma.o(.text) for dma_deinit
    setup.o(.text) refers to setup.o(.bss.dma_init_struct_adc) for dma_init_struct_adc
    setup.o(.text) refers to bldc.o(.bss.adc_buffer) for adc_buffer
    setup.o(.text) refers to gd32f1x0_adc.o(.text) for adc_channel_length_config
    setup.o(.text) refers to gd32f1x0_usart.o(.text) for usart_baudrate_set
    setup.o(.text) refers to setup.o(.bss.dma_init_struct_usart) for dma_init_struct_usart
    setup.o(.text) refers to setup.o(.bss.usart0_rx_buf) for usart0_rx_buf
    setup.o(.ARM.exidx) refers to setup.o(.text) for [Anonymous Symbol]
    it.o(.text) refers to it.o(.bss.msTicks) for msTicks
    it.o(.text) refers to it.o(.bss.timeoutCounter_ms) for timeoutCounter_ms
    it.o(.text) refers to it.o(.bss.timedOut) for timedOut
    it.o(.text) refers to bldc.o(.text) for SetPWM
    it.o(.text) refers to gd32f1x0_timer.o(.text) for timer_interrupt_flag_clear
    it.o(.text) refers to gd32f1x0_adc.o(.text) for adc_software_trigger_enable
    it.o(.text) refers to gd32f1x0_dma.o(.text) for dma_interrupt_flag_get
    it.o(.text) refers to remoteautodetect.o(.text) for RemoteCallback
    it.o(.ARM.exidx) refers to it.o(.text) for [Anonymous Symbol]
    commsmasterslave.o(.text) refers to gd32f1x0_usart.o(.text) for usart_data_transmit
    commsmasterslave.o(.text) refers to commsmasterslave.o(.bss.beepsBackwardsMaster) for beepsBackwardsMaster
    commsmasterslave.o(.ARM.exidx) refers to commsmasterslave.o(.text) for [Anonymous Symbol]
    remoteautodetect.o(.text) refers to remoteautodetect.o(.data.aoPin) for aoPin
    remoteautodetect.o(.text) refers to remoteautodetect.o(.data.sTodoPin) for sTodoPin
    remoteautodetect.o(.text) refers to remoteautodetect.o(.bss.bMessageWait) for bMessageWait
    remoteautodetect.o(.text) refers to remoteautodetect.o(.bss.sMessage) for sMessage
    remoteautodetect.o(.text) refers to remoteautodetect.o(.data.asScan) for asScan
    remoteautodetect.o(.text) refers to remoteautodetect.o(.rodata.str1.1) for .L.str.51
    remoteautodetect.o(.text) refers to printfa.o(i.__0sprintf) for __2sprintf
    remoteautodetect.o(.text) refers to remoteautodetect.o(.bss.aiPinScan) for aiPinScan
    remoteautodetect.o(.text) refers to remoteautodetect.o(.data.oDataHeader) for oDataHeader
    remoteautodetect.o(.text) refers to main.o(.bss.steer) for steer
    remoteautodetect.o(.text) refers to commsmasterslave.o(.text) for SendBuffer
    remoteautodetect.o(.text) refers to strlen.o(.text) for strlen
    remoteautodetect.o(.text) refers to setup.o(.bss.usart0_rx_buf) for usart0_rx_buf
    remoteautodetect.o(.text) refers to remoteautodetect.o(.bss.iSerialHoverType) for iSerialHoverType
    remoteautodetect.o(.text) refers to remoteautodetect.o(.bss.iBufferData) for iBufferData
    remoteautodetect.o(.text) refers to remoteautodetect.o(.bss.aBufferData) for aBufferData
    remoteautodetect.o(.text) refers to remoteautodetect.o(.bss.oHeaderRx) for oHeaderRx
    remoteautodetect.o(.text) refers to memcpya.o(.text) for __aeabi_memcpy
    remoteautodetect.o(.text) refers to remoteautodetect.o(.data.wMenuStage) for wMenuStage
    remoteautodetect.o(.text) refers to remoteautodetect.o(.data.cRxLast) for cRxLast
    remoteautodetect.o(.text) refers to remoteautodetect.o(.bss.cCommand) for cCommand
    remoteautodetect.o(.text) refers to remoteautodetect.o(.bss.iPhaseCurrent) for iPhaseCurrent
    remoteautodetect.o(.text) refers to remoteautodetect.o(.bss.iRepeat) for iRepeat
    remoteautodetect.o(.text) refers to remoteautodetect.o(.bss.iTest) for iTest
    remoteautodetect.o(.text) refers to remoteautodetect.o(.bss.iTestPin) for iTestPin
    remoteautodetect.o(.text) refers to it.o(.bss.msTicks) for msTicks
    remoteautodetect.o(.text) refers to remoteautodetect.o(.data.wStage) for wStage
    remoteautodetect.o(.text) refers to remoteautodetect.o(.bss.msTicksWait) for msTicksWait
    remoteautodetect.o(.text) refers to remoteautodetect.o(.bss.bReturnToMenu) for bReturnToMenu
    remoteautodetect.o(.text) refers to setup.o(.text) for pinModePull
    remoteautodetect.o(.text) refers to remoteautodetect.o(.data.iHoldAutofind) for iHoldAutofind
    remoteautodetect.o(.text) refers to remoteautodetect.o(.data.iVBatMinTest) for iVBatMinTest
    remoteautodetect.o(.text) refers to gd32f1x0_adc.o(.text) for adc_regular_channel_config
    remoteautodetect.o(.text) refers to remoteautodetect.o(.bss.msTicksTestNext) for msTicksTestNext
    remoteautodetect.o(.text) refers to remoteautodetect.o(.bss.iAverage) for iAverage
    remoteautodetect.o(.text) refers to remoteautodetect.o(.bss.fVBattOld) for fVBattOld
    remoteautodetect.o(.text) refers to bldc.o(.text) for SetPWM
    remoteautodetect.o(.text) refers to gd32f1x0_gpio.o(.text) for gpio_bit_write
    remoteautodetect.o(.text) refers to remoteautodetect.o(.data.wStageOld) for wStageOld
    remoteautodetect.o(.text) refers to remoteautodetect.o(.bss.msTicksTest) for msTicksTest
    remoteautodetect.o(.text) refers to memseta.o(.text) for __aeabi_memclr4
    remoteautodetect.o(.text) refers to remoteautodetect.o(.bss.bWait4Enter) for bWait4Enter
    remoteautodetect.o(.text) refers to remoteautodetect.o(.data.iTestStart) for iTestStart
    remoteautodetect.o(.text) refers to remoteautodetect.o(.bss.iOffsetDC) for iOffsetDC
    remoteautodetect.o(.text) refers to remoteautodetect.o(.bss.fVBatt) for fVBatt
    remoteautodetect.o(.text) refers to f2d.o(.text) for __aeabi_f2d
    remoteautodetect.o(.text) refers to bldc.o(.bss.adc_buffer) for adc_buffer
    remoteautodetect.o(.text) refers to dfltui.o(.text) for __aeabi_ui2d
    remoteautodetect.o(.text) refers to dmul.o(.text) for __aeabi_dmul
    remoteautodetect.o(.text) refers to dadd.o(.text) for __aeabi_dadd
    remoteautodetect.o(.text) refers to d2f.o(.text) for __aeabi_d2f
    remoteautodetect.o(.text) refers to fcmpeq.o(.text) for __aeabi_fcmpeq
    remoteautodetect.o(.text) refers to remoteautodetect.o(.rodata.str1.4) for .L.str.57
    remoteautodetect.o(.text) refers to remoteautodetect.o(.data.asStage) for asStage
    remoteautodetect.o(.text) refers to dflti.o(.text) for __aeabi_i2d
    remoteautodetect.o(.text) refers to remoteautodetect.o(.bss.fCurrentDC) for fCurrentDC
    remoteautodetect.o(.text) refers to fcmpge.o(.text) for __aeabi_fcmpge
    remoteautodetect.o(.text) refers to fcmple.o(.text) for __aeabi_fcmple
    remoteautodetect.o(.text) refers to fadd.o(.text) for __aeabi_fsub
    remoteautodetect.o(.text) refers to remoteautodetect.o(.data.fVBattFound) for fVBattFound
    remoteautodetect.o(.text) refers to remoteautodetect.o(.data.iAverageMax) for iAverageMax
    remoteautodetect.o(.text) refers to remoteautodetect.o(.bss.msTicksOld) for msTicksOld
    remoteautodetect.o(.text) refers to remoteautodetect.o(.data.aHallOrder) for aHallOrder
    remoteautodetect.o(.text) refers to remoteautodetect.o(.data.HALL_A) for HALL_A
    remoteautodetect.o(.text) refers to remoteautodetect.o(.data.HALL_B) for HALL_B
    remoteautodetect.o(.text) refers to remoteautodetect.o(.data.HALL_C) for HALL_C
    remoteautodetect.o(.text) refers to ffixi.o(.text) for __aeabi_f2iz
    remoteautodetect.o(.text) refers to remoteautodetect.o(.bss.msTicksAuto) for msTicksAuto
    remoteautodetect.o(.text) refers to remoteautodetect.o(.data.posAuto) for posAuto
    remoteautodetect.o(.text) refers to remoteautodetect.o(.bss.posOld) for posOld
    remoteautodetect.o(.text) refers to remoteautodetect.o(.data.bHallOld) for bHallOld
    remoteautodetect.o(.text) refers to remoteautodetect.o(.bss.iHallStagesCompleted) for iHallStagesCompleted
    remoteautodetect.o(.ARM.exidx) refers to remoteautodetect.o(.text) for [Anonymous Symbol]
    remoteautodetect.o(.data.aoPin) refers to remoteautodetect.o(.rodata.str1.1) for [Anonymous Symbol]
    remoteautodetect.o(.data.asScan) refers to remoteautodetect.o(.rodata.str1.1) for [Anonymous Symbol]
    remoteautodetect.o(.data.sTodoPin) refers to remoteautodetect.o(.rodata.str1.1) for [Anonymous Symbol]
    gd32f1x0_adc.o(.text) refers to gd32f1x0_rcu.o(.text) for rcu_periph_reset_enable
    gd32f1x0_adc.o(.ARM.exidx) refers to gd32f1x0_adc.o(.text) for [Anonymous Symbol]
    gd32f1x0_dbg.o(.ARM.exidx) refers to gd32f1x0_dbg.o(.text) for [Anonymous Symbol]
    gd32f1x0_dma.o(.ARM.exidx) refers to gd32f1x0_dma.o(.text) for [Anonymous Symbol]
    gd32f1x0_fwdgt.o(.ARM.exidx) refers to gd32f1x0_fwdgt.o(.text) for [Anonymous Symbol]
    gd32f1x0_gpio.o(.text) refers to gd32f1x0_gpio.o(.rodata..Lswitch.table.gpio_deinit.1) for .Lswitch.table.gpio_deinit.1
    gd32f1x0_gpio.o(.text) refers to gd32f1x0_rcu.o(.text) for rcu_periph_reset_enable
    gd32f1x0_gpio.o(.ARM.exidx) refers to gd32f1x0_gpio.o(.text) for [Anonymous Symbol]
    gd32f1x0_i2c.o(.text) refers to gd32f1x0_rcu.o(.text) for rcu_periph_reset_enable
    gd32f1x0_i2c.o(.ARM.exidx) refers to gd32f1x0_i2c.o(.text) for [Anonymous Symbol]
    gd32f1x0_misc.o(.ARM.exidx) refers to gd32f1x0_misc.o(.text) for [Anonymous Symbol]
    gd32f1x0_pmu.o(.text) refers to gd32f1x0_rcu.o(.text) for rcu_periph_reset_enable
    gd32f1x0_pmu.o(.text) refers to gd32f1x0_pmu.o(.bss.pmu_to_deepsleepmode.reg_snap.1) for pmu_to_deepsleepmode.reg_snap.1
    gd32f1x0_pmu.o(.text) refers to gd32f1x0_pmu.o(.bss.pmu_to_deepsleepmode.reg_snap.0) for pmu_to_deepsleepmode.reg_snap.0
    gd32f1x0_pmu.o(.text) refers to gd32f1x0_pmu.o(.bss.pmu_to_deepsleepmode.reg_snap.2) for pmu_to_deepsleepmode.reg_snap.2
    gd32f1x0_pmu.o(.text) refers to gd32f1x0_pmu.o(.bss.pmu_to_deepsleepmode.reg_snap.3) for pmu_to_deepsleepmode.reg_snap.3
    gd32f1x0_pmu.o(.ARM.exidx) refers to gd32f1x0_pmu.o(.text) for [Anonymous Symbol]
    gd32f1x0_rcu.o(.text) refers to gd32f1x0_rcu.o(.rodata.cst8) for .L__const.rcu_clock_freq_get.apb2_exp
    gd32f1x0_rcu.o(.ARM.exidx) refers to gd32f1x0_rcu.o(.text) for [Anonymous Symbol]
    gd32f1x0_syscfg.o(.text) refers to gd32f1x0_rcu.o(.text) for rcu_periph_reset_enable
    gd32f1x0_syscfg.o(.ARM.exidx) refers to gd32f1x0_syscfg.o(.text) for [Anonymous Symbol]
    gd32f1x0_timer.o(.text) refers to gd32f1x0_rcu.o(.text) for rcu_periph_reset_enable
    gd32f1x0_timer.o(.ARM.exidx) refers to gd32f1x0_timer.o(.text) for [Anonymous Symbol]
    gd32f1x0_usart.o(.text) refers to gd32f1x0_rcu.o(.text) for rcu_periph_reset_enable
    gd32f1x0_usart.o(.ARM.exidx) refers to gd32f1x0_usart.o(.text) for [Anonymous Symbol]
    gd32f1x0_wwdgt.o(.text) refers to gd32f1x0_rcu.o(.text) for rcu_periph_reset_enable
    gd32f1x0_wwdgt.o(.ARM.exidx) refers to gd32f1x0_wwdgt.o(.text) for [Anonymous Symbol]
    startup_gd32f1x0.o(RESET) refers to startup_gd32f1x0.o(STACK) for __initial_sp
    startup_gd32f1x0.o(RESET) refers to startup_gd32f1x0.o(.text) for Reset_Handler
    startup_gd32f1x0.o(RESET) refers to it.o(.text) for NMI_Handler
    startup_gd32f1x0.o(.text) refers to system_gd32f1x0.o(.text) for SystemInit
    startup_gd32f1x0.o(.text) refers to entry.o(.ARM.Collect$$$$00000000) for __main
    system_gd32f1x0.o(.text) refers to system_gd32f1x0.o(.data.SystemCoreClock) for SystemCoreClock
    system_gd32f1x0.o(.ARM.exidx) refers to system_gd32f1x0.o(.text) for [Anonymous Symbol]
    entry.o(.ARM.Collect$$$$00000000) refers (Special) to entry10a.o(.ARM.Collect$$$$0000000D) for __rt_final_cpp
    entry.o(.ARM.Collect$$$$00000000) refers (Special) to entry11a.o(.ARM.Collect$$$$0000000F) for __rt_final_exit
    entry.o(.ARM.Collect$$$$00000000) refers (Special) to entry7b.o(.ARM.Collect$$$$00000008) for _main_clock
    entry.o(.ARM.Collect$$$$00000000) refers (Special) to entry8b.o(.ARM.Collect$$$$0000000A) for _main_cpp_init
    entry.o(.ARM.Collect$$$$00000000) refers (Special) to entry9a.o(.ARM.Collect$$$$0000000B) for _main_init
    entry.o(.ARM.Collect$$$$00000000) refers (Special) to entry5.o(.ARM.Collect$$$$00000004) for _main_scatterload
    entry.o(.ARM.Collect$$$$00000000) refers (Special) to entry2.o(.ARM.Collect$$$$00000001) for _main_stk
    printfb.o(i.__0fprintf$bare) refers to printfb.o(i._printf_core) for _printf_core
    printfb.o(i.__0fprintf$bare) refers to fputc.o(i.fputc) for fputc
    printfb.o(i.__0printf$bare) refers to printfb.o(i._printf_core) for _printf_core
    printfb.o(i.__0printf$bare) refers to fputc.o(i.fputc) for fputc
    printfb.o(i.__0printf$bare) refers to stdout.o(.data) for __stdout
    printfb.o(i.__0snprintf$bare) refers to printfb.o(i._printf_core) for _printf_core
    printfb.o(i.__0snprintf$bare) refers to printfb.o(i._snputc) for _snputc
    printfb.o(i.__0sprintf$bare) refers to printfb.o(i._printf_core) for _printf_core
    printfb.o(i.__0sprintf$bare) refers to printfb.o(i._sputc) for _sputc
    printfb.o(i.__0vfprintf$bare) refers to printfb.o(i._printf_core) for _printf_core
    printfb.o(i.__0vfprintf$bare) refers to fputc.o(i.fputc) for fputc
    printfb.o(i.__0vprintf$bare) refers to printfb.o(i._printf_core) for _printf_core
    printfb.o(i.__0vprintf$bare) refers to fputc.o(i.fputc) for fputc
    printfb.o(i.__0vprintf$bare) refers to stdout.o(.data) for __stdout
    printfb.o(i.__0vsnprintf$bare) refers to printfb.o(i._printf_core) for _printf_core
    printfb.o(i.__0vsnprintf$bare) refers to printfb.o(i._snputc) for _snputc
    printfb.o(i.__0vsprintf$bare) refers to printfb.o(i._printf_core) for _printf_core
    printfb.o(i.__0vsprintf$bare) refers to printfb.o(i._sputc) for _sputc
    printf0.o(i.__0fprintf$0) refers to printf0.o(i._printf_core) for _printf_core
    printf0.o(i.__0fprintf$0) refers to fputc.o(i.fputc) for fputc
    printf0.o(i.__0printf$0) refers to printf0.o(i._printf_core) for _printf_core
    printf0.o(i.__0printf$0) refers to fputc.o(i.fputc) for fputc
    printf0.o(i.__0printf$0) refers to stdout.o(.data) for __stdout
    printf0.o(i.__0snprintf$0) refers to printf0.o(i._printf_core) for _printf_core
    printf0.o(i.__0snprintf$0) refers to printf0.o(i._snputc) for _snputc
    printf0.o(i.__0sprintf$0) refers to printf0.o(i._printf_core) for _printf_core
    printf0.o(i.__0sprintf$0) refers to printf0.o(i._sputc) for _sputc
    printf0.o(i.__0vfprintf$0) refers to printf0.o(i._printf_core) for _printf_core
    printf0.o(i.__0vfprintf$0) refers to fputc.o(i.fputc) for fputc
    printf0.o(i.__0vprintf$0) refers to printf0.o(i._printf_core) for _printf_core
    printf0.o(i.__0vprintf$0) refers to fputc.o(i.fputc) for fputc
    printf0.o(i.__0vprintf$0) refers to stdout.o(.data) for __stdout
    printf0.o(i.__0vsnprintf$0) refers to printf0.o(i._printf_core) for _printf_core
    printf0.o(i.__0vsnprintf$0) refers to printf0.o(i._snputc) for _snputc
    printf0.o(i.__0vsprintf$0) refers to printf0.o(i._printf_core) for _printf_core
    printf0.o(i.__0vsprintf$0) refers to printf0.o(i._sputc) for _sputc
    printf1.o(i.__0fprintf$1) refers to printf1.o(i._printf_core) for _printf_core
    printf1.o(i.__0fprintf$1) refers to fputc.o(i.fputc) for fputc
    printf1.o(i.__0printf$1) refers to printf1.o(i._printf_core) for _printf_core
    printf1.o(i.__0printf$1) refers to fputc.o(i.fputc) for fputc
    printf1.o(i.__0printf$1) refers to stdout.o(.data) for __stdout
    printf1.o(i.__0snprintf$1) refers to printf1.o(i._printf_core) for _printf_core
    printf1.o(i.__0snprintf$1) refers to printf1.o(i._snputc) for _snputc
    printf1.o(i.__0sprintf$1) refers to printf1.o(i._printf_core) for _printf_core
    printf1.o(i.__0sprintf$1) refers to printf1.o(i._sputc) for _sputc
    printf1.o(i.__0vfprintf$1) refers to printf1.o(i._printf_core) for _printf_core
    printf1.o(i.__0vfprintf$1) refers to fputc.o(i.fputc) for fputc
    printf1.o(i.__0vprintf$1) refers to printf1.o(i._printf_core) for _printf_core
    printf1.o(i.__0vprintf$1) refers to fputc.o(i.fputc) for fputc
    printf1.o(i.__0vprintf$1) refers to stdout.o(.data) for __stdout
    printf1.o(i.__0vsnprintf$1) refers to printf1.o(i._printf_core) for _printf_core
    printf1.o(i.__0vsnprintf$1) refers to printf1.o(i._snputc) for _snputc
    printf1.o(i.__0vsprintf$1) refers to printf1.o(i._printf_core) for _printf_core
    printf1.o(i.__0vsprintf$1) refers to printf1.o(i._sputc) for _sputc
    printf1.o(i._printf_core) refers to uidiv.o(.text) for __aeabi_uidivmod
    printf2.o(i.__0fprintf$2) refers to printf2.o(i._printf_core) for _printf_core
    printf2.o(i.__0fprintf$2) refers to fputc.o(i.fputc) for fputc
    printf2.o(i.__0printf$2) refers to printf2.o(i._printf_core) for _printf_core
    printf2.o(i.__0printf$2) refers to fputc.o(i.fputc) for fputc
    printf2.o(i.__0printf$2) refers to stdout.o(.data) for __stdout
    printf2.o(i.__0snprintf$2) refers to printf2.o(i._printf_core) for _printf_core
    printf2.o(i.__0snprintf$2) refers to printf2.o(i._snputc) for _snputc
    printf2.o(i.__0sprintf$2) refers to printf2.o(i._printf_core) for _printf_core
    printf2.o(i.__0sprintf$2) refers to printf2.o(i._sputc) for _sputc
    printf2.o(i.__0vfprintf$2) refers to printf2.o(i._printf_core) for _printf_core
    printf2.o(i.__0vfprintf$2) refers to fputc.o(i.fputc) for fputc
    printf2.o(i.__0vprintf$2) refers to printf2.o(i._printf_core) for _printf_core
    printf2.o(i.__0vprintf$2) refers to fputc.o(i.fputc) for fputc
    printf2.o(i.__0vprintf$2) refers to stdout.o(.data) for __stdout
    printf2.o(i.__0vsnprintf$2) refers to printf2.o(i._printf_core) for _printf_core
    printf2.o(i.__0vsnprintf$2) refers to printf2.o(i._snputc) for _snputc
    printf2.o(i.__0vsprintf$2) refers to printf2.o(i._printf_core) for _printf_core
    printf2.o(i.__0vsprintf$2) refers to printf2.o(i._sputc) for _sputc
    printf3.o(i.__0fprintf$3) refers to printf3.o(i._printf_core) for _printf_core
    printf3.o(i.__0fprintf$3) refers to fputc.o(i.fputc) for fputc
    printf3.o(i.__0printf$3) refers to printf3.o(i._printf_core) for _printf_core
    printf3.o(i.__0printf$3) refers to fputc.o(i.fputc) for fputc
    printf3.o(i.__0printf$3) refers to stdout.o(.data) for __stdout
    printf3.o(i.__0snprintf$3) refers to printf3.o(i._printf_core) for _printf_core
    printf3.o(i.__0snprintf$3) refers to printf3.o(i._snputc) for _snputc
    printf3.o(i.__0sprintf$3) refers to printf3.o(i._printf_core) for _printf_core
    printf3.o(i.__0sprintf$3) refers to printf3.o(i._sputc) for _sputc
    printf3.o(i.__0vfprintf$3) refers to printf3.o(i._printf_core) for _printf_core
    printf3.o(i.__0vfprintf$3) refers to fputc.o(i.fputc) for fputc
    printf3.o(i.__0vprintf$3) refers to printf3.o(i._printf_core) for _printf_core
    printf3.o(i.__0vprintf$3) refers to fputc.o(i.fputc) for fputc
    printf3.o(i.__0vprintf$3) refers to stdout.o(.data) for __stdout
    printf3.o(i.__0vsnprintf$3) refers to printf3.o(i._printf_core) for _printf_core
    printf3.o(i.__0vsnprintf$3) refers to printf3.o(i._snputc) for _snputc
    printf3.o(i.__0vsprintf$3) refers to printf3.o(i._printf_core) for _printf_core
    printf3.o(i.__0vsprintf$3) refers to printf3.o(i._sputc) for _sputc
    printf3.o(i._printf_core) refers to uidiv.o(.text) for __aeabi_uidivmod
    printf4.o(i.__0fprintf$4) refers to printf4.o(i._printf_core) for _printf_core
    printf4.o(i.__0fprintf$4) refers to fputc.o(i.fputc) for fputc
    printf4.o(i.__0printf$4) refers to printf4.o(i._printf_core) for _printf_core
    printf4.o(i.__0printf$4) refers to fputc.o(i.fputc) for fputc
    printf4.o(i.__0printf$4) refers to stdout.o(.data) for __stdout
    printf4.o(i.__0snprintf$4) refers to printf4.o(i._printf_core) for _printf_core
    printf4.o(i.__0snprintf$4) refers to printf4.o(i._snputc) for _snputc
    printf4.o(i.__0sprintf$4) refers to printf4.o(i._printf_core) for _printf_core
    printf4.o(i.__0sprintf$4) refers to printf4.o(i._sputc) for _sputc
    printf4.o(i.__0vfprintf$4) refers to printf4.o(i._printf_core) for _printf_core
    printf4.o(i.__0vfprintf$4) refers to fputc.o(i.fputc) for fputc
    printf4.o(i.__0vprintf$4) refers to printf4.o(i._printf_core) for _printf_core
    printf4.o(i.__0vprintf$4) refers to fputc.o(i.fputc) for fputc
    printf4.o(i.__0vprintf$4) refers to stdout.o(.data) for __stdout
    printf4.o(i.__0vsnprintf$4) refers to printf4.o(i._printf_core) for _printf_core
    printf4.o(i.__0vsnprintf$4) refers to printf4.o(i._snputc) for _snputc
    printf4.o(i.__0vsprintf$4) refers to printf4.o(i._printf_core) for _printf_core
    printf4.o(i.__0vsprintf$4) refers to printf4.o(i._sputc) for _sputc
    printf4.o(i._printf_core) refers to uldiv.o(.text) for __aeabi_uldivmod
    printf5.o(i.__0fprintf$5) refers to printf5.o(i._printf_core) for _printf_core
    printf5.o(i.__0fprintf$5) refers to fputc.o(i.fputc) for fputc
    printf5.o(i.__0printf$5) refers to printf5.o(i._printf_core) for _printf_core
    printf5.o(i.__0printf$5) refers to fputc.o(i.fputc) for fputc
    printf5.o(i.__0printf$5) refers to stdout.o(.data) for __stdout
    printf5.o(i.__0snprintf$5) refers to printf5.o(i._printf_core) for _printf_core
    printf5.o(i.__0snprintf$5) refers to printf5.o(i._snputc) for _snputc
    printf5.o(i.__0sprintf$5) refers to printf5.o(i._printf_core) for _printf_core
    printf5.o(i.__0sprintf$5) refers to printf5.o(i._sputc) for _sputc
    printf5.o(i.__0vfprintf$5) refers to printf5.o(i._printf_core) for _printf_core
    printf5.o(i.__0vfprintf$5) refers to fputc.o(i.fputc) for fputc
    printf5.o(i.__0vprintf$5) refers to printf5.o(i._printf_core) for _printf_core
    printf5.o(i.__0vprintf$5) refers to fputc.o(i.fputc) for fputc
    printf5.o(i.__0vprintf$5) refers to stdout.o(.data) for __stdout
    printf5.o(i.__0vsnprintf$5) refers to printf5.o(i._printf_core) for _printf_core
    printf5.o(i.__0vsnprintf$5) refers to printf5.o(i._snputc) for _snputc
    printf5.o(i.__0vsprintf$5) refers to printf5.o(i._printf_core) for _printf_core
    printf5.o(i.__0vsprintf$5) refers to printf5.o(i._sputc) for _sputc
    printf5.o(i._printf_core) refers to uldiv.o(.text) for __aeabi_uldivmod
    printf6.o(i.__0fprintf$6) refers to printf6.o(i._printf_core) for _printf_core
    printf6.o(i.__0fprintf$6) refers to fputc.o(i.fputc) for fputc
    printf6.o(i.__0printf$6) refers to printf6.o(i._printf_core) for _printf_core
    printf6.o(i.__0printf$6) refers to fputc.o(i.fputc) for fputc
    printf6.o(i.__0printf$6) refers to stdout.o(.data) for __stdout
    printf6.o(i.__0snprintf$6) refers to printf6.o(i._printf_core) for _printf_core
    printf6.o(i.__0snprintf$6) refers to printf6.o(i._snputc) for _snputc
    printf6.o(i.__0sprintf$6) refers to printf6.o(i._printf_core) for _printf_core
    printf6.o(i.__0sprintf$6) refers to printf6.o(i._sputc) for _sputc
    printf6.o(i.__0vfprintf$6) refers to printf6.o(i._printf_core) for _printf_core
    printf6.o(i.__0vfprintf$6) refers to fputc.o(i.fputc) for fputc
    printf6.o(i.__0vprintf$6) refers to printf6.o(i._printf_core) for _printf_core
    printf6.o(i.__0vprintf$6) refers to fputc.o(i.fputc) for fputc
    printf6.o(i.__0vprintf$6) refers to stdout.o(.data) for __stdout
    printf6.o(i.__0vsnprintf$6) refers to printf6.o(i._printf_core) for _printf_core
    printf6.o(i.__0vsnprintf$6) refers to printf6.o(i._snputc) for _snputc
    printf6.o(i.__0vsprintf$6) refers to printf6.o(i._printf_core) for _printf_core
    printf6.o(i.__0vsprintf$6) refers to printf6.o(i._sputc) for _sputc
    printf6.o(i._printf_core) refers to printf6.o(i._printf_pre_padding) for _printf_pre_padding
    printf6.o(i._printf_core) refers to uidiv.o(.text) for __aeabi_uidivmod
    printf6.o(i._printf_core) refers to printf6.o(i._printf_post_padding) for _printf_post_padding
    printf7.o(i.__0fprintf$7) refers to printf7.o(i._printf_core) for _printf_core
    printf7.o(i.__0fprintf$7) refers to fputc.o(i.fputc) for fputc
    printf7.o(i.__0printf$7) refers to printf7.o(i._printf_core) for _printf_core
    printf7.o(i.__0printf$7) refers to fputc.o(i.fputc) for fputc
    printf7.o(i.__0printf$7) refers to stdout.o(.data) for __stdout
    printf7.o(i.__0snprintf$7) refers to printf7.o(i._printf_core) for _printf_core
    printf7.o(i.__0snprintf$7) refers to printf7.o(i._snputc) for _snputc
    printf7.o(i.__0sprintf$7) refers to printf7.o(i._printf_core) for _printf_core
    printf7.o(i.__0sprintf$7) refers to printf7.o(i._sputc) for _sputc
    printf7.o(i.__0vfprintf$7) refers to printf7.o(i._printf_core) for _printf_core
    printf7.o(i.__0vfprintf$7) refers to fputc.o(i.fputc) for fputc
    printf7.o(i.__0vprintf$7) refers to printf7.o(i._printf_core) for _printf_core
    printf7.o(i.__0vprintf$7) refers to fputc.o(i.fputc) for fputc
    printf7.o(i.__0vprintf$7) refers to stdout.o(.data) for __stdout
    printf7.o(i.__0vsnprintf$7) refers to printf7.o(i._printf_core) for _printf_core
    printf7.o(i.__0vsnprintf$7) refers to printf7.o(i._snputc) for _snputc
    printf7.o(i.__0vsprintf$7) refers to printf7.o(i._printf_core) for _printf_core
    printf7.o(i.__0vsprintf$7) refers to printf7.o(i._sputc) for _sputc
    printf7.o(i._printf_core) refers to printf7.o(i._printf_pre_padding) for _printf_pre_padding
    printf7.o(i._printf_core) refers to uldiv.o(.text) for __aeabi_uldivmod
    printf7.o(i._printf_core) refers to printf7.o(i._printf_post_padding) for _printf_post_padding
    printf8.o(i.__0fprintf$8) refers to printf8.o(i._printf_core) for _printf_core
    printf8.o(i.__0fprintf$8) refers to fputc.o(i.fputc) for fputc
    printf8.o(i.__0printf$8) refers to printf8.o(i._printf_core) for _printf_core
    printf8.o(i.__0printf$8) refers to fputc.o(i.fputc) for fputc
    printf8.o(i.__0printf$8) refers to stdout.o(.data) for __stdout
    printf8.o(i.__0snprintf$8) refers to printf8.o(i._printf_core) for _printf_core
    printf8.o(i.__0snprintf$8) refers to printf8.o(i._snputc) for _snputc
    printf8.o(i.__0sprintf$8) refers to printf8.o(i._printf_core) for _printf_core
    printf8.o(i.__0sprintf$8) refers to printf8.o(i._sputc) for _sputc
    printf8.o(i.__0vfprintf$8) refers to printf8.o(i._printf_core) for _printf_core
    printf8.o(i.__0vfprintf$8) refers to fputc.o(i.fputc) for fputc
    printf8.o(i.__0vprintf$8) refers to printf8.o(i._printf_core) for _printf_core
    printf8.o(i.__0vprintf$8) refers to fputc.o(i.fputc) for fputc
    printf8.o(i.__0vprintf$8) refers to stdout.o(.data) for __stdout
    printf8.o(i.__0vsnprintf$8) refers to printf8.o(i._printf_core) for _printf_core
    printf8.o(i.__0vsnprintf$8) refers to printf8.o(i._snputc) for _snputc
    printf8.o(i.__0vsprintf$8) refers to printf8.o(i._printf_core) for _printf_core
    printf8.o(i.__0vsprintf$8) refers to printf8.o(i._sputc) for _sputc
    printf8.o(i._printf_core) refers to printf8.o(i._printf_pre_padding) for _printf_pre_padding
    printf8.o(i._printf_core) refers to uldiv.o(.text) for __aeabi_uldivmod
    printf8.o(i._printf_core) refers to printf8.o(i._printf_post_padding) for _printf_post_padding
    printfa.o(i.__0fprintf) refers (Special) to iusefp.o(.text) for __I$use$fp
    printfa.o(i.__0fprintf) refers to printfa.o(i._printf_core) for _printf_core
    printfa.o(i.__0fprintf) refers to fputc.o(i.fputc) for fputc
    printfa.o(i.__0printf) refers (Special) to iusefp.o(.text) for __I$use$fp
    printfa.o(i.__0printf) refers to printfa.o(i._printf_core) for _printf_core
    printfa.o(i.__0printf) refers to fputc.o(i.fputc) for fputc
    printfa.o(i.__0printf) refers to stdout.o(.data) for __stdout
    printfa.o(i.__0snprintf) refers (Special) to iusefp.o(.text) for __I$use$fp
    printfa.o(i.__0snprintf) refers to printfa.o(i._printf_core) for _printf_core
    printfa.o(i.__0snprintf) refers to printfa.o(i._snputc) for _snputc
    printfa.o(i.__0sprintf) refers (Special) to iusefp.o(.text) for __I$use$fp
    printfa.o(i.__0sprintf) refers to printfa.o(i._printf_core) for _printf_core
    printfa.o(i.__0sprintf) refers to printfa.o(i._sputc) for _sputc
    printfa.o(i.__0vfprintf) refers (Special) to iusefp.o(.text) for __I$use$fp
    printfa.o(i.__0vfprintf) refers to printfa.o(i._printf_core) for _printf_core
    printfa.o(i.__0vfprintf) refers to fputc.o(i.fputc) for fputc
    printfa.o(i.__0vprintf) refers (Special) to iusefp.o(.text) for __I$use$fp
    printfa.o(i.__0vprintf) refers to printfa.o(i._printf_core) for _printf_core
    printfa.o(i.__0vprintf) refers to fputc.o(i.fputc) for fputc
    printfa.o(i.__0vprintf) refers to stdout.o(.data) for __stdout
    printfa.o(i.__0vsnprintf) refers (Special) to iusefp.o(.text) for __I$use$fp
    printfa.o(i.__0vsnprintf) refers to printfa.o(i._printf_core) for _printf_core
    printfa.o(i.__0vsnprintf) refers to printfa.o(i._snputc) for _snputc
    printfa.o(i.__0vsprintf) refers (Special) to iusefp.o(.text) for __I$use$fp
    printfa.o(i.__0vsprintf) refers to printfa.o(i._printf_core) for _printf_core
    printfa.o(i.__0vsprintf) refers to printfa.o(i._sputc) for _sputc
    printfa.o(i._fp_digits) refers (Special) to iusefp.o(.text) for __I$use$fp
    printfa.o(i._fp_digits) refers to dmul.o(.text) for __aeabi_dmul
    printfa.o(i._fp_digits) refers to ddiv.o(.text) for __aeabi_ddiv
    printfa.o(i._fp_digits) refers to cdrcmple.o(.text) for __aeabi_cdrcmple
    printfa.o(i._fp_digits) refers to dadd.o(.text) for __aeabi_dadd
    printfa.o(i._fp_digits) refers to dfixul.o(.text) for __aeabi_d2ulz
    printfa.o(i._fp_digits) refers to uldiv.o(.text) for __aeabi_uldivmod
    printfa.o(i._printf_core) refers (Special) to iusefp.o(.text) for __I$use$fp
    printfa.o(i._printf_core) refers to printfa.o(i._printf_pre_padding) for _printf_pre_padding
    printfa.o(i._printf_core) refers to uldiv.o(.text) for __aeabi_uldivmod
    printfa.o(i._printf_core) refers to printfa.o(i._printf_post_padding) for _printf_post_padding
    printfa.o(i._printf_core) refers to printfa.o(i._fp_digits) for _fp_digits
    printfa.o(i._printf_core) refers to uidiv.o(.text) for __aeabi_uidivmod
    printfa.o(i._printf_post_padding) refers (Special) to iusefp.o(.text) for __I$use$fp
    printfa.o(i._printf_pre_padding) refers (Special) to iusefp.o(.text) for __I$use$fp
    printfa.o(i._snputc) refers (Special) to iusefp.o(.text) for __I$use$fp
    printfa.o(i._sputc) refers (Special) to iusefp.o(.text) for __I$use$fp
    fadd.o(.text) refers (Special) to iusefp.o(.text) for __I$use$fp
    fadd.o(.text) refers to fepilogue.o(.text) for _float_epilogue
    fdiv.o(.text) refers (Special) to iusefp.o(.text) for __I$use$fp
    fdiv.o(.text) refers to fepilogue.o(.text) for _float_round
    dadd.o(.text) refers (Special) to iusefp.o(.text) for __I$use$fp
    dadd.o(.text) refers to llshl.o(.text) for __aeabi_llsl
    dadd.o(.text) refers to llsshr.o(.text) for __aeabi_lasr
    dadd.o(.text) refers to depilogue.o(.text) for _double_epilogue
    dmul.o(.text) refers (Special) to iusefp.o(.text) for __I$use$fp
    dmul.o(.text) refers to depilogue.o(.text) for _double_epilogue
    fcmple.o(.text) refers (Special) to iusefp.o(.text) for __I$use$fp
    fcmpge.o(.text) refers (Special) to iusefp.o(.text) for __I$use$fp
    fcmpgt.o(.text) refers (Special) to iusefp.o(.text) for __I$use$fp
    fcmpeq.o(.text) refers (Special) to iusefp.o(.text) for __I$use$fp
    dcmplt.o(.text) refers (Special) to iusefp.o(.text) for __I$use$fp
    ffltui.o(.text) refers (Special) to iusefp.o(.text) for __I$use$fp
    ffltui.o(.text) refers to fepilogue.o(.text) for _float_epilogue
    dflti.o(.text) refers (Special) to iusefp.o(.text) for __I$use$fp
    dflti.o(.text) refers to depilogue.o(.text) for _double_epilogue
    dfltui.o(.text) refers (Special) to iusefp.o(.text) for __I$use$fp
    dfltui.o(.text) refers to depilogue.o(.text) for _double_epilogue
    ffixi.o(.text) refers (Special) to iusefp.o(.text) for __I$use$fp
    dfixi.o(.text) refers (Special) to iusefp.o(.text) for __I$use$fp
    dfixi.o(.text) refers to llushr.o(.text) for __aeabi_llsr
    f2d.o(.text) refers (Special) to iusefp.o(.text) for __I$use$fp
    d2f.o(.text) refers (Special) to iusefp.o(.text) for __I$use$fp
    d2f.o(.text) refers to fepilogue.o(.text) for _float_round
    entry2.o(.ARM.Collect$$$$00000001) refers to entry2.o(.ARM.Collect$$$$00002712) for __lit__00000000
    entry2.o(.ARM.Collect$$$$00002712) refers to startup_gd32f1x0.o(STACK) for __initial_sp
    entry2.o(__vectab_stack_and_reset_area) refers to startup_gd32f1x0.o(STACK) for __initial_sp
    entry2.o(__vectab_stack_and_reset_area) refers to entry.o(.ARM.Collect$$$$00000000) for __main
    entry5.o(.ARM.Collect$$$$00000004) refers to init.o(.text) for __scatterload
    entry9a.o(.ARM.Collect$$$$0000000B) refers to main.o(.text) for main
    entry9b.o(.ARM.Collect$$$$0000000C) refers to main.o(.text) for main
    fputc.o(i.fputc) refers (Special) to iusesemip.o(.text) for __I$use$semihosting$fputc
    fputc.o(i.fputc) refers (Special) to semi.o(.text) for __semihosting_library_function
    fputc_h.o(i._fputc$hlt) refers (Special) to iusesemip.o(.text) for __I$use$semihosting$fputc
    fputc_h.o(i._fputc$hlt) refers (Special) to semi.o(.text) for __semihosting_library_function
    uldiv.o(.text) refers to llushr.o(.text) for __aeabi_llsr
    uldiv.o(.text) refers to llshl.o(.text) for __aeabi_llsl
    fepilogue.o(.text) refers (Special) to iusefp.o(.text) for __I$use$fp
    depilogue.o(.text) refers (Special) to iusefp.o(.text) for __I$use$fp
    depilogue.o(.text) refers to llshl.o(.text) for __aeabi_llsl
    depilogue.o(.text) refers to llushr.o(.text) for __aeabi_llsr
    ddiv.o(.text) refers (Special) to iusefp.o(.text) for __I$use$fp
    ddiv.o(.text) refers to depilogue.o(.text) for _double_round
    dfixul.o(.text) refers (Special) to iusefp.o(.text) for __I$use$fp
    dfixul.o(.text) refers to llushr.o(.text) for __aeabi_llsr
    dfixul.o(.text) refers to llshl.o(.text) for __aeabi_llsl
    cdrcmple.o(.text) refers (Special) to iusefp.o(.text) for __I$use$fp
    init.o(.text) refers to entry5.o(.ARM.Collect$$$$00000004) for __main_after_scatterload


==============================================================================

Removing Unused input sections from the image.

    Removing main.o(.ARM.exidx), (8 bytes).
    Removing main.o(.bss.speed), (4 bytes).
    Removing main.o(.data.speedLimit), (2 bytes).
    Removing main.o(.data.wState), (1 bytes).
    Removing main.o(.data.wStateSlave), (1 bytes).
    Removing main.o(.bss.activateWeakening), (1 bytes).
    Removing main.o(.data.beepsBackwards), (1 bytes).
    Removing main.o(.bss.slaveError), (1 bytes).
    Removing main.o(.bss.enable), (1 bytes).
    Removing main.o(.bss.pwmSlave), (2 bytes).
    Removing main.o(.ARM.use_no_argv), (4 bytes).
    Removing bldc.o(.ARM.exidx), (40 bytes).
    Removing bldc.o(.rodata.pwm_res), (2 bytes).
    Removing bldc.o(.data.batteryVoltage), (4 bytes).
    Removing bldc.o(.bss.offsetcount), (2 bytes).
    Removing bldc.o(.data.offsetdc), (2 bytes).
    Removing setup.o(.ARM.exidx), (80 bytes).
    Removing setup.o(.bss.usart1_rx_buf), (1 bytes).
    Removing it.o(.ARM.exidx), (128 bytes).
    Removing it.o(.bss.iUartCounter), (2 bytes).
    Removing led.o(.text), (0 bytes).
    Removing remoteuart.o(.text), (0 bytes).
    Removing remotecrsf.o(.text), (0 bytes).
    Removing remotedummy.o(.text), (0 bytes).
    Removing remoteuartbus.o(.text), (0 bytes).
    Removing commsmasterslave.o(.ARM.exidx), (32 bytes).
    Removing commsmasterslave.o(.bss.mosfetOutMaster), (1 bytes).
    Removing remoteautodetect.o(.ARM.exidx), (112 bytes).
    Removing remoteautodetect.o(.bss.iTimeNextTx), (4 bytes).
    Removing gd32f1x0_adc.o(.ARM.exidx), (256 bytes).
    Removing gd32f1x0_dbg.o(.text), (128 bytes).
    Removing gd32f1x0_dbg.o(.ARM.exidx), (48 bytes).
    Removing gd32f1x0_dma.o(.ARM.exidx), (216 bytes).
    Removing gd32f1x0_fwdgt.o(.ARM.exidx), (48 bytes).
    Removing gd32f1x0_gpio.o(.ARM.exidx), (104 bytes).
    Removing gd32f1x0_i2c.o(.text), (810 bytes).
    Removing gd32f1x0_i2c.o(.ARM.exidx), (248 bytes).
    Removing gd32f1x0_misc.o(.ARM.exidx), (56 bytes).
    Removing gd32f1x0_opa.o(.text), (0 bytes).
    Removing gd32f1x0_pmu.o(.text), (490 bytes).
    Removing gd32f1x0_pmu.o(.ARM.exidx), (96 bytes).
    Removing gd32f1x0_pmu.o(.bss.pmu_to_deepsleepmode.reg_snap.0), (4 bytes).
    Removing gd32f1x0_pmu.o(.bss.pmu_to_deepsleepmode.reg_snap.1), (4 bytes).
    Removing gd32f1x0_pmu.o(.bss.pmu_to_deepsleepmode.reg_snap.2), (4 bytes).
    Removing gd32f1x0_pmu.o(.bss.pmu_to_deepsleepmode.reg_snap.3), (4 bytes).
    Removing gd32f1x0_rcu.o(.ARM.exidx), (336 bytes).
    Removing gd32f1x0_syscfg.o(.text), (254 bytes).
    Removing gd32f1x0_syscfg.o(.ARM.exidx), (72 bytes).
    Removing gd32f1x0_timer.o(.ARM.exidx), (568 bytes).
    Removing gd32f1x0_usart.o(.ARM.exidx), (544 bytes).
    Removing gd32f1x0_wwdgt.o(.text), (170 bytes).
    Removing gd32f1x0_wwdgt.o(.ARM.exidx), (56 bytes).
    Removing startup_gd32f1x0.o(HEAP), (1024 bytes).
    Removing system_gd32f1x0.o(.ARM.exidx), (16 bytes).

54 unused section(s) (total 5992 bytes) removed from the image.

==============================================================================

Image Symbol Table

    Local Symbols

    Symbol Name                              Value     Ov Type        Size  Object(Section)

    ../clib/../cmprslib/zerorunl2.c          0x00000000   Number         0  __dczerorl2.o ABSOLUTE
    ../clib/division.s                       0x00000000   Number         0  aeabi_sdiv.o ABSOLUTE
    ../clib/microlib/division.c              0x00000000   Number         0  uidiv.o ABSOLUTE
    ../clib/microlib/division.c              0x00000000   Number         0  uldiv.o ABSOLUTE
    ../clib/microlib/init/entry.s            0x00000000   Number         0  entry.o ABSOLUTE
    ../clib/microlib/init/entry.s            0x00000000   Number         0  entry2.o ABSOLUTE
    ../clib/microlib/init/entry.s            0x00000000   Number         0  entry5.o ABSOLUTE
    ../clib/microlib/init/entry.s            0x00000000   Number         0  entry7a.o ABSOLUTE
    ../clib/microlib/init/entry.s            0x00000000   Number         0  entry7b.o ABSOLUTE
    ../clib/microlib/init/entry.s            0x00000000   Number         0  entry8a.o ABSOLUTE
    ../clib/microlib/init/entry.s            0x00000000   Number         0  entry8b.o ABSOLUTE
    ../clib/microlib/init/entry.s            0x00000000   Number         0  entry9a.o ABSOLUTE
    ../clib/microlib/init/entry.s            0x00000000   Number         0  entry9b.o ABSOLUTE
    ../clib/microlib/init/entry.s            0x00000000   Number         0  entry10a.o ABSOLUTE
    ../clib/microlib/init/entry.s            0x00000000   Number         0  entry10b.o ABSOLUTE
    ../clib/microlib/init/entry.s            0x00000000   Number         0  entry11a.o ABSOLUTE
    ../clib/microlib/init/entry.s            0x00000000   Number         0  entry11b.o ABSOLUTE
    ../clib/microlib/longlong.c              0x00000000   Number         0  llshl.o ABSOLUTE
    ../clib/microlib/longlong.c              0x00000000   Number         0  llushr.o ABSOLUTE
    ../clib/microlib/longlong.c              0x00000000   Number         0  llsshr.o ABSOLUTE
    ../clib/microlib/printf/printf.c         0x00000000   Number         0  printfb.o ABSOLUTE
    ../clib/microlib/printf/printf.c         0x00000000   Number         0  printf0.o ABSOLUTE
    ../clib/microlib/printf/printf.c         0x00000000   Number         0  printf1.o ABSOLUTE
    ../clib/microlib/printf/printf.c         0x00000000   Number         0  printf2.o ABSOLUTE
    ../clib/microlib/printf/printf.c         0x00000000   Number         0  printf3.o ABSOLUTE
    ../clib/microlib/printf/printf.c         0x00000000   Number         0  printf4.o ABSOLUTE
    ../clib/microlib/printf/printf.c         0x00000000   Number         0  printf5.o ABSOLUTE
    ../clib/microlib/printf/printf.c         0x00000000   Number         0  printf6.o ABSOLUTE
    ../clib/microlib/printf/printf.c         0x00000000   Number         0  printf7.o ABSOLUTE
    ../clib/microlib/printf/printf.c         0x00000000   Number         0  printf8.o ABSOLUTE
    ../clib/microlib/printf/printf.c         0x00000000   Number         0  printfa.o ABSOLUTE
    ../clib/microlib/printf/stubs.s          0x00000000   Number         0  printfstubs.o ABSOLUTE
    ../clib/microlib/stdio/fputc.c           0x00000000   Number         0  fputc.o ABSOLUTE
    ../clib/microlib/stdio/fputc.c           0x00000000   Number         0  fputc_h.o ABSOLUTE
    ../clib/microlib/stdio/semi.s            0x00000000   Number         0  semi.o ABSOLUTE
    ../clib/microlib/stdio/streams.c         0x00000000   Number         0  stdout.o ABSOLUTE
    ../clib/microlib/string/memcpy.c         0x00000000   Number         0  memcpya.o ABSOLUTE
    ../clib/microlib/string/memcpy.c         0x00000000   Number         0  memcpyb.o ABSOLUTE
    ../clib/microlib/string/memset.c         0x00000000   Number         0  memseta.o ABSOLUTE
    ../clib/microlib/string/strlen.c         0x00000000   Number         0  strlen.o ABSOLUTE
    ../clib/microlib/stubs.s                 0x00000000   Number         0  iusefp.o ABSOLUTE
    ../clib/microlib/stubs.s                 0x00000000   Number         0  iusesemip.o ABSOLUTE
    ../fplib/microlib/d2f.c                  0x00000000   Number         0  d2f.o ABSOLUTE
    ../fplib/microlib/f2d.c                  0x00000000   Number         0  f2d.o ABSOLUTE
    ../fplib/microlib/fpadd.c                0x00000000   Number         0  fadd.o ABSOLUTE
    ../fplib/microlib/fpadd.c                0x00000000   Number         0  dadd.o ABSOLUTE
    ../fplib/microlib/fpcmp.c                0x00000000   Number         0  fcmple.o ABSOLUTE
    ../fplib/microlib/fpcmp.c                0x00000000   Number         0  fcmpge.o ABSOLUTE
    ../fplib/microlib/fpcmp.c                0x00000000   Number         0  fcmpgt.o ABSOLUTE
    ../fplib/microlib/fpcmp.c                0x00000000   Number         0  fcmpeq.o ABSOLUTE
    ../fplib/microlib/fpcmp.c                0x00000000   Number         0  dcmplt.o ABSOLUTE
    ../fplib/microlib/fpdiv.c                0x00000000   Number         0  fdiv.o ABSOLUTE
    ../fplib/microlib/fpdiv.c                0x00000000   Number         0  ddiv.o ABSOLUTE
    ../fplib/microlib/fpepilogue.c           0x00000000   Number         0  fepilogue.o ABSOLUTE
    ../fplib/microlib/fpepilogue.c           0x00000000   Number         0  depilogue.o ABSOLUTE
    ../fplib/microlib/fpfix.c                0x00000000   Number         0  ffixi.o ABSOLUTE
    ../fplib/microlib/fpfix.c                0x00000000   Number         0  dfixi.o ABSOLUTE
    ../fplib/microlib/fpfix.c                0x00000000   Number         0  dfixul.o ABSOLUTE
    ../fplib/microlib/fpflt.c                0x00000000   Number         0  ffltui.o ABSOLUTE
    ../fplib/microlib/fpflt.c                0x00000000   Number         0  dflti.o ABSOLUTE
    ../fplib/microlib/fpflt.c                0x00000000   Number         0  dfltui.o ABSOLUTE
    ../fplib/microlib/fpmul.c                0x00000000   Number         0  dmul.o ABSOLUTE
    RTE/Device/GD32F130C8/startup_gd32f1x0.s 0x00000000   Number         0  startup_gd32f1x0.o ABSOLUTE
    RemoteAutodetect.c                       0x00000000   Number         0  remoteautodetect.o ABSOLUTE
    bldc.c                                   0x00000000   Number         0  bldc.o ABSOLUTE
    cdrcmple.s                               0x00000000   Number         0  cdrcmple.o ABSOLUTE
    commsMasterSlave.c                       0x00000000   Number         0  commsmasterslave.o ABSOLUTE
    dc.s                                     0x00000000   Number         0  dc.o ABSOLUTE
    gd32f1x0_adc.c                           0x00000000   Number         0  gd32f1x0_adc.o ABSOLUTE
    gd32f1x0_dbg.c                           0x00000000   Number         0  gd32f1x0_dbg.o ABSOLUTE
    gd32f1x0_dma.c                           0x00000000   Number         0  gd32f1x0_dma.o ABSOLUTE
    gd32f1x0_fwdgt.c                         0x00000000   Number         0  gd32f1x0_fwdgt.o ABSOLUTE
    gd32f1x0_gpio.c                          0x00000000   Number         0  gd32f1x0_gpio.o ABSOLUTE
    gd32f1x0_i2c.c                           0x00000000   Number         0  gd32f1x0_i2c.o ABSOLUTE
    gd32f1x0_misc.c                          0x00000000   Number         0  gd32f1x0_misc.o ABSOLUTE
    gd32f1x0_opa.c                           0x00000000   Number         0  gd32f1x0_opa.o ABSOLUTE
    gd32f1x0_pmu.c                           0x00000000   Number         0  gd32f1x0_pmu.o ABSOLUTE
    gd32f1x0_rcu.c                           0x00000000   Number         0  gd32f1x0_rcu.o ABSOLUTE
    gd32f1x0_syscfg.c                        0x00000000   Number         0  gd32f1x0_syscfg.o ABSOLUTE
    gd32f1x0_timer.c                         0x00000000   Number         0  gd32f1x0_timer.o ABSOLUTE
    gd32f1x0_usart.c                         0x00000000   Number         0  gd32f1x0_usart.o ABSOLUTE
    gd32f1x0_wwdgt.c                         0x00000000   Number         0  gd32f1x0_wwdgt.o ABSOLUTE
    handlers.s                               0x00000000   Number         0  handlers.o ABSOLUTE
    init.s                                   0x00000000   Number         0  init.o ABSOLUTE
    it.c                                     0x00000000   Number         0  it.o ABSOLUTE
    led.c                                    0x00000000   Number         0  led.o ABSOLUTE
    main.c                                   0x00000000   Number         0  main.o ABSOLUTE
    remoteCrsf.c                             0x00000000   Number         0  remotecrsf.o ABSOLUTE
    remoteDummy.c                            0x00000000   Number         0  remotedummy.o ABSOLUTE
    remoteUart.c                             0x00000000   Number         0  remoteuart.o ABSOLUTE
    remoteUartBus.c                          0x00000000   Number         0  remoteuartbus.o ABSOLUTE
    setup.c                                  0x00000000   Number         0  setup.o ABSOLUTE
    system_gd32f1x0.c                        0x00000000   Number         0  system_gd32f1x0.o ABSOLUTE
    RESET                                    0x08000000   Section      360  startup_gd32f1x0.o(RESET)
    .ARM.Collect$$$$00000000                 0x08000168   Section        0  entry.o(.ARM.Collect$$$$00000000)
    .ARM.Collect$$$$00000001                 0x08000168   Section        4  entry2.o(.ARM.Collect$$$$00000001)
    .ARM.Collect$$$$00000004                 0x0800016c   Section        4  entry5.o(.ARM.Collect$$$$00000004)
    .ARM.Collect$$$$00000008                 0x08000170   Section        0  entry7b.o(.ARM.Collect$$$$00000008)
    .ARM.Collect$$$$0000000A                 0x08000170   Section        0  entry8b.o(.ARM.Collect$$$$0000000A)
    .ARM.Collect$$$$0000000B                 0x08000170   Section        8  entry9a.o(.ARM.Collect$$$$0000000B)
    __lit__00000000                          0x08000178   Data           4  entry2.o(.ARM.Collect$$$$00002712)
    .ARM.Collect$$$$0000000D                 0x08000178   Section        0  entry10a.o(.ARM.Collect$$$$0000000D)
    .ARM.Collect$$$$0000000F                 0x08000178   Section        0  entry11a.o(.ARM.Collect$$$$0000000F)
    .ARM.Collect$$$$00002712                 0x08000178   Section        4  entry2.o(.ARM.Collect$$$$00002712)
    [Anonymous Symbol]                       0x0800017c   Section        0  main.o(.text)
    [Anonymous Symbol]                       0x08000228   Section        0  bldc.o(.text)
    [Anonymous Symbol]                       0x0800058c   Section        0  setup.o(.text)
    [Anonymous Symbol]                       0x08000b18   Section        0  it.o(.text)
    [Anonymous Symbol]                       0x08000c28   Section        0  commsmasterslave.o(.text)
    [Anonymous Symbol]                       0x08000cac   Section        0  remoteautodetect.o(.text)
    [Anonymous Symbol]                       0x0800312c   Section        0  gd32f1x0_adc.o(.text)
    [Anonymous Symbol]                       0x080036d4   Section        0  gd32f1x0_dma.o(.text)
    [Anonymous Symbol]                       0x08003a20   Section        0  gd32f1x0_fwdgt.o(.text)
    [Anonymous Symbol]                       0x08003afc   Section        0  gd32f1x0_gpio.o(.text)
    [Anonymous Symbol]                       0x08003c94   Section        0  gd32f1x0_misc.o(.text)
    [Anonymous Symbol]                       0x08003dc4   Section        0  gd32f1x0_rcu.o(.text)
    [Anonymous Symbol]                       0x080044f4   Section        0  gd32f1x0_timer.o(.text)
    [Anonymous Symbol]                       0x08005254   Section        0  gd32f1x0_usart.o(.text)
    .text                                    0x08005894   Section       36  startup_gd32f1x0.o(.text)
    [Anonymous Symbol]                       0x080058b8   Section        0  system_gd32f1x0.o(.text)
    .text                                    0x080059f4   Section        0  memcpya.o(.text)
    .text                                    0x08005a18   Section        0  memseta.o(.text)
    .text                                    0x08005a3c   Section        0  strlen.o(.text)
    .text                                    0x08005a4a   Section        0  fadd.o(.text)
    .text                                    0x08005afa   Section        0  fdiv.o(.text)
    .text                                    0x08005b76   Section        0  dadd.o(.text)
    .text                                    0x08005cc4   Section        0  dmul.o(.text)
    .text                                    0x08005da8   Section        0  fcmple.o(.text)
    .text                                    0x08005dc4   Section        0  fcmpge.o(.text)
    .text                                    0x08005de0   Section        0  fcmpgt.o(.text)
    .text                                    0x08005dfc   Section        0  fcmpeq.o(.text)
    .text                                    0x08005e18   Section        0  dcmplt.o(.text)
    .text                                    0x08005e4e   Section        0  ffltui.o(.text)
    .text                                    0x08005e58   Section        0  dflti.o(.text)
    .text                                    0x08005e7a   Section        0  dfltui.o(.text)
    .text                                    0x08005e94   Section        0  ffixi.o(.text)
    .text                                    0x08005ec6   Section        0  dfixi.o(.text)
    .text                                    0x08005f04   Section        0  f2d.o(.text)
    .text                                    0x08005f2a   Section        0  d2f.o(.text)
    .text                                    0x08005f62   Section        0  uidiv.o(.text)
    .text                                    0x08005f8e   Section        0  uldiv.o(.text)
    .text                                    0x08005ff0   Section        0  llshl.o(.text)
    .text                                    0x0800600e   Section        0  llushr.o(.text)
    .text                                    0x0800602e   Section        0  llsshr.o(.text)
    .text                                    0x08006052   Section        0  iusefp.o(.text)
    .text                                    0x08006052   Section        0  fepilogue.o(.text)
    .text                                    0x080060c0   Section        0  depilogue.o(.text)
    .text                                    0x0800617a   Section        0  ddiv.o(.text)
    .text                                    0x08006258   Section        0  dfixul.o(.text)
    .text                                    0x08006288   Section       48  cdrcmple.o(.text)
    .text                                    0x080062b8   Section       36  init.o(.text)
    .text                                    0x080062dc   Section        0  __dczerorl2.o(.text)
    i.__0sprintf                             0x08006334   Section        0  printfa.o(i.__0sprintf)
    i.__scatterload_copy                     0x0800635c   Section       14  handlers.o(i.__scatterload_copy)
    i.__scatterload_null                     0x0800636a   Section        2  handlers.o(i.__scatterload_null)
    i.__scatterload_zeroinit                 0x0800636c   Section       14  handlers.o(i.__scatterload_zeroinit)
    _fp_digits                               0x0800637d   Thumb Code   366  printfa.o(i._fp_digits)
    i._fp_digits                             0x0800637c   Section        0  printfa.o(i._fp_digits)
    _printf_core                             0x08006501   Thumb Code  1744  printfa.o(i._printf_core)
    i._printf_core                           0x08006500   Section        0  printfa.o(i._printf_core)
    _printf_post_padding                     0x08006bdd   Thumb Code    36  printfa.o(i._printf_post_padding)
    i._printf_post_padding                   0x08006bdc   Section        0  printfa.o(i._printf_post_padding)
    _printf_pre_padding                      0x08006c01   Thumb Code    46  printfa.o(i._printf_pre_padding)
    i._printf_pre_padding                    0x08006c00   Section        0  printfa.o(i._printf_pre_padding)
    _sputc                                   0x08006c2f   Thumb Code    10  printfa.o(i._sputc)
    i._sputc                                 0x08006c2e   Section        0  printfa.o(i._sputc)
    .L__const.up_or_down.up_down             0x08006c38   Data          12  bldc.o(.rodata..L__const.up_or_down.up_down)
    .Lswitch.table.gpio_deinit.1             0x08006c44   Data          12  gd32f1x0_gpio.o(.rodata..Lswitch.table.gpio_deinit.1)
    .L__const.rcu_clock_freq_get.apb2_exp    0x08006c50   Data           8  gd32f1x0_rcu.o(.rodata.cst8)
    .L.str.88                                0x08006c60   Data          17  remoteautodetect.o(.rodata.str1.1)
    [Anonymous Symbol]                       0x08006c60   Section        0  remoteautodetect.o(.rodata.str1.1)
    .L.str.68                                0x08006c71   Data          22  remoteautodetect.o(.rodata.str1.1)
    .L.str.84                                0x08006c87   Data          15  remoteautodetect.o(.rodata.str1.1)
    .L.str.69                                0x08006c96   Data          10  remoteautodetect.o(.rodata.str1.1)
    .L.str.83                                0x08006ca0   Data           9  remoteautodetect.o(.rodata.str1.1)
    .L.str.51                                0x08006ca9   Data          22  remoteautodetect.o(.rodata.str1.1)
    .L.str.75                                0x08006cbf   Data          17  remoteautodetect.o(.rodata.str1.1)
    .L.str.73                                0x08006cd0   Data          69  remoteautodetect.o(.rodata.str1.1)
    .L.str.53                                0x08006d15   Data           3  remoteautodetect.o(.rodata.str1.1)
    .L.str.70                                0x08006e1e   Data           9  remoteautodetect.o(.rodata.str1.1)
    .L.str.72                                0x08006e27   Data          44  remoteautodetect.o(.rodata.str1.1)
    .L.str.74                                0x08006e53   Data          25  remoteautodetect.o(.rodata.str1.1)
    .L.str.79                                0x08006e6c   Data          40  remoteautodetect.o(.rodata.str1.1)
    .L.str.78                                0x08006e94   Data          10  remoteautodetect.o(.rodata.str1.1)
    .L.str.77                                0x08006e9e   Data          14  remoteautodetect.o(.rodata.str1.1)
    .L.str.76                                0x08006eac   Data          36  remoteautodetect.o(.rodata.str1.1)
    .L.str.65                                0x08006ed0   Data         100  remoteautodetect.o(.rodata.str1.1)
    .L.str.52                                0x08006f33   Data           1  remoteautodetect.o(.rodata.str1.1)
    .L.str.89                                0x08006f34   Data          25  remoteautodetect.o(.rodata.str1.4)
    [Anonymous Symbol]                       0x08006f34   Section        0  remoteautodetect.o(.rodata.str1.4)
    .L.str.64                                0x08006f50   Data          71  remoteautodetect.o(.rodata.str1.4)
    .L.str.62                                0x08006f98   Data          82  remoteautodetect.o(.rodata.str1.4)
    .L.str.80                                0x08006fec   Data          22  remoteautodetect.o(.rodata.str1.4)
    .L.str.63                                0x08007004   Data          48  remoteautodetect.o(.rodata.str1.4)
    .L.str.57                                0x08007034   Data          74  remoteautodetect.o(.rodata.str1.4)
    STACK                                    0x200005e0   Section     1024  startup_gd32f1x0.o(STACK)

    Global Symbols

    Symbol Name                              Value     Ov Type        Size  Object(Section)

    BuildAttributes$$THM_ISAv4$P$D$K$B$S$PE$A:L22UL41UL21$X:L11$S22US41US21$IEEE1$IW$~IW$USESV6$~STKCKD$USESV7$~SHL$OTIME$ROPI$EBA8$MICROLIB$REQ8$PRES8$EABIv2 0x00000000   Number         0  anon$$obj.o ABSOLUTE
    _printf_a                                0x00000000   Number         0  printfstubs.o ABSOLUTE
    _printf_c                                0x00000000   Number         0  printfstubs.o ABSOLUTE
    _printf_charcount                        0x00000000   Number         0  printfstubs.o ABSOLUTE
    _printf_d                                0x00000000   Number         0  printfstubs.o ABSOLUTE
    _printf_e                                0x00000000   Number         0  printfstubs.o ABSOLUTE
    _printf_f                                0x00000000   Number         0  printfstubs.o ABSOLUTE
    _printf_flags                            0x00000000   Number         0  printfstubs.o ABSOLUTE
    _printf_fp_dec                           0x00000000   Number         0  printfstubs.o ABSOLUTE
    _printf_fp_hex                           0x00000000   Number         0  printfstubs.o ABSOLUTE
    _printf_g                                0x00000000   Number         0  printfstubs.o ABSOLUTE
    _printf_i                                0x00000000   Number         0  printfstubs.o ABSOLUTE
    _printf_int_dec                          0x00000000   Number         0  printfstubs.o ABSOLUTE
    _printf_l                                0x00000000   Number         0  printfstubs.o ABSOLUTE
    _printf_lc                               0x00000000   Number         0  printfstubs.o ABSOLUTE
    _printf_ll                               0x00000000   Number         0  printfstubs.o ABSOLUTE
    _printf_lld                              0x00000000   Number         0  printfstubs.o ABSOLUTE
    _printf_lli                              0x00000000   Number         0  printfstubs.o ABSOLUTE
    _printf_llo                              0x00000000   Number         0  printfstubs.o ABSOLUTE
    _printf_llu                              0x00000000   Number         0  printfstubs.o ABSOLUTE
    _printf_llx                              0x00000000   Number         0  printfstubs.o ABSOLUTE
    _printf_longlong_dec                     0x00000000   Number         0  printfstubs.o ABSOLUTE
    _printf_longlong_hex                     0x00000000   Number         0  printfstubs.o ABSOLUTE
    _printf_longlong_oct                     0x00000000   Number         0  printfstubs.o ABSOLUTE
    _printf_ls                               0x00000000   Number         0  printfstubs.o ABSOLUTE
    _printf_mbtowc                           0x00000000   Number         0  printfstubs.o ABSOLUTE
    _printf_n                                0x00000000   Number         0  printfstubs.o ABSOLUTE
    _printf_o                                0x00000000   Number         0  printfstubs.o ABSOLUTE
    _printf_p                                0x00000000   Number         0  printfstubs.o ABSOLUTE
    _printf_percent                          0x00000000   Number         0  printfstubs.o ABSOLUTE
    _printf_pre_padding                      0x00000000   Number         0  printfstubs.o ABSOLUTE
    _printf_return_value                     0x00000000   Number         0  printfstubs.o ABSOLUTE
    _printf_s                                0x00000000   Number         0  printfstubs.o ABSOLUTE
    _printf_sizespec                         0x00000000   Number         0  printfstubs.o ABSOLUTE
    _printf_str                              0x00000000   Number         0  printfstubs.o ABSOLUTE
    _printf_truncate_signed                  0x00000000   Number         0  printfstubs.o ABSOLUTE
    _printf_truncate_unsigned                0x00000000   Number         0  printfstubs.o ABSOLUTE
    _printf_u                                0x00000000   Number         0  printfstubs.o ABSOLUTE
    _printf_wc                               0x00000000   Number         0  printfstubs.o ABSOLUTE
    _printf_wctomb                           0x00000000   Number         0  printfstubs.o ABSOLUTE
    _printf_widthprec                        0x00000000   Number         0  printfstubs.o ABSOLUTE
    _printf_x                                0x00000000   Number         0  printfstubs.o ABSOLUTE
    __cpp_initialize__aeabi_                  - Undefined Weak Reference
    __cxa_finalize                            - Undefined Weak Reference
    _clock_init                               - Undefined Weak Reference
    _microlib_exit                            - Undefined Weak Reference
    __Vectors_Size                           0x00000168   Number         0  startup_gd32f1x0.o ABSOLUTE
    __Vectors                                0x08000000   Data           4  startup_gd32f1x0.o(RESET)
    __Vectors_End                            0x08000168   Data           0  startup_gd32f1x0.o(RESET)
    __main                                   0x08000169   Thumb Code     0  entry.o(.ARM.Collect$$$$00000000)
    _main_stk                                0x08000169   Thumb Code     0  entry2.o(.ARM.Collect$$$$00000001)
    _main_scatterload                        0x0800016d   Thumb Code     0  entry5.o(.ARM.Collect$$$$00000004)
    __main_after_scatterload                 0x08000171   Thumb Code     0  entry5.o(.ARM.Collect$$$$00000004)
    _main_clock                              0x08000171   Thumb Code     0  entry7b.o(.ARM.Collect$$$$00000008)
    _main_cpp_init                           0x08000171   Thumb Code     0  entry8b.o(.ARM.Collect$$$$0000000A)
    _main_init                               0x08000171   Thumb Code     0  entry9a.o(.ARM.Collect$$$$0000000B)
    __rt_final_cpp                           0x08000179   Thumb Code     0  entry10a.o(.ARM.Collect$$$$0000000D)
    __rt_final_exit                          0x08000179   Thumb Code     0  entry11a.o(.ARM.Collect$$$$0000000F)
    main                                     0x0800017d   Thumb Code   170  main.o(.text)
    modulo                                   0x08000229   Thumb Code    22  bldc.o(.text)
    up_or_down                               0x08000241   Thumb Code    60  bldc.o(.text)
    SetEnable                                0x0800027d   Thumb Code    12  bldc.o(.text)
    SetPWM                                   0x08000289   Thumb Code   120  bldc.o(.text)
    CalculateBLDC                            0x08000301   Thumb Code   652  bldc.o(.text)
    pinMode                                  0x0800058d   Thumb Code    42  setup.o(.text)
    pinModePull                              0x080005b9   Thumb Code    40  setup.o(.text)
    Interrupt_init                           0x080005e1   Thumb Code     8  setup.o(.text)
    Watchdog_init                            0x080005e9   Thumb Code    56  setup.o(.text)
    TimeoutTimer_init                        0x08000621   Thumb Code    92  setup.o(.text)
    GPIO_init                                0x0800067d   Thumb Code   304  setup.o(.text)
    PWM_init                                 0x080007ad   Thumb Code   368  setup.o(.text)
    ADC_init                                 0x0800091d   Thumb Code   220  setup.o(.text)
    USART1_Init                              0x080009f9   Thumb Code     2  setup.o(.text)
    USART0_Init                              0x080009fd   Thumb Code   284  setup.o(.text)
    SysTick_Handler                          0x08000b19   Thumb Code    16  it.o(.text)
    ResetTimeout                             0x08000b29   Thumb Code    14  it.o(.text)
    TIMER13_IRQHandler                       0x08000b39   Thumb Code    76  it.o(.text)
    TIMER0_BRK_UP_TRG_COM_IRQHandler         0x08000b85   Thumb Code    26  it.o(.text)
    DMA_Channel0_IRQHandler                  0x08000ba1   Thumb Code    32  it.o(.text)
    DMA_Channel1_2_IRQHandler                0x08000bc1   Thumb Code    32  it.o(.text)
    millis                                   0x08000be1   Thumb Code    12  it.o(.text)
    Delay                                    0x08000bed   Thumb Code    28  it.o(.text)
    NMI_Handler                              0x08000c09   Thumb Code     2  it.o(.text)
    HardFault_Handler                        0x08000c0d   Thumb Code     2  it.o(.text)
    MemManage_Handler                        0x08000c11   Thumb Code     2  it.o(.text)
    BusFault_Handler                         0x08000c15   Thumb Code     2  it.o(.text)
    UsageFault_Handler                       0x08000c19   Thumb Code     2  it.o(.text)
    SVC_Handler                              0x08000c1d   Thumb Code     2  it.o(.text)
    DebugMon_Handler                         0x08000c21   Thumb Code     2  it.o(.text)
    PendSV_Handler                           0x08000c25   Thumb Code     2  it.o(.text)
    SendBuffer                               0x08000c29   Thumb Code    48  commsmasterslave.o(.text)
    CalcCRC                                  0x08000c59   Thumb Code    60  commsmasterslave.o(.text)
    SetBeepsBackwardsMaster                  0x08000c95   Thumb Code    12  commsmasterslave.o(.text)
    GetBeepsBackwardsMaster                  0x08000ca1   Thumb Code    12  commsmasterslave.o(.text)
    HidePinDigital                           0x08000cad   Thumb Code    58  remoteautodetect.o(.text)
    GetPinName                               0x08000ce9   Thumb Code    42  remoteautodetect.o(.text)
    ListFound                                0x08000d15   Thumb Code   192  remoteautodetect.o(.text)
    RemoteUpdate                             0x08000dd5   Thumb Code   124  remoteautodetect.o(.text)
    RemoteCallback                           0x08000e51   Thumb Code   424  remoteautodetect.o(.text)
    AutodetectInit                           0x08000ff9   Thumb Code    96  remoteautodetect.o(.text)
    AutoDetectSetStage                       0x08001059   Thumb Code    78  remoteautodetect.o(.text)
    AutoDetectNextStage                      0x080010a9   Thumb Code    98  remoteautodetect.o(.text)
    SetNextTestPin                           0x0800110d   Thumb Code   200  remoteautodetect.o(.text)
    ScanInit                                 0x080011d5   Thumb Code   630  remoteautodetect.o(.text)
    AutodetectScan                           0x0800144d   Thumb Code  4872  remoteautodetect.o(.text)
    AutoDetectHallInit                       0x080027d1   Thumb Code    94  remoteautodetect.o(.text)
    AutoDetectHallOrderInit                  0x08002831   Thumb Code   128  remoteautodetect.o(.text)
    AutodetectBldc                           0x080028b1   Thumb Code  2028  remoteautodetect.o(.text)
    adc_deinit                               0x0800312d   Thumb Code    22  gd32f1x0_adc.o(.text)
    adc_enable                               0x08003145   Thumb Code    26  gd32f1x0_adc.o(.text)
    adc_disable                              0x08003161   Thumb Code    18  gd32f1x0_adc.o(.text)
    adc_calibration_enable                   0x08003175   Thumb Code    40  gd32f1x0_adc.o(.text)
    adc_dma_mode_enable                      0x0800319d   Thumb Code    18  gd32f1x0_adc.o(.text)
    adc_dma_mode_disable                     0x080031b1   Thumb Code    18  gd32f1x0_adc.o(.text)
    adc_tempsensor_vrefint_enable            0x080031c5   Thumb Code    18  gd32f1x0_adc.o(.text)
    adc_tempsensor_vrefint_disable           0x080031d9   Thumb Code    18  gd32f1x0_adc.o(.text)
    adc_vbat_enable                          0x080031ed   Thumb Code    18  gd32f1x0_adc.o(.text)
    adc_vbat_disable                         0x08003201   Thumb Code    18  gd32f1x0_adc.o(.text)
    adc_discontinuous_mode_config            0x08003215   Thumb Code    68  gd32f1x0_adc.o(.text)
    adc_special_function_config              0x08003259   Thumb Code   100  gd32f1x0_adc.o(.text)
    adc_data_alignment_config                0x080032bd   Thumb Code    26  gd32f1x0_adc.o(.text)
    adc_channel_length_config                0x080032d9   Thumb Code    82  gd32f1x0_adc.o(.text)
    adc_regular_channel_config               0x0800332d   Thumb Code   180  gd32f1x0_adc.o(.text)
    adc_inserted_channel_config              0x080033e1   Thumb Code   114  gd32f1x0_adc.o(.text)
    adc_inserted_channel_offset_config       0x08003455   Thumb Code    32  gd32f1x0_adc.o(.text)
    adc_external_trigger_config              0x08003475   Thumb Code    72  gd32f1x0_adc.o(.text)
    adc_external_trigger_source_config       0x080034bd   Thumb Code    42  gd32f1x0_adc.o(.text)
    adc_software_trigger_enable              0x080034e9   Thumb Code    36  gd32f1x0_adc.o(.text)
    adc_regular_data_read                    0x0800350d   Thumb Code    14  gd32f1x0_adc.o(.text)
    adc_inserted_data_read                   0x0800351d   Thumb Code    74  gd32f1x0_adc.o(.text)
    adc_flag_get                             0x08003569   Thumb Code    18  gd32f1x0_adc.o(.text)
    adc_flag_clear                           0x0800357d   Thumb Code    18  gd32f1x0_adc.o(.text)
    adc_interrupt_flag_get                   0x08003591   Thumb Code    56  gd32f1x0_adc.o(.text)
    adc_interrupt_flag_clear                 0x080035c9   Thumb Code    18  gd32f1x0_adc.o(.text)
    adc_interrupt_enable                     0x080035dd   Thumb Code    48  gd32f1x0_adc.o(.text)
    adc_interrupt_disable                    0x0800360d   Thumb Code    48  gd32f1x0_adc.o(.text)
    adc_watchdog_single_channel_enable       0x0800363d   Thumb Code    42  gd32f1x0_adc.o(.text)
    adc_watchdog_group_channel_enable        0x08003669   Thumb Code    48  gd32f1x0_adc.o(.text)
    adc_watchdog_disable                     0x080036a5   Thumb Code    24  gd32f1x0_adc.o(.text)
    adc_watchdog_threshold_config            0x080036bd   Thumb Code    22  gd32f1x0_adc.o(.text)
    dma_deinit                               0x080036d5   Thumb Code    48  gd32f1x0_dma.o(.text)
    dma_struct_para_init                     0x08003705   Thumb Code    24  gd32f1x0_dma.o(.text)
    dma_init                                 0x0800371d   Thumb Code   122  gd32f1x0_dma.o(.text)
    dma_circulation_enable                   0x08003799   Thumb Code    24  gd32f1x0_dma.o(.text)
    dma_circulation_disable                  0x080037b1   Thumb Code    24  gd32f1x0_dma.o(.text)
    dma_memory_to_memory_enable              0x080037c9   Thumb Code    24  gd32f1x0_dma.o(.text)
    dma_memory_to_memory_disable             0x080037e1   Thumb Code    24  gd32f1x0_dma.o(.text)
    dma_channel_enable                       0x080037f9   Thumb Code    24  gd32f1x0_dma.o(.text)
    dma_channel_disable                      0x08003811   Thumb Code    24  gd32f1x0_dma.o(.text)
    dma_periph_address_config                0x08003829   Thumb Code    16  gd32f1x0_dma.o(.text)
    dma_memory_address_config                0x08003839   Thumb Code    16  gd32f1x0_dma.o(.text)
    dma_transfer_number_config               0x08003849   Thumb Code    16  gd32f1x0_dma.o(.text)
    dma_transfer_number_get                  0x08003859   Thumb Code    16  gd32f1x0_dma.o(.text)
    dma_priority_config                      0x08003869   Thumb Code    26  gd32f1x0_dma.o(.text)
    dma_memory_width_config                  0x08003885   Thumb Code    26  gd32f1x0_dma.o(.text)
    dma_periph_width_config                  0x080038a1   Thumb Code    26  gd32f1x0_dma.o(.text)
    dma_memory_increase_enable               0x080038bd   Thumb Code    24  gd32f1x0_dma.o(.text)
    dma_memory_increase_disable              0x080038d5   Thumb Code    24  gd32f1x0_dma.o(.text)
    dma_periph_increase_enable               0x080038ed   Thumb Code    24  gd32f1x0_dma.o(.text)
    dma_periph_increase_disable              0x08003905   Thumb Code    24  gd32f1x0_dma.o(.text)
    dma_transfer_direction_config            0x0800391d   Thumb Code    30  gd32f1x0_dma.o(.text)
    dma_interrupt_flag_get                   0x0800393d   Thumb Code   116  gd32f1x0_dma.o(.text)
    dma_interrupt_flag_clear                 0x080039b1   Thumb Code    20  gd32f1x0_dma.o(.text)
    dma_interrupt_enable                     0x080039c5   Thumb Code    22  gd32f1x0_dma.o(.text)
    dma_interrupt_disable                    0x080039dd   Thumb Code    24  gd32f1x0_dma.o(.text)
    dma_flag_get                             0x080039f5   Thumb Code    22  gd32f1x0_dma.o(.text)
    dma_flag_clear                           0x08003a0d   Thumb Code    20  gd32f1x0_dma.o(.text)
    fwdgt_write_disable                      0x08003a21   Thumb Code    14  gd32f1x0_fwdgt.o(.text)
    fwdgt_counter_reload                     0x08003a31   Thumb Code    16  gd32f1x0_fwdgt.o(.text)
    fwdgt_enable                             0x08003a41   Thumb Code    16  gd32f1x0_fwdgt.o(.text)
    fwdgt_window_value_config                0x08003a51   Thumb Code    52  gd32f1x0_fwdgt.o(.text)
    fwdgt_config                             0x08003a85   Thumb Code   100  gd32f1x0_fwdgt.o(.text)
    fwdgt_flag_get                           0x08003ae9   Thumb Code    18  gd32f1x0_fwdgt.o(.text)
    gpio_deinit                              0x08003afd   Thumb Code    58  gd32f1x0_gpio.o(.text)
    gpio_mode_set                            0x08003b39   Thumb Code    84  gd32f1x0_gpio.o(.text)
    gpio_output_options_set                  0x08003b8d   Thumb Code    70  gd32f1x0_gpio.o(.text)
    gpio_bit_set                             0x08003bd5   Thumb Code     4  gd32f1x0_gpio.o(.text)
    gpio_bit_reset                           0x08003bd9   Thumb Code     4  gd32f1x0_gpio.o(.text)
    gpio_bit_write                           0x08003bdd   Thumb Code    12  gd32f1x0_gpio.o(.text)
    gpio_port_write                          0x08003be9   Thumb Code     4  gd32f1x0_gpio.o(.text)
    gpio_input_bit_get                       0x08003bed   Thumb Code    10  gd32f1x0_gpio.o(.text)
    gpio_input_port_get                      0x08003bf9   Thumb Code     6  gd32f1x0_gpio.o(.text)
    gpio_output_bit_get                      0x08003c01   Thumb Code    10  gd32f1x0_gpio.o(.text)
    gpio_output_port_get                     0x08003c0d   Thumb Code     6  gd32f1x0_gpio.o(.text)
    gpio_af_set                              0x08003c15   Thumb Code   110  gd32f1x0_gpio.o(.text)
    gpio_pin_lock                            0x08003c85   Thumb Code    16  gd32f1x0_gpio.o(.text)
    nvic_priority_group_set                  0x08003c95   Thumb Code    20  gd32f1x0_misc.o(.text)
    nvic_irq_enable                          0x08003ca9   Thumb Code   168  gd32f1x0_misc.o(.text)
    nvic_irq_disable                         0x08003d51   Thumb Code    30  gd32f1x0_misc.o(.text)
    nvic_vector_table_set                    0x08003d71   Thumb Code    24  gd32f1x0_misc.o(.text)
    system_lowpower_set                      0x08003d89   Thumb Code    16  gd32f1x0_misc.o(.text)
    system_lowpower_reset                    0x08003d99   Thumb Code    18  gd32f1x0_misc.o(.text)
    systick_clksource_set                    0x08003dad   Thumb Code    24  gd32f1x0_misc.o(.text)
    rcu_deinit                               0x08003dc5   Thumb Code   112  gd32f1x0_rcu.o(.text)
    rcu_periph_clock_enable                  0x08003e35   Thumb Code    30  gd32f1x0_rcu.o(.text)
    rcu_periph_clock_disable                 0x08003e55   Thumb Code    32  gd32f1x0_rcu.o(.text)
    rcu_periph_clock_sleep_enable            0x08003e75   Thumb Code    30  gd32f1x0_rcu.o(.text)
    rcu_periph_clock_sleep_disable           0x08003e95   Thumb Code    32  gd32f1x0_rcu.o(.text)
    rcu_periph_reset_enable                  0x08003eb5   Thumb Code    30  gd32f1x0_rcu.o(.text)
    rcu_periph_reset_disable                 0x08003ed5   Thumb Code    32  gd32f1x0_rcu.o(.text)
    rcu_bkp_reset_enable                     0x08003ef5   Thumb Code    18  gd32f1x0_rcu.o(.text)
    rcu_bkp_reset_disable                    0x08003f09   Thumb Code    18  gd32f1x0_rcu.o(.text)
    rcu_system_clock_source_config           0x08003f1d   Thumb Code    20  gd32f1x0_rcu.o(.text)
    rcu_system_clock_source_get              0x08003f31   Thumb Code    16  gd32f1x0_rcu.o(.text)
    rcu_ahb_clock_config                     0x08003f41   Thumb Code    20  gd32f1x0_rcu.o(.text)
    rcu_apb1_clock_config                    0x08003f55   Thumb Code    20  gd32f1x0_rcu.o(.text)
    rcu_apb2_clock_config                    0x08003f69   Thumb Code    20  gd32f1x0_rcu.o(.text)
    rcu_adc_clock_config                     0x08003f7d   Thumb Code    88  gd32f1x0_rcu.o(.text)
    rcu_usbd_clock_config                    0x08003fd5   Thumb Code    24  gd32f1x0_rcu.o(.text)
    rcu_ckout_config                         0x08003fed   Thumb Code    22  gd32f1x0_rcu.o(.text)
    rcu_pll_config                           0x08004005   Thumb Code    36  gd32f1x0_rcu.o(.text)
    rcu_usart_clock_config                   0x08004029   Thumb Code    24  gd32f1x0_rcu.o(.text)
    rcu_cec_clock_config                     0x08004041   Thumb Code    24  gd32f1x0_rcu.o(.text)
    rcu_rtc_clock_config                     0x08004059   Thumb Code    24  gd32f1x0_rcu.o(.text)
    rcu_hxtal_prediv_config                  0x08004071   Thumb Code    20  gd32f1x0_rcu.o(.text)
    rcu_lxtal_drive_capability_config        0x08004085   Thumb Code    24  gd32f1x0_rcu.o(.text)
    rcu_flag_get                             0x0800409d   Thumb Code    26  gd32f1x0_rcu.o(.text)
    rcu_all_reset_flag_clear                 0x080040b9   Thumb Code    18  gd32f1x0_rcu.o(.text)
    rcu_interrupt_flag_get                   0x080040cd   Thumb Code    18  gd32f1x0_rcu.o(.text)
    rcu_interrupt_flag_clear                 0x080040e1   Thumb Code    16  gd32f1x0_rcu.o(.text)
    rcu_interrupt_enable                     0x080040f1   Thumb Code    16  gd32f1x0_rcu.o(.text)
    rcu_interrupt_disable                    0x08004101   Thumb Code    18  gd32f1x0_rcu.o(.text)
    rcu_osci_stab_wait                       0x08004115   Thumb Code   324  gd32f1x0_rcu.o(.text)
    rcu_osci_on                              0x08004259   Thumb Code    30  gd32f1x0_rcu.o(.text)
    rcu_osci_off                             0x08004279   Thumb Code    32  gd32f1x0_rcu.o(.text)
    rcu_osci_bypass_mode_enable              0x08004299   Thumb Code    64  gd32f1x0_rcu.o(.text)
    rcu_osci_bypass_mode_disable             0x080042d9   Thumb Code    64  gd32f1x0_rcu.o(.text)
    rcu_hxtal_clock_monitor_enable           0x08004319   Thumb Code    18  gd32f1x0_rcu.o(.text)
    rcu_hxtal_clock_monitor_disable          0x0800432d   Thumb Code    18  gd32f1x0_rcu.o(.text)
    rcu_irc8m_adjust_value_set               0x08004341   Thumb Code    22  gd32f1x0_rcu.o(.text)
    rcu_irc14m_adjust_value_set              0x08004359   Thumb Code    22  gd32f1x0_rcu.o(.text)
    rcu_voltage_key_unlock                   0x08004371   Thumb Code    30  gd32f1x0_rcu.o(.text)
    rcu_deepsleep_voltage_set                0x08004391   Thumb Code    24  gd32f1x0_rcu.o(.text)
    rcu_power_down_voltage_set               0x080043a9   Thumb Code    24  gd32f1x0_rcu.o(.text)
    rcu_clock_freq_get                       0x080043c1   Thumb Code   292  gd32f1x0_rcu.o(.text)
    timer_deinit                             0x080044f5   Thumb Code   194  gd32f1x0_timer.o(.text)
    timer_struct_para_init                   0x080045b9   Thumb Code    16  gd32f1x0_timer.o(.text)
    timer_init                               0x080045c9   Thumb Code   212  gd32f1x0_timer.o(.text)
    timer_enable                             0x0800469d   Thumb Code    10  gd32f1x0_timer.o(.text)
    timer_disable                            0x080046a9   Thumb Code    10  gd32f1x0_timer.o(.text)
    timer_auto_reload_shadow_enable          0x080046b5   Thumb Code    10  gd32f1x0_timer.o(.text)
    timer_auto_reload_shadow_disable         0x080046c1   Thumb Code    10  gd32f1x0_timer.o(.text)
    timer_update_event_enable                0x080046cd   Thumb Code    10  gd32f1x0_timer.o(.text)
    timer_update_event_disable               0x080046d9   Thumb Code    10  gd32f1x0_timer.o(.text)
    timer_counter_alignment                  0x080046e5   Thumb Code    16  gd32f1x0_timer.o(.text)
    timer_counter_up_direction               0x080046f5   Thumb Code    10  gd32f1x0_timer.o(.text)
    timer_counter_down_direction             0x08004701   Thumb Code    10  gd32f1x0_timer.o(.text)
    timer_prescaler_config                   0x0800470d   Thumb Code    18  gd32f1x0_timer.o(.text)
    timer_repetition_value_config            0x08004721   Thumb Code     4  gd32f1x0_timer.o(.text)
    timer_autoreload_value_config            0x08004725   Thumb Code     4  gd32f1x0_timer.o(.text)
    timer_counter_value_config               0x08004729   Thumb Code     4  gd32f1x0_timer.o(.text)
    timer_counter_read                       0x0800472d   Thumb Code     4  gd32f1x0_timer.o(.text)
    timer_prescaler_read                     0x08004731   Thumb Code     6  gd32f1x0_timer.o(.text)
    timer_single_pulse_mode_config           0x08004739   Thumb Code    30  gd32f1x0_timer.o(.text)
    timer_update_source_config               0x08004759   Thumb Code    30  gd32f1x0_timer.o(.text)
    timer_ocpre_clear_source_config          0x08004779   Thumb Code    28  gd32f1x0_timer.o(.text)
    timer_interrupt_enable                   0x08004795   Thumb Code     8  gd32f1x0_timer.o(.text)
    timer_interrupt_disable                  0x0800479d   Thumb Code    10  gd32f1x0_timer.o(.text)
    timer_interrupt_flag_get                 0x080047a9   Thumb Code    22  gd32f1x0_timer.o(.text)
    timer_interrupt_flag_clear               0x080047c1   Thumb Code     6  gd32f1x0_timer.o(.text)
    timer_flag_get                           0x080047c9   Thumb Code    10  gd32f1x0_timer.o(.text)
    timer_flag_clear                         0x080047d5   Thumb Code     6  gd32f1x0_timer.o(.text)
    timer_dma_enable                         0x080047dd   Thumb Code     8  gd32f1x0_timer.o(.text)
    timer_dma_disable                        0x080047e5   Thumb Code    10  gd32f1x0_timer.o(.text)
    timer_channel_dma_request_source_select  0x080047f1   Thumb Code    30  gd32f1x0_timer.o(.text)
    timer_dma_transfer_config                0x08004811   Thumb Code    24  gd32f1x0_timer.o(.text)
    timer_event_software_generate            0x08004829   Thumb Code     8  gd32f1x0_timer.o(.text)
    timer_break_struct_para_init             0x08004831   Thumb Code    16  gd32f1x0_timer.o(.text)
    timer_break_config                       0x08004841   Thumb Code    36  gd32f1x0_timer.o(.text)
    timer_break_enable                       0x08004865   Thumb Code    10  gd32f1x0_timer.o(.text)
    timer_break_disable                      0x08004871   Thumb Code    10  gd32f1x0_timer.o(.text)
    timer_automatic_output_enable            0x0800487d   Thumb Code    10  gd32f1x0_timer.o(.text)
    timer_automatic_output_disable           0x08004889   Thumb Code    10  gd32f1x0_timer.o(.text)
    timer_primary_output_config              0x08004895   Thumb Code    18  gd32f1x0_timer.o(.text)
    timer_channel_control_shadow_config      0x080048a9   Thumb Code    16  gd32f1x0_timer.o(.text)
    timer_channel_control_shadow_update_config 0x080048b9   Thumb Code    30  gd32f1x0_timer.o(.text)
    timer_channel_output_struct_para_init    0x080048d9   Thumb Code    12  gd32f1x0_timer.o(.text)
    timer_channel_output_config              0x080048e5   Thumb Code   550  gd32f1x0_timer.o(.text)
    timer_channel_output_mode_config         0x08004b0d   Thumb Code    58  gd32f1x0_timer.o(.text)
    timer_channel_output_pulse_value_config  0x08004b49   Thumb Code    12  gd32f1x0_timer.o(.text)
    timer_channel_output_shadow_config       0x08004b55   Thumb Code    58  gd32f1x0_timer.o(.text)
    timer_channel_output_fast_config         0x08004b91   Thumb Code    58  gd32f1x0_timer.o(.text)
    timer_channel_output_clear_config        0x08004bcd   Thumb Code    58  gd32f1x0_timer.o(.text)
    timer_channel_output_polarity_config     0x08004c09   Thumb Code    74  gd32f1x0_timer.o(.text)
    timer_channel_complementary_output_polarity_config 0x08004c55   Thumb Code    74  gd32f1x0_timer.o(.text)
    timer_channel_output_state_config        0x08004ca1   Thumb Code    74  gd32f1x0_timer.o(.text)
    timer_channel_complementary_output_state_config 0x08004ced   Thumb Code    60  gd32f1x0_timer.o(.text)
    timer_channel_input_struct_para_init     0x08004d29   Thumb Code    12  gd32f1x0_timer.o(.text)
    timer_input_capture_config               0x08004d35   Thumb Code   346  gd32f1x0_timer.o(.text)
    timer_channel_input_capture_prescaler_config 0x08004e91   Thumb Code    58  gd32f1x0_timer.o(.text)
    timer_channel_capture_value_register_read 0x08004ecd   Thumb Code    14  gd32f1x0_timer.o(.text)
    timer_input_pwm_capture_config           0x08004edd   Thumb Code   356  gd32f1x0_timer.o(.text)
    timer_hall_mode_config                   0x08005041   Thumb Code    30  gd32f1x0_timer.o(.text)
    timer_input_trigger_source_select        0x08005061   Thumb Code    16  gd32f1x0_timer.o(.text)
    timer_master_output_trigger_source_select 0x08005071   Thumb Code    16  gd32f1x0_timer.o(.text)
    timer_slave_mode_select                  0x08005081   Thumb Code    16  gd32f1x0_timer.o(.text)
    timer_master_slave_mode_config           0x08005091   Thumb Code    30  gd32f1x0_timer.o(.text)
    timer_external_trigger_config            0x080050b1   Thumb Code    34  gd32f1x0_timer.o(.text)
    timer_quadrature_decoder_mode_config     0x080050d5   Thumb Code    78  gd32f1x0_timer.o(.text)
    timer_internal_clock_config              0x08005125   Thumb Code    10  gd32f1x0_timer.o(.text)
    timer_internal_trigger_as_external_clock_config 0x08005131   Thumb Code    32  gd32f1x0_timer.o(.text)
    timer_external_trigger_as_external_clock_config 0x08005151   Thumb Code   148  gd32f1x0_timer.o(.text)
    timer_external_clock_mode0_config        0x080051e5   Thumb Code    50  gd32f1x0_timer.o(.text)
    timer_external_clock_mode1_config        0x08005219   Thumb Code    42  gd32f1x0_timer.o(.text)
    timer_external_clock_mode1_disable       0x08005245   Thumb Code    10  gd32f1x0_timer.o(.text)
    timer_channel_remap_config               0x08005251   Thumb Code     4  gd32f1x0_timer.o(.text)
    usart_deinit                             0x08005255   Thumb Code    54  gd32f1x0_usart.o(.text)
    usart_baudrate_set                       0x0800528d   Thumb Code    90  gd32f1x0_usart.o(.text)
    usart_parity_config                      0x080052e9   Thumb Code    24  gd32f1x0_usart.o(.text)
    usart_word_length_set                    0x08005301   Thumb Code    24  gd32f1x0_usart.o(.text)
    usart_stop_bit_set                       0x08005319   Thumb Code    24  gd32f1x0_usart.o(.text)
    usart_enable                             0x08005331   Thumb Code    10  gd32f1x0_usart.o(.text)
    usart_disable                            0x0800533d   Thumb Code    10  gd32f1x0_usart.o(.text)
    usart_transmit_config                    0x08005349   Thumb Code    16  gd32f1x0_usart.o(.text)
    usart_receive_config                     0x08005359   Thumb Code    16  gd32f1x0_usart.o(.text)
    usart_data_transmit                      0x08005369   Thumb Code     8  gd32f1x0_usart.o(.text)
    usart_data_receive                       0x08005371   Thumb Code     8  gd32f1x0_usart.o(.text)
    usart_data_first_config                  0x08005379   Thumb Code    28  gd32f1x0_usart.o(.text)
    usart_invert_config                      0x08005395   Thumb Code   106  gd32f1x0_usart.o(.text)
    usart_overrun_enable                     0x08005401   Thumb Code    18  gd32f1x0_usart.o(.text)
    usart_overrun_disable                    0x08005415   Thumb Code    18  gd32f1x0_usart.o(.text)
    usart_oversample_config                  0x08005429   Thumb Code    24  gd32f1x0_usart.o(.text)
    usart_sample_bit_config                  0x08005441   Thumb Code    24  gd32f1x0_usart.o(.text)
    usart_autobaud_detection_enable          0x08005459   Thumb Code    10  gd32f1x0_usart.o(.text)
    usart_autobaud_detection_disable         0x08005465   Thumb Code    10  gd32f1x0_usart.o(.text)
    usart_autobaud_detection_mode_config     0x08005471   Thumb Code    16  gd32f1x0_usart.o(.text)
    usart_mute_mode_enable                   0x08005481   Thumb Code    10  gd32f1x0_usart.o(.text)
    usart_mute_mode_disable                  0x0800548d   Thumb Code    10  gd32f1x0_usart.o(.text)
    usart_mute_mode_wakeup_config            0x08005499   Thumb Code    24  gd32f1x0_usart.o(.text)
    usart_address_detection_mode_config      0x080054b1   Thumb Code    28  gd32f1x0_usart.o(.text)
    usart_address_config                     0x080054cd   Thumb Code    26  gd32f1x0_usart.o(.text)
    usart_receiver_timeout_enable            0x080054e9   Thumb Code    10  gd32f1x0_usart.o(.text)
    usart_receiver_timeout_disable           0x080054f5   Thumb Code    10  gd32f1x0_usart.o(.text)
    usart_receiver_timeout_config            0x08005501   Thumb Code    16  gd32f1x0_usart.o(.text)
    usart_lin_mode_enable                    0x08005511   Thumb Code    18  gd32f1x0_usart.o(.text)
    usart_lin_mode_disable                   0x08005525   Thumb Code    18  gd32f1x0_usart.o(.text)
    usart_lin_break_detection_length_config  0x08005539   Thumb Code    20  gd32f1x0_usart.o(.text)
    usart_halfduplex_enable                  0x0800554d   Thumb Code    18  gd32f1x0_usart.o(.text)
    usart_halfduplex_disable                 0x08005561   Thumb Code    18  gd32f1x0_usart.o(.text)
    usart_clock_enable                       0x08005575   Thumb Code    18  gd32f1x0_usart.o(.text)
    usart_clock_disable                      0x08005589   Thumb Code    18  gd32f1x0_usart.o(.text)
    usart_synchronous_clock_config           0x0800559d   Thumb Code    60  gd32f1x0_usart.o(.text)
    usart_smartcard_mode_enable              0x080055d9   Thumb Code    18  gd32f1x0_usart.o(.text)
    usart_smartcard_mode_disable             0x080055ed   Thumb Code    18  gd32f1x0_usart.o(.text)
    usart_smartcard_mode_nack_enable         0x08005601   Thumb Code    18  gd32f1x0_usart.o(.text)
    usart_smartcard_mode_nack_disable        0x08005615   Thumb Code    18  gd32f1x0_usart.o(.text)
    usart_guard_time_config                  0x08005629   Thumb Code    28  gd32f1x0_usart.o(.text)
    usart_block_length_config                0x08005645   Thumb Code    18  gd32f1x0_usart.o(.text)
    usart_smartcard_autoretry_config         0x08005659   Thumb Code    30  gd32f1x0_usart.o(.text)
    usart_irda_mode_enable                   0x08005679   Thumb Code    18  gd32f1x0_usart.o(.text)
    usart_irda_mode_disable                  0x0800568d   Thumb Code    18  gd32f1x0_usart.o(.text)
    usart_irda_lowpower_config               0x080056a1   Thumb Code    20  gd32f1x0_usart.o(.text)
    usart_prescaler_config                   0x080056b5   Thumb Code    24  gd32f1x0_usart.o(.text)
    usart_hardware_flow_rts_config           0x080056cd   Thumb Code    24  gd32f1x0_usart.o(.text)
    usart_hardware_flow_cts_config           0x080056e5   Thumb Code    24  gd32f1x0_usart.o(.text)
    usart_rs485_driver_enable                0x080056fd   Thumb Code    18  gd32f1x0_usart.o(.text)
    usart_rs485_driver_disable               0x08005711   Thumb Code    18  gd32f1x0_usart.o(.text)
    usart_driver_assertime_config            0x08005725   Thumb Code    30  gd32f1x0_usart.o(.text)
    usart_driver_deassertime_config          0x08005745   Thumb Code    30  gd32f1x0_usart.o(.text)
    usart_depolarity_config                  0x08005765   Thumb Code    28  gd32f1x0_usart.o(.text)
    usart_dma_receive_config                 0x08005781   Thumb Code    16  gd32f1x0_usart.o(.text)
    usart_dma_transmit_config                0x08005791   Thumb Code    16  gd32f1x0_usart.o(.text)
    usart_reception_error_dma_disable        0x080057a1   Thumb Code    18  gd32f1x0_usart.o(.text)
    usart_reception_error_dma_enable         0x080057b5   Thumb Code    18  gd32f1x0_usart.o(.text)
    usart_wakeup_enable                      0x080057c9   Thumb Code    10  gd32f1x0_usart.o(.text)
    usart_wakeup_disable                     0x080057d5   Thumb Code    10  gd32f1x0_usart.o(.text)
    usart_wakeup_mode_config                 0x080057e1   Thumb Code    28  gd32f1x0_usart.o(.text)
    usart_flag_get                           0x080057fd   Thumb Code    16  gd32f1x0_usart.o(.text)
    usart_flag_clear                         0x0800580d   Thumb Code    18  gd32f1x0_usart.o(.text)
    usart_interrupt_enable                   0x08005821   Thumb Code    24  gd32f1x0_usart.o(.text)
    usart_interrupt_disable                  0x08005839   Thumb Code    26  gd32f1x0_usart.o(.text)
    usart_command_enable                     0x08005855   Thumb Code     8  gd32f1x0_usart.o(.text)
    usart_interrupt_flag_get                 0x0800585d   Thumb Code    34  gd32f1x0_usart.o(.text)
    usart_interrupt_flag_clear               0x08005881   Thumb Code    18  gd32f1x0_usart.o(.text)
    Reset_Handler                            0x08005895   Thumb Code     8  startup_gd32f1x0.o(.text)
    ADC_CMP_IRQHandler                       0x080058af   Thumb Code     0  startup_gd32f1x0.o(.text)
    CAN0_RX0_IRQHandler                      0x080058af   Thumb Code     0  startup_gd32f1x0.o(.text)
    CAN0_RX1_IRQHandler                      0x080058af   Thumb Code     0  startup_gd32f1x0.o(.text)
    CAN0_SCE_IRQHandler                      0x080058af   Thumb Code     0  startup_gd32f1x0.o(.text)
    CAN0_TX_IRQHandler                       0x080058af   Thumb Code     0  startup_gd32f1x0.o(.text)
    CAN1_RX0_IRQHandler                      0x080058af   Thumb Code     0  startup_gd32f1x0.o(.text)
    CAN1_RX1_IRQHandler                      0x080058af   Thumb Code     0  startup_gd32f1x0.o(.text)
    CAN1_SCE_IRQHandler                      0x080058af   Thumb Code     0  startup_gd32f1x0.o(.text)
    CAN1_TX_IRQHandler                       0x080058af   Thumb Code     0  startup_gd32f1x0.o(.text)
    CEC_IRQHandler                           0x080058af   Thumb Code     0  startup_gd32f1x0.o(.text)
    DMA_Channel3_4_IRQHandler                0x080058af   Thumb Code     0  startup_gd32f1x0.o(.text)
    DMA_Channel5_6_IRQHandler                0x080058af   Thumb Code     0  startup_gd32f1x0.o(.text)
    EXTI0_1_IRQHandler                       0x080058af   Thumb Code     0  startup_gd32f1x0.o(.text)
    EXTI2_3_IRQHandler                       0x080058af   Thumb Code     0  startup_gd32f1x0.o(.text)
    EXTI4_15_IRQHandler                      0x080058af   Thumb Code     0  startup_gd32f1x0.o(.text)
    FMC_IRQHandler                           0x080058af   Thumb Code     0  startup_gd32f1x0.o(.text)
    I2C0_ER_IRQHandler                       0x080058af   Thumb Code     0  startup_gd32f1x0.o(.text)
    I2C0_EV_IRQHandler                       0x080058af   Thumb Code     0  startup_gd32f1x0.o(.text)
    I2C1_ER_IRQHandler                       0x080058af   Thumb Code     0  startup_gd32f1x0.o(.text)
    I2C1_EV_IRQHandler                       0x080058af   Thumb Code     0  startup_gd32f1x0.o(.text)
    I2C2_ER_IRQHandler                       0x080058af   Thumb Code     0  startup_gd32f1x0.o(.text)
    I2C2_EV_IRQHandler                       0x080058af   Thumb Code     0  startup_gd32f1x0.o(.text)
    LVD_IRQHandler                           0x080058af   Thumb Code     0  startup_gd32f1x0.o(.text)
    RCU_IRQHandler                           0x080058af   Thumb Code     0  startup_gd32f1x0.o(.text)
    RTC_IRQHandler                           0x080058af   Thumb Code     0  startup_gd32f1x0.o(.text)
    SLCD_IRQHandler                          0x080058af   Thumb Code     0  startup_gd32f1x0.o(.text)
    SPI0_IRQHandler                          0x080058af   Thumb Code     0  startup_gd32f1x0.o(.text)
    SPI1_IRQHandler                          0x080058af   Thumb Code     0  startup_gd32f1x0.o(.text)
    SPI2_IRQHandler                          0x080058af   Thumb Code     0  startup_gd32f1x0.o(.text)
    TIMER0_Channel_IRQHandler                0x080058af   Thumb Code     0  startup_gd32f1x0.o(.text)
    TIMER14_IRQHandler                       0x080058af   Thumb Code     0  startup_gd32f1x0.o(.text)
    TIMER15_IRQHandler                       0x080058af   Thumb Code     0  startup_gd32f1x0.o(.text)
    TIMER16_IRQHandler                       0x080058af   Thumb Code     0  startup_gd32f1x0.o(.text)
    TIMER1_IRQHandler                        0x080058af   Thumb Code     0  startup_gd32f1x0.o(.text)
    TIMER2_IRQHandler                        0x080058af   Thumb Code     0  startup_gd32f1x0.o(.text)
    TIMER5_DAC_IRQHandler                    0x080058af   Thumb Code     0  startup_gd32f1x0.o(.text)
    TSI_IRQHandler                           0x080058af   Thumb Code     0  startup_gd32f1x0.o(.text)
    USART0_IRQHandler                        0x080058af   Thumb Code     0  startup_gd32f1x0.o(.text)
    USART1_IRQHandler                        0x080058af   Thumb Code     0  startup_gd32f1x0.o(.text)
    USBDWakeUp_IRQHandler                    0x080058af   Thumb Code     0  startup_gd32f1x0.o(.text)
    USBD_HP_IRQHandler                       0x080058af   Thumb Code     0  startup_gd32f1x0.o(.text)
    USBD_LP_IRQHandler                       0x080058af   Thumb Code     0  startup_gd32f1x0.o(.text)
    WWDGT_IRQHandler                         0x080058af   Thumb Code     0  startup_gd32f1x0.o(.text)
    SystemInit                               0x080058b9   Thumb Code   188  system_gd32f1x0.o(.text)
    SystemCoreClockUpdate                    0x08005975   Thumb Code   112  system_gd32f1x0.o(.text)
    __aeabi_memcpy                           0x080059f5   Thumb Code    36  memcpya.o(.text)
    __aeabi_memcpy4                          0x080059f5   Thumb Code     0  memcpya.o(.text)
    __aeabi_memcpy8                          0x080059f5   Thumb Code     0  memcpya.o(.text)
    __aeabi_memset                           0x08005a19   Thumb Code    14  memseta.o(.text)
    __aeabi_memset4                          0x08005a19   Thumb Code     0  memseta.o(.text)
    __aeabi_memset8                          0x08005a19   Thumb Code     0  memseta.o(.text)
    __aeabi_memclr                           0x08005a27   Thumb Code     4  memseta.o(.text)
    __aeabi_memclr4                          0x08005a27   Thumb Code     0  memseta.o(.text)
    __aeabi_memclr8                          0x08005a27   Thumb Code     0  memseta.o(.text)
    _memset$wrapper                          0x08005a2b   Thumb Code    18  memseta.o(.text)
    strlen                                   0x08005a3d   Thumb Code    14  strlen.o(.text)
    __aeabi_fadd                             0x08005a4b   Thumb Code   164  fadd.o(.text)
    __aeabi_fsub                             0x08005aef   Thumb Code     6  fadd.o(.text)
    __aeabi_frsub                            0x08005af5   Thumb Code     6  fadd.o(.text)
    __aeabi_fdiv                             0x08005afb   Thumb Code   124  fdiv.o(.text)
    __aeabi_dadd                             0x08005b77   Thumb Code   322  dadd.o(.text)
    __aeabi_dsub                             0x08005cb9   Thumb Code     6  dadd.o(.text)
    __aeabi_drsub                            0x08005cbf   Thumb Code     6  dadd.o(.text)
    __aeabi_dmul                             0x08005cc5   Thumb Code   228  dmul.o(.text)
    __aeabi_fcmple                           0x08005da9   Thumb Code    28  fcmple.o(.text)
    __aeabi_fcmpge                           0x08005dc5   Thumb Code    28  fcmpge.o(.text)
    __aeabi_fcmpgt                           0x08005de1   Thumb Code    28  fcmpgt.o(.text)
    __aeabi_fcmpeq                           0x08005dfd   Thumb Code    28  fcmpeq.o(.text)
    __aeabi_dcmplt                           0x08005e19   Thumb Code    54  dcmplt.o(.text)
    __aeabi_ui2f                             0x08005e4f   Thumb Code    10  ffltui.o(.text)
    __aeabi_i2d                              0x08005e59   Thumb Code    34  dflti.o(.text)
    __aeabi_ui2d                             0x08005e7b   Thumb Code    26  dfltui.o(.text)
    __aeabi_f2iz                             0x08005e95   Thumb Code    50  ffixi.o(.text)
    __aeabi_d2iz                             0x08005ec7   Thumb Code    62  dfixi.o(.text)
    __aeabi_f2d                              0x08005f05   Thumb Code    38  f2d.o(.text)
    __aeabi_d2f                              0x08005f2b   Thumb Code    56  d2f.o(.text)
    __aeabi_uidiv                            0x08005f63   Thumb Code     0  uidiv.o(.text)
    __aeabi_uidivmod                         0x08005f63   Thumb Code    44  uidiv.o(.text)
    __aeabi_uldivmod                         0x08005f8f   Thumb Code    98  uldiv.o(.text)
    __aeabi_llsl                             0x08005ff1   Thumb Code    30  llshl.o(.text)
    _ll_shift_l                              0x08005ff1   Thumb Code     0  llshl.o(.text)
    __aeabi_llsr                             0x0800600f   Thumb Code    32  llushr.o(.text)
    _ll_ushift_r                             0x0800600f   Thumb Code     0  llushr.o(.text)
    __aeabi_lasr                             0x0800602f   Thumb Code    36  llsshr.o(.text)
    _ll_sshift_r                             0x0800602f   Thumb Code     0  llsshr.o(.text)
    __I$use$fp                               0x08006053   Thumb Code     0  iusefp.o(.text)
    _float_round                             0x08006053   Thumb Code    18  fepilogue.o(.text)
    _float_epilogue                          0x08006065   Thumb Code    92  fepilogue.o(.text)
    _double_round                            0x080060c1   Thumb Code    30  depilogue.o(.text)
    _double_epilogue                         0x080060df   Thumb Code   156  depilogue.o(.text)
    __aeabi_ddiv                             0x0800617b   Thumb Code   222  ddiv.o(.text)
    __aeabi_d2ulz                            0x08006259   Thumb Code    48  dfixul.o(.text)
    __aeabi_cdrcmple                         0x08006289   Thumb Code    48  cdrcmple.o(.text)
    __scatterload                            0x080062b9   Thumb Code    28  init.o(.text)
    __scatterload_rt2                        0x080062b9   Thumb Code     0  init.o(.text)
    __decompress                             0x080062dd   Thumb Code     0  __dczerorl2.o(.text)
    __decompress1                            0x080062dd   Thumb Code    86  __dczerorl2.o(.text)
    __0sprintf                               0x08006335   Thumb Code    34  printfa.o(i.__0sprintf)
    __1sprintf                               0x08006335   Thumb Code     0  printfa.o(i.__0sprintf)
    __2sprintf                               0x08006335   Thumb Code     0  printfa.o(i.__0sprintf)
    __c89sprintf                             0x08006335   Thumb Code     0  printfa.o(i.__0sprintf)
    sprintf                                  0x08006335   Thumb Code     0  printfa.o(i.__0sprintf)
    __scatterload_copy                       0x0800635d   Thumb Code    14  handlers.o(i.__scatterload_copy)
    __scatterload_null                       0x0800636b   Thumb Code     2  handlers.o(i.__scatterload_null)
    __scatterload_zeroinit                   0x0800636d   Thumb Code    14  handlers.o(i.__scatterload_zeroinit)
    hall_to_pos                              0x08006c58   Data           8  bldc.o(.rodata.hall_to_pos)
    Region$$Table$$Base                      0x08007080   Number         0  anon$$obj.o(Region$$Table)
    Region$$Table$$Limit                     0x080070a0   Number         0  anon$$obj.o(Region$$Table)
    HALL_A                                   0x20000000   Data           4  remoteautodetect.o(.data.HALL_A)
    HALL_B                                   0x20000004   Data           4  remoteautodetect.o(.data.HALL_B)
    HALL_C                                   0x20000008   Data           4  remoteautodetect.o(.data.HALL_C)
    SystemCoreClock                          0x2000000c   Data           4  system_gd32f1x0.o(.data.SystemCoreClock)
    aHallOrder                               0x20000010   Data          18  remoteautodetect.o(.data.aHallOrder)
    aoPin                                    0x20000022   Data         341  remoteautodetect.o(.data.aoPin)
    asScan                                   0x20000178   Data          72  remoteautodetect.o(.data.asScan)
    asStage                                  0x200001c0   Data          90  remoteautodetect.o(.data.asStage)
    bHallOld                                 0x2000021a   Data           1  remoteautodetect.o(.data.bHallOld)
    cRxLast                                  0x2000021b   Data           1  remoteautodetect.o(.data.cRxLast)
    currentDC                                0x2000021c   Data           4  bldc.o(.data.currentDC)
    fVBattFound                              0x20000220   Data           4  remoteautodetect.o(.data.fVBattFound)
    iAverageMax                              0x20000224   Data           2  remoteautodetect.o(.data.iAverageMax)
    iHoldAutofind                            0x20000226   Data           2  remoteautodetect.o(.data.iHoldAutofind)
    iTestStart                               0x20000228   Data           1  remoteautodetect.o(.data.iTestStart)
    iVBatMinTest                             0x2000022a   Data           2  remoteautodetect.o(.data.iVBatMinTest)
    oDataHeader                              0x2000022c   Data           2  remoteautodetect.o(.data.oDataHeader)
    posAuto                                  0x2000022e   Data           1  remoteautodetect.o(.data.posAuto)
    sTodoPin                                 0x20000230   Data           4  remoteautodetect.o(.data.sTodoPin)
    wMenuStage                               0x20000234   Data           2  remoteautodetect.o(.data.wMenuStage)
    wStage                                   0x20000236   Data           2  remoteautodetect.o(.data.wStage)
    wStageOld                                0x20000238   Data           2  remoteautodetect.o(.data.wStageOld)
    aBufferData                              0x20000240   Data          73  remoteautodetect.o(.bss.aBufferData)
    adc_buffer                               0x2000028a   Data           4  bldc.o(.bss.adc_buffer)
    aiPinScan                                0x20000290   Data          72  remoteautodetect.o(.bss.aiPinScan)
    bMessageWait                             0x200002d8   Data           1  remoteautodetect.o(.bss.bMessageWait)
    bReturnToMenu                            0x200002d9   Data           1  remoteautodetect.o(.bss.bReturnToMenu)
    bWait4Enter                              0x200002da   Data           1  remoteautodetect.o(.bss.bWait4Enter)
    beepsBackwardsMaster                     0x200002db   Data           1  commsmasterslave.o(.bss.beepsBackwardsMaster)
    bldc_enable                              0x200002dc   Data           1  bldc.o(.bss.bldc_enable)
    bldc_inputFilterPwm                      0x200002de   Data           2  bldc.o(.bss.bldc_inputFilterPwm)
    bldc_outputFilterPwm                     0x200002e0   Data           2  bldc.o(.bss.bldc_outputFilterPwm)
    buzzerTimer                              0x200002e2   Data           2  bldc.o(.bss.buzzerTimer)
    cCommand                                 0x200002e4   Data           1  remoteautodetect.o(.bss.cCommand)
    dma_init_struct_adc                      0x200002e8   Data          36  setup.o(.bss.dma_init_struct_adc)
    dma_init_struct_usart                    0x2000030c   Data          36  setup.o(.bss.dma_init_struct_usart)
    fCurrentDC                               0x20000330   Data           4  remoteautodetect.o(.bss.fCurrentDC)
    fVBatt                                   0x20000334   Data           4  remoteautodetect.o(.bss.fVBatt)
    fVBattOld                                0x20000338   Data           4  remoteautodetect.o(.bss.fVBattOld)
    filter_reg                               0x2000033c   Data           4  bldc.o(.bss.filter_reg)
    hall                                     0x20000340   Data           1  bldc.o(.bss.hall)
    hall_a                                   0x20000341   Data           1  bldc.o(.bss.hall_a)
    hall_b                                   0x20000342   Data           1  bldc.o(.bss.hall_b)
    hall_c                                   0x20000343   Data           1  bldc.o(.bss.hall_c)
    iAverage                                 0x20000344   Data           2  remoteautodetect.o(.bss.iAverage)
    iBufferData                              0x20000346   Data           1  remoteautodetect.o(.bss.iBufferData)
    iHallStagesCompleted                     0x20000347   Data           1  remoteautodetect.o(.bss.iHallStagesCompleted)
    iOdom                                    0x20000348   Data           4  bldc.o(.bss.iOdom)
    iOffsetDC                                0x2000034c   Data           2  remoteautodetect.o(.bss.iOffsetDC)
    iPhaseCurrent                            0x2000034e   Data           1  remoteautodetect.o(.bss.iPhaseCurrent)
    iRepeat                                  0x2000034f   Data           1  remoteautodetect.o(.bss.iRepeat)
    iSerialHoverType                         0x20000350   Data           1  remoteautodetect.o(.bss.iSerialHoverType)
    iTest                                    0x20000351   Data           1  remoteautodetect.o(.bss.iTest)
    iTestPin                                 0x20000352   Data           1  remoteautodetect.o(.bss.iTestPin)
    iTimeNextLoop                            0x20000354   Data           4  main.o(.bss.iTimeNextLoop)
    lastPos                                  0x20000358   Data           1  bldc.o(.bss.lastPos)
    msTicks                                  0x2000035c   Data           4  it.o(.bss.msTicks)
    msTicksAuto                              0x20000360   Data           4  remoteautodetect.o(.bss.msTicksAuto)
    msTicksOld                               0x20000364   Data           4  remoteautodetect.o(.bss.msTicksOld)
    msTicksTest                              0x20000368   Data           4  remoteautodetect.o(.bss.msTicksTest)
    msTicksTestNext                          0x2000036c   Data           4  remoteautodetect.o(.bss.msTicksTestNext)
    msTicksWait                              0x20000370   Data           4  remoteautodetect.o(.bss.msTicksWait)
    oHeaderRx                                0x20000374   Data           2  remoteautodetect.o(.bss.oHeaderRx)
    pos                                      0x20000376   Data           1  bldc.o(.bss.pos)
    posOld                                   0x20000377   Data           1  remoteautodetect.o(.bss.posOld)
    realSpeed                                0x20000378   Data           4  bldc.o(.bss.realSpeed)
    sMessage                                 0x2000037c   Data         512  remoteautodetect.o(.bss.sMessage)
    speedCounter                             0x2000057c   Data           4  bldc.o(.bss.speedCounter)
    steer                                    0x20000580   Data           4  main.o(.bss.steer)
    steerCounter                             0x20000584   Data           4  main.o(.bss.steerCounter)
    timedOut                                 0x20000588   Data           1  it.o(.bss.timedOut)
    timeoutCounter_ms                        0x2000058c   Data           4  it.o(.bss.timeoutCounter_ms)
    timeoutTimer_paramter_struct             0x20000590   Data          16  setup.o(.bss.timeoutTimer_paramter_struct)
    timerBldc_break_parameter_struct         0x200005a0   Data          24  setup.o(.bss.timerBldc_break_parameter_struct)
    timerBldc_oc_parameter_struct            0x200005b8   Data          16  setup.o(.bss.timerBldc_oc_parameter_struct)
    timerBldc_paramter_struct                0x200005c8   Data          16  setup.o(.bss.timerBldc_paramter_struct)
    usart0_rx_buf                            0x200005d8   Data           1  setup.o(.bss.usart0_rx_buf)
    __initial_sp                             0x200009e0   Data           0  startup_gd32f1x0.o(STACK)



==============================================================================

Memory Map of the image

  Image Entry point : 0x08000169

  Load Region LR_IROM1 (Base: 0x08000000, Size: 0x000072e0, Max: 0x00010000, ABSOLUTE, COMPRESSED[0x00007208])

    Execution Region ER_IROM1 (Exec base: 0x08000000, Load base: 0x08000000, Size: 0x000070a0, Max: 0x00010000, ABSOLUTE)

    Exec Addr    Load Addr    Size         Type   Attr      Idx    E Section Name        Object

    0x08000000   0x08000000   0x00000168   Data   RO          151    RESET               startup_gd32f1x0.o
    0x08000168   0x08000168   0x00000000   Code   RO          156  * .ARM.Collect$$$$00000000  mc_w.l(entry.o)
    0x08000168   0x08000168   0x00000004   Code   RO          310    .ARM.Collect$$$$00000001  mc_w.l(entry2.o)
    0x0800016c   0x0800016c   0x00000004   Code   RO          313    .ARM.Collect$$$$00000004  mc_w.l(entry5.o)
    0x08000170   0x08000170   0x00000000   Code   RO          315    .ARM.Collect$$$$00000008  mc_w.l(entry7b.o)
    0x08000170   0x08000170   0x00000000   Code   RO          317    .ARM.Collect$$$$0000000A  mc_w.l(entry8b.o)
    0x08000170   0x08000170   0x00000008   Code   RO          318    .ARM.Collect$$$$0000000B  mc_w.l(entry9a.o)
    0x08000178   0x08000178   0x00000000   Code   RO          320    .ARM.Collect$$$$0000000D  mc_w.l(entry10a.o)
    0x08000178   0x08000178   0x00000000   Code   RO          322    .ARM.Collect$$$$0000000F  mc_w.l(entry11a.o)
    0x08000178   0x08000178   0x00000004   Code   RO          311    .ARM.Collect$$$$00002712  mc_w.l(entry2.o)
    0x0800017c   0x0800017c   0x000000aa   Code   RO            1    .text               main.o
    0x08000226   0x08000226   0x00000002   PAD
    0x08000228   0x08000228   0x00000364   Code   RO           16    .text               bldc.o
    0x0800058c   0x0800058c   0x0000058c   Code   RO           40    .text               setup.o
    0x08000b18   0x08000b18   0x0000010e   Code   RO           50    .text               it.o
    0x08000c26   0x08000c26   0x00000002   PAD
    0x08000c28   0x08000c28   0x00000084   Code   RO           61    .text               commsmasterslave.o
    0x08000cac   0x08000cac   0x00002480   Code   RO           65    .text               remoteautodetect.o
    0x0800312c   0x0800312c   0x000005a6   Code   RO          116    .text               gd32f1x0_adc.o
    0x080036d2   0x080036d2   0x00000002   PAD
    0x080036d4   0x080036d4   0x0000034c   Code   RO          120    .text               gd32f1x0_dma.o
    0x08003a20   0x08003a20   0x000000da   Code   RO          122    .text               gd32f1x0_fwdgt.o
    0x08003afa   0x08003afa   0x00000002   PAD
    0x08003afc   0x08003afc   0x00000198   Code   RO          124    .text               gd32f1x0_gpio.o
    0x08003c94   0x08003c94   0x00000130   Code   RO          129    .text               gd32f1x0_misc.o
    0x08003dc4   0x08003dc4   0x00000730   Code   RO          138    .text               gd32f1x0_rcu.o
    0x080044f4   0x080044f4   0x00000d60   Code   RO          143    .text               gd32f1x0_timer.o
    0x08005254   0x08005254   0x0000063e   Code   RO          145    .text               gd32f1x0_usart.o
    0x08005892   0x08005892   0x00000002   PAD
    0x08005894   0x08005894   0x00000024   Code   RO          152    .text               startup_gd32f1x0.o
    0x080058b8   0x080058b8   0x0000013c   Code   RO          153    .text               system_gd32f1x0.o
    0x080059f4   0x080059f4   0x00000024   Code   RO          159    .text               mc_w.l(memcpya.o)
    0x08005a18   0x08005a18   0x00000024   Code   RO          160    .text               mc_w.l(memseta.o)
    0x08005a3c   0x08005a3c   0x0000000e   Code   RO          161    .text               mc_w.l(strlen.o)
    0x08005a4a   0x08005a4a   0x000000b0   Code   RO          294    .text               mf_w.l(fadd.o)
    0x08005afa   0x08005afa   0x0000007c   Code   RO          295    .text               mf_w.l(fdiv.o)
    0x08005b76   0x08005b76   0x0000014e   Code   RO          296    .text               mf_w.l(dadd.o)
    0x08005cc4   0x08005cc4   0x000000e4   Code   RO          297    .text               mf_w.l(dmul.o)
    0x08005da8   0x08005da8   0x0000001c   Code   RO          298    .text               mf_w.l(fcmple.o)
    0x08005dc4   0x08005dc4   0x0000001c   Code   RO          299    .text               mf_w.l(fcmpge.o)
    0x08005de0   0x08005de0   0x0000001c   Code   RO          300    .text               mf_w.l(fcmpgt.o)
    0x08005dfc   0x08005dfc   0x0000001c   Code   RO          301    .text               mf_w.l(fcmpeq.o)
    0x08005e18   0x08005e18   0x00000036   Code   RO          302    .text               mf_w.l(dcmplt.o)
    0x08005e4e   0x08005e4e   0x0000000a   Code   RO          303    .text               mf_w.l(ffltui.o)
    0x08005e58   0x08005e58   0x00000022   Code   RO          304    .text               mf_w.l(dflti.o)
    0x08005e7a   0x08005e7a   0x0000001a   Code   RO          305    .text               mf_w.l(dfltui.o)
    0x08005e94   0x08005e94   0x00000032   Code   RO          306    .text               mf_w.l(ffixi.o)
    0x08005ec6   0x08005ec6   0x0000003e   Code   RO          307    .text               mf_w.l(dfixi.o)
    0x08005f04   0x08005f04   0x00000026   Code   RO          308    .text               mf_w.l(f2d.o)
    0x08005f2a   0x08005f2a   0x00000038   Code   RO          309    .text               mf_w.l(d2f.o)
    0x08005f62   0x08005f62   0x0000002c   Code   RO          332    .text               mc_w.l(uidiv.o)
    0x08005f8e   0x08005f8e   0x00000062   Code   RO          333    .text               mc_w.l(uldiv.o)
    0x08005ff0   0x08005ff0   0x0000001e   Code   RO          334    .text               mc_w.l(llshl.o)
    0x0800600e   0x0800600e   0x00000020   Code   RO          335    .text               mc_w.l(llushr.o)
    0x0800602e   0x0800602e   0x00000024   Code   RO          336    .text               mc_w.l(llsshr.o)
    0x08006052   0x08006052   0x00000000   Code   RO          337    .text               mc_w.l(iusefp.o)
    0x08006052   0x08006052   0x0000006e   Code   RO          338    .text               mf_w.l(fepilogue.o)
    0x080060c0   0x080060c0   0x000000ba   Code   RO          339    .text               mf_w.l(depilogue.o)
    0x0800617a   0x0800617a   0x000000de   Code   RO          340    .text               mf_w.l(ddiv.o)
    0x08006258   0x08006258   0x00000030   Code   RO          341    .text               mf_w.l(dfixul.o)
    0x08006288   0x08006288   0x00000030   Code   RO          342    .text               mf_w.l(cdrcmple.o)
    0x080062b8   0x080062b8   0x00000024   Code   RO          343    .text               mc_w.l(init.o)
    0x080062dc   0x080062dc   0x00000056   Code   RO          351    .text               mc_w.l(__dczerorl2.o)
    0x08006332   0x08006332   0x00000002   PAD
    0x08006334   0x08006334   0x00000028   Code   RO          282    i.__0sprintf        mc_w.l(printfa.o)
    0x0800635c   0x0800635c   0x0000000e   Code   RO          348    i.__scatterload_copy  mc_w.l(handlers.o)
    0x0800636a   0x0800636a   0x00000002   Code   RO          349    i.__scatterload_null  mc_w.l(handlers.o)
    0x0800636c   0x0800636c   0x0000000e   Code   RO          350    i.__scatterload_zeroinit  mc_w.l(handlers.o)
    0x0800637a   0x0800637a   0x00000002   PAD
    0x0800637c   0x0800637c   0x00000184   Code   RO          287    i._fp_digits        mc_w.l(printfa.o)
    0x08006500   0x08006500   0x000006dc   Code   RO          288    i._printf_core      mc_w.l(printfa.o)
    0x08006bdc   0x08006bdc   0x00000024   Code   RO          289    i._printf_post_padding  mc_w.l(printfa.o)
    0x08006c00   0x08006c00   0x0000002e   Code   RO          290    i._printf_pre_padding  mc_w.l(printfa.o)
    0x08006c2e   0x08006c2e   0x0000000a   Code   RO          292    i._sputc            mc_w.l(printfa.o)
    0x08006c38   0x08006c38   0x0000000c   Data   RO           30    .rodata..L__const.up_or_down.up_down  bldc.o
    0x08006c44   0x08006c44   0x0000000c   Data   RO          126    .rodata..Lswitch.table.gpio_deinit.1  gd32f1x0_gpio.o
    0x08006c50   0x08006c50   0x00000008   Data   RO          140    .rodata.cst8        gd32f1x0_rcu.o
    0x08006c58   0x08006c58   0x00000008   Data   RO           31    .rodata.hall_to_pos  bldc.o
    0x08006c60   0x08006c60   0x000002d4   Data   RO           70    .rodata.str1.1      remoteautodetect.o
    0x08006f34   0x08006f34   0x0000014a   Data   RO          107    .rodata.str1.4      remoteautodetect.o
    0x0800707e   0x0800707e   0x00000002   PAD
    0x08007080   0x08007080   0x00000020   Data   RO          347    Region$$Table       anon$$obj.o


    Execution Region RW_IRAM1 (Exec base: 0x20000000, Load base: 0x080070a0, Size: 0x000009e0, Max: 0x00002000, ABSOLUTE, COMPRESSED[0x00000168])

    Exec Addr    Load Addr    Size         Type   Attr      Idx    E Section Name        Object

    0x20000000   COMPRESSED   0x00000004   Data   RW           85    .data.HALL_A        remoteautodetect.o
    0x20000004   COMPRESSED   0x00000004   Data   RW           86    .data.HALL_B        remoteautodetect.o
    0x20000008   COMPRESSED   0x00000004   Data   RW           87    .data.HALL_C        remoteautodetect.o
    0x2000000c   COMPRESSED   0x00000004   Data   RW          155    .data.SystemCoreClock  system_gd32f1x0.o
    0x20000010   COMPRESSED   0x00000012   Data   RW           99    .data.aHallOrder    remoteautodetect.o
    0x20000022   COMPRESSED   0x00000155   Data   RW           71    .data.aoPin         remoteautodetect.o
    0x20000177   COMPRESSED   0x00000001   PAD
    0x20000178   COMPRESSED   0x00000048   Data   RW           72    .data.asScan        remoteautodetect.o
    0x200001c0   COMPRESSED   0x0000005a   Data   RW           67    .data.asStage       remoteautodetect.o
    0x2000021a   COMPRESSED   0x00000001   Data   RW          111    .data.bHallOld      remoteautodetect.o
    0x2000021b   COMPRESSED   0x00000001   Data   RW           80    .data.cRxLast       remoteautodetect.o
    0x2000021c   COMPRESSED   0x00000004   Data   RW           20    .data.currentDC     bldc.o
    0x20000220   COMPRESSED   0x00000004   Data   RW          101    .data.fVBattFound   remoteautodetect.o
    0x20000224   COMPRESSED   0x00000002   Data   RW           95    .data.iAverageMax   remoteautodetect.o
    0x20000226   COMPRESSED   0x00000002   Data   RW          102    .data.iHoldAutofind  remoteautodetect.o
    0x20000228   COMPRESSED   0x00000001   Data   RW           92    .data.iTestStart    remoteautodetect.o
    0x20000229   COMPRESSED   0x00000001   PAD
    0x2000022a   COMPRESSED   0x00000002   Data   RW          100    .data.iVBatMinTest  remoteautodetect.o
    0x2000022c   COMPRESSED   0x00000002   Data   RW           77    .data.oDataHeader   remoteautodetect.o
    0x2000022e   COMPRESSED   0x00000001   Data   RW          113    .data.posAuto       remoteautodetect.o
    0x2000022f   COMPRESSED   0x00000001   PAD
    0x20000230   COMPRESSED   0x00000004   Data   RW           74    .data.sTodoPin      remoteautodetect.o
    0x20000234   COMPRESSED   0x00000002   Data   RW           69    .data.wMenuStage    remoteautodetect.o
    0x20000236   COMPRESSED   0x00000002   Data   RW           88    .data.wStage        remoteautodetect.o
    0x20000238   COMPRESSED   0x00000002   Data   RW           89    .data.wStageOld     remoteautodetect.o
    0x2000023a   COMPRESSED   0x00000006   PAD
    0x20000240        -       0x00000049   Zero   RW           83    .bss.aBufferData    remoteautodetect.o
    0x20000289   COMPRESSED   0x00000001   PAD
    0x2000028a        -       0x00000004   Zero   RW           39    .bss.adc_buffer     bldc.o
    0x2000028e   COMPRESSED   0x00000002   PAD
    0x20000290        -       0x00000048   Zero   RW           73    .bss.aiPinScan      remoteautodetect.o
    0x200002d8        -       0x00000001   Zero   RW           75    .bss.bMessageWait   remoteautodetect.o
    0x200002d9        -       0x00000001   Zero   RW           98    .bss.bReturnToMenu  remoteautodetect.o
    0x200002da        -       0x00000001   Zero   RW          105    .bss.bWait4Enter    remoteautodetect.o
    0x200002db        -       0x00000001   Zero   RW           64    .bss.beepsBackwardsMaster  commsmasterslave.o
    0x200002dc        -       0x00000001   Zero   RW           23    .bss.bldc_enable    bldc.o
    0x200002dd   COMPRESSED   0x00000001   PAD
    0x200002de        -       0x00000002   Zero   RW           22    .bss.bldc_inputFilterPwm  bldc.o
    0x200002e0        -       0x00000002   Zero   RW           24    .bss.bldc_outputFilterPwm  bldc.o
    0x200002e2        -       0x00000002   Zero   RW           25    .bss.buzzerTimer    bldc.o
    0x200002e4        -       0x00000001   Zero   RW           79    .bss.cCommand       remoteautodetect.o
    0x200002e5   COMPRESSED   0x00000003   PAD
    0x200002e8        -       0x00000024   Zero   RW           46    .bss.dma_init_struct_adc  setup.o
    0x2000030c        -       0x00000024   Zero   RW           47    .bss.dma_init_struct_usart  setup.o
    0x20000330        -       0x00000004   Zero   RW          110    .bss.fCurrentDC     remoteautodetect.o
    0x20000334        -       0x00000004   Zero   RW          108    .bss.fVBatt         remoteautodetect.o
    0x20000338        -       0x00000004   Zero   RW          104    .bss.fVBattOld      remoteautodetect.o
    0x2000033c        -       0x00000004   Zero   RW           37    .bss.filter_reg     bldc.o
    0x20000340        -       0x00000001   Zero   RW           35    .bss.hall           bldc.o
    0x20000341        -       0x00000001   Zero   RW           32    .bss.hall_a         bldc.o
    0x20000342        -       0x00000001   Zero   RW           33    .bss.hall_b         bldc.o
    0x20000343        -       0x00000001   Zero   RW           34    .bss.hall_c         bldc.o
    0x20000344        -       0x00000002   Zero   RW           94    .bss.iAverage       remoteautodetect.o
    0x20000346        -       0x00000001   Zero   RW           82    .bss.iBufferData    remoteautodetect.o
    0x20000347        -       0x00000001   Zero   RW           68    .bss.iHallStagesCompleted  remoteautodetect.o
    0x20000348        -       0x00000004   Zero   RW           29    .bss.iOdom          bldc.o
    0x2000034c        -       0x00000002   Zero   RW          109    .bss.iOffsetDC      remoteautodetect.o
    0x2000034e        -       0x00000001   Zero   RW           96    .bss.iPhaseCurrent  remoteautodetect.o
    0x2000034f        -       0x00000001   Zero   RW           93    .bss.iRepeat        remoteautodetect.o
    0x20000350        -       0x00000001   Zero   RW           81    .bss.iSerialHoverType  remoteautodetect.o
    0x20000351        -       0x00000001   Zero   RW           90    .bss.iTest          remoteautodetect.o
    0x20000352        -       0x00000001   Zero   RW           91    .bss.iTestPin       remoteautodetect.o
    0x20000353   COMPRESSED   0x00000001   PAD
    0x20000354        -       0x00000004   Zero   RW           14    .bss.iTimeNextLoop  main.o
    0x20000358        -       0x00000001   Zero   RW           38    .bss.lastPos        bldc.o
    0x20000359   COMPRESSED   0x00000003   PAD
    0x2000035c        -       0x00000004   Zero   RW           54    .bss.msTicks        it.o
    0x20000360        -       0x00000004   Zero   RW          112    .bss.msTicksAuto    remoteautodetect.o
    0x20000364        -       0x00000004   Zero   RW          115    .bss.msTicksOld     remoteautodetect.o
    0x20000368        -       0x00000004   Zero   RW          106    .bss.msTicksTest    remoteautodetect.o
    0x2000036c        -       0x00000004   Zero   RW          103    .bss.msTicksTestNext  remoteautodetect.o
    0x20000370        -       0x00000004   Zero   RW           97    .bss.msTicksWait    remoteautodetect.o
    0x20000374        -       0x00000002   Zero   RW           84    .bss.oHeaderRx      remoteautodetect.o
    0x20000376        -       0x00000001   Zero   RW           36    .bss.pos            bldc.o
    0x20000377        -       0x00000001   Zero   RW          114    .bss.posOld         remoteautodetect.o
    0x20000378        -       0x00000004   Zero   RW           21    .bss.realSpeed      bldc.o
    0x2000037c        -       0x00000200   Zero   RW           76    .bss.sMessage       remoteautodetect.o
    0x2000057c        -       0x00000004   Zero   RW           28    .bss.speedCounter   bldc.o
    0x20000580        -       0x00000004   Zero   RW            8    .bss.steer          main.o
    0x20000584        -       0x00000004   Zero   RW            3    .bss.steerCounter   main.o
    0x20000588        -       0x00000001   Zero   RW           53    .bss.timedOut       it.o
    0x20000589   COMPRESSED   0x00000003   PAD
    0x2000058c        -       0x00000004   Zero   RW           52    .bss.timeoutCounter_ms  it.o
    0x20000590        -       0x00000010   Zero   RW           42    .bss.timeoutTimer_paramter_struct  setup.o
    0x200005a0        -       0x00000018   Zero   RW           45    .bss.timerBldc_break_parameter_struct  setup.o
    0x200005b8        -       0x00000010   Zero   RW           44    .bss.timerBldc_oc_parameter_struct  setup.o
    0x200005c8        -       0x00000010   Zero   RW           43    .bss.timerBldc_paramter_struct  setup.o
    0x200005d8        -       0x00000001   Zero   RW           48    .bss.usart0_rx_buf  setup.o
    0x200005d9   COMPRESSED   0x00000007   PAD
    0x200005e0        -       0x00000400   Zero   RW          149    STACK               startup_gd32f1x0.o


==============================================================================

Image component sizes


      Code (inc. data)   RO Data    RW Data    ZI Data      Debug   Object Name

       868          6         20          4         33          0   bldc.o
       132          0          0          0          1          0   commsmasterslave.o
      1446         16          0          0          0          0   gd32f1x0_adc.o
       844          8          0          0          0          0   gd32f1x0_dma.o
       218          0          0          0          0          0   gd32f1x0_fwdgt.o
       408          0         12          0          0          0   gd32f1x0_gpio.o
       304          0          0          0          0          0   gd32f1x0_misc.o
      1840         34          8          0          0          0   gd32f1x0_rcu.o
      3424         44          0          0          0          0   gd32f1x0_timer.o
      1598          8          0          0          0          0   gd32f1x0_usart.o
       270          0          0          0          9          0   it.o
       170          0          0          0         12          0   main.o
      9344        566       1054        559        707          0   remoteautodetect.o
      1420          0          0          0        145          0   setup.o
        36          8        360          0       1024          0   startup_gd32f1x0.o
       316         16          0          4          0          0   system_gd32f1x0.o

    ----------------------------------------------------------------------
     22648        706       1488        572       1956          0   Object Totals
         0          0         32          0          0          0   (incl. Generated)
        10          0          2          5         25          0   (incl. Padding)

    ----------------------------------------------------------------------

      Code (inc. data)   RO Data    RW Data    ZI Data      Debug   Library Member Name

        86          0          0          0          0          0   __dczerorl2.o
         0          0          0          0          0          0   entry.o
         0          0          0          0          0          0   entry10a.o
         0          0          0          0          0          0   entry11a.o
         8          4          0          0          0          0   entry2.o
         4          0          0          0          0          0   entry5.o
         0          0          0          0          0          0   entry7b.o
         0          0          0          0          0          0   entry8b.o
         8          4          0          0          0          0   entry9a.o
        30          0          0          0          0          0   handlers.o
        36          8          0          0          0          0   init.o
         0          0          0          0          0          0   iusefp.o
        30          0          0          0          0          0   llshl.o
        36          0          0          0          0          0   llsshr.o
        32          0          0          0          0          0   llushr.o
        36          0          0          0          0          0   memcpya.o
        36          0          0          0          0          0   memseta.o
      2276         86          0          0          0          0   printfa.o
        14          0          0          0          0          0   strlen.o
        44          0          0          0          0          0   uidiv.o
        98          0          0          0          0          0   uldiv.o
        48          0          0          0          0          0   cdrcmple.o
        56          0          0          0          0          0   d2f.o
       334          0          0          0          0          0   dadd.o
        54          0          0          0          0          0   dcmplt.o
       222          0          0          0          0          0   ddiv.o
       186          0          0          0          0          0   depilogue.o
        62          0          0          0          0          0   dfixi.o
        48          0          0          0          0          0   dfixul.o
        34          0          0          0          0          0   dflti.o
        26          0          0          0          0          0   dfltui.o
       228          0          0          0          0          0   dmul.o
        38          0          0          0          0          0   f2d.o
       176          0          0          0          0          0   fadd.o
        28          0          0          0          0          0   fcmpeq.o
        28          0          0          0          0          0   fcmpge.o
        28          0          0          0          0          0   fcmpgt.o
        28          0          0          0          0          0   fcmple.o
       124          0          0          0          0          0   fdiv.o
       110          0          0          0          0          0   fepilogue.o
        50          0          0          0          0          0   ffixi.o
        10          0          0          0          0          0   ffltui.o

    ----------------------------------------------------------------------
      4696        102          0          0          0          0   Library Totals
         4          0          0          0          0          0   (incl. Padding)

    ----------------------------------------------------------------------

      Code (inc. data)   RO Data    RW Data    ZI Data      Debug   Library Name

      2774        102          0          0          0          0   mc_w.l
      1918          0          0          0          0          0   mf_w.l

    ----------------------------------------------------------------------
      4696        102          0          0          0          0   Library Totals

    ----------------------------------------------------------------------

==============================================================================


      Code (inc. data)   RO Data    RW Data    ZI Data      Debug   

     27344        808       1488        572       1956          0   Grand Totals
     27344        808       1488        360       1956          0   ELF Image Totals (compressed)
     27344        808       1488        360          0          0   ROM Totals

==============================================================================

    Total RO  Size (Code + RO Data)                28832 (  28.16kB)
    Total RW  Size (RW Data + ZI Data)              2528 (   2.47kB)
    Total ROM Size (Code + RO Data + RW Data)      29192 (  28.51kB)

==============================================================================

