Component: Arm Compiler for Embedded 6.23 Tool: armlink [5f102400]

==============================================================================

Section Cross References

    main.o(.text) refers to main.o(.bss.iBug) for iBug
    main.o(.text) refers to setup.o(.text) for ConfigRead
    main.o(.text) refers to system_gd32f1x0.o(.data.SystemCoreClock) for SystemCoreClock
    main.o(.text) refers to gd32f1x0_gpio.o(.text) for gpio_bit_write
    main.o(.text) refers to bldcsine.o(.text) for InitBldc
    main.o(.text) refers to main.o(.bss.iDrivingMode) for iDrivingMode
    main.o(.text) refers to driver.o(.text) for DriverInit
    main.o(.text) refers to gd32f1x0_fwdgt.o(.text) for fwdgt_counter_reload
    main.o(.text) refers to bldc.o(.bss.buzzerFreq) for buzzerFreq
    main.o(.text) refers to it.o(.text) for Delay
    main.o(.text) refers to main.o(.bss.iTimeNextLoop) for iTimeNextLoop
    main.o(.text) refers to main.o(.bss.speed) for speed
    main.o(.text) refers to bldc.o(.text) for SetEnable
    main.o(.text) refers to main.o(.data.wState) for wState
    main.o(.text) refers to main.o(.bss.steerCounter) for steerCounter
    main.o(.text) refers to remotedummy.o(.text) for RemoteUpdate
    main.o(.text) refers to main.o(.bss.speedShutoff) for speedShutoff
    main.o(.text) refers to dflti.o(.text) for __aeabi_i2d
    main.o(.text) refers to main.o(.bss.steer) for steer
    main.o(.text) refers to ddiv.o(.text) for __aeabi_ddiv
    main.o(.text) refers to dadd.o(.text) for __aeabi_dadd
    main.o(.text) refers to dmul.o(.text) for __aeabi_dmul
    main.o(.text) refers to dfixi.o(.text) for __aeabi_d2iz
    main.o(.text) refers to main.o(.bss.pwmSlave) for pwmSlave
    main.o(.text) refers to ffltui.o(.text) for __aeabi_ui2f
    main.o(.text) refers to f2d.o(.text) for __aeabi_f2d
    main.o(.text) refers to d2f.o(.text) for __aeabi_d2f
    main.o(.text) refers to main.o(.data.speedLimit) for speedLimit
    main.o(.text) refers to fflti.o(.text) for __aeabi_i2f
    main.o(.text) refers to fmul.o(.text) for __aeabi_fmul
    main.o(.text) refers to ffixi.o(.text) for __aeabi_f2iz
    main.o(.text) refers to fadd.o(.text) for __aeabi_fsub
    main.o(.text) refers to fdiv.o(.text) for __aeabi_fdiv
    main.o(.text) refers to main.o(.rodata.lookUpTableAngle) for lookUpTableAngle
    main.o(.text) refers to fcmplt.o(.text) for __aeabi_fcmplt
    main.o(.text) refers to bldc.o(.data.batteryVoltage) for batteryVoltage
    main.o(.text) refers to fcmple.o(.text) for __aeabi_fcmple
    main.o(.text) refers to main.o(.data.beepsBackwards) for beepsBackwards
    main.o(.text) refers to bldc.o(.bss.buzzerPattern) for buzzerPattern
    main.o(.text) refers to main.o(.bss.enable) for enable
    main.o(.text) refers to main.o(.bss.inactivity_timeout_counter) for inactivity_timeout_counter
    main.o(.text) refers to main.o(.bss.bRemoteTimeout) for bRemoteTimeout
    main.o(.text) refers to main.o(.bss.bPilotTimeout) for bPilotTimeout
    main.o(.ARM.exidx) refers to main.o(.text) for [Anonymous Symbol]
    bldc.o(.text) refers to bldc.o(.rodata..L__const.up_or_down.up_down) for .L__const.up_or_down.up_down
    bldc.o(.text) refers to bldc.o(.bss.bldc_enable) for bldc_enable
    bldc.o(.text) refers to main.o(.bss.iDrivingMode) for iDrivingMode
    bldc.o(.text) refers to system_gd32f1x0.o(.data.SystemCoreClock) for SystemCoreClock
    bldc.o(.text) refers to dflti.o(.text) for __aeabi_i2d
    bldc.o(.text) refers to ddiv.o(.text) for __aeabi_ddiv
    bldc.o(.text) refers to dmul.o(.text) for __aeabi_dmul
    bldc.o(.text) refers to dfixi.o(.text) for __aeabi_d2iz
    bldc.o(.text) refers to bldc.o(.bss.iBldcInput) for iBldcInput
    bldc.o(.text) refers to bldc.o(.data.iFILTER_SHIFT) for iFILTER_SHIFT
    bldc.o(.text) refers to bldc.o(.bss.bldc_outputFilterPwm) for bldc_outputFilterPwm
    bldc.o(.text) refers to bldc.o(.bss.filter_reg) for filter_reg
    bldc.o(.text) refers to bldc.o(.bss.offsetcount) for offsetcount
    bldc.o(.text) refers to bldc.o(.bss.adc_buffer) for adc_buffer
    bldc.o(.text) refers to bldc.o(.data.offsetdc) for offsetdc
    bldc.o(.text) refers to bldc.o(.bss.buzzerTimer) for buzzerTimer
    bldc.o(.text) refers to bldc.o(.data.batteryVoltage) for batteryVoltage
    bldc.o(.text) refers to f2d.o(.text) for __aeabi_f2d
    bldc.o(.text) refers to dfltui.o(.text) for __aeabi_ui2d
    bldc.o(.text) refers to dadd.o(.text) for __aeabi_dadd
    bldc.o(.text) refers to d2f.o(.text) for __aeabi_d2f
    bldc.o(.text) refers to it.o(.bss.msTicks) for msTicks
    bldc.o(.text) refers to bldc.o(.bss.iBuzzTime) for iBuzzTime
    bldc.o(.text) refers to bldc.o(.bss.iBuzzCounter) for iBuzzCounter
    bldc.o(.text) refers to bldc.o(.bss.iBuzzRate) for iBuzzRate
    bldc.o(.text) refers to bldc.o(.bss.buzzerFreq) for buzzerFreq
    bldc.o(.text) refers to bldc.o(.bss.buzzerPattern) for buzzerPattern
    bldc.o(.text) refers to gd32f1x0_gpio.o(.text) for gpio_bit_write
    bldc.o(.text) refers to bldc.o(.data.currentDC) for currentDC
    bldc.o(.text) refers to fcmpgt.o(.text) for __aeabi_fcmpgt
    bldc.o(.text) refers to it.o(.bss.timedOut) for timedOut
    bldc.o(.text) refers to gd32f1x0_timer.o(.text) for timer_automatic_output_enable
    bldc.o(.text) refers to bldc.o(.bss.iDrivingModeOverride) for iDrivingModeOverride
    bldc.o(.text) refers to bldc.o(.bss.bldc_inputFilterPwm) for bldc_inputFilterPwm
    bldc.o(.text) refers to bldc.o(.bss.hall_a) for hall_a
    bldc.o(.text) refers to bldc.o(.bss.hall_b) for hall_b
    bldc.o(.text) refers to bldc.o(.bss.hall_c) for hall_c
    bldc.o(.text) refers to bldc.o(.bss.hall) for hall
    bldc.o(.text) refers to bldc.o(.rodata.hall_to_pos) for hall_to_pos
    bldc.o(.text) refers to bldc.o(.bss.pos) for pos
    bldc.o(.text) refers to driver.o(.text) for Driver
    bldc.o(.text) refers to bldcsine.o(.text) for bldc_get_pwm
    bldc.o(.text) refers to bldc.o(.bss.lastPos) for lastPos
    bldc.o(.text) refers to bldc.o(.bss.iOdom) for iOdom
    bldc.o(.text) refers to bldc.o(.bss.speedCounterSlow) for speedCounterSlow
    bldc.o(.text) refers to bldc.o(.bss.iOdomLast) for iOdomLast
    bldc.o(.text) refers to bldc.o(.bss.torque32_reg) for torque32_reg
    bldc.o(.text) refers to bldc.o(.bss.torque32) for torque32
    bldc.o(.text) refers to bldc.o(.bss.revs32_reg) for revs32_reg
    bldc.o(.text) refers to bldc.o(.bss.revs32) for revs32
    bldc.o(.text) refers to bldc.o(.bss.buzzerToggle) for buzzerToggle
    bldc.o(.text) refers to bldc.o(.data.revs32ScaleSlow) for revs32ScaleSlow
    bldc.o(.text) refers to bldc.o(.bss.speedCounterSlowLog) for speedCounterSlowLog
    bldc.o(.text) refers to bldc.o(.bss.speedCounter) for speedCounter
    bldc.o(.text) refers to ffltui.o(.text) for __aeabi_ui2f
    bldc.o(.text) refers to fdiv.o(.text) for __aeabi_fdiv
    bldc.o(.text) refers to bldc.o(.data.revs32Scale) for revs32Scale
    bldc.o(.text) refers to bldc.o(.bss.realSpeed) for realSpeed
    bldc.o(.text) refers to bldc.o(.bss.revs32x) for revs32x
    bldc.o(.text) refers to bldc.o(.bss.speedCounterLog) for speedCounterLog
    bldc.o(.ARM.exidx) refers to bldc.o(.text) for [Anonymous Symbol]
    driver.o(.text) refers to fmul.o(.text) for __aeabi_fmul
    driver.o(.text) refers to ffixi.o(.text) for __aeabi_f2iz
    driver.o(.text) refers to fdiv.o(.text) for __aeabi_fdiv
    driver.o(.text) refers to ffixl.o(.text) for __aeabi_f2lz
    driver.o(.text) refers to main.o(.bss.iDrivingMode) for iDrivingMode
    driver.o(.text) refers to driver.o(.data.aoPIDInit) for aoPIDInit
    driver.o(.text) refers to driver.o(.bss.pid) for pid
    driver.o(.text) refers to bldc.o(.bss.revs32) for revs32
    driver.o(.text) refers to bldc.o(.bss.torque32) for torque32
    driver.o(.text) refers to bldc.o(.bss.iOdom) for iOdom
    driver.o(.ARM.exidx) refers to driver.o(.text) for [Anonymous Symbol]
    bldcsine.o(.text) refers to gd32f1x0_syscfg.o(.text) for syscfg_exti_line_config
    bldcsine.o(.text) refers to gd32f1x0_exti.o(.text) for exti_init
    bldcsine.o(.text) refers to gd32f1x0_misc.o(.text) for nvic_irq_enable
    bldcsine.o(.text) refers to gd32f1x0_rcu.o(.text) for rcu_periph_clock_enable
    bldcsine.o(.text) refers to bldcsine.o(.bss.aHallEXTI) for aHallEXTI
    bldcsine.o(.text) refers to bldcsine.o(.bss.bInterrupt) for bInterrupt
    bldcsine.o(.text) refers to bldc.o(.bss.buzzerTimer) for buzzerTimer
    bldcsine.o(.text) refers to bldcsine.o(.bss.hall_time_last) for hall_time_last
    bldcsine.o(.text) refers to bldc.o(.bss.hall) for hall
    bldcsine.o(.text) refers to bldcsine.o(.bss.hall_time_step) for hall_time_step
    bldcsine.o(.text) refers to bldcsine.o(.bss.hall_last) for hall_last
    bldcsine.o(.text) refers to gd32f1x0_gpio.o(.text) for gpio_input_bit_get
    bldcsine.o(.text) refers to bldcsine.o(.bss.pwmGo) for pwmGo
    bldcsine.o(.text) refers to bldcsine.o(.rodata.cst8) for hall_to_sector
    bldcsine.o(.text) refers to bldcsine.o(.bss.sector) for sector
    bldcsine.o(.text) refers to bldcsine.o(.bss.sector10x) for sector10x
    bldcsine.o(.text) refers to bldcsine.o(.bss.angle_deg) for angle_deg
    bldcsine.o(.text) refers to bldcsine.o(.bss.hall_time_step_LPR) for hall_time_step_LPR
    bldcsine.o(.text) refers to bldcsine.o(.bss.angle_deg_add) for angle_deg_add
    bldcsine.o(.text) refers to bldcsine.o(.bss.sectorChange) for sectorChange
    bldcsine.o(.text) refers to bldcsine.o(.bss.hall_time_step_LP) for hall_time_step_LP
    bldcsine.o(.text) refers to bldcsine.o(.bss.iDT) for iDT
    bldcsine.o(.text) refers to bldcsine.o(.bss.iAdd) for iAdd
    bldcsine.o(.text) refers to bldcsine.o(.bss.angle_deg_final) for angle_deg_final
    bldcsine.o(.text) refers to bldcsine.o(.rodata.sine_table) for sine_table
    bldcsine.o(.text) refers to bldcsine.o(.bss.angle_idx) for angle_idx
    bldcsine.o(.ARM.exidx) refers to bldcsine.o(.text) for [Anonymous Symbol]
    setup.o(.text) refers to gd32f1x0_gpio.o(.text) for gpio_mode_set
    setup.o(.text) refers to gd32f1x0_misc.o(.text) for nvic_priority_group_set
    setup.o(.text) refers to gd32f1x0_rcu.o(.text) for rcu_flag_get
    setup.o(.text) refers to gd32f1x0_fwdgt.o(.text) for fwdgt_config
    setup.o(.text) refers to gd32f1x0_timer.o(.text) for timer_deinit
    setup.o(.text) refers to setup.o(.bss.timeoutTimer_paramter_struct) for timeoutTimer_paramter_struct
    setup.o(.text) refers to system_gd32f1x0.o(.data.SystemCoreClock) for SystemCoreClock
    setup.o(.text) refers to setup.o(.bss.timerBldc_paramter_struct) for timerBldc_paramter_struct
    setup.o(.text) refers to setup.o(.bss.timerBldc_oc_parameter_struct) for timerBldc_oc_parameter_struct
    setup.o(.text) refers to setup.o(.bss.timerBldc_break_parameter_struct) for timerBldc_break_parameter_struct
    setup.o(.text) refers to gd32f1x0_dma.o(.text) for dma_deinit
    setup.o(.text) refers to setup.o(.bss.dma_init_struct_adc) for dma_init_struct_adc
    setup.o(.text) refers to bldc.o(.bss.adc_buffer) for adc_buffer
    setup.o(.text) refers to gd32f1x0_adc.o(.text) for adc_channel_length_config
    setup.o(.text) refers to gd32f1x0_fmc.o(.text) for fmc_unlock
    setup.o(.text) refers to setup.o(.bss.oConfig) for oConfig
    setup.o(.text) refers to setup.o(.bss.dev_id) for dev_id
    setup.o(.text) refers to system_gd32f1x0.o(.text) for SystemCoreClockUpdate
    setup.o(.text) refers to setup.o(.bss.pll_mul) for pll_mul
    setup.o(.text) refers to it.o(.text) for millis
    setup.o(.text) refers to setup.o(.bss.iTestClock) for iTestClock
    setup.o(.ARM.exidx) refers to setup.o(.text) for [Anonymous Symbol]
    it.o(.text) refers to it.o(.bss.msTicks) for msTicks
    it.o(.text) refers to it.o(.bss.timeoutCounter_ms) for timeoutCounter_ms
    it.o(.text) refers to it.o(.bss.timedOut) for timedOut
    it.o(.text) refers to main.o(.bss.speed) for speed
    it.o(.text) refers to gd32f1x0_timer.o(.text) for timer_interrupt_flag_clear
    it.o(.text) refers to it.o(.bss.TIMER0_BRK_UP_TRG_COM_IRQHandler.interrupt_toggle) for TIMER0_BRK_UP_TRG_COM_IRQHandler.interrupt_toggle
    it.o(.text) refers to it.o(.bss.iPwmTime) for iPwmTime
    it.o(.text) refers to it.o(.bss.iPwmCounter) for iPwmCounter
    it.o(.text) refers to it.o(.bss.iPwmRate) for iPwmRate
    it.o(.text) refers to gd32f1x0_adc.o(.text) for adc_software_trigger_enable
    it.o(.text) refers to gd32f1x0_dma.o(.text) for dma_interrupt_flag_get
    it.o(.text) refers to it.o(.bss.iAdcTime) for iAdcTime
    it.o(.text) refers to it.o(.bss.iAdcCounter) for iAdcCounter
    it.o(.text) refers to it.o(.bss.iAdcRate) for iAdcRate
    it.o(.text) refers to bldc.o(.text) for CalculateBLDC
    it.o(.ARM.exidx) refers to it.o(.text) for [Anonymous Symbol]
    comms.o(.text) refers to gd32f1x0_usart.o(.text) for usart_data_transmit
    comms.o(.ARM.exidx) refers to comms.o(.text) for [Anonymous Symbol]
    remotedummy.o(.text) refers to remotedummy.o(.bss.iOldDrivingMode) for iOldDrivingMode
    remotedummy.o(.text) refers to main.o(.bss.iDrivingMode) for iDrivingMode
    remotedummy.o(.text) refers to driver.o(.text) for DriverInit
    remotedummy.o(.text) refers to remotedummy.o(.data.iRemotePeriod) for iRemotePeriod
    remotedummy.o(.text) refers to remotedummy.o(.data.iOldRemotePeriod) for iOldRemotePeriod
    remotedummy.o(.text) refers to it.o(.bss.msTicks) for msTicks
    remotedummy.o(.text) refers to remotedummy.o(.bss.msTicksInit) for msTicksInit
    remotedummy.o(.text) refers to remotedummy.o(.data.bRemoteInit) for bRemoteInit
    remotedummy.o(.text) refers to remotedummy.o(.data.fRemoteScaleMax) for fRemoteScaleMax
    remotedummy.o(.text) refers to remotedummy.o(.bss.iRemoteMax) for iRemoteMax
    remotedummy.o(.text) refers to dfltui.o(.text) for __aeabi_ui2d
    remotedummy.o(.text) refers to ddiv.o(.text) for __aeabi_ddiv
    remotedummy.o(.text) refers to dmul.o(.text) for __aeabi_dmul
    remotedummy.o(.text) refers to d2f.o(.text) for __aeabi_d2f
    remotedummy.o(.text) refers to main.o(.bss.steer) for steer
    remotedummy.o(.text) refers to fflti.o(.text) for __aeabi_i2f
    remotedummy.o(.text) refers to fmul.o(.text) for __aeabi_fmul
    remotedummy.o(.text) refers to fdiv.o(.text) for __aeabi_fdiv
    remotedummy.o(.text) refers to fcmpgt.o(.text) for __aeabi_fcmpgt
    remotedummy.o(.text) refers to fcmplt.o(.text) for __aeabi_fcmplt
    remotedummy.o(.text) refers to ffixi.o(.text) for __aeabi_f2iz
    remotedummy.o(.text) refers to main.o(.bss.speed) for speed
    remotedummy.o(.text) refers to it.o(.text) for ResetTimeout
    remotedummy.o(.ARM.exidx) refers to remotedummy.o(.text) for [Anonymous Symbol]
    segger_rtt.o(.text) refers to segger_rtt.o(.bss._SEGGER_RTT) for _SEGGER_RTT
    segger_rtt.o(.text) refers to memseta.o(.text) for __aeabi_memclr4
    segger_rtt.o(.text) refers to segger_rtt.o(.rodata.str1.1) for .L.str
    segger_rtt.o(.text) refers to segger_rtt.o(.bss._acUpBuffer) for _acUpBuffer
    segger_rtt.o(.text) refers to segger_rtt.o(.bss._acDownBuffer) for _acDownBuffer
    segger_rtt.o(.text) refers to segger_rtt.o(.rodata._DoInit._aInitStr) for _DoInit._aInitStr
    segger_rtt.o(.text) refers to memcpya.o(.text) for __aeabi_memcpy
    segger_rtt.o(.text) refers to strlen.o(.text) for strlen
    segger_rtt.o(.text) refers to segger_rtt.o(.rodata.cst16) for _aTerminalId
    segger_rtt.o(.text) refers to segger_rtt.o(.bss._ActiveTerminal) for _ActiveTerminal
    segger_rtt.o(.ARM.exidx) refers to segger_rtt.o(.text) for [Anonymous Symbol]
    gd32f1x0_adc.o(.text) refers to gd32f1x0_rcu.o(.text) for rcu_periph_reset_enable
    gd32f1x0_adc.o(.ARM.exidx) refers to gd32f1x0_adc.o(.text) for [Anonymous Symbol]
    gd32f1x0_dbg.o(.ARM.exidx) refers to gd32f1x0_dbg.o(.text) for [Anonymous Symbol]
    gd32f1x0_dma.o(.ARM.exidx) refers to gd32f1x0_dma.o(.text) for [Anonymous Symbol]
    gd32f1x0_exti.o(.ARM.exidx) refers to gd32f1x0_exti.o(.text) for [Anonymous Symbol]
    gd32f1x0_fmc.o(.ARM.exidx) refers to gd32f1x0_fmc.o(.text) for [Anonymous Symbol]
    gd32f1x0_fwdgt.o(.ARM.exidx) refers to gd32f1x0_fwdgt.o(.text) for [Anonymous Symbol]
    gd32f1x0_gpio.o(.text) refers to gd32f1x0_gpio.o(.rodata..Lswitch.table.gpio_deinit.1) for .Lswitch.table.gpio_deinit.1
    gd32f1x0_gpio.o(.text) refers to gd32f1x0_rcu.o(.text) for rcu_periph_reset_enable
    gd32f1x0_gpio.o(.ARM.exidx) refers to gd32f1x0_gpio.o(.text) for [Anonymous Symbol]
    gd32f1x0_i2c.o(.text) refers to gd32f1x0_rcu.o(.text) for rcu_periph_reset_enable
    gd32f1x0_i2c.o(.ARM.exidx) refers to gd32f1x0_i2c.o(.text) for [Anonymous Symbol]
    gd32f1x0_misc.o(.ARM.exidx) refers to gd32f1x0_misc.o(.text) for [Anonymous Symbol]
    gd32f1x0_pmu.o(.text) refers to gd32f1x0_rcu.o(.text) for rcu_periph_reset_enable
    gd32f1x0_pmu.o(.text) refers to gd32f1x0_pmu.o(.bss.pmu_to_deepsleepmode.reg_snap.1) for pmu_to_deepsleepmode.reg_snap.1
    gd32f1x0_pmu.o(.text) refers to gd32f1x0_pmu.o(.bss.pmu_to_deepsleepmode.reg_snap.0) for pmu_to_deepsleepmode.reg_snap.0
    gd32f1x0_pmu.o(.text) refers to gd32f1x0_pmu.o(.bss.pmu_to_deepsleepmode.reg_snap.2) for pmu_to_deepsleepmode.reg_snap.2
    gd32f1x0_pmu.o(.text) refers to gd32f1x0_pmu.o(.bss.pmu_to_deepsleepmode.reg_snap.3) for pmu_to_deepsleepmode.reg_snap.3
    gd32f1x0_pmu.o(.ARM.exidx) refers to gd32f1x0_pmu.o(.text) for [Anonymous Symbol]
    gd32f1x0_rcu.o(.text) refers to gd32f1x0_rcu.o(.rodata.cst8) for .L__const.rcu_clock_freq_get.apb2_exp
    gd32f1x0_rcu.o(.ARM.exidx) refers to gd32f1x0_rcu.o(.text) for [Anonymous Symbol]
    gd32f1x0_syscfg.o(.text) refers to gd32f1x0_rcu.o(.text) for rcu_periph_reset_enable
    gd32f1x0_syscfg.o(.ARM.exidx) refers to gd32f1x0_syscfg.o(.text) for [Anonymous Symbol]
    gd32f1x0_timer.o(.text) refers to gd32f1x0_rcu.o(.text) for rcu_periph_reset_enable
    gd32f1x0_timer.o(.ARM.exidx) refers to gd32f1x0_timer.o(.text) for [Anonymous Symbol]
    gd32f1x0_usart.o(.text) refers to gd32f1x0_rcu.o(.text) for rcu_periph_reset_enable
    gd32f1x0_usart.o(.ARM.exidx) refers to gd32f1x0_usart.o(.text) for [Anonymous Symbol]
    gd32f1x0_wwdgt.o(.text) refers to gd32f1x0_rcu.o(.text) for rcu_periph_reset_enable
    gd32f1x0_wwdgt.o(.ARM.exidx) refers to gd32f1x0_wwdgt.o(.text) for [Anonymous Symbol]
    startup_gd32f1x0.o(RESET) refers to startup_gd32f1x0.o(STACK) for __initial_sp
    startup_gd32f1x0.o(RESET) refers to startup_gd32f1x0.o(.text) for Reset_Handler
    startup_gd32f1x0.o(RESET) refers to it.o(.text) for NMI_Handler
    startup_gd32f1x0.o(RESET) refers to bldcsine.o(.text) for EXTI0_1_IRQHandler
    startup_gd32f1x0.o(.text) refers to system_gd32f1x0.o(.text) for SystemInit
    startup_gd32f1x0.o(.text) refers to entry.o(.ARM.Collect$$$$00000000) for __main
    system_gd32f1x0.o(.text) refers to system_gd32f1x0.o(.data.SystemCoreClock) for SystemCoreClock
    system_gd32f1x0.o(.ARM.exidx) refers to system_gd32f1x0.o(.text) for [Anonymous Symbol]
    entry.o(.ARM.Collect$$$$00000000) refers (Special) to entry10a.o(.ARM.Collect$$$$0000000D) for __rt_final_cpp
    entry.o(.ARM.Collect$$$$00000000) refers (Special) to entry11a.o(.ARM.Collect$$$$0000000F) for __rt_final_exit
    entry.o(.ARM.Collect$$$$00000000) refers (Special) to entry7b.o(.ARM.Collect$$$$00000008) for _main_clock
    entry.o(.ARM.Collect$$$$00000000) refers (Special) to entry8b.o(.ARM.Collect$$$$0000000A) for _main_cpp_init
    entry.o(.ARM.Collect$$$$00000000) refers (Special) to entry9a.o(.ARM.Collect$$$$0000000B) for _main_init
    entry.o(.ARM.Collect$$$$00000000) refers (Special) to entry5.o(.ARM.Collect$$$$00000004) for _main_scatterload
    entry.o(.ARM.Collect$$$$00000000) refers (Special) to entry2.o(.ARM.Collect$$$$00000001) for _main_stk
    fadd.o(.text) refers (Special) to iusefp.o(.text) for __I$use$fp
    fadd.o(.text) refers to fepilogue.o(.text) for _float_epilogue
    fmul.o(.text) refers (Special) to iusefp.o(.text) for __I$use$fp
    fdiv.o(.text) refers (Special) to iusefp.o(.text) for __I$use$fp
    fdiv.o(.text) refers to fepilogue.o(.text) for _float_round
    dadd.o(.text) refers (Special) to iusefp.o(.text) for __I$use$fp
    dadd.o(.text) refers to llshl.o(.text) for __aeabi_llsl
    dadd.o(.text) refers to llsshr.o(.text) for __aeabi_lasr
    dadd.o(.text) refers to depilogue.o(.text) for _double_epilogue
    dmul.o(.text) refers (Special) to iusefp.o(.text) for __I$use$fp
    dmul.o(.text) refers to depilogue.o(.text) for _double_epilogue
    ddiv.o(.text) refers (Special) to iusefp.o(.text) for __I$use$fp
    ddiv.o(.text) refers to depilogue.o(.text) for _double_round
    fcmple.o(.text) refers (Special) to iusefp.o(.text) for __I$use$fp
    fcmplt.o(.text) refers (Special) to iusefp.o(.text) for __I$use$fp
    fcmpgt.o(.text) refers (Special) to iusefp.o(.text) for __I$use$fp
    fflti.o(.text) refers (Special) to iusefp.o(.text) for __I$use$fp
    fflti.o(.text) refers to fepilogue.o(.text) for _float_epilogue
    ffltui.o(.text) refers (Special) to iusefp.o(.text) for __I$use$fp
    ffltui.o(.text) refers to fepilogue.o(.text) for _float_epilogue
    dflti.o(.text) refers (Special) to iusefp.o(.text) for __I$use$fp
    dflti.o(.text) refers to depilogue.o(.text) for _double_epilogue
    dfltui.o(.text) refers (Special) to iusefp.o(.text) for __I$use$fp
    dfltui.o(.text) refers to depilogue.o(.text) for _double_epilogue
    ffixi.o(.text) refers (Special) to iusefp.o(.text) for __I$use$fp
    ffixl.o(.text) refers (Special) to iusefp.o(.text) for __I$use$fp
    ffixl.o(.text) refers to llshl.o(.text) for __aeabi_llsl
    dfixi.o(.text) refers (Special) to iusefp.o(.text) for __I$use$fp
    dfixi.o(.text) refers to llushr.o(.text) for __aeabi_llsr
    f2d.o(.text) refers (Special) to iusefp.o(.text) for __I$use$fp
    d2f.o(.text) refers (Special) to iusefp.o(.text) for __I$use$fp
    d2f.o(.text) refers to fepilogue.o(.text) for _float_round
    entry2.o(.ARM.Collect$$$$00000001) refers to entry2.o(.ARM.Collect$$$$00002712) for __lit__00000000
    entry2.o(.ARM.Collect$$$$00002712) refers to startup_gd32f1x0.o(STACK) for __initial_sp
    entry2.o(__vectab_stack_and_reset_area) refers to startup_gd32f1x0.o(STACK) for __initial_sp
    entry2.o(__vectab_stack_and_reset_area) refers to entry.o(.ARM.Collect$$$$00000000) for __main
    entry5.o(.ARM.Collect$$$$00000004) refers to init.o(.text) for __scatterload
    entry9a.o(.ARM.Collect$$$$0000000B) refers to main.o(.text) for main
    entry9b.o(.ARM.Collect$$$$0000000C) refers to main.o(.text) for main
    fepilogue.o(.text) refers (Special) to iusefp.o(.text) for __I$use$fp
    depilogue.o(.text) refers (Special) to iusefp.o(.text) for __I$use$fp
    depilogue.o(.text) refers to llshl.o(.text) for __aeabi_llsl
    depilogue.o(.text) refers to llushr.o(.text) for __aeabi_llsr
    init.o(.text) refers to entry5.o(.ARM.Collect$$$$00000004) for __main_after_scatterload


==============================================================================

Removing Unused input sections from the image.

    Removing main.o(.ARM.exidx), (24 bytes).
    Removing main.o(.data.iBug8), (1 bytes).
    Removing main.o(.data.wStateSlave), (1 bytes).
    Removing main.o(.bss.activateWeakening), (1 bytes).
    Removing main.o(.bss.slaveError), (1 bytes).
    Removing main.o(.ARM.use_no_argv), (4 bytes).
    Removing bldc.o(.ARM.exidx), (48 bytes).
    Removing bldc.o(.bss.realSpeed32_reg), (4 bytes).
    Removing driver.o(.ARM.exidx), (32 bytes).
    Removing bldcbc.o(.text), (0 bytes).
    Removing bldcsine.o(.ARM.exidx), (56 bytes).
    Removing bldcsine.o(.bss.fGradient), (4 bytes).
    Removing bldcsine.o(.bss.fGradientX), (4 bytes).
    Removing setup.o(.ARM.exidx), (168 bytes).
    Removing setup.o(.bss.dma_init_struct_usart), (36 bytes).
    Removing setup.o(.bss.usart0_rx_buf), (1 bytes).
    Removing setup.o(.bss.usart1_rx_buf), (1 bytes).
    Removing setup.o(.bss.usart2_rx_buf), (1 bytes).
    Removing it.o(.ARM.exidx), (120 bytes).
    Removing it.o(.bss.iPwmTicks), (4 bytes).
    Removing it.o(.bss.iPwmTicks0), (4 bytes).
    Removing it.o(.bss.iAdcTicks), (4 bytes).
    Removing it.o(.bss.iAdcTicks0), (4 bytes).
    Removing it.o(.bss.iCounterUsart0), (4 bytes).
    Removing it.o(.bss.iCounter2Usart0), (4 bytes).
    Removing it.o(.bss.iCounterUsart1), (4 bytes).
    Removing it.o(.bss.iCounter2Usart1), (4 bytes).
    Removing it.o(.bss.iCounterUsart2), (4 bytes).
    Removing it.o(.bss.iCounter2Usart2), (4 bytes).
    Removing led.o(.text), (0 bytes).
    Removing comms.o(.text), (124 bytes).
    Removing comms.o(.ARM.exidx), (16 bytes).
    Removing remoteuart.o(.text), (0 bytes).
    Removing remotecrsf.o(.text), (0 bytes).
    Removing remotedummy.o(.ARM.exidx), (24 bytes).
    Removing remoteuartbus.o(.text), (0 bytes).
    Removing commsmasterslave.o(.text), (0 bytes).
    Removing commsmasterslave.o(.bss.mosfetOutMaster), (1 bytes).
    Removing commsmasterslave.o(.bss.beepsBackwardsMaster), (1 bytes).
    Removing remoteadc.o(.text), (0 bytes).
    Removing remoteautodetect.o(.text), (0 bytes).
    Removing remoteautodetect.o(.bss.i), (2 bytes).
    Removing remoteros2.o(.text), (0 bytes).
    Removing i2c.o(.text), (0 bytes).
    Removing mpu6050.o(.text), (0 bytes).
    Removing imumpu6050.o(.text), (0 bytes).
    Removing bmi160.o(.text), (0 bytes).
    Removing pilothoverbike.o(.text), (0 bytes).
    Removing pilotuser.o(.text), (0 bytes).
    Removing segger_rtt.o(.text), (6050 bytes).
    Removing segger_rtt.o(.ARM.exidx), (248 bytes).
    Removing segger_rtt.o(.bss._SEGGER_RTT), (168 bytes).
    Removing segger_rtt.o(.rodata.cst16), (16 bytes).
    Removing segger_rtt.o(.bss._ActiveTerminal), (1 bytes).
    Removing segger_rtt.o(.rodata._DoInit._aInitStr), (17 bytes).
    Removing segger_rtt.o(.rodata.str1.1), (9 bytes).
    Removing segger_rtt.o(.bss._acUpBuffer), (1024 bytes).
    Removing segger_rtt.o(.bss._acDownBuffer), (16 bytes).
    Removing remoteoptimizepid.o(.text), (0 bytes).
    Removing gd32f1x0_adc.o(.ARM.exidx), (256 bytes).
    Removing gd32f1x0_dbg.o(.text), (128 bytes).
    Removing gd32f1x0_dbg.o(.ARM.exidx), (48 bytes).
    Removing gd32f1x0_dma.o(.ARM.exidx), (216 bytes).
    Removing gd32f1x0_exti.o(.ARM.exidx), (96 bytes).
    Removing gd32f1x0_fmc.o(.ARM.exidx), (216 bytes).
    Removing gd32f1x0_fwdgt.o(.ARM.exidx), (48 bytes).
    Removing gd32f1x0_gpio.o(.ARM.exidx), (104 bytes).
    Removing gd32f1x0_i2c.o(.text), (802 bytes).
    Removing gd32f1x0_i2c.o(.ARM.exidx), (248 bytes).
    Removing gd32f1x0_misc.o(.ARM.exidx), (56 bytes).
    Removing gd32f1x0_opa.o(.text), (0 bytes).
    Removing gd32f1x0_pmu.o(.text), (490 bytes).
    Removing gd32f1x0_pmu.o(.ARM.exidx), (96 bytes).
    Removing gd32f1x0_pmu.o(.bss.pmu_to_deepsleepmode.reg_snap.0), (4 bytes).
    Removing gd32f1x0_pmu.o(.bss.pmu_to_deepsleepmode.reg_snap.1), (4 bytes).
    Removing gd32f1x0_pmu.o(.bss.pmu_to_deepsleepmode.reg_snap.2), (4 bytes).
    Removing gd32f1x0_pmu.o(.bss.pmu_to_deepsleepmode.reg_snap.3), (4 bytes).
    Removing gd32f1x0_rcu.o(.ARM.exidx), (336 bytes).
    Removing gd32f1x0_syscfg.o(.ARM.exidx), (72 bytes).
    Removing gd32f1x0_timer.o(.ARM.exidx), (568 bytes).
    Removing gd32f1x0_usart.o(.text), (1602 bytes).
    Removing gd32f1x0_usart.o(.ARM.exidx), (544 bytes).
    Removing gd32f1x0_wwdgt.o(.text), (170 bytes).
    Removing gd32f1x0_wwdgt.o(.ARM.exidx), (56 bytes).
    Removing startup_gd32f1x0.o(HEAP), (1024 bytes).
    Removing system_gd32f1x0.o(.ARM.exidx), (16 bytes).

86 unused section(s) (total 15472 bytes) removed from the image.

==============================================================================

Image Symbol Table

    Local Symbols

    Symbol Name                              Value     Ov Type        Size  Object(Section)

    ../clib/microlib/init/entry.s            0x00000000   Number         0  entry.o ABSOLUTE
    ../clib/microlib/init/entry.s            0x00000000   Number         0  entry2.o ABSOLUTE
    ../clib/microlib/init/entry.s            0x00000000   Number         0  entry5.o ABSOLUTE
    ../clib/microlib/init/entry.s            0x00000000   Number         0  entry7a.o ABSOLUTE
    ../clib/microlib/init/entry.s            0x00000000   Number         0  entry7b.o ABSOLUTE
    ../clib/microlib/init/entry.s            0x00000000   Number         0  entry8a.o ABSOLUTE
    ../clib/microlib/init/entry.s            0x00000000   Number         0  entry8b.o ABSOLUTE
    ../clib/microlib/init/entry.s            0x00000000   Number         0  entry9a.o ABSOLUTE
    ../clib/microlib/init/entry.s            0x00000000   Number         0  entry9b.o ABSOLUTE
    ../clib/microlib/init/entry.s            0x00000000   Number         0  entry10a.o ABSOLUTE
    ../clib/microlib/init/entry.s            0x00000000   Number         0  entry10b.o ABSOLUTE
    ../clib/microlib/init/entry.s            0x00000000   Number         0  entry11a.o ABSOLUTE
    ../clib/microlib/init/entry.s            0x00000000   Number         0  entry11b.o ABSOLUTE
    ../clib/microlib/longlong.c              0x00000000   Number         0  llshl.o ABSOLUTE
    ../clib/microlib/longlong.c              0x00000000   Number         0  llushr.o ABSOLUTE
    ../clib/microlib/longlong.c              0x00000000   Number         0  llsshr.o ABSOLUTE
    ../clib/microlib/string/memcpy.c         0x00000000   Number         0  memcpya.o ABSOLUTE
    ../clib/microlib/string/memcpy.c         0x00000000   Number         0  memcpyb.o ABSOLUTE
    ../clib/microlib/string/memset.c         0x00000000   Number         0  memseta.o ABSOLUTE
    ../clib/microlib/string/strlen.c         0x00000000   Number         0  strlen.o ABSOLUTE
    ../clib/microlib/stubs.s                 0x00000000   Number         0  iusefp.o ABSOLUTE
    ../fplib/microlib/d2f.c                  0x00000000   Number         0  d2f.o ABSOLUTE
    ../fplib/microlib/f2d.c                  0x00000000   Number         0  f2d.o ABSOLUTE
    ../fplib/microlib/fpadd.c                0x00000000   Number         0  fadd.o ABSOLUTE
    ../fplib/microlib/fpadd.c                0x00000000   Number         0  dadd.o ABSOLUTE
    ../fplib/microlib/fpcmp.c                0x00000000   Number         0  fcmple.o ABSOLUTE
    ../fplib/microlib/fpcmp.c                0x00000000   Number         0  fcmplt.o ABSOLUTE
    ../fplib/microlib/fpcmp.c                0x00000000   Number         0  fcmpgt.o ABSOLUTE
    ../fplib/microlib/fpdiv.c                0x00000000   Number         0  fdiv.o ABSOLUTE
    ../fplib/microlib/fpdiv.c                0x00000000   Number         0  ddiv.o ABSOLUTE
    ../fplib/microlib/fpepilogue.c           0x00000000   Number         0  fepilogue.o ABSOLUTE
    ../fplib/microlib/fpepilogue.c           0x00000000   Number         0  depilogue.o ABSOLUTE
    ../fplib/microlib/fpfix.c                0x00000000   Number         0  ffixi.o ABSOLUTE
    ../fplib/microlib/fpfix.c                0x00000000   Number         0  ffixl.o ABSOLUTE
    ../fplib/microlib/fpfix.c                0x00000000   Number         0  dfixi.o ABSOLUTE
    ../fplib/microlib/fpflt.c                0x00000000   Number         0  fflti.o ABSOLUTE
    ../fplib/microlib/fpflt.c                0x00000000   Number         0  ffltui.o ABSOLUTE
    ../fplib/microlib/fpflt.c                0x00000000   Number         0  dflti.o ABSOLUTE
    ../fplib/microlib/fpflt.c                0x00000000   Number         0  dfltui.o ABSOLUTE
    ../fplib/microlib/fpmul.c                0x00000000   Number         0  fmul.o ABSOLUTE
    ../fplib/microlib/fpmul.c                0x00000000   Number         0  dmul.o ABSOLUTE
    PilotHoverbike.c                         0x00000000   Number         0  pilothoverbike.o ABSOLUTE
    PilotUser.c                              0x00000000   Number         0  pilotuser.o ABSOLUTE
    RTE/Device/GD32F130C8/startup_gd32f1x0.s 0x00000000   Number         0  startup_gd32f1x0.o ABSOLUTE
    RemoteAdc.c                              0x00000000   Number         0  remoteadc.o ABSOLUTE
    RemoteAutodetect.c                       0x00000000   Number         0  remoteautodetect.o ABSOLUTE
    RemoteROS2.c                             0x00000000   Number         0  remoteros2.o ABSOLUTE
    SEGGER_RTT.c                             0x00000000   Number         0  segger_rtt.o ABSOLUTE
    bldc.c                                   0x00000000   Number         0  bldc.o ABSOLUTE
    bldcBC.c                                 0x00000000   Number         0  bldcbc.o ABSOLUTE
    bldcSINE.c                               0x00000000   Number         0  bldcsine.o ABSOLUTE
    bmi160.c                                 0x00000000   Number         0  bmi160.o ABSOLUTE
    comms.c                                  0x00000000   Number         0  comms.o ABSOLUTE
    commsMasterSlave.c                       0x00000000   Number         0  commsmasterslave.o ABSOLUTE
    dc.s                                     0x00000000   Number         0  dc.o ABSOLUTE
    driver.c                                 0x00000000   Number         0  driver.o ABSOLUTE
    gd32f1x0_adc.c                           0x00000000   Number         0  gd32f1x0_adc.o ABSOLUTE
    gd32f1x0_dbg.c                           0x00000000   Number         0  gd32f1x0_dbg.o ABSOLUTE
    gd32f1x0_dma.c                           0x00000000   Number         0  gd32f1x0_dma.o ABSOLUTE
    gd32f1x0_exti.c                          0x00000000   Number         0  gd32f1x0_exti.o ABSOLUTE
    gd32f1x0_fmc.c                           0x00000000   Number         0  gd32f1x0_fmc.o ABSOLUTE
    gd32f1x0_fwdgt.c                         0x00000000   Number         0  gd32f1x0_fwdgt.o ABSOLUTE
    gd32f1x0_gpio.c                          0x00000000   Number         0  gd32f1x0_gpio.o ABSOLUTE
    gd32f1x0_i2c.c                           0x00000000   Number         0  gd32f1x0_i2c.o ABSOLUTE
    gd32f1x0_misc.c                          0x00000000   Number         0  gd32f1x0_misc.o ABSOLUTE
    gd32f1x0_opa.c                           0x00000000   Number         0  gd32f1x0_opa.o ABSOLUTE
    gd32f1x0_pmu.c                           0x00000000   Number         0  gd32f1x0_pmu.o ABSOLUTE
    gd32f1x0_rcu.c                           0x00000000   Number         0  gd32f1x0_rcu.o ABSOLUTE
    gd32f1x0_syscfg.c                        0x00000000   Number         0  gd32f1x0_syscfg.o ABSOLUTE
    gd32f1x0_timer.c                         0x00000000   Number         0  gd32f1x0_timer.o ABSOLUTE
    gd32f1x0_usart.c                         0x00000000   Number         0  gd32f1x0_usart.o ABSOLUTE
    gd32f1x0_wwdgt.c                         0x00000000   Number         0  gd32f1x0_wwdgt.o ABSOLUTE
    handlers.s                               0x00000000   Number         0  handlers.o ABSOLUTE
    i2c.c                                    0x00000000   Number         0  i2c.o ABSOLUTE
    imuMPU6050.c                             0x00000000   Number         0  imumpu6050.o ABSOLUTE
    init.s                                   0x00000000   Number         0  init.o ABSOLUTE
    it.c                                     0x00000000   Number         0  it.o ABSOLUTE
    led.c                                    0x00000000   Number         0  led.o ABSOLUTE
    main.c                                   0x00000000   Number         0  main.o ABSOLUTE
    mpu6050.c                                0x00000000   Number         0  mpu6050.o ABSOLUTE
    remoteCrsf.c                             0x00000000   Number         0  remotecrsf.o ABSOLUTE
    remoteDummy.c                            0x00000000   Number         0  remotedummy.o ABSOLUTE
    remoteOptimizePID.c                      0x00000000   Number         0  remoteoptimizepid.o ABSOLUTE
    remoteUart.c                             0x00000000   Number         0  remoteuart.o ABSOLUTE
    remoteUartBus.c                          0x00000000   Number         0  remoteuartbus.o ABSOLUTE
    setup.c                                  0x00000000   Number         0  setup.o ABSOLUTE
    system_gd32f1x0.c                        0x00000000   Number         0  system_gd32f1x0.o ABSOLUTE
    RESET                                    0x08000000   Section      360  startup_gd32f1x0.o(RESET)
    .ARM.Collect$$$$00000000                 0x08000168   Section        0  entry.o(.ARM.Collect$$$$00000000)
    .ARM.Collect$$$$00000001                 0x08000168   Section        4  entry2.o(.ARM.Collect$$$$00000001)
    .ARM.Collect$$$$00000004                 0x0800016c   Section        4  entry5.o(.ARM.Collect$$$$00000004)
    .ARM.Collect$$$$00000008                 0x08000170   Section        0  entry7b.o(.ARM.Collect$$$$00000008)
    .ARM.Collect$$$$0000000A                 0x08000170   Section        0  entry8b.o(.ARM.Collect$$$$0000000A)
    .ARM.Collect$$$$0000000B                 0x08000170   Section        8  entry9a.o(.ARM.Collect$$$$0000000B)
    __lit__00000000                          0x08000178   Data           4  entry2.o(.ARM.Collect$$$$00002712)
    .ARM.Collect$$$$0000000D                 0x08000178   Section        0  entry10a.o(.ARM.Collect$$$$0000000D)
    .ARM.Collect$$$$0000000F                 0x08000178   Section        0  entry11a.o(.ARM.Collect$$$$0000000F)
    .ARM.Collect$$$$00002712                 0x08000178   Section        4  entry2.o(.ARM.Collect$$$$00002712)
    [Anonymous Symbol]                       0x0800017c   Section        0  main.o(.text)
    [Anonymous Symbol]                       0x08000964   Section        0  bldc.o(.text)
    [Anonymous Symbol]                       0x080010d8   Section        0  driver.o(.text)
    [Anonymous Symbol]                       0x08001318   Section        0  bldcsine.o(.text)
    [Anonymous Symbol]                       0x080016e8   Section        0  setup.o(.text)
    [Anonymous Symbol]                       0x08001f80   Section        0  it.o(.text)
    [Anonymous Symbol]                       0x0800210c   Section        0  remotedummy.o(.text)
    [Anonymous Symbol]                       0x080022a4   Section        0  gd32f1x0_adc.o(.text)
    [Anonymous Symbol]                       0x0800284c   Section        0  gd32f1x0_dma.o(.text)
    [Anonymous Symbol]                       0x08002bbc   Section        0  gd32f1x0_exti.o(.text)
    [Anonymous Symbol]                       0x08002d2c   Section        0  gd32f1x0_fmc.o(.text)
    [Anonymous Symbol]                       0x080036fc   Section        0  gd32f1x0_fwdgt.o(.text)
    [Anonymous Symbol]                       0x080037e0   Section        0  gd32f1x0_gpio.o(.text)
    [Anonymous Symbol]                       0x08003978   Section        0  gd32f1x0_misc.o(.text)
    [Anonymous Symbol]                       0x08003aa4   Section        0  gd32f1x0_rcu.o(.text)
    [Anonymous Symbol]                       0x080041c8   Section        0  gd32f1x0_syscfg.o(.text)
    [Anonymous Symbol]                       0x080042cc   Section        0  gd32f1x0_timer.o(.text)
    .text                                    0x0800501c   Section       36  startup_gd32f1x0.o(.text)
    [Anonymous Symbol]                       0x08005040   Section        0  system_gd32f1x0.o(.text)
    .text                                    0x0800517c   Section        0  fadd.o(.text)
    .text                                    0x0800522c   Section        0  fmul.o(.text)
    .text                                    0x08005290   Section        0  fdiv.o(.text)
    .text                                    0x0800530c   Section        0  dadd.o(.text)
    .text                                    0x0800545a   Section        0  dmul.o(.text)
    .text                                    0x0800553e   Section        0  ddiv.o(.text)
    .text                                    0x0800561c   Section        0  fcmple.o(.text)
    .text                                    0x08005638   Section        0  fcmplt.o(.text)
    .text                                    0x08005654   Section        0  fcmpgt.o(.text)
    .text                                    0x08005670   Section        0  fflti.o(.text)
    .text                                    0x08005682   Section        0  ffltui.o(.text)
    .text                                    0x0800568c   Section        0  dflti.o(.text)
    .text                                    0x080056ae   Section        0  dfltui.o(.text)
    .text                                    0x080056c8   Section        0  ffixi.o(.text)
    .text                                    0x080056fa   Section        0  ffixl.o(.text)
    .text                                    0x0800573c   Section        0  dfixi.o(.text)
    .text                                    0x0800577a   Section        0  f2d.o(.text)
    .text                                    0x080057a0   Section        0  d2f.o(.text)
    .text                                    0x080057d8   Section        0  llshl.o(.text)
    .text                                    0x080057f6   Section        0  llushr.o(.text)
    .text                                    0x08005816   Section        0  llsshr.o(.text)
    .text                                    0x0800583a   Section        0  iusefp.o(.text)
    .text                                    0x0800583a   Section        0  fepilogue.o(.text)
    .text                                    0x080058a8   Section        0  depilogue.o(.text)
    .text                                    0x08005964   Section       48  init.o(.text)
    i.__scatterload_copy                     0x08005994   Section       14  handlers.o(i.__scatterload_copy)
    i.__scatterload_null                     0x080059a2   Section        2  handlers.o(i.__scatterload_null)
    i.__scatterload_zeroinit                 0x080059a4   Section       14  handlers.o(i.__scatterload_zeroinit)
    .L__const.up_or_down.up_down             0x080059b2   Data          12  bldc.o(.rodata..L__const.up_or_down.up_down)
    .Lswitch.table.gpio_deinit.1             0x080059be   Data          12  gd32f1x0_gpio.o(.rodata..Lswitch.table.gpio_deinit.1)
    hall_to_sector                           0x080059ca   Data           8  bldcsine.o(.rodata.cst8)
    [Anonymous Symbol]                       0x080059ca   Section        0  bldcsine.o(.rodata.cst8)
    .L__const.rcu_clock_freq_get.apb2_exp    0x080059d2   Data           8  gd32f1x0_rcu.o(.rodata.cst8)
    sine_table                               0x08005cb8   Data         720  bldcsine.o(.rodata.sine_table)
    [Anonymous Symbol]                       0x08005cb8   Section        0  bldcsine.o(.rodata.sine_table)
    TIMER0_BRK_UP_TRG_COM_IRQHandler.interrupt_toggle 0x20000068   Data           1  it.o(.bss.TIMER0_BRK_UP_TRG_COM_IRQHandler.interrupt_toggle)
    [Anonymous Symbol]                       0x20000068   Section        0  it.o(.bss.TIMER0_BRK_UP_TRG_COM_IRQHandler.interrupt_toggle)
    STACK                                    0x20000218   Section     1024  startup_gd32f1x0.o(STACK)

    Global Symbols

    Symbol Name                              Value     Ov Type        Size  Object(Section)

    BuildAttributes$$THM_ISAv4$P$D$K$B$S$PE$A:L22UL41UL21$X:L11$S22US41US21$IEEE1$IW$~IW$USESV6$~STKCKD$USESV7$~SHL$OTIME$ROPI$EBA8$MICROLIB$REQ8$PRES8$EABIv2 0x00000000   Number         0  anon$$obj.o ABSOLUTE
    __cpp_initialize__aeabi_                  - Undefined Weak Reference
    __cxa_finalize                            - Undefined Weak Reference
    __decompress                              - Undefined Weak Reference
    _clock_init                               - Undefined Weak Reference
    _microlib_exit                            - Undefined Weak Reference
    __Vectors_Size                           0x00000168   Number         0  startup_gd32f1x0.o ABSOLUTE
    __Vectors                                0x08000000   Data           4  startup_gd32f1x0.o(RESET)
    __Vectors_End                            0x08000168   Data           0  startup_gd32f1x0.o(RESET)
    __main                                   0x08000169   Thumb Code     0  entry.o(.ARM.Collect$$$$00000000)
    _main_stk                                0x08000169   Thumb Code     0  entry2.o(.ARM.Collect$$$$00000001)
    _main_scatterload                        0x0800016d   Thumb Code     0  entry5.o(.ARM.Collect$$$$00000004)
    __main_after_scatterload                 0x08000171   Thumb Code     0  entry5.o(.ARM.Collect$$$$00000004)
    _main_clock                              0x08000171   Thumb Code     0  entry7b.o(.ARM.Collect$$$$00000008)
    _main_cpp_init                           0x08000171   Thumb Code     0  entry8b.o(.ARM.Collect$$$$0000000A)
    _main_init                               0x08000171   Thumb Code     0  entry9a.o(.ARM.Collect$$$$0000000B)
    __rt_final_cpp                           0x08000179   Thumb Code     0  entry10a.o(.ARM.Collect$$$$0000000D)
    __rt_final_exit                          0x08000179   Thumb Code     0  entry11a.o(.ARM.Collect$$$$0000000F)
    main                                     0x0800017d   Thumb Code  1724  main.o(.text)
    ShutOff                                  0x08000839   Thumb Code   144  main.o(.text)
    ShowBatteryState                         0x080008c9   Thumb Code   156  main.o(.text)
    modulo                                   0x08000965   Thumb Code    22  bldc.o(.text)
    up_or_down                               0x0800097d   Thumb Code    66  bldc.o(.text)
    SetEnable                                0x080009c1   Thumb Code    12  bldc.o(.text)
    SetBldcInput                             0x080009cd   Thumb Code   128  bldc.o(.text)
    SetFilter                                0x08000a4d   Thumb Code    44  bldc.o(.text)
    CalculateBLDC                            0x08000a79   Thumb Code  1632  bldc.o(.text)
    PID_Init                                 0x080010d9   Thumb Code   124  driver.o(.text)
    PID_Update                               0x08001155   Thumb Code   120  driver.o(.text)
    DriverInit                               0x080011cd   Thumb Code   154  driver.o(.text)
    Driver                                   0x08001269   Thumb Code   174  driver.o(.text)
    InitEXTI                                 0x08001319   Thumb Code    62  bldcsine.o(.text)
    InitBldc                                 0x08001359   Thumb Code   146  bldcsine.o(.text)
    _HandleEXTI                              0x080013ed   Thumb Code   206  bldcsine.o(.text)
    EXTI0_1_IRQHandler                       0x080014bd   Thumb Code     4  bldcsine.o(.text)
    EXTI2_3_IRQHandler                       0x080014c1   Thumb Code     4  bldcsine.o(.text)
    EXTI4_15_IRQHandler                      0x080014c5   Thumb Code     4  bldcsine.o(.text)
    bldc_get_pwm                             0x080014c9   Thumb Code   544  bldcsine.o(.text)
    pinMode                                  0x080016e9   Thumb Code    42  setup.o(.text)
    pinModePull                              0x08001715   Thumb Code    40  setup.o(.text)
    Interrupt_init                           0x0800173d   Thumb Code     8  setup.o(.text)
    Watchdog_init                            0x08001745   Thumb Code    56  setup.o(.text)
    TimeoutTimer_init                        0x0800177d   Thumb Code    92  setup.o(.text)
    GPIO_init                                0x080017d9   Thumb Code   764  setup.o(.text)
    PWM_init                                 0x08001ad5   Thumb Code   388  setup.o(.text)
    ADC_init                                 0x08001c59   Thumb Code   234  setup.o(.text)
    USART0_Init                              0x08001d45   Thumb Code     2  setup.o(.text)
    USART1_Init                              0x08001d49   Thumb Code     2  setup.o(.text)
    USART2_Init                              0x08001d4d   Thumb Code     2  setup.o(.text)
    flashErase                               0x08001d51   Thumb Code    28  setup.o(.text)
    flashRead                                0x08001d6d   Thumb Code     4  setup.o(.text)
    flashWrite                               0x08001d71   Thumb Code    38  setup.o(.text)
    flashWriteBuffer                         0x08001d99   Thumb Code    64  setup.o(.text)
    flashReadBuffer                          0x08001dd9   Thumb Code    34  setup.o(.text)
    ConfigReset                              0x08001dfd   Thumb Code    38  setup.o(.text)
    ConfigWrite                              0x08001e25   Thumb Code   112  setup.o(.text)
    ConfigRead                               0x08001e95   Thumb Code   120  setup.o(.text)
    Clock_init                               0x08001f0d   Thumb Code    60  setup.o(.text)
    Clock_test                               0x08001f49   Thumb Code    56  setup.o(.text)
    SysTick_Handler                          0x08001f81   Thumb Code    16  it.o(.text)
    ResetTimeout                             0x08001f91   Thumb Code    14  it.o(.text)
    TIMER13_IRQHandler                       0x08001fa1   Thumb Code    76  it.o(.text)
    TIMER0_BRK_UP_TRG_COM_IRQHandler         0x08001fed   Thumb Code   122  it.o(.text)
    DMA_Channel0_IRQHandler                  0x08002069   Thumb Code    92  it.o(.text)
    millis                                   0x080020c5   Thumb Code    12  it.o(.text)
    Delay                                    0x080020d1   Thumb Code    28  it.o(.text)
    NMI_Handler                              0x080020ed   Thumb Code     2  it.o(.text)
    HardFault_Handler                        0x080020f1   Thumb Code     2  it.o(.text)
    MemManage_Handler                        0x080020f5   Thumb Code     2  it.o(.text)
    BusFault_Handler                         0x080020f9   Thumb Code     2  it.o(.text)
    UsageFault_Handler                       0x080020fd   Thumb Code     2  it.o(.text)
    SVC_Handler                              0x08002101   Thumb Code     2  it.o(.text)
    DebugMon_Handler                         0x08002105   Thumb Code     2  it.o(.text)
    PendSV_Handler                           0x08002109   Thumb Code     2  it.o(.text)
    RemoteUpdate                             0x0800210d   Thumb Code   384  remotedummy.o(.text)
    RemoteCallback                           0x0800229d   Thumb Code     2  remotedummy.o(.text)
    RemoteCalculate                          0x080022a1   Thumb Code     2  remotedummy.o(.text)
    adc_deinit                               0x080022a5   Thumb Code    22  gd32f1x0_adc.o(.text)
    adc_enable                               0x080022bd   Thumb Code    26  gd32f1x0_adc.o(.text)
    adc_disable                              0x080022d9   Thumb Code    18  gd32f1x0_adc.o(.text)
    adc_calibration_enable                   0x080022ed   Thumb Code    40  gd32f1x0_adc.o(.text)
    adc_dma_mode_enable                      0x08002315   Thumb Code    18  gd32f1x0_adc.o(.text)
    adc_dma_mode_disable                     0x08002329   Thumb Code    18  gd32f1x0_adc.o(.text)
    adc_tempsensor_vrefint_enable            0x0800233d   Thumb Code    18  gd32f1x0_adc.o(.text)
    adc_tempsensor_vrefint_disable           0x08002351   Thumb Code    18  gd32f1x0_adc.o(.text)
    adc_vbat_enable                          0x08002365   Thumb Code    18  gd32f1x0_adc.o(.text)
    adc_vbat_disable                         0x08002379   Thumb Code    18  gd32f1x0_adc.o(.text)
    adc_discontinuous_mode_config            0x0800238d   Thumb Code    68  gd32f1x0_adc.o(.text)
    adc_special_function_config              0x080023d1   Thumb Code   100  gd32f1x0_adc.o(.text)
    adc_data_alignment_config                0x08002435   Thumb Code    26  gd32f1x0_adc.o(.text)
    adc_channel_length_config                0x08002451   Thumb Code    82  gd32f1x0_adc.o(.text)
    adc_regular_channel_config               0x080024a5   Thumb Code   180  gd32f1x0_adc.o(.text)
    adc_inserted_channel_config              0x08002559   Thumb Code   114  gd32f1x0_adc.o(.text)
    adc_inserted_channel_offset_config       0x080025cd   Thumb Code    32  gd32f1x0_adc.o(.text)
    adc_external_trigger_config              0x080025ed   Thumb Code    72  gd32f1x0_adc.o(.text)
    adc_external_trigger_source_config       0x08002635   Thumb Code    42  gd32f1x0_adc.o(.text)
    adc_software_trigger_enable              0x08002661   Thumb Code    36  gd32f1x0_adc.o(.text)
    adc_regular_data_read                    0x08002685   Thumb Code    14  gd32f1x0_adc.o(.text)
    adc_inserted_data_read                   0x08002695   Thumb Code    74  gd32f1x0_adc.o(.text)
    adc_flag_get                             0x080026e1   Thumb Code    18  gd32f1x0_adc.o(.text)
    adc_flag_clear                           0x080026f5   Thumb Code    18  gd32f1x0_adc.o(.text)
    adc_interrupt_flag_get                   0x08002709   Thumb Code    56  gd32f1x0_adc.o(.text)
    adc_interrupt_flag_clear                 0x08002741   Thumb Code    18  gd32f1x0_adc.o(.text)
    adc_interrupt_enable                     0x08002755   Thumb Code    48  gd32f1x0_adc.o(.text)
    adc_interrupt_disable                    0x08002785   Thumb Code    48  gd32f1x0_adc.o(.text)
    adc_watchdog_single_channel_enable       0x080027b5   Thumb Code    42  gd32f1x0_adc.o(.text)
    adc_watchdog_group_channel_enable        0x080027e1   Thumb Code    48  gd32f1x0_adc.o(.text)
    adc_watchdog_disable                     0x0800281d   Thumb Code    24  gd32f1x0_adc.o(.text)
    adc_watchdog_threshold_config            0x08002835   Thumb Code    22  gd32f1x0_adc.o(.text)
    dma_deinit                               0x0800284d   Thumb Code    48  gd32f1x0_dma.o(.text)
    dma_struct_para_init                     0x0800287d   Thumb Code    24  gd32f1x0_dma.o(.text)
    dma_init                                 0x08002895   Thumb Code   122  gd32f1x0_dma.o(.text)
    dma_circulation_enable                   0x08002911   Thumb Code    24  gd32f1x0_dma.o(.text)
    dma_circulation_disable                  0x08002929   Thumb Code    24  gd32f1x0_dma.o(.text)
    dma_memory_to_memory_enable              0x08002941   Thumb Code    24  gd32f1x0_dma.o(.text)
    dma_memory_to_memory_disable             0x08002959   Thumb Code    24  gd32f1x0_dma.o(.text)
    dma_channel_enable                       0x08002971   Thumb Code    24  gd32f1x0_dma.o(.text)
    dma_channel_disable                      0x08002989   Thumb Code    24  gd32f1x0_dma.o(.text)
    dma_periph_address_config                0x080029a1   Thumb Code    16  gd32f1x0_dma.o(.text)
    dma_memory_address_config                0x080029b1   Thumb Code    16  gd32f1x0_dma.o(.text)
    dma_transfer_number_config               0x080029c1   Thumb Code    16  gd32f1x0_dma.o(.text)
    dma_transfer_number_get                  0x080029d1   Thumb Code    16  gd32f1x0_dma.o(.text)
    dma_priority_config                      0x080029e1   Thumb Code    26  gd32f1x0_dma.o(.text)
    dma_memory_width_config                  0x080029fd   Thumb Code    26  gd32f1x0_dma.o(.text)
    dma_periph_width_config                  0x08002a19   Thumb Code    26  gd32f1x0_dma.o(.text)
    dma_memory_increase_enable               0x08002a35   Thumb Code    24  gd32f1x0_dma.o(.text)
    dma_memory_increase_disable              0x08002a4d   Thumb Code    24  gd32f1x0_dma.o(.text)
    dma_periph_increase_enable               0x08002a65   Thumb Code    24  gd32f1x0_dma.o(.text)
    dma_periph_increase_disable              0x08002a7d   Thumb Code    24  gd32f1x0_dma.o(.text)
    dma_transfer_direction_config            0x08002a95   Thumb Code    30  gd32f1x0_dma.o(.text)
    dma_interrupt_flag_get                   0x08002ab5   Thumb Code    88  gd32f1x0_dma.o(.text)
    dma_interrupt_flag_clear                 0x08002b4d   Thumb Code    20  gd32f1x0_dma.o(.text)
    dma_interrupt_enable                     0x08002b61   Thumb Code    22  gd32f1x0_dma.o(.text)
    dma_interrupt_disable                    0x08002b79   Thumb Code    24  gd32f1x0_dma.o(.text)
    dma_flag_get                             0x08002b91   Thumb Code    22  gd32f1x0_dma.o(.text)
    dma_flag_clear                           0x08002ba9   Thumb Code    20  gd32f1x0_dma.o(.text)
    exti_deinit                              0x08002bbd   Thumb Code    26  gd32f1x0_exti.o(.text)
    exti_init                                0x08002bd9   Thumb Code   156  gd32f1x0_exti.o(.text)
    exti_interrupt_enable                    0x08002c75   Thumb Code    16  gd32f1x0_exti.o(.text)
    exti_event_enable                        0x08002c85   Thumb Code    16  gd32f1x0_exti.o(.text)
    exti_interrupt_disable                   0x08002c95   Thumb Code    18  gd32f1x0_exti.o(.text)
    exti_event_disable                       0x08002ca9   Thumb Code    18  gd32f1x0_exti.o(.text)
    exti_flag_get                            0x08002cbd   Thumb Code    18  gd32f1x0_exti.o(.text)
    exti_flag_clear                          0x08002cd1   Thumb Code    12  gd32f1x0_exti.o(.text)
    exti_interrupt_flag_get                  0x08002cdd   Thumb Code    32  gd32f1x0_exti.o(.text)
    exti_interrupt_flag_clear                0x08002cfd   Thumb Code    12  gd32f1x0_exti.o(.text)
    exti_software_interrupt_enable           0x08002d09   Thumb Code    16  gd32f1x0_exti.o(.text)
    exti_software_interrupt_disable          0x08002d19   Thumb Code    18  gd32f1x0_exti.o(.text)
    fmc_unlock                               0x08002d2d   Thumb Code    38  gd32f1x0_fmc.o(.text)
    fmc_lock                                 0x08002d55   Thumb Code    18  gd32f1x0_fmc.o(.text)
    fmc_wscnt_set                            0x08002d69   Thumb Code    20  gd32f1x0_fmc.o(.text)
    fmc_wait_state_enable                    0x08002d7d   Thumb Code    18  gd32f1x0_fmc.o(.text)
    fmc_wait_state_disable                   0x08002d91   Thumb Code    18  gd32f1x0_fmc.o(.text)
    fmc_page_erase                           0x08002da5   Thumb Code   158  gd32f1x0_fmc.o(.text)
    fmc_mass_erase                           0x08002e45   Thumb Code   150  gd32f1x0_fmc.o(.text)
    fmc_word_program                         0x08002edd   Thumb Code   150  gd32f1x0_fmc.o(.text)
    fmc_halfword_program                     0x08002f75   Thumb Code   150  gd32f1x0_fmc.o(.text)
    ob_unlock                                0x0800300d   Thumb Code    38  gd32f1x0_fmc.o(.text)
    ob_lock                                  0x08003035   Thumb Code    18  gd32f1x0_fmc.o(.text)
    ob_reset                                 0x08003049   Thumb Code    18  gd32f1x0_fmc.o(.text)
    ob_erase                                 0x0800305d   Thumb Code   294  gd32f1x0_fmc.o(.text)
    ob_obstat_plevel_get                     0x08003185   Thumb Code    16  gd32f1x0_fmc.o(.text)
    ob_write_protection_enable               0x08003195   Thumb Code   312  gd32f1x0_fmc.o(.text)
    ob_security_protection_config            0x080032cd   Thumb Code   304  gd32f1x0_fmc.o(.text)
    ob_user_write                            0x080033fd   Thumb Code   308  gd32f1x0_fmc.o(.text)
    ob_data_program                          0x08003531   Thumb Code   304  gd32f1x0_fmc.o(.text)
    ob_user_get                              0x08003661   Thumb Code    16  gd32f1x0_fmc.o(.text)
    ob_data_get                              0x08003671   Thumb Code    14  gd32f1x0_fmc.o(.text)
    ob_write_protection_get                  0x08003681   Thumb Code    14  gd32f1x0_fmc.o(.text)
    fmc_interrupt_enable                     0x08003691   Thumb Code    16  gd32f1x0_fmc.o(.text)
    fmc_interrupt_disable                    0x080036a1   Thumb Code    18  gd32f1x0_fmc.o(.text)
    fmc_flag_get                             0x080036b5   Thumb Code    18  gd32f1x0_fmc.o(.text)
    fmc_flag_clear                           0x080036c9   Thumb Code    16  gd32f1x0_fmc.o(.text)
    fmc_interrupt_flag_get                   0x080036d9   Thumb Code    18  gd32f1x0_fmc.o(.text)
    fmc_interrupt_flag_clear                 0x080036ed   Thumb Code    16  gd32f1x0_fmc.o(.text)
    fwdgt_write_disable                      0x080036fd   Thumb Code    14  gd32f1x0_fwdgt.o(.text)
    fwdgt_counter_reload                     0x0800370d   Thumb Code    16  gd32f1x0_fwdgt.o(.text)
    fwdgt_enable                             0x0800371d   Thumb Code    16  gd32f1x0_fwdgt.o(.text)
    fwdgt_window_value_config                0x0800372d   Thumb Code    58  gd32f1x0_fwdgt.o(.text)
    fwdgt_config                             0x08003769   Thumb Code   100  gd32f1x0_fwdgt.o(.text)
    fwdgt_flag_get                           0x080037cd   Thumb Code    18  gd32f1x0_fwdgt.o(.text)
    gpio_deinit                              0x080037e1   Thumb Code    58  gd32f1x0_gpio.o(.text)
    gpio_mode_set                            0x0800381d   Thumb Code    84  gd32f1x0_gpio.o(.text)
    gpio_output_options_set                  0x08003871   Thumb Code    70  gd32f1x0_gpio.o(.text)
    gpio_bit_set                             0x080038b9   Thumb Code     4  gd32f1x0_gpio.o(.text)
    gpio_bit_reset                           0x080038bd   Thumb Code     4  gd32f1x0_gpio.o(.text)
    gpio_bit_write                           0x080038c1   Thumb Code    12  gd32f1x0_gpio.o(.text)
    gpio_port_write                          0x080038cd   Thumb Code     4  gd32f1x0_gpio.o(.text)
    gpio_input_bit_get                       0x080038d1   Thumb Code    10  gd32f1x0_gpio.o(.text)
    gpio_input_port_get                      0x080038dd   Thumb Code     6  gd32f1x0_gpio.o(.text)
    gpio_output_bit_get                      0x080038e5   Thumb Code    10  gd32f1x0_gpio.o(.text)
    gpio_output_port_get                     0x080038f1   Thumb Code     6  gd32f1x0_gpio.o(.text)
    gpio_af_set                              0x080038f9   Thumb Code   110  gd32f1x0_gpio.o(.text)
    gpio_pin_lock                            0x08003969   Thumb Code    16  gd32f1x0_gpio.o(.text)
    nvic_priority_group_set                  0x08003979   Thumb Code    20  gd32f1x0_misc.o(.text)
    nvic_irq_enable                          0x0800398d   Thumb Code   168  gd32f1x0_misc.o(.text)
    nvic_irq_disable                         0x08003a35   Thumb Code    28  gd32f1x0_misc.o(.text)
    nvic_vector_table_set                    0x08003a51   Thumb Code    24  gd32f1x0_misc.o(.text)
    system_lowpower_set                      0x08003a69   Thumb Code    16  gd32f1x0_misc.o(.text)
    system_lowpower_reset                    0x08003a79   Thumb Code    18  gd32f1x0_misc.o(.text)
    systick_clksource_set                    0x08003a8d   Thumb Code    24  gd32f1x0_misc.o(.text)
    rcu_deinit                               0x08003aa5   Thumb Code   112  gd32f1x0_rcu.o(.text)
    rcu_periph_clock_enable                  0x08003b15   Thumb Code    30  gd32f1x0_rcu.o(.text)
    rcu_periph_clock_disable                 0x08003b35   Thumb Code    32  gd32f1x0_rcu.o(.text)
    rcu_periph_clock_sleep_enable            0x08003b55   Thumb Code    30  gd32f1x0_rcu.o(.text)
    rcu_periph_clock_sleep_disable           0x08003b75   Thumb Code    32  gd32f1x0_rcu.o(.text)
    rcu_periph_reset_enable                  0x08003b95   Thumb Code    30  gd32f1x0_rcu.o(.text)
    rcu_periph_reset_disable                 0x08003bb5   Thumb Code    32  gd32f1x0_rcu.o(.text)
    rcu_bkp_reset_enable                     0x08003bd5   Thumb Code    18  gd32f1x0_rcu.o(.text)
    rcu_bkp_reset_disable                    0x08003be9   Thumb Code    18  gd32f1x0_rcu.o(.text)
    rcu_system_clock_source_config           0x08003bfd   Thumb Code    20  gd32f1x0_rcu.o(.text)
    rcu_system_clock_source_get              0x08003c11   Thumb Code    16  gd32f1x0_rcu.o(.text)
    rcu_ahb_clock_config                     0x08003c21   Thumb Code    20  gd32f1x0_rcu.o(.text)
    rcu_apb1_clock_config                    0x08003c35   Thumb Code    20  gd32f1x0_rcu.o(.text)
    rcu_apb2_clock_config                    0x08003c49   Thumb Code    20  gd32f1x0_rcu.o(.text)
    rcu_adc_clock_config                     0x08003c5d   Thumb Code    88  gd32f1x0_rcu.o(.text)
    rcu_usbd_clock_config                    0x08003cb5   Thumb Code    24  gd32f1x0_rcu.o(.text)
    rcu_ckout_config                         0x08003ccd   Thumb Code    22  gd32f1x0_rcu.o(.text)
    rcu_pll_config                           0x08003ce5   Thumb Code    40  gd32f1x0_rcu.o(.text)
    rcu_usart_clock_config                   0x08003d0d   Thumb Code    24  gd32f1x0_rcu.o(.text)
    rcu_cec_clock_config                     0x08003d25   Thumb Code    24  gd32f1x0_rcu.o(.text)
    rcu_rtc_clock_config                     0x08003d3d   Thumb Code    24  gd32f1x0_rcu.o(.text)
    rcu_hxtal_prediv_config                  0x08003d55   Thumb Code    20  gd32f1x0_rcu.o(.text)
    rcu_lxtal_drive_capability_config        0x08003d69   Thumb Code    24  gd32f1x0_rcu.o(.text)
    rcu_flag_get                             0x08003d81   Thumb Code    26  gd32f1x0_rcu.o(.text)
    rcu_all_reset_flag_clear                 0x08003d9d   Thumb Code    18  gd32f1x0_rcu.o(.text)
    rcu_interrupt_flag_get                   0x08003db1   Thumb Code    18  gd32f1x0_rcu.o(.text)
    rcu_interrupt_flag_clear                 0x08003dc5   Thumb Code    16  gd32f1x0_rcu.o(.text)
    rcu_interrupt_enable                     0x08003dd5   Thumb Code    16  gd32f1x0_rcu.o(.text)
    rcu_interrupt_disable                    0x08003de5   Thumb Code    18  gd32f1x0_rcu.o(.text)
    rcu_osci_stab_wait                       0x08003df9   Thumb Code   312  gd32f1x0_rcu.o(.text)
    rcu_osci_on                              0x08003f31   Thumb Code    30  gd32f1x0_rcu.o(.text)
    rcu_osci_off                             0x08003f51   Thumb Code    32  gd32f1x0_rcu.o(.text)
    rcu_osci_bypass_mode_enable              0x08003f71   Thumb Code    64  gd32f1x0_rcu.o(.text)
    rcu_osci_bypass_mode_disable             0x08003fb1   Thumb Code    64  gd32f1x0_rcu.o(.text)
    rcu_hxtal_clock_monitor_enable           0x08003ff1   Thumb Code    18  gd32f1x0_rcu.o(.text)
    rcu_hxtal_clock_monitor_disable          0x08004005   Thumb Code    18  gd32f1x0_rcu.o(.text)
    rcu_irc8m_adjust_value_set               0x08004019   Thumb Code    22  gd32f1x0_rcu.o(.text)
    rcu_irc14m_adjust_value_set              0x08004031   Thumb Code    22  gd32f1x0_rcu.o(.text)
    rcu_voltage_key_unlock                   0x08004049   Thumb Code    30  gd32f1x0_rcu.o(.text)
    rcu_deepsleep_voltage_set                0x08004069   Thumb Code    24  gd32f1x0_rcu.o(.text)
    rcu_power_down_voltage_set               0x08004081   Thumb Code    24  gd32f1x0_rcu.o(.text)
    rcu_clock_freq_get                       0x08004099   Thumb Code   288  gd32f1x0_rcu.o(.text)
    syscfg_deinit                            0x080041c9   Thumb Code    22  gd32f1x0_syscfg.o(.text)
    syscfg_dma_remap_enable                  0x080041e1   Thumb Code    14  gd32f1x0_syscfg.o(.text)
    syscfg_dma_remap_disable                 0x080041f1   Thumb Code    16  gd32f1x0_syscfg.o(.text)
    syscfg_high_current_enable               0x08004201   Thumb Code    16  gd32f1x0_syscfg.o(.text)
    syscfg_high_current_disable              0x08004211   Thumb Code    16  gd32f1x0_syscfg.o(.text)
    syscfg_exti_line_config                  0x08004221   Thumb Code   124  gd32f1x0_syscfg.o(.text)
    syscfg_lock_config                       0x0800429d   Thumb Code    14  gd32f1x0_syscfg.o(.text)
    syscfg_flag_get                          0x080042ad   Thumb Code    16  gd32f1x0_syscfg.o(.text)
    syscfg_flag_clear                        0x080042bd   Thumb Code    14  gd32f1x0_syscfg.o(.text)
    timer_deinit                             0x080042cd   Thumb Code   194  gd32f1x0_timer.o(.text)
    timer_struct_para_init                   0x08004391   Thumb Code    16  gd32f1x0_timer.o(.text)
    timer_init                               0x080043a1   Thumb Code   216  gd32f1x0_timer.o(.text)
    timer_enable                             0x08004479   Thumb Code    10  gd32f1x0_timer.o(.text)
    timer_disable                            0x08004485   Thumb Code    10  gd32f1x0_timer.o(.text)
    timer_auto_reload_shadow_enable          0x08004491   Thumb Code    10  gd32f1x0_timer.o(.text)
    timer_auto_reload_shadow_disable         0x0800449d   Thumb Code    10  gd32f1x0_timer.o(.text)
    timer_update_event_enable                0x080044a9   Thumb Code    10  gd32f1x0_timer.o(.text)
    timer_update_event_disable               0x080044b5   Thumb Code    10  gd32f1x0_timer.o(.text)
    timer_counter_alignment                  0x080044c1   Thumb Code    16  gd32f1x0_timer.o(.text)
    timer_counter_up_direction               0x080044d1   Thumb Code    10  gd32f1x0_timer.o(.text)
    timer_counter_down_direction             0x080044dd   Thumb Code    10  gd32f1x0_timer.o(.text)
    timer_prescaler_config                   0x080044e9   Thumb Code    18  gd32f1x0_timer.o(.text)
    timer_repetition_value_config            0x080044fd   Thumb Code     4  gd32f1x0_timer.o(.text)
    timer_autoreload_value_config            0x08004501   Thumb Code     4  gd32f1x0_timer.o(.text)
    timer_counter_value_config               0x08004505   Thumb Code     4  gd32f1x0_timer.o(.text)
    timer_counter_read                       0x08004509   Thumb Code     4  gd32f1x0_timer.o(.text)
    timer_prescaler_read                     0x0800450d   Thumb Code     6  gd32f1x0_timer.o(.text)
    timer_single_pulse_mode_config           0x08004515   Thumb Code    30  gd32f1x0_timer.o(.text)
    timer_update_source_config               0x08004535   Thumb Code    30  gd32f1x0_timer.o(.text)
    timer_ocpre_clear_source_config          0x08004555   Thumb Code    28  gd32f1x0_timer.o(.text)
    timer_interrupt_enable                   0x08004571   Thumb Code     8  gd32f1x0_timer.o(.text)
    timer_interrupt_disable                  0x08004579   Thumb Code    10  gd32f1x0_timer.o(.text)
    timer_interrupt_flag_get                 0x08004585   Thumb Code    22  gd32f1x0_timer.o(.text)
    timer_interrupt_flag_clear               0x0800459d   Thumb Code     6  gd32f1x0_timer.o(.text)
    timer_flag_get                           0x080045a5   Thumb Code    10  gd32f1x0_timer.o(.text)
    timer_flag_clear                         0x080045b1   Thumb Code     6  gd32f1x0_timer.o(.text)
    timer_dma_enable                         0x080045b9   Thumb Code     8  gd32f1x0_timer.o(.text)
    timer_dma_disable                        0x080045c1   Thumb Code    10  gd32f1x0_timer.o(.text)
    timer_channel_dma_request_source_select  0x080045cd   Thumb Code    30  gd32f1x0_timer.o(.text)
    timer_dma_transfer_config                0x080045ed   Thumb Code    24  gd32f1x0_timer.o(.text)
    timer_event_software_generate            0x08004605   Thumb Code     8  gd32f1x0_timer.o(.text)
    timer_break_struct_para_init             0x0800460d   Thumb Code    16  gd32f1x0_timer.o(.text)
    timer_break_config                       0x0800461d   Thumb Code    36  gd32f1x0_timer.o(.text)
    timer_break_enable                       0x08004641   Thumb Code    10  gd32f1x0_timer.o(.text)
    timer_break_disable                      0x0800464d   Thumb Code    10  gd32f1x0_timer.o(.text)
    timer_automatic_output_enable            0x08004659   Thumb Code    10  gd32f1x0_timer.o(.text)
    timer_automatic_output_disable           0x08004665   Thumb Code    10  gd32f1x0_timer.o(.text)
    timer_primary_output_config              0x08004671   Thumb Code    18  gd32f1x0_timer.o(.text)
    timer_channel_control_shadow_config      0x08004685   Thumb Code    16  gd32f1x0_timer.o(.text)
    timer_channel_control_shadow_update_config 0x08004695   Thumb Code    30  gd32f1x0_timer.o(.text)
    timer_channel_output_struct_para_init    0x080046b5   Thumb Code    12  gd32f1x0_timer.o(.text)
    timer_channel_output_config              0x080046c1   Thumb Code   562  gd32f1x0_timer.o(.text)
    timer_channel_output_mode_config         0x080048f5   Thumb Code    56  gd32f1x0_timer.o(.text)
    timer_channel_output_pulse_value_config  0x0800492d   Thumb Code    16  gd32f1x0_timer.o(.text)
    timer_channel_output_shadow_config       0x0800493d   Thumb Code    56  gd32f1x0_timer.o(.text)
    timer_channel_output_fast_config         0x08004975   Thumb Code    56  gd32f1x0_timer.o(.text)
    timer_channel_output_clear_config        0x080049ad   Thumb Code    56  gd32f1x0_timer.o(.text)
    timer_channel_output_polarity_config     0x080049e5   Thumb Code    68  gd32f1x0_timer.o(.text)
    timer_channel_complementary_output_polarity_config 0x08004a29   Thumb Code    68  gd32f1x0_timer.o(.text)
    timer_channel_output_state_config        0x08004a6d   Thumb Code    68  gd32f1x0_timer.o(.text)
    timer_channel_complementary_output_state_config 0x08004ab1   Thumb Code    56  gd32f1x0_timer.o(.text)
    timer_channel_input_struct_para_init     0x08004ae9   Thumb Code    12  gd32f1x0_timer.o(.text)
    timer_input_capture_config               0x08004af5   Thumb Code   350  gd32f1x0_timer.o(.text)
    timer_channel_input_capture_prescaler_config 0x08004c55   Thumb Code    56  gd32f1x0_timer.o(.text)
    timer_channel_capture_value_register_read 0x08004c8d   Thumb Code    18  gd32f1x0_timer.o(.text)
    timer_input_pwm_capture_config           0x08004ca1   Thumb Code   354  gd32f1x0_timer.o(.text)
    timer_hall_mode_config                   0x08004e05   Thumb Code    30  gd32f1x0_timer.o(.text)
    timer_input_trigger_source_select        0x08004e25   Thumb Code    16  gd32f1x0_timer.o(.text)
    timer_master_output_trigger_source_select 0x08004e35   Thumb Code    16  gd32f1x0_timer.o(.text)
    timer_slave_mode_select                  0x08004e45   Thumb Code    16  gd32f1x0_timer.o(.text)
    timer_master_slave_mode_config           0x08004e55   Thumb Code    30  gd32f1x0_timer.o(.text)
    timer_external_trigger_config            0x08004e75   Thumb Code    34  gd32f1x0_timer.o(.text)
    timer_quadrature_decoder_mode_config     0x08004e99   Thumb Code    78  gd32f1x0_timer.o(.text)
    timer_internal_clock_config              0x08004ee9   Thumb Code    10  gd32f1x0_timer.o(.text)
    timer_internal_trigger_as_external_clock_config 0x08004ef5   Thumb Code    32  gd32f1x0_timer.o(.text)
    timer_external_trigger_as_external_clock_config 0x08004f15   Thumb Code   152  gd32f1x0_timer.o(.text)
    timer_external_clock_mode0_config        0x08004fad   Thumb Code    50  gd32f1x0_timer.o(.text)
    timer_external_clock_mode1_config        0x08004fe1   Thumb Code    42  gd32f1x0_timer.o(.text)
    timer_external_clock_mode1_disable       0x0800500d   Thumb Code    10  gd32f1x0_timer.o(.text)
    timer_channel_remap_config               0x08005019   Thumb Code     4  gd32f1x0_timer.o(.text)
    Reset_Handler                            0x0800501d   Thumb Code     8  startup_gd32f1x0.o(.text)
    ADC_CMP_IRQHandler                       0x08005037   Thumb Code     0  startup_gd32f1x0.o(.text)
    CAN0_RX0_IRQHandler                      0x08005037   Thumb Code     0  startup_gd32f1x0.o(.text)
    CAN0_RX1_IRQHandler                      0x08005037   Thumb Code     0  startup_gd32f1x0.o(.text)
    CAN0_SCE_IRQHandler                      0x08005037   Thumb Code     0  startup_gd32f1x0.o(.text)
    CAN0_TX_IRQHandler                       0x08005037   Thumb Code     0  startup_gd32f1x0.o(.text)
    CAN1_RX0_IRQHandler                      0x08005037   Thumb Code     0  startup_gd32f1x0.o(.text)
    CAN1_RX1_IRQHandler                      0x08005037   Thumb Code     0  startup_gd32f1x0.o(.text)
    CAN1_SCE_IRQHandler                      0x08005037   Thumb Code     0  startup_gd32f1x0.o(.text)
    CAN1_TX_IRQHandler                       0x08005037   Thumb Code     0  startup_gd32f1x0.o(.text)
    CEC_IRQHandler                           0x08005037   Thumb Code     0  startup_gd32f1x0.o(.text)
    DMA_Channel1_2_IRQHandler                0x08005037   Thumb Code     0  startup_gd32f1x0.o(.text)
    DMA_Channel3_4_IRQHandler                0x08005037   Thumb Code     0  startup_gd32f1x0.o(.text)
    DMA_Channel5_6_IRQHandler                0x08005037   Thumb Code     0  startup_gd32f1x0.o(.text)
    FMC_IRQHandler                           0x08005037   Thumb Code     0  startup_gd32f1x0.o(.text)
    I2C0_ER_IRQHandler                       0x08005037   Thumb Code     0  startup_gd32f1x0.o(.text)
    I2C0_EV_IRQHandler                       0x08005037   Thumb Code     0  startup_gd32f1x0.o(.text)
    I2C1_ER_IRQHandler                       0x08005037   Thumb Code     0  startup_gd32f1x0.o(.text)
    I2C1_EV_IRQHandler                       0x08005037   Thumb Code     0  startup_gd32f1x0.o(.text)
    I2C2_ER_IRQHandler                       0x08005037   Thumb Code     0  startup_gd32f1x0.o(.text)
    I2C2_EV_IRQHandler                       0x08005037   Thumb Code     0  startup_gd32f1x0.o(.text)
    LVD_IRQHandler                           0x08005037   Thumb Code     0  startup_gd32f1x0.o(.text)
    RCU_IRQHandler                           0x08005037   Thumb Code     0  startup_gd32f1x0.o(.text)
    RTC_IRQHandler                           0x08005037   Thumb Code     0  startup_gd32f1x0.o(.text)
    SLCD_IRQHandler                          0x08005037   Thumb Code     0  startup_gd32f1x0.o(.text)
    SPI0_IRQHandler                          0x08005037   Thumb Code     0  startup_gd32f1x0.o(.text)
    SPI1_IRQHandler                          0x08005037   Thumb Code     0  startup_gd32f1x0.o(.text)
    SPI2_IRQHandler                          0x08005037   Thumb Code     0  startup_gd32f1x0.o(.text)
    TIMER0_Channel_IRQHandler                0x08005037   Thumb Code     0  startup_gd32f1x0.o(.text)
    TIMER14_IRQHandler                       0x08005037   Thumb Code     0  startup_gd32f1x0.o(.text)
    TIMER15_IRQHandler                       0x08005037   Thumb Code     0  startup_gd32f1x0.o(.text)
    TIMER16_IRQHandler                       0x08005037   Thumb Code     0  startup_gd32f1x0.o(.text)
    TIMER1_IRQHandler                        0x08005037   Thumb Code     0  startup_gd32f1x0.o(.text)
    TIMER2_IRQHandler                        0x08005037   Thumb Code     0  startup_gd32f1x0.o(.text)
    TIMER5_DAC_IRQHandler                    0x08005037   Thumb Code     0  startup_gd32f1x0.o(.text)
    TSI_IRQHandler                           0x08005037   Thumb Code     0  startup_gd32f1x0.o(.text)
    USART0_IRQHandler                        0x08005037   Thumb Code     0  startup_gd32f1x0.o(.text)
    USART1_IRQHandler                        0x08005037   Thumb Code     0  startup_gd32f1x0.o(.text)
    USBDWakeUp_IRQHandler                    0x08005037   Thumb Code     0  startup_gd32f1x0.o(.text)
    USBD_HP_IRQHandler                       0x08005037   Thumb Code     0  startup_gd32f1x0.o(.text)
    USBD_LP_IRQHandler                       0x08005037   Thumb Code     0  startup_gd32f1x0.o(.text)
    WWDGT_IRQHandler                         0x08005037   Thumb Code     0  startup_gd32f1x0.o(.text)
    SystemInit                               0x08005041   Thumb Code   188  system_gd32f1x0.o(.text)
    SystemCoreClockUpdate                    0x080050fd   Thumb Code   112  system_gd32f1x0.o(.text)
    __aeabi_fadd                             0x0800517d   Thumb Code   164  fadd.o(.text)
    __aeabi_fsub                             0x08005221   Thumb Code     6  fadd.o(.text)
    __aeabi_frsub                            0x08005227   Thumb Code     6  fadd.o(.text)
    __aeabi_fmul                             0x0800522d   Thumb Code   100  fmul.o(.text)
    __aeabi_fdiv                             0x08005291   Thumb Code   124  fdiv.o(.text)
    __aeabi_dadd                             0x0800530d   Thumb Code   322  dadd.o(.text)
    __aeabi_dsub                             0x0800544f   Thumb Code     6  dadd.o(.text)
    __aeabi_drsub                            0x08005455   Thumb Code     6  dadd.o(.text)
    __aeabi_dmul                             0x0800545b   Thumb Code   228  dmul.o(.text)
    __aeabi_ddiv                             0x0800553f   Thumb Code   222  ddiv.o(.text)
    __aeabi_fcmple                           0x0800561d   Thumb Code    28  fcmple.o(.text)
    __aeabi_fcmplt                           0x08005639   Thumb Code    28  fcmplt.o(.text)
    __aeabi_fcmpgt                           0x08005655   Thumb Code    28  fcmpgt.o(.text)
    __aeabi_i2f                              0x08005671   Thumb Code    18  fflti.o(.text)
    __aeabi_ui2f                             0x08005683   Thumb Code    10  ffltui.o(.text)
    __aeabi_i2d                              0x0800568d   Thumb Code    34  dflti.o(.text)
    __aeabi_ui2d                             0x080056af   Thumb Code    26  dfltui.o(.text)
    __aeabi_f2iz                             0x080056c9   Thumb Code    50  ffixi.o(.text)
    __aeabi_f2lz                             0x080056fb   Thumb Code    66  ffixl.o(.text)
    __aeabi_d2iz                             0x0800573d   Thumb Code    62  dfixi.o(.text)
    __aeabi_f2d                              0x0800577b   Thumb Code    38  f2d.o(.text)
    __aeabi_d2f                              0x080057a1   Thumb Code    56  d2f.o(.text)
    __aeabi_llsl                             0x080057d9   Thumb Code    30  llshl.o(.text)
    _ll_shift_l                              0x080057d9   Thumb Code     0  llshl.o(.text)
    __aeabi_llsr                             0x080057f7   Thumb Code    32  llushr.o(.text)
    _ll_ushift_r                             0x080057f7   Thumb Code     0  llushr.o(.text)
    __aeabi_lasr                             0x08005817   Thumb Code    36  llsshr.o(.text)
    _ll_sshift_r                             0x08005817   Thumb Code     0  llsshr.o(.text)
    __I$use$fp                               0x0800583b   Thumb Code     0  iusefp.o(.text)
    _float_round                             0x0800583b   Thumb Code    18  fepilogue.o(.text)
    _float_epilogue                          0x0800584d   Thumb Code    92  fepilogue.o(.text)
    _double_round                            0x080058a9   Thumb Code    30  depilogue.o(.text)
    _double_epilogue                         0x080058c7   Thumb Code   156  depilogue.o(.text)
    __scatterload                            0x08005965   Thumb Code    38  init.o(.text)
    __scatterload_rt2                        0x08005965   Thumb Code     0  init.o(.text)
    __scatterload_copy                       0x08005995   Thumb Code    14  handlers.o(i.__scatterload_copy)
    __scatterload_null                       0x080059a3   Thumb Code     2  handlers.o(i.__scatterload_null)
    __scatterload_zeroinit                   0x080059a5   Thumb Code    14  handlers.o(i.__scatterload_zeroinit)
    hall_to_pos                              0x080059da   Data           8  bldc.o(.rodata.hall_to_pos)
    lookUpTableAngle                         0x080059e4   Data         724  main.o(.rodata.lookUpTableAngle)
    Region$$Table$$Base                      0x08005f88   Number         0  anon$$obj.o(Region$$Table)
    Region$$Table$$Limit                     0x08005fa8   Number         0  anon$$obj.o(Region$$Table)
    SystemCoreClock                          0x20000000   Data           4  system_gd32f1x0.o(.data.SystemCoreClock)
    aoPIDInit                                0x20000004   Data          60  driver.o(.data.aoPIDInit)
    bRemoteInit                              0x20000040   Data           1  remotedummy.o(.data.bRemoteInit)
    batteryVoltage                           0x20000044   Data           4  bldc.o(.data.batteryVoltage)
    beepsBackwards                           0x20000048   Data           1  main.o(.data.beepsBackwards)
    currentDC                                0x2000004c   Data           4  bldc.o(.data.currentDC)
    fRemoteScaleMax                          0x20000050   Data           4  remotedummy.o(.data.fRemoteScaleMax)
    iFILTER_SHIFT                            0x20000054   Data           1  bldc.o(.data.iFILTER_SHIFT)
    iOldRemotePeriod                         0x20000055   Data           1  remotedummy.o(.data.iOldRemotePeriod)
    iRemotePeriod                            0x20000056   Data           1  remotedummy.o(.data.iRemotePeriod)
    offsetdc                                 0x20000058   Data           2  bldc.o(.data.offsetdc)
    revs32Scale                              0x2000005c   Data           4  bldc.o(.data.revs32Scale)
    revs32ScaleSlow                          0x20000060   Data           4  bldc.o(.data.revs32ScaleSlow)
    speedLimit                               0x20000064   Data           2  main.o(.data.speedLimit)
    wState                                   0x20000066   Data           1  main.o(.data.wState)
    aHallEXTI                                0x2000006c   Data          12  bldcsine.o(.bss.aHallEXTI)
    adc_buffer                               0x20000078   Data           4  bldc.o(.bss.adc_buffer)
    angle_deg                                0x2000007c   Data           2  bldcsine.o(.bss.angle_deg)
    angle_deg_add                            0x2000007e   Data           2  bldcsine.o(.bss.angle_deg_add)
    angle_deg_final                          0x20000080   Data           2  bldcsine.o(.bss.angle_deg_final)
    angle_idx                                0x20000082   Data           2  bldcsine.o(.bss.angle_idx)
    bInterrupt                               0x20000084   Data           1  bldcsine.o(.bss.bInterrupt)
    bPilotTimeout                            0x20000085   Data           1  main.o(.bss.bPilotTimeout)
    bRemoteTimeout                           0x20000086   Data           1  main.o(.bss.bRemoteTimeout)
    bldc_enable                              0x20000087   Data           1  bldc.o(.bss.bldc_enable)
    bldc_inputFilterPwm                      0x20000088   Data           4  bldc.o(.bss.bldc_inputFilterPwm)
    bldc_outputFilterPwm                     0x2000008c   Data           4  bldc.o(.bss.bldc_outputFilterPwm)
    buzzerFreq                               0x20000090   Data           1  bldc.o(.bss.buzzerFreq)
    buzzerPattern                            0x20000091   Data           1  bldc.o(.bss.buzzerPattern)
    buzzerTimer                              0x20000092   Data           2  bldc.o(.bss.buzzerTimer)
    buzzerToggle                             0x20000094   Data           1  bldc.o(.bss.buzzerToggle)
    dev_id                                   0x20000098   Data           4  setup.o(.bss.dev_id)
    dma_init_struct_adc                      0x2000009c   Data          36  setup.o(.bss.dma_init_struct_adc)
    enable                                   0x200000c0   Data           1  main.o(.bss.enable)
    filter_reg                               0x200000c4   Data           4  bldc.o(.bss.filter_reg)
    hall                                     0x200000c8   Data           1  bldc.o(.bss.hall)
    hall_a                                   0x200000c9   Data           1  bldc.o(.bss.hall_a)
    hall_b                                   0x200000ca   Data           1  bldc.o(.bss.hall_b)
    hall_c                                   0x200000cb   Data           1  bldc.o(.bss.hall_c)
    hall_last                                0x200000cc   Data           1  bldcsine.o(.bss.hall_last)
    hall_time_last                           0x200000ce   Data           2  bldcsine.o(.bss.hall_time_last)
    hall_time_step                           0x200000d0   Data           2  bldcsine.o(.bss.hall_time_step)
    hall_time_step_LP                        0x200000d4   Data           4  bldcsine.o(.bss.hall_time_step_LP)
    hall_time_step_LPR                       0x200000d8   Data           4  bldcsine.o(.bss.hall_time_step_LPR)
    iAdcCounter                              0x200000dc   Data           4  it.o(.bss.iAdcCounter)
    iAdcRate                                 0x200000e0   Data           4  it.o(.bss.iAdcRate)
    iAdcTime                                 0x200000e4   Data           4  it.o(.bss.iAdcTime)
    iAdd                                     0x200000e8   Data           2  bldcsine.o(.bss.iAdd)
    iBldcInput                               0x200000ec   Data           4  bldc.o(.bss.iBldcInput)
    iBug                                     0x200000f0   Data           4  main.o(.bss.iBug)
    iBuzzCounter                             0x200000f4   Data           4  bldc.o(.bss.iBuzzCounter)
    iBuzzRate                                0x200000f8   Data           4  bldc.o(.bss.iBuzzRate)
    iBuzzTime                                0x200000fc   Data           4  bldc.o(.bss.iBuzzTime)
    iDT                                      0x20000100   Data           2  bldcsine.o(.bss.iDT)
    iDrivingMode                             0x20000102   Data           1  main.o(.bss.iDrivingMode)
    iDrivingModeOverride                     0x20000103   Data           1  bldc.o(.bss.iDrivingModeOverride)
    iOdom                                    0x20000104   Data           4  bldc.o(.bss.iOdom)
    iOdomLast                                0x20000108   Data           4  bldc.o(.bss.iOdomLast)
    iOldDrivingMode                          0x2000010c   Data           1  remotedummy.o(.bss.iOldDrivingMode)
    iPwmCounter                              0x20000110   Data           4  it.o(.bss.iPwmCounter)
    iPwmRate                                 0x20000114   Data           4  it.o(.bss.iPwmRate)
    iPwmTime                                 0x20000118   Data           4  it.o(.bss.iPwmTime)
    iRemoteMax                               0x2000011c   Data           4  remotedummy.o(.bss.iRemoteMax)
    iTestClock                               0x20000120   Data           4  setup.o(.bss.iTestClock)
    iTimeNextLoop                            0x20000124   Data           4  main.o(.bss.iTimeNextLoop)
    inactivity_timeout_counter               0x20000128   Data           4  main.o(.bss.inactivity_timeout_counter)
    lastPos                                  0x2000012c   Data           1  bldc.o(.bss.lastPos)
    msTicks                                  0x20000130   Data           4  it.o(.bss.msTicks)
    msTicksInit                              0x20000134   Data           4  remotedummy.o(.bss.msTicksInit)
    oConfig                                  0x20000138   Data          20  setup.o(.bss.oConfig)
    offsetcount                              0x2000014c   Data           2  bldc.o(.bss.offsetcount)
    pid                                      0x20000150   Data          40  driver.o(.bss.pid)
    pll_mul                                  0x20000178   Data           4  setup.o(.bss.pll_mul)
    pos                                      0x2000017c   Data           1  bldc.o(.bss.pos)
    pwmGo                                    0x20000180   Data           4  bldcsine.o(.bss.pwmGo)
    pwmSlave                                 0x20000184   Data           2  main.o(.bss.pwmSlave)
    realSpeed                                0x20000188   Data           4  bldc.o(.bss.realSpeed)
    revs32                                   0x2000018c   Data           4  bldc.o(.bss.revs32)
    revs32_reg                               0x20000190   Data           4  bldc.o(.bss.revs32_reg)
    revs32x                                  0x20000194   Data           4  bldc.o(.bss.revs32x)
    sector                                   0x20000198   Data           1  bldcsine.o(.bss.sector)
    sector10x                                0x20000199   Data           1  bldcsine.o(.bss.sector10x)
    sectorChange                             0x2000019a   Data           1  bldcsine.o(.bss.sectorChange)
    speed                                    0x2000019c   Data           4  main.o(.bss.speed)
    speedCounter                             0x200001a0   Data           4  bldc.o(.bss.speedCounter)
    speedCounterLog                          0x200001a4   Data           4  bldc.o(.bss.speedCounterLog)
    speedCounterSlow                         0x200001a8   Data           4  bldc.o(.bss.speedCounterSlow)
    speedCounterSlowLog                      0x200001ac   Data           4  bldc.o(.bss.speedCounterSlowLog)
    speedShutoff                             0x200001b0   Data           4  main.o(.bss.speedShutoff)
    steer                                    0x200001b4   Data           4  main.o(.bss.steer)
    steerCounter                             0x200001b8   Data           4  main.o(.bss.steerCounter)
    timedOut                                 0x200001bc   Data           1  it.o(.bss.timedOut)
    timeoutCounter_ms                        0x200001c0   Data           4  it.o(.bss.timeoutCounter_ms)
    timeoutTimer_paramter_struct             0x200001c4   Data          16  setup.o(.bss.timeoutTimer_paramter_struct)
    timerBldc_break_parameter_struct         0x200001d4   Data          24  setup.o(.bss.timerBldc_break_parameter_struct)
    timerBldc_oc_parameter_struct            0x200001ec   Data          16  setup.o(.bss.timerBldc_oc_parameter_struct)
    timerBldc_paramter_struct                0x200001fc   Data          16  setup.o(.bss.timerBldc_paramter_struct)
    torque32                                 0x2000020c   Data           4  bldc.o(.bss.torque32)
    torque32_reg                             0x20000210   Data           4  bldc.o(.bss.torque32_reg)
    __initial_sp                             0x20000618   Data           0  startup_gd32f1x0.o(STACK)



==============================================================================

Memory Map of the image

  Image Entry point : 0x08000169

  Load Region LR_IROM1 (Base: 0x08000000, Size: 0x00006010, Max: 0x00010000, ABSOLUTE)

    Execution Region ER_IROM1 (Exec base: 0x08000000, Load base: 0x08000000, Size: 0x00005fa8, Max: 0x00010000, ABSOLUTE)

    Exec Addr    Load Addr    Size         Type   Attr      Idx    E Section Name        Object

    0x08000000   0x08000000   0x00000168   Data   RO          368    RESET               startup_gd32f1x0.o
    0x08000168   0x08000168   0x00000000   Code   RO          385  * .ARM.Collect$$$$00000000  mc_w.l(entry.o)
    0x08000168   0x08000168   0x00000004   Code   RO          432    .ARM.Collect$$$$00000001  mc_w.l(entry2.o)
    0x0800016c   0x0800016c   0x00000004   Code   RO          435    .ARM.Collect$$$$00000004  mc_w.l(entry5.o)
    0x08000170   0x08000170   0x00000000   Code   RO          437    .ARM.Collect$$$$00000008  mc_w.l(entry7b.o)
    0x08000170   0x08000170   0x00000000   Code   RO          439    .ARM.Collect$$$$0000000A  mc_w.l(entry8b.o)
    0x08000170   0x08000170   0x00000008   Code   RO          440    .ARM.Collect$$$$0000000B  mc_w.l(entry9a.o)
    0x08000178   0x08000178   0x00000000   Code   RO          442    .ARM.Collect$$$$0000000D  mc_w.l(entry10a.o)
    0x08000178   0x08000178   0x00000000   Code   RO          444    .ARM.Collect$$$$0000000F  mc_w.l(entry11a.o)
    0x08000178   0x08000178   0x00000004   Code   RO          433    .ARM.Collect$$$$00002712  mc_w.l(entry2.o)
    0x0800017c   0x0800017c   0x000007e8   Code   RO            1    .text               main.o
    0x08000964   0x08000964   0x00000774   Code   RO           31    .text               bldc.o
    0x080010d8   0x080010d8   0x0000023e   Code   RO           82    .text               driver.o
    0x08001316   0x08001316   0x00000002   PAD
    0x08001318   0x08001318   0x000003d0   Code   RO           93    .text               bldcsine.o
    0x080016e8   0x080016e8   0x00000898   Code   RO          123    .text               setup.o
    0x08001f80   0x08001f80   0x0000018a   Code   RO          145    .text               it.o
    0x0800210a   0x0800210a   0x00000002   PAD
    0x0800210c   0x0800210c   0x00000196   Code   RO          184    .text               remotedummy.o
    0x080022a2   0x080022a2   0x00000002   PAD
    0x080022a4   0x080022a4   0x000005a6   Code   RO          237    .text               gd32f1x0_adc.o
    0x0800284a   0x0800284a   0x00000002   PAD
    0x0800284c   0x0800284c   0x00000370   Code   RO          253    .text               gd32f1x0_dma.o
    0x08002bbc   0x08002bbc   0x0000016e   Code   RO          261    .text               gd32f1x0_exti.o
    0x08002d2a   0x08002d2a   0x00000002   PAD
    0x08002d2c   0x08002d2c   0x000009d0   Code   RO          269    .text               gd32f1x0_fmc.o
    0x080036fc   0x080036fc   0x000000e2   Code   RO          278    .text               gd32f1x0_fwdgt.o
    0x080037de   0x080037de   0x00000002   PAD
    0x080037e0   0x080037e0   0x00000198   Code   RO          286    .text               gd32f1x0_gpio.o
    0x08003978   0x08003978   0x0000012c   Code   RO          303    .text               gd32f1x0_misc.o
    0x08003aa4   0x08003aa4   0x00000724   Code   RO          324    .text               gd32f1x0_rcu.o
    0x080041c8   0x080041c8   0x00000102   Code   RO          333    .text               gd32f1x0_syscfg.o
    0x080042ca   0x080042ca   0x00000002   PAD
    0x080042cc   0x080042cc   0x00000d50   Code   RO          341    .text               gd32f1x0_timer.o
    0x0800501c   0x0800501c   0x00000024   Code   RO          369    .text               startup_gd32f1x0.o
    0x08005040   0x08005040   0x0000013c   Code   RO          375    .text               system_gd32f1x0.o
    0x0800517c   0x0800517c   0x000000b0   Code   RO          396    .text               mf_w.l(fadd.o)
    0x0800522c   0x0800522c   0x00000064   Code   RO          398    .text               mf_w.l(fmul.o)
    0x08005290   0x08005290   0x0000007c   Code   RO          400    .text               mf_w.l(fdiv.o)
    0x0800530c   0x0800530c   0x0000014e   Code   RO          402    .text               mf_w.l(dadd.o)
    0x0800545a   0x0800545a   0x000000e4   Code   RO          404    .text               mf_w.l(dmul.o)
    0x0800553e   0x0800553e   0x000000de   Code   RO          406    .text               mf_w.l(ddiv.o)
    0x0800561c   0x0800561c   0x0000001c   Code   RO          408    .text               mf_w.l(fcmple.o)
    0x08005638   0x08005638   0x0000001c   Code   RO          410    .text               mf_w.l(fcmplt.o)
    0x08005654   0x08005654   0x0000001c   Code   RO          412    .text               mf_w.l(fcmpgt.o)
    0x08005670   0x08005670   0x00000012   Code   RO          414    .text               mf_w.l(fflti.o)
    0x08005682   0x08005682   0x0000000a   Code   RO          416    .text               mf_w.l(ffltui.o)
    0x0800568c   0x0800568c   0x00000022   Code   RO          418    .text               mf_w.l(dflti.o)
    0x080056ae   0x080056ae   0x0000001a   Code   RO          420    .text               mf_w.l(dfltui.o)
    0x080056c8   0x080056c8   0x00000032   Code   RO          422    .text               mf_w.l(ffixi.o)
    0x080056fa   0x080056fa   0x00000042   Code   RO          424    .text               mf_w.l(ffixl.o)
    0x0800573c   0x0800573c   0x0000003e   Code   RO          426    .text               mf_w.l(dfixi.o)
    0x0800577a   0x0800577a   0x00000026   Code   RO          428    .text               mf_w.l(f2d.o)
    0x080057a0   0x080057a0   0x00000038   Code   RO          430    .text               mf_w.l(d2f.o)
    0x080057d8   0x080057d8   0x0000001e   Code   RO          446    .text               mc_w.l(llshl.o)
    0x080057f6   0x080057f6   0x00000020   Code   RO          448    .text               mc_w.l(llushr.o)
    0x08005816   0x08005816   0x00000024   Code   RO          450    .text               mc_w.l(llsshr.o)
    0x0800583a   0x0800583a   0x00000000   Code   RO          452    .text               mc_w.l(iusefp.o)
    0x0800583a   0x0800583a   0x0000006e   Code   RO          453    .text               mf_w.l(fepilogue.o)
    0x080058a8   0x080058a8   0x000000ba   Code   RO          455    .text               mf_w.l(depilogue.o)
    0x08005962   0x08005962   0x00000002   PAD
    0x08005964   0x08005964   0x00000030   Code   RO          457    .text               mc_w.l(init.o)
    0x08005994   0x08005994   0x0000000e   Code   RO          461    i.__scatterload_copy  mc_w.l(handlers.o)
    0x080059a2   0x080059a2   0x00000002   Code   RO          462    i.__scatterload_null  mc_w.l(handlers.o)
    0x080059a4   0x080059a4   0x0000000e   Code   RO          463    i.__scatterload_zeroinit  mc_w.l(handlers.o)
    0x080059b2   0x080059b2   0x0000000c   Data   RO           63    .rodata..L__const.up_or_down.up_down  bldc.o
    0x080059be   0x080059be   0x0000000c   Data   RO          288    .rodata..Lswitch.table.gpio_deinit.1  gd32f1x0_gpio.o
    0x080059ca   0x080059ca   0x00000008   Data   RO          112    .rodata.cst8        bldcsine.o
    0x080059d2   0x080059d2   0x00000008   Data   RO          326    .rodata.cst8        gd32f1x0_rcu.o
    0x080059da   0x080059da   0x00000008   Data   RO           64    .rodata.hall_to_pos  bldc.o
    0x080059e2   0x080059e2   0x00000002   PAD
    0x080059e4   0x080059e4   0x000002d4   Data   RO           19    .rodata.lookUpTableAngle  main.o
    0x08005cb8   0x08005cb8   0x000002d0   Data   RO          115    .rodata.sine_table  bldcsine.o
    0x08005f88   0x08005f88   0x00000020   Data   RO          460    Region$$Table       anon$$obj.o


    Execution Region RW_IRAM1 (Exec base: 0x20000000, Load base: 0x08005fa8, Size: 0x00000618, Max: 0x00002000, ABSOLUTE)

    Exec Addr    Load Addr    Size         Type   Attr      Idx    E Section Name        Object

    0x20000000   0x08005fa8   0x00000004   Data   RW          377    .data.SystemCoreClock  system_gd32f1x0.o
    0x20000004   0x08005fac   0x0000003c   Data   RW           84    .data.aoPIDInit     driver.o
    0x20000040   0x08005fe8   0x00000001   Data   RW          186    .data.bRemoteInit   remotedummy.o
    0x20000041   0x08005fe9   0x00000003   PAD
    0x20000044   0x08005fec   0x00000004   Data   RW           33    .data.batteryVoltage  bldc.o
    0x20000048   0x08005ff0   0x00000001   Data   RW           16    .data.beepsBackwards  main.o
    0x20000049   0x08005ff1   0x00000003   PAD
    0x2000004c   0x08005ff4   0x00000004   Data   RW           34    .data.currentDC     bldc.o
    0x20000050   0x08005ff8   0x00000004   Data   RW          188    .data.fRemoteScaleMax  remotedummy.o
    0x20000054   0x08005ffc   0x00000001   Data   RW           50    .data.iFILTER_SHIFT  bldc.o
    0x20000055   0x08005ffd   0x00000001   Data   RW          191    .data.iOldRemotePeriod  remotedummy.o
    0x20000056   0x08005ffe   0x00000001   Data   RW          187    .data.iRemotePeriod  remotedummy.o
    0x20000057   0x08005fff   0x00000001   PAD
    0x20000058   0x08006000   0x00000002   Data   RW           53    .data.offsetdc      bldc.o
    0x2000005a   0x08006002   0x00000002   PAD
    0x2000005c   0x08006004   0x00000004   Data   RW           42    .data.revs32Scale   bldc.o
    0x20000060   0x08006008   0x00000004   Data   RW           43    .data.revs32ScaleSlow  bldc.o
    0x20000064   0x0800600c   0x00000002   Data   RW           11    .data.speedLimit    main.o
    0x20000066   0x0800600e   0x00000001   Data   RW           12    .data.wState        main.o
    0x20000067   0x0800600f   0x00000001   PAD
    0x20000068        -       0x00000001   Zero   RW          160    .bss.TIMER0_BRK_UP_TRG_COM_IRQHandler.interrupt_toggle  it.o
    0x20000069   0x0800600f   0x00000003   PAD
    0x2000006c        -       0x0000000c   Zero   RW          103    .bss.aHallEXTI      bldcsine.o
    0x20000078        -       0x00000004   Zero   RW           69    .bss.adc_buffer     bldc.o
    0x2000007c        -       0x00000002   Zero   RW           98    .bss.angle_deg      bldcsine.o
    0x2000007e        -       0x00000002   Zero   RW           99    .bss.angle_deg_add  bldcsine.o
    0x20000080        -       0x00000002   Zero   RW          100    .bss.angle_deg_final  bldcsine.o
    0x20000082        -       0x00000002   Zero   RW          101    .bss.angle_idx      bldcsine.o
    0x20000084        -       0x00000001   Zero   RW          104    .bss.bInterrupt     bldcsine.o
    0x20000085        -       0x00000001   Zero   RW            5    .bss.bPilotTimeout  main.o
    0x20000086        -       0x00000001   Zero   RW            4    .bss.bRemoteTimeout  main.o
    0x20000087        -       0x00000001   Zero   RW           45    .bss.bldc_enable    bldc.o
    0x20000088        -       0x00000004   Zero   RW           47    .bss.bldc_inputFilterPwm  bldc.o
    0x2000008c        -       0x00000004   Zero   RW           48    .bss.bldc_outputFilterPwm  bldc.o
    0x20000090        -       0x00000001   Zero   RW           59    .bss.buzzerFreq     bldc.o
    0x20000091        -       0x00000001   Zero   RW           60    .bss.buzzerPattern  bldc.o
    0x20000092        -       0x00000002   Zero   RW           51    .bss.buzzerTimer    bldc.o
    0x20000094        -       0x00000001   Zero   RW           58    .bss.buzzerToggle   bldc.o
    0x20000095   0x0800600f   0x00000003   PAD
    0x20000098        -       0x00000004   Zero   RW          131    .bss.dev_id         setup.o
    0x2000009c        -       0x00000024   Zero   RW          129    .bss.dma_init_struct_adc  setup.o
    0x200000c0        -       0x00000001   Zero   RW           20    .bss.enable         main.o
    0x200000c1   0x0800600f   0x00000003   PAD
    0x200000c4        -       0x00000004   Zero   RW           65    .bss.filter_reg     bldc.o
    0x200000c8        -       0x00000001   Zero   RW           46    .bss.hall           bldc.o
    0x200000c9        -       0x00000001   Zero   RW           70    .bss.hall_a         bldc.o
    0x200000ca        -       0x00000001   Zero   RW           71    .bss.hall_b         bldc.o
    0x200000cb        -       0x00000001   Zero   RW           72    .bss.hall_c         bldc.o
    0x200000cc        -       0x00000001   Zero   RW          107    .bss.hall_last      bldcsine.o
    0x200000cd   0x0800600f   0x00000001   PAD
    0x200000ce        -       0x00000002   Zero   RW          105    .bss.hall_time_last  bldcsine.o
    0x200000d0        -       0x00000002   Zero   RW          106    .bss.hall_time_step  bldcsine.o
    0x200000d2   0x0800600f   0x00000002   PAD
    0x200000d4        -       0x00000004   Zero   RW          114    .bss.hall_time_step_LP  bldcsine.o
    0x200000d8        -       0x00000004   Zero   RW          113    .bss.hall_time_step_LPR  bldcsine.o
    0x200000dc        -       0x00000004   Zero   RW          157    .bss.iAdcCounter    it.o
    0x200000e0        -       0x00000004   Zero   RW          159    .bss.iAdcRate       it.o
    0x200000e4        -       0x00000004   Zero   RW          158    .bss.iAdcTime       it.o
    0x200000e8        -       0x00000002   Zero   RW          111    .bss.iAdd           bldcsine.o
    0x200000ea   0x0800600f   0x00000002   PAD
    0x200000ec        -       0x00000004   Zero   RW           44    .bss.iBldcInput     bldc.o
    0x200000f0        -       0x00000004   Zero   RW            6    .bss.iBug           main.o
    0x200000f4        -       0x00000004   Zero   RW           66    .bss.iBuzzCounter   bldc.o
    0x200000f8        -       0x00000004   Zero   RW           68    .bss.iBuzzRate      bldc.o
    0x200000fc        -       0x00000004   Zero   RW           67    .bss.iBuzzTime      bldc.o
    0x20000100        -       0x00000002   Zero   RW          110    .bss.iDT            bldcsine.o
    0x20000102        -       0x00000001   Zero   RW            3    .bss.iDrivingMode   main.o
    0x20000103        -       0x00000001   Zero   RW           49    .bss.iDrivingModeOverride  bldc.o
    0x20000104        -       0x00000004   Zero   RW           61    .bss.iOdom          bldc.o
    0x20000108        -       0x00000004   Zero   RW           62    .bss.iOdomLast      bldc.o
    0x2000010c        -       0x00000001   Zero   RW          190    .bss.iOldDrivingMode  remotedummy.o
    0x2000010d   0x0800600f   0x00000003   PAD
    0x20000110        -       0x00000004   Zero   RW          152    .bss.iPwmCounter    it.o
    0x20000114        -       0x00000004   Zero   RW          154    .bss.iPwmRate       it.o
    0x20000118        -       0x00000004   Zero   RW          153    .bss.iPwmTime       it.o
    0x2000011c        -       0x00000004   Zero   RW          189    .bss.iRemoteMax     remotedummy.o
    0x20000120        -       0x00000004   Zero   RW          133    .bss.iTestClock     setup.o
    0x20000124        -       0x00000004   Zero   RW           22    .bss.iTimeNextLoop  main.o
    0x20000128        -       0x00000004   Zero   RW           18    .bss.inactivity_timeout_counter  main.o
    0x2000012c        -       0x00000001   Zero   RW           74    .bss.lastPos        bldc.o
    0x2000012d   0x0800600f   0x00000003   PAD
    0x20000130        -       0x00000004   Zero   RW          149    .bss.msTicks        it.o
    0x20000134        -       0x00000004   Zero   RW          192    .bss.msTicksInit    remotedummy.o
    0x20000138        -       0x00000014   Zero   RW          130    .bss.oConfig        setup.o
    0x2000014c        -       0x00000002   Zero   RW           52    .bss.offsetcount    bldc.o
    0x2000014e   0x0800600f   0x00000002   PAD
    0x20000150        -       0x00000028   Zero   RW           85    .bss.pid            driver.o
    0x20000178        -       0x00000004   Zero   RW          132    .bss.pll_mul        setup.o
    0x2000017c        -       0x00000001   Zero   RW           73    .bss.pos            bldc.o
    0x2000017d   0x0800600f   0x00000003   PAD
    0x20000180        -       0x00000004   Zero   RW          102    .bss.pwmGo          bldcsine.o
    0x20000184        -       0x00000002   Zero   RW           21    .bss.pwmSlave       main.o
    0x20000186   0x0800600f   0x00000002   PAD
    0x20000188        -       0x00000004   Zero   RW           35    .bss.realSpeed      bldc.o
    0x2000018c        -       0x00000004   Zero   RW           36    .bss.revs32         bldc.o
    0x20000190        -       0x00000004   Zero   RW           38    .bss.revs32_reg     bldc.o
    0x20000194        -       0x00000004   Zero   RW           41    .bss.revs32x        bldc.o
    0x20000198        -       0x00000001   Zero   RW           96    .bss.sector         bldcsine.o
    0x20000199        -       0x00000001   Zero   RW           97    .bss.sector10x      bldcsine.o
    0x2000019a        -       0x00000001   Zero   RW           95    .bss.sectorChange   bldcsine.o
    0x2000019b   0x0800600f   0x00000001   PAD
    0x2000019c        -       0x00000004   Zero   RW            9    .bss.speed          main.o
    0x200001a0        -       0x00000004   Zero   RW           54    .bss.speedCounter   bldc.o
    0x200001a4        -       0x00000004   Zero   RW           56    .bss.speedCounterLog  bldc.o
    0x200001a8        -       0x00000004   Zero   RW           55    .bss.speedCounterSlow  bldc.o
    0x200001ac        -       0x00000004   Zero   RW           57    .bss.speedCounterSlowLog  bldc.o
    0x200001b0        -       0x00000004   Zero   RW           10    .bss.speedShutoff   main.o
    0x200001b4        -       0x00000004   Zero   RW           14    .bss.steer          main.o
    0x200001b8        -       0x00000004   Zero   RW            8    .bss.steerCounter   main.o
    0x200001bc        -       0x00000001   Zero   RW          148    .bss.timedOut       it.o
    0x200001bd   0x0800600f   0x00000003   PAD
    0x200001c0        -       0x00000004   Zero   RW          147    .bss.timeoutCounter_ms  it.o
    0x200001c4        -       0x00000010   Zero   RW          125    .bss.timeoutTimer_paramter_struct  setup.o
    0x200001d4        -       0x00000018   Zero   RW          128    .bss.timerBldc_break_parameter_struct  setup.o
    0x200001ec        -       0x00000010   Zero   RW          127    .bss.timerBldc_oc_parameter_struct  setup.o
    0x200001fc        -       0x00000010   Zero   RW          126    .bss.timerBldc_paramter_struct  setup.o
    0x2000020c        -       0x00000004   Zero   RW           37    .bss.torque32       bldc.o
    0x20000210        -       0x00000004   Zero   RW           39    .bss.torque32_reg   bldc.o
    0x20000214   0x0800600f   0x00000004   PAD
    0x20000218        -       0x00000400   Zero   RW          366    STACK               startup_gd32f1x0.o


==============================================================================

Image component sizes


      Code (inc. data)   RO Data    RW Data    ZI Data      Debug   Object Name

      1908          0         20         19         95       4890   bldc.o
       976          0        728          0         45       6647   bldcsine.o
       574          4          0         60         40       3219   driver.o
      1446         16          0          0          0       7635   gd32f1x0_adc.o
       880         64          0          0          0       5997   gd32f1x0_dma.o
       366          0          0          0          0       3198   gd32f1x0_exti.o
      2512          0          0          0          0      13341   gd32f1x0_fmc.o
       226          0          0          0          0       2007   gd32f1x0_fwdgt.o
       408          0         12          0          0       4183   gd32f1x0_gpio.o
       300          0          0          0          0       3163   gd32f1x0_misc.o
      1828         34          8          0          0      13497   gd32f1x0_rcu.o
       258          4          0          0          0       2988   gd32f1x0_syscfg.o
      3408         44          0          0          0      18497   gd32f1x0_timer.o
       394          0          0          0         34       3050   it.o
      2024          0        724          4         34       7417   main.o
       406         16          0          7          9       1364   remotedummy.o
      2200          0          0          0        140      10586   setup.o
        36          8        360          0       1024        844   startup_gd32f1x0.o
       316         16          0          4          0       1621   system_gd32f1x0.o

    ----------------------------------------------------------------------
     20480        206       1886        104       1456     114144   Object Totals
         0          0         32          0          0          0   (incl. Generated)
        14          0          2         10         35          0   (incl. Padding)

    ----------------------------------------------------------------------

      Code (inc. data)   RO Data    RW Data    ZI Data      Debug   Library Member Name

         0          0          0          0          0          0   entry.o
         0          0          0          0          0          0   entry10a.o
         0          0          0          0          0          0   entry11a.o
         8          4          0          0          0          0   entry2.o
         4          0          0          0          0          0   entry5.o
         0          0          0          0          0          0   entry7b.o
         0          0          0          0          0          0   entry8b.o
         8          4          0          0          0          0   entry9a.o
        30          0          0          0          0          0   handlers.o
        48         10          0          0          0         68   init.o
         0          0          0          0          0          0   iusefp.o
        30          0          0          0          0         68   llshl.o
        36          0          0          0          0         68   llsshr.o
        32          0          0          0          0         68   llushr.o
        56          0          0          0          0         88   d2f.o
       334          0          0          0          0        148   dadd.o
       222          0          0          0          0        100   ddiv.o
       186          0          0          0          0        176   depilogue.o
        62          0          0          0          0         80   dfixi.o
        34          0          0          0          0         76   dflti.o
        26          0          0          0          0         76   dfltui.o
       228          0          0          0          0         96   dmul.o
        38          0          0          0          0         68   f2d.o
       176          0          0          0          0        140   fadd.o
        28          0          0          0          0         68   fcmpgt.o
        28          0          0          0          0         68   fcmple.o
        28          0          0          0          0         68   fcmplt.o
       124          0          0          0          0         88   fdiv.o
       110          0          0          0          0        168   fepilogue.o
        50          0          0          0          0         68   ffixi.o
        66          0          0          0          0         76   ffixl.o
        18          0          0          0          0         68   fflti.o
        10          0          0          0          0         68   ffltui.o
       100          0          0          0          0         76   fmul.o

    ----------------------------------------------------------------------
      2122         18          0          0          0       2136   Library Totals
         2          0          0          0          0          0   (incl. Padding)

    ----------------------------------------------------------------------

      Code (inc. data)   RO Data    RW Data    ZI Data      Debug   Library Name

       196         18          0          0          0        272   mc_w.l
      1924          0          0          0          0       1864   mf_w.l

    ----------------------------------------------------------------------
      2122         18          0          0          0       2136   Library Totals

    ----------------------------------------------------------------------

==============================================================================


      Code (inc. data)   RO Data    RW Data    ZI Data      Debug   

     22602        224       1886        104       1456     115000   Grand Totals
     22602        224       1886        104       1456     115000   ELF Image Totals
     22602        224       1886        104          0          0   ROM Totals

==============================================================================

    Total RO  Size (Code + RO Data)                24488 (  23.91kB)
    Total RW  Size (RW Data + ZI Data)              1560 (   1.52kB)
    Total ROM Size (Code + RO Data + RW Data)      24592 (  24.02kB)

==============================================================================

