Component: Arm Compiler for Embedded 6.23 Tool: armlink [5f102400]

==============================================================================

Section Cross References

    main.o(.text) refers to setup.o(.text) for ConfigRead
    main.o(.text) refers to gd32f1x0_gpio.o(.text) for gpio_bit_write
    main.o(.text) refers to bldcsine.o(.text) for InitBldc
    main.o(.text) refers to driver.o(.text) for DriverInit
    main.o(.text) refers to gd32f1x0_fwdgt.o(.text) for fwdgt_counter_reload
    main.o(.text) refers to it.o(.text) for Delay
    main.o(.text) refers to remotedummy.o(.text) for RemoteUpdate
    main.o(.text) refers to dflti.o(.text) for __aeabi_i2d
    main.o(.text) refers to ddiv.o(.text) for __aeabi_ddiv
    main.o(.text) refers to dadd.o(.text) for __aeabi_dsub
    main.o(.text) refers to dmul.o(.text) for __aeabi_dmul
    main.o(.text) refers to dfixi.o(.text) for __aeabi_d2iz
    main.o(.text) refers to ffltui.o(.text) for __aeabi_ui2f
    main.o(.text) refers to f2d.o(.text) for __aeabi_f2d
    main.o(.text) refers to d2f.o(.text) for __aeabi_d2f
    main.o(.text) refers to fflti.o(.text) for __aeabi_i2f
    main.o(.text) refers to fmul.o(.text) for __aeabi_fmul
    main.o(.text) refers to ffixi.o(.text) for __aeabi_f2iz
    main.o(.text) refers to fadd.o(.text) for __aeabi_fsub
    main.o(.text) refers to fdiv.o(.text) for __aeabi_fdiv
    main.o(.text) refers to fcmplt.o(.text) for __aeabi_fcmplt
    main.o(.text) refers to bldc.o(.text) for SetBldcInput
    main.o(.text) refers to fcmple.o(.text) for __aeabi_fcmple
    main.o(.text) refers to main.o(.bss..L_MergedGlobals.1) for [Anonymous Symbol]
    main.o(.text) refers to system_gd32f1x0.o(.data.SystemCoreClock) for SystemCoreClock
    main.o(.text) refers to bldc.o(.bss..L_MergedGlobals.1) for buzzerFreq
    main.o(.text) refers to main.o(.data..L_MergedGlobals) for [Anonymous Symbol]
    main.o(.text) refers to main.o(.rodata.lookUpTableAngle) for lookUpTableAngle
    main.o(.text) refers to bldc.o(.data..L_MergedGlobals) for batteryVoltage
    main.o(.ARM.exidx) refers to main.o(.text) for [Anonymous Symbol]
    bldc.o(.text) refers to bldc.o(.rodata..L__const.up_or_down.up_down) for [Anonymous Symbol]
    bldc.o(.text) refers to bldc.o(.bss..L_MergedGlobals.1) for [Anonymous Symbol]
    bldc.o(.text) refers to dflti.o(.text) for __aeabi_i2d
    bldc.o(.text) refers to ddiv.o(.text) for __aeabi_ddiv
    bldc.o(.text) refers to dmul.o(.text) for __aeabi_dmul
    bldc.o(.text) refers to dfixi.o(.text) for __aeabi_d2iz
    bldc.o(.text) refers to main.o(.bss..L_MergedGlobals.1) for iDrivingMode
    bldc.o(.text) refers to system_gd32f1x0.o(.data.SystemCoreClock) for SystemCoreClock
    bldc.o(.text) refers to bldc.o(.data..L_MergedGlobals) for [Anonymous Symbol]
    bldc.o(.text) refers to f2d.o(.text) for __aeabi_f2d
    bldc.o(.text) refers to dfltui.o(.text) for __aeabi_ui2d
    bldc.o(.text) refers to dadd.o(.text) for __aeabi_dadd
    bldc.o(.text) refers to d2f.o(.text) for __aeabi_d2f
    bldc.o(.text) refers to gd32f1x0_gpio.o(.text) for gpio_bit_write
    bldc.o(.text) refers to fcmpgt.o(.text) for __aeabi_fcmpgt
    bldc.o(.text) refers to gd32f1x0_timer.o(.text) for timer_automatic_output_disable
    bldc.o(.text) refers to driver.o(.text) for Driver
    bldc.o(.text) refers to bldcsine.o(.text) for bldc_get_pwm
    bldc.o(.text) refers to it.o(.bss..L_MergedGlobals) for msTicks
    bldc.o(.text) refers to bldc.o(.rodata.hall_to_pos) for hall_to_pos
    bldc.o(.text) refers to driver.o(.data..L_MergedGlobals) for iDriverDoEvery
    bldc.o(.ARM.exidx) refers to bldc.o(.text) for [Anonymous Symbol]
    driver.o(.text) refers to ffixl.o(.text) for __aeabi_f2lz
    driver.o(.text) refers to ffixi.o(.text) for __aeabi_f2iz
    driver.o(.text) refers to fmul.o(.text) for __aeabi_fmul
    driver.o(.text) refers to fdiv.o(.text) for __aeabi_fdiv
    driver.o(.text) refers to driver.o(.bss..L_MergedGlobals.1) for [Anonymous Symbol]
    driver.o(.text) refers to fflti.o(.text) for __aeabi_i2f
    driver.o(.text) refers to main.o(.bss..L_MergedGlobals.1) for iDrivingMode
    driver.o(.text) refers to system_gd32f1x0.o(.data.SystemCoreClock) for SystemCoreClock
    driver.o(.text) refers to driver.o(.data..L_MergedGlobals) for [Anonymous Symbol]
    driver.o(.text) refers to driver.o(.bss.pid) for pid
    driver.o(.text) refers to bldc.o(.bss..L_MergedGlobals.1) for iOdom
    driver.o(.ARM.exidx) refers to driver.o(.text) for [Anonymous Symbol]
    bldcsine.o(.text) refers to gd32f1x0_syscfg.o(.text) for syscfg_exti_line_config
    bldcsine.o(.text) refers to gd32f1x0_exti.o(.text) for exti_init
    bldcsine.o(.text) refers to gd32f1x0_misc.o(.text) for nvic_irq_enable
    bldcsine.o(.text) refers to gd32f1x0_rcu.o(.text) for rcu_periph_clock_enable
    bldcsine.o(.text) refers to bldcsine.o(.bss..L_MergedGlobals) for [Anonymous Symbol]
    bldcsine.o(.text) refers to bldc.o(.bss..L_MergedGlobals.1) for buzzerTimer
    bldcsine.o(.text) refers to gd32f1x0_gpio.o(.text) for gpio_input_bit_get
    bldcsine.o(.text) refers to bldcsine.o(.rodata.cst8) for [Anonymous Symbol]
    bldcsine.o(.text) refers to bldcsine.o(.rodata.sine_table) for [Anonymous Symbol]
    bldcsine.o(.ARM.exidx) refers to bldcsine.o(.text) for [Anonymous Symbol]
    setup.o(.text) refers to gd32f1x0_gpio.o(.text) for gpio_mode_set
    setup.o(.text) refers to gd32f1x0_misc.o(.text) for nvic_priority_group_set
    setup.o(.text) refers to gd32f1x0_rcu.o(.text) for rcu_flag_get
    setup.o(.text) refers to gd32f1x0_fwdgt.o(.text) for fwdgt_config
    setup.o(.text) refers to gd32f1x0_timer.o(.text) for timer_deinit
    setup.o(.text) refers to setup.o(.bss.timeoutTimer_paramter_struct) for timeoutTimer_paramter_struct
    setup.o(.text) refers to system_gd32f1x0.o(.data.SystemCoreClock) for SystemCoreClock
    setup.o(.text) refers to setup.o(.bss..L_MergedGlobals) for [Anonymous Symbol]
    setup.o(.text) refers to gd32f1x0_dma.o(.text) for dma_deinit
    setup.o(.text) refers to gd32f1x0_adc.o(.text) for adc_channel_length_config
    setup.o(.text) refers to setup.o(.bss.dma_init_struct_adc) for dma_init_struct_adc
    setup.o(.text) refers to bldc.o(.bss..L_MergedGlobals.1) for adc_buffer
    setup.o(.text) refers to gd32f1x0_fmc.o(.text) for fmc_unlock
    setup.o(.text) refers to setup.o(.bss.oConfig) for oConfig
    setup.o(.text) refers to system_gd32f1x0.o(.text) for SystemCoreClockUpdate
    setup.o(.text) refers to it.o(.text) for millis
    setup.o(.text) refers to setup.o(.bss.iTestClock) for iTestClock
    setup.o(.ARM.exidx) refers to setup.o(.text) for [Anonymous Symbol]
    it.o(.text) refers to it.o(.bss..L_MergedGlobals) for [Anonymous Symbol]
    it.o(.text) refers to gd32f1x0_timer.o(.text) for timer_interrupt_flag_clear
    it.o(.text) refers to main.o(.bss..L_MergedGlobals.1) for speed
    it.o(.text) refers to gd32f1x0_adc.o(.text) for adc_software_trigger_enable
    it.o(.text) refers to gd32f1x0_dma.o(.text) for dma_interrupt_flag_get
    it.o(.text) refers to bldc.o(.text) for CalculateBLDC
    it.o(.ARM.exidx) refers to it.o(.text) for [Anonymous Symbol]
    comms.o(.text) refers to gd32f1x0_usart.o(.text) for usart_data_transmit
    comms.o(.ARM.exidx) refers to comms.o(.text) for [Anonymous Symbol]
    remotedummy.o(.text) refers to strtof.o(i.strtof) for strtof
    remotedummy.o(.text) refers to memcpya.o(.text) for __aeabi_memcpy
    remotedummy.o(.text) refers to strcmp.o(.text) for strcmp
    remotedummy.o(.text) refers to printfa.o(i.__0sprintf) for __2sprintf
    remotedummy.o(.text) refers to strlen.o(.text) for strlen
    remotedummy.o(.text) refers to ffixi.o(.text) for __aeabi_f2iz
    remotedummy.o(.text) refers to fcmplt.o(.text) for __aeabi_fcmplt
    remotedummy.o(.text) refers to remotedummy.o(.bss.sMessage) for sMessage
    remotedummy.o(.text) refers to main.o(.bss..L_MergedGlobals.1) for iDrivingMode
    remotedummy.o(.text) refers to driver.o(.data..L_MergedGlobals) for aoPIDInit
    remotedummy.o(.text) refers to remotedummy.o(.data..L_MergedGlobals) for [Anonymous Symbol]
    remotedummy.o(.text) refers to remotedummy.o(.bss..L_MergedGlobals.7) for [Anonymous Symbol]
    remotedummy.o(.text) refers to it.o(.bss..L_MergedGlobals) for msTicks
    remotedummy.o(.text) refers to segger_rtt.o(.text) for SEGGER_RTT_GetKey
    remotedummy.o(.text) refers to memcmp.o(.text) for memcmp
    remotedummy.o(.text) refers to driver.o(.text) for DriverInit
    remotedummy.o(.text) refers to dfltui.o(.text) for __aeabi_ui2d
    remotedummy.o(.text) refers to ddiv.o(.text) for __aeabi_ddiv
    remotedummy.o(.text) refers to dmul.o(.text) for __aeabi_dmul
    remotedummy.o(.text) refers to d2f.o(.text) for __aeabi_d2f
    remotedummy.o(.text) refers to fflti.o(.text) for __aeabi_i2f
    remotedummy.o(.text) refers to fmul.o(.text) for __aeabi_fmul
    remotedummy.o(.text) refers to fdiv.o(.text) for __aeabi_fdiv
    remotedummy.o(.text) refers to fcmpgt.o(.text) for __aeabi_fcmpgt
    remotedummy.o(.text) refers to f2d.o(.text) for __aeabi_f2d
    remotedummy.o(.text) refers to it.o(.text) for ResetTimeout
    remotedummy.o(.text) refers to remotedummy.o(.bss.aoPIDInitOld) for aoPIDInitOld
    remotedummy.o(.text) refers to bldc.o(.data..L_MergedGlobals) for currentDC
    remotedummy.o(.text) refers to bldc.o(.bss..L_MergedGlobals.1) for iOdom
    remotedummy.o(.text) refers to remotedummy.o(.rodata.str1.1) for [Anonymous Symbol]
    remotedummy.o(.ARM.exidx) refers to remotedummy.o(.text) for [Anonymous Symbol]
    segger_rtt.o(.text) refers to segger_rtt.o(.bss._SEGGER_RTT) for _SEGGER_RTT
    segger_rtt.o(.text) refers to memseta.o(.text) for __aeabi_memclr4
    segger_rtt.o(.text) refers to segger_rtt.o(.rodata.str1.1) for [Anonymous Symbol]
    segger_rtt.o(.text) refers to segger_rtt.o(.bss._acUpBuffer) for [Anonymous Symbol]
    segger_rtt.o(.text) refers to segger_rtt.o(.bss._acDownBuffer) for [Anonymous Symbol]
    segger_rtt.o(.text) refers to memcpya.o(.text) for __aeabi_memcpy
    segger_rtt.o(.text) refers to strlen.o(.text) for strlen
    segger_rtt.o(.text) refers to segger_rtt.o(.rodata.cst16) for [Anonymous Symbol]
    segger_rtt.o(.text) refers to segger_rtt.o(.bss._ActiveTerminal) for [Anonymous Symbol]
    segger_rtt.o(.ARM.exidx) refers to segger_rtt.o(.text) for [Anonymous Symbol]
    gd32f1x0_adc.o(.text) refers to gd32f1x0_rcu.o(.text) for rcu_periph_reset_enable
    gd32f1x0_adc.o(.ARM.exidx) refers to gd32f1x0_adc.o(.text) for [Anonymous Symbol]
    gd32f1x0_dbg.o(.ARM.exidx) refers to gd32f1x0_dbg.o(.text) for [Anonymous Symbol]
    gd32f1x0_dma.o(.ARM.exidx) refers to gd32f1x0_dma.o(.text) for [Anonymous Symbol]
    gd32f1x0_exti.o(.ARM.exidx) refers to gd32f1x0_exti.o(.text) for [Anonymous Symbol]
    gd32f1x0_fmc.o(.ARM.exidx) refers to gd32f1x0_fmc.o(.text) for [Anonymous Symbol]
    gd32f1x0_fwdgt.o(.ARM.exidx) refers to gd32f1x0_fwdgt.o(.text) for [Anonymous Symbol]
    gd32f1x0_gpio.o(.text) refers to gd32f1x0_rcu.o(.text) for rcu_periph_reset_enable
    gd32f1x0_gpio.o(.ARM.exidx) refers to gd32f1x0_gpio.o(.text) for [Anonymous Symbol]
    gd32f1x0_i2c.o(.text) refers to gd32f1x0_rcu.o(.text) for rcu_periph_reset_enable
    gd32f1x0_i2c.o(.ARM.exidx) refers to gd32f1x0_i2c.o(.text) for [Anonymous Symbol]
    gd32f1x0_misc.o(.ARM.exidx) refers to gd32f1x0_misc.o(.text) for [Anonymous Symbol]
    gd32f1x0_pmu.o(.text) refers to gd32f1x0_rcu.o(.text) for rcu_periph_reset_enable
    gd32f1x0_pmu.o(.text) refers to gd32f1x0_pmu.o(.bss..L_MergedGlobals) for [Anonymous Symbol]
    gd32f1x0_pmu.o(.ARM.exidx) refers to gd32f1x0_pmu.o(.text) for [Anonymous Symbol]
    gd32f1x0_rcu.o(.text) refers to gd32f1x0_rcu.o(.rodata.cst8) for [Anonymous Symbol]
    gd32f1x0_rcu.o(.ARM.exidx) refers to gd32f1x0_rcu.o(.text) for [Anonymous Symbol]
    gd32f1x0_syscfg.o(.text) refers to gd32f1x0_rcu.o(.text) for rcu_periph_reset_enable
    gd32f1x0_syscfg.o(.ARM.exidx) refers to gd32f1x0_syscfg.o(.text) for [Anonymous Symbol]
    gd32f1x0_timer.o(.text) refers to gd32f1x0_rcu.o(.text) for rcu_periph_reset_enable
    gd32f1x0_timer.o(.text) refers to memseta.o(.text) for __aeabi_memclr4
    gd32f1x0_timer.o(.ARM.exidx) refers to gd32f1x0_timer.o(.text) for [Anonymous Symbol]
    gd32f1x0_usart.o(.text) refers to gd32f1x0_rcu.o(.text) for rcu_periph_reset_enable
    gd32f1x0_usart.o(.ARM.exidx) refers to gd32f1x0_usart.o(.text) for [Anonymous Symbol]
    gd32f1x0_wwdgt.o(.text) refers to gd32f1x0_rcu.o(.text) for rcu_periph_reset_enable
    gd32f1x0_wwdgt.o(.ARM.exidx) refers to gd32f1x0_wwdgt.o(.text) for [Anonymous Symbol]
    startup_gd32f1x0.o(RESET) refers to startup_gd32f1x0.o(STACK) for __initial_sp
    startup_gd32f1x0.o(RESET) refers to startup_gd32f1x0.o(.text) for Reset_Handler
    startup_gd32f1x0.o(RESET) refers to it.o(.text) for NMI_Handler
    startup_gd32f1x0.o(RESET) refers to bldcsine.o(.text) for EXTI0_1_IRQHandler
    startup_gd32f1x0.o(.text) refers to system_gd32f1x0.o(.text) for SystemInit
    startup_gd32f1x0.o(.text) refers to entry.o(.ARM.Collect$$$$00000000) for __main
    system_gd32f1x0.o(.text) refers to system_gd32f1x0.o(.data.SystemCoreClock) for SystemCoreClock
    system_gd32f1x0.o(.ARM.exidx) refers to system_gd32f1x0.o(.text) for [Anonymous Symbol]
    strtof.o(i.__softfp_strtof) refers (Special) to iusefp.o(.text) for __I$use$fp
    strtof.o(i.__softfp_strtof) refers to strtof.o(.text) for __strtof_int
    strtof.o(i.strtof) refers (Special) to iusefp.o(.text) for __I$use$fp
    strtof.o(i.strtof) refers to strtof.o(.text) for __strtof_int
    entry.o(.ARM.Collect$$$$00000000) refers (Special) to entry10a.o(.ARM.Collect$$$$0000000D) for __rt_final_cpp
    entry.o(.ARM.Collect$$$$00000000) refers (Special) to entry11a.o(.ARM.Collect$$$$0000000F) for __rt_final_exit
    entry.o(.ARM.Collect$$$$00000000) refers (Special) to entry7b.o(.ARM.Collect$$$$00000008) for _main_clock
    entry.o(.ARM.Collect$$$$00000000) refers (Special) to entry8b.o(.ARM.Collect$$$$0000000A) for _main_cpp_init
    entry.o(.ARM.Collect$$$$00000000) refers (Special) to entry9a.o(.ARM.Collect$$$$0000000B) for _main_init
    entry.o(.ARM.Collect$$$$00000000) refers (Special) to entry5.o(.ARM.Collect$$$$00000004) for _main_scatterload
    entry.o(.ARM.Collect$$$$00000000) refers (Special) to entry2.o(.ARM.Collect$$$$00000001) for _main_stk
    printfb.o(i.__0fprintf$bare) refers to printfb.o(i._printf_core) for _printf_core
    printfb.o(i.__0fprintf$bare) refers to fputc.o(i.fputc) for fputc
    printfb.o(i.__0printf$bare) refers to printfb.o(i._printf_core) for _printf_core
    printfb.o(i.__0printf$bare) refers to fputc.o(i.fputc) for fputc
    printfb.o(i.__0printf$bare) refers to stdout.o(.data) for __stdout
    printfb.o(i.__0snprintf$bare) refers to printfb.o(i._printf_core) for _printf_core
    printfb.o(i.__0snprintf$bare) refers to printfb.o(i._snputc) for _snputc
    printfb.o(i.__0sprintf$bare) refers to printfb.o(i._printf_core) for _printf_core
    printfb.o(i.__0sprintf$bare) refers to printfb.o(i._sputc) for _sputc
    printfb.o(i.__0vfprintf$bare) refers to printfb.o(i._printf_core) for _printf_core
    printfb.o(i.__0vfprintf$bare) refers to fputc.o(i.fputc) for fputc
    printfb.o(i.__0vprintf$bare) refers to printfb.o(i._printf_core) for _printf_core
    printfb.o(i.__0vprintf$bare) refers to fputc.o(i.fputc) for fputc
    printfb.o(i.__0vprintf$bare) refers to stdout.o(.data) for __stdout
    printfb.o(i.__0vsnprintf$bare) refers to printfb.o(i._printf_core) for _printf_core
    printfb.o(i.__0vsnprintf$bare) refers to printfb.o(i._snputc) for _snputc
    printfb.o(i.__0vsprintf$bare) refers to printfb.o(i._printf_core) for _printf_core
    printfb.o(i.__0vsprintf$bare) refers to printfb.o(i._sputc) for _sputc
    printf0.o(i.__0fprintf$0) refers to printf0.o(i._printf_core) for _printf_core
    printf0.o(i.__0fprintf$0) refers to fputc.o(i.fputc) for fputc
    printf0.o(i.__0printf$0) refers to printf0.o(i._printf_core) for _printf_core
    printf0.o(i.__0printf$0) refers to fputc.o(i.fputc) for fputc
    printf0.o(i.__0printf$0) refers to stdout.o(.data) for __stdout
    printf0.o(i.__0snprintf$0) refers to printf0.o(i._printf_core) for _printf_core
    printf0.o(i.__0snprintf$0) refers to printf0.o(i._snputc) for _snputc
    printf0.o(i.__0sprintf$0) refers to printf0.o(i._printf_core) for _printf_core
    printf0.o(i.__0sprintf$0) refers to printf0.o(i._sputc) for _sputc
    printf0.o(i.__0vfprintf$0) refers to printf0.o(i._printf_core) for _printf_core
    printf0.o(i.__0vfprintf$0) refers to fputc.o(i.fputc) for fputc
    printf0.o(i.__0vprintf$0) refers to printf0.o(i._printf_core) for _printf_core
    printf0.o(i.__0vprintf$0) refers to fputc.o(i.fputc) for fputc
    printf0.o(i.__0vprintf$0) refers to stdout.o(.data) for __stdout
    printf0.o(i.__0vsnprintf$0) refers to printf0.o(i._printf_core) for _printf_core
    printf0.o(i.__0vsnprintf$0) refers to printf0.o(i._snputc) for _snputc
    printf0.o(i.__0vsprintf$0) refers to printf0.o(i._printf_core) for _printf_core
    printf0.o(i.__0vsprintf$0) refers to printf0.o(i._sputc) for _sputc
    printf1.o(i.__0fprintf$1) refers to printf1.o(i._printf_core) for _printf_core
    printf1.o(i.__0fprintf$1) refers to fputc.o(i.fputc) for fputc
    printf1.o(i.__0printf$1) refers to printf1.o(i._printf_core) for _printf_core
    printf1.o(i.__0printf$1) refers to fputc.o(i.fputc) for fputc
    printf1.o(i.__0printf$1) refers to stdout.o(.data) for __stdout
    printf1.o(i.__0snprintf$1) refers to printf1.o(i._printf_core) for _printf_core
    printf1.o(i.__0snprintf$1) refers to printf1.o(i._snputc) for _snputc
    printf1.o(i.__0sprintf$1) refers to printf1.o(i._printf_core) for _printf_core
    printf1.o(i.__0sprintf$1) refers to printf1.o(i._sputc) for _sputc
    printf1.o(i.__0vfprintf$1) refers to printf1.o(i._printf_core) for _printf_core
    printf1.o(i.__0vfprintf$1) refers to fputc.o(i.fputc) for fputc
    printf1.o(i.__0vprintf$1) refers to printf1.o(i._printf_core) for _printf_core
    printf1.o(i.__0vprintf$1) refers to fputc.o(i.fputc) for fputc
    printf1.o(i.__0vprintf$1) refers to stdout.o(.data) for __stdout
    printf1.o(i.__0vsnprintf$1) refers to printf1.o(i._printf_core) for _printf_core
    printf1.o(i.__0vsnprintf$1) refers to printf1.o(i._snputc) for _snputc
    printf1.o(i.__0vsprintf$1) refers to printf1.o(i._printf_core) for _printf_core
    printf1.o(i.__0vsprintf$1) refers to printf1.o(i._sputc) for _sputc
    printf1.o(i._printf_core) refers to uidiv.o(.text) for __aeabi_uidivmod
    printf2.o(i.__0fprintf$2) refers to printf2.o(i._printf_core) for _printf_core
    printf2.o(i.__0fprintf$2) refers to fputc.o(i.fputc) for fputc
    printf2.o(i.__0printf$2) refers to printf2.o(i._printf_core) for _printf_core
    printf2.o(i.__0printf$2) refers to fputc.o(i.fputc) for fputc
    printf2.o(i.__0printf$2) refers to stdout.o(.data) for __stdout
    printf2.o(i.__0snprintf$2) refers to printf2.o(i._printf_core) for _printf_core
    printf2.o(i.__0snprintf$2) refers to printf2.o(i._snputc) for _snputc
    printf2.o(i.__0sprintf$2) refers to printf2.o(i._printf_core) for _printf_core
    printf2.o(i.__0sprintf$2) refers to printf2.o(i._sputc) for _sputc
    printf2.o(i.__0vfprintf$2) refers to printf2.o(i._printf_core) for _printf_core
    printf2.o(i.__0vfprintf$2) refers to fputc.o(i.fputc) for fputc
    printf2.o(i.__0vprintf$2) refers to printf2.o(i._printf_core) for _printf_core
    printf2.o(i.__0vprintf$2) refers to fputc.o(i.fputc) for fputc
    printf2.o(i.__0vprintf$2) refers to stdout.o(.data) for __stdout
    printf2.o(i.__0vsnprintf$2) refers to printf2.o(i._printf_core) for _printf_core
    printf2.o(i.__0vsnprintf$2) refers to printf2.o(i._snputc) for _snputc
    printf2.o(i.__0vsprintf$2) refers to printf2.o(i._printf_core) for _printf_core
    printf2.o(i.__0vsprintf$2) refers to printf2.o(i._sputc) for _sputc
    printf3.o(i.__0fprintf$3) refers to printf3.o(i._printf_core) for _printf_core
    printf3.o(i.__0fprintf$3) refers to fputc.o(i.fputc) for fputc
    printf3.o(i.__0printf$3) refers to printf3.o(i._printf_core) for _printf_core
    printf3.o(i.__0printf$3) refers to fputc.o(i.fputc) for fputc
    printf3.o(i.__0printf$3) refers to stdout.o(.data) for __stdout
    printf3.o(i.__0snprintf$3) refers to printf3.o(i._printf_core) for _printf_core
    printf3.o(i.__0snprintf$3) refers to printf3.o(i._snputc) for _snputc
    printf3.o(i.__0sprintf$3) refers to printf3.o(i._printf_core) for _printf_core
    printf3.o(i.__0sprintf$3) refers to printf3.o(i._sputc) for _sputc
    printf3.o(i.__0vfprintf$3) refers to printf3.o(i._printf_core) for _printf_core
    printf3.o(i.__0vfprintf$3) refers to fputc.o(i.fputc) for fputc
    printf3.o(i.__0vprintf$3) refers to printf3.o(i._printf_core) for _printf_core
    printf3.o(i.__0vprintf$3) refers to fputc.o(i.fputc) for fputc
    printf3.o(i.__0vprintf$3) refers to stdout.o(.data) for __stdout
    printf3.o(i.__0vsnprintf$3) refers to printf3.o(i._printf_core) for _printf_core
    printf3.o(i.__0vsnprintf$3) refers to printf3.o(i._snputc) for _snputc
    printf3.o(i.__0vsprintf$3) refers to printf3.o(i._printf_core) for _printf_core
    printf3.o(i.__0vsprintf$3) refers to printf3.o(i._sputc) for _sputc
    printf3.o(i._printf_core) refers to uidiv.o(.text) for __aeabi_uidivmod
    printf4.o(i.__0fprintf$4) refers to printf4.o(i._printf_core) for _printf_core
    printf4.o(i.__0fprintf$4) refers to fputc.o(i.fputc) for fputc
    printf4.o(i.__0printf$4) refers to printf4.o(i._printf_core) for _printf_core
    printf4.o(i.__0printf$4) refers to fputc.o(i.fputc) for fputc
    printf4.o(i.__0printf$4) refers to stdout.o(.data) for __stdout
    printf4.o(i.__0snprintf$4) refers to printf4.o(i._printf_core) for _printf_core
    printf4.o(i.__0snprintf$4) refers to printf4.o(i._snputc) for _snputc
    printf4.o(i.__0sprintf$4) refers to printf4.o(i._printf_core) for _printf_core
    printf4.o(i.__0sprintf$4) refers to printf4.o(i._sputc) for _sputc
    printf4.o(i.__0vfprintf$4) refers to printf4.o(i._printf_core) for _printf_core
    printf4.o(i.__0vfprintf$4) refers to fputc.o(i.fputc) for fputc
    printf4.o(i.__0vprintf$4) refers to printf4.o(i._printf_core) for _printf_core
    printf4.o(i.__0vprintf$4) refers to fputc.o(i.fputc) for fputc
    printf4.o(i.__0vprintf$4) refers to stdout.o(.data) for __stdout
    printf4.o(i.__0vsnprintf$4) refers to printf4.o(i._printf_core) for _printf_core
    printf4.o(i.__0vsnprintf$4) refers to printf4.o(i._snputc) for _snputc
    printf4.o(i.__0vsprintf$4) refers to printf4.o(i._printf_core) for _printf_core
    printf4.o(i.__0vsprintf$4) refers to printf4.o(i._sputc) for _sputc
    printf4.o(i._printf_core) refers to uldiv.o(.text) for __aeabi_uldivmod
    printf5.o(i.__0fprintf$5) refers to printf5.o(i._printf_core) for _printf_core
    printf5.o(i.__0fprintf$5) refers to fputc.o(i.fputc) for fputc
    printf5.o(i.__0printf$5) refers to printf5.o(i._printf_core) for _printf_core
    printf5.o(i.__0printf$5) refers to fputc.o(i.fputc) for fputc
    printf5.o(i.__0printf$5) refers to stdout.o(.data) for __stdout
    printf5.o(i.__0snprintf$5) refers to printf5.o(i._printf_core) for _printf_core
    printf5.o(i.__0snprintf$5) refers to printf5.o(i._snputc) for _snputc
    printf5.o(i.__0sprintf$5) refers to printf5.o(i._printf_core) for _printf_core
    printf5.o(i.__0sprintf$5) refers to printf5.o(i._sputc) for _sputc
    printf5.o(i.__0vfprintf$5) refers to printf5.o(i._printf_core) for _printf_core
    printf5.o(i.__0vfprintf$5) refers to fputc.o(i.fputc) for fputc
    printf5.o(i.__0vprintf$5) refers to printf5.o(i._printf_core) for _printf_core
    printf5.o(i.__0vprintf$5) refers to fputc.o(i.fputc) for fputc
    printf5.o(i.__0vprintf$5) refers to stdout.o(.data) for __stdout
    printf5.o(i.__0vsnprintf$5) refers to printf5.o(i._printf_core) for _printf_core
    printf5.o(i.__0vsnprintf$5) refers to printf5.o(i._snputc) for _snputc
    printf5.o(i.__0vsprintf$5) refers to printf5.o(i._printf_core) for _printf_core
    printf5.o(i.__0vsprintf$5) refers to printf5.o(i._sputc) for _sputc
    printf5.o(i._printf_core) refers to uldiv.o(.text) for __aeabi_uldivmod
    printf6.o(i.__0fprintf$6) refers to printf6.o(i._printf_core) for _printf_core
    printf6.o(i.__0fprintf$6) refers to fputc.o(i.fputc) for fputc
    printf6.o(i.__0printf$6) refers to printf6.o(i._printf_core) for _printf_core
    printf6.o(i.__0printf$6) refers to fputc.o(i.fputc) for fputc
    printf6.o(i.__0printf$6) refers to stdout.o(.data) for __stdout
    printf6.o(i.__0snprintf$6) refers to printf6.o(i._printf_core) for _printf_core
    printf6.o(i.__0snprintf$6) refers to printf6.o(i._snputc) for _snputc
    printf6.o(i.__0sprintf$6) refers to printf6.o(i._printf_core) for _printf_core
    printf6.o(i.__0sprintf$6) refers to printf6.o(i._sputc) for _sputc
    printf6.o(i.__0vfprintf$6) refers to printf6.o(i._printf_core) for _printf_core
    printf6.o(i.__0vfprintf$6) refers to fputc.o(i.fputc) for fputc
    printf6.o(i.__0vprintf$6) refers to printf6.o(i._printf_core) for _printf_core
    printf6.o(i.__0vprintf$6) refers to fputc.o(i.fputc) for fputc
    printf6.o(i.__0vprintf$6) refers to stdout.o(.data) for __stdout
    printf6.o(i.__0vsnprintf$6) refers to printf6.o(i._printf_core) for _printf_core
    printf6.o(i.__0vsnprintf$6) refers to printf6.o(i._snputc) for _snputc
    printf6.o(i.__0vsprintf$6) refers to printf6.o(i._printf_core) for _printf_core
    printf6.o(i.__0vsprintf$6) refers to printf6.o(i._sputc) for _sputc
    printf6.o(i._printf_core) refers to printf6.o(i._printf_pre_padding) for _printf_pre_padding
    printf6.o(i._printf_core) refers to uidiv.o(.text) for __aeabi_uidivmod
    printf6.o(i._printf_core) refers to printf6.o(i._printf_post_padding) for _printf_post_padding
    printf7.o(i.__0fprintf$7) refers to printf7.o(i._printf_core) for _printf_core
    printf7.o(i.__0fprintf$7) refers to fputc.o(i.fputc) for fputc
    printf7.o(i.__0printf$7) refers to printf7.o(i._printf_core) for _printf_core
    printf7.o(i.__0printf$7) refers to fputc.o(i.fputc) for fputc
    printf7.o(i.__0printf$7) refers to stdout.o(.data) for __stdout
    printf7.o(i.__0snprintf$7) refers to printf7.o(i._printf_core) for _printf_core
    printf7.o(i.__0snprintf$7) refers to printf7.o(i._snputc) for _snputc
    printf7.o(i.__0sprintf$7) refers to printf7.o(i._printf_core) for _printf_core
    printf7.o(i.__0sprintf$7) refers to printf7.o(i._sputc) for _sputc
    printf7.o(i.__0vfprintf$7) refers to printf7.o(i._printf_core) for _printf_core
    printf7.o(i.__0vfprintf$7) refers to fputc.o(i.fputc) for fputc
    printf7.o(i.__0vprintf$7) refers to printf7.o(i._printf_core) for _printf_core
    printf7.o(i.__0vprintf$7) refers to fputc.o(i.fputc) for fputc
    printf7.o(i.__0vprintf$7) refers to stdout.o(.data) for __stdout
    printf7.o(i.__0vsnprintf$7) refers to printf7.o(i._printf_core) for _printf_core
    printf7.o(i.__0vsnprintf$7) refers to printf7.o(i._snputc) for _snputc
    printf7.o(i.__0vsprintf$7) refers to printf7.o(i._printf_core) for _printf_core
    printf7.o(i.__0vsprintf$7) refers to printf7.o(i._sputc) for _sputc
    printf7.o(i._printf_core) refers to printf7.o(i._printf_pre_padding) for _printf_pre_padding
    printf7.o(i._printf_core) refers to uldiv.o(.text) for __aeabi_uldivmod
    printf7.o(i._printf_core) refers to printf7.o(i._printf_post_padding) for _printf_post_padding
    printf8.o(i.__0fprintf$8) refers to printf8.o(i._printf_core) for _printf_core
    printf8.o(i.__0fprintf$8) refers to fputc.o(i.fputc) for fputc
    printf8.o(i.__0printf$8) refers to printf8.o(i._printf_core) for _printf_core
    printf8.o(i.__0printf$8) refers to fputc.o(i.fputc) for fputc
    printf8.o(i.__0printf$8) refers to stdout.o(.data) for __stdout
    printf8.o(i.__0snprintf$8) refers to printf8.o(i._printf_core) for _printf_core
    printf8.o(i.__0snprintf$8) refers to printf8.o(i._snputc) for _snputc
    printf8.o(i.__0sprintf$8) refers to printf8.o(i._printf_core) for _printf_core
    printf8.o(i.__0sprintf$8) refers to printf8.o(i._sputc) for _sputc
    printf8.o(i.__0vfprintf$8) refers to printf8.o(i._printf_core) for _printf_core
    printf8.o(i.__0vfprintf$8) refers to fputc.o(i.fputc) for fputc
    printf8.o(i.__0vprintf$8) refers to printf8.o(i._printf_core) for _printf_core
    printf8.o(i.__0vprintf$8) refers to fputc.o(i.fputc) for fputc
    printf8.o(i.__0vprintf$8) refers to stdout.o(.data) for __stdout
    printf8.o(i.__0vsnprintf$8) refers to printf8.o(i._printf_core) for _printf_core
    printf8.o(i.__0vsnprintf$8) refers to printf8.o(i._snputc) for _snputc
    printf8.o(i.__0vsprintf$8) refers to printf8.o(i._printf_core) for _printf_core
    printf8.o(i.__0vsprintf$8) refers to printf8.o(i._sputc) for _sputc
    printf8.o(i._printf_core) refers to printf8.o(i._printf_pre_padding) for _printf_pre_padding
    printf8.o(i._printf_core) refers to uldiv.o(.text) for __aeabi_uldivmod
    printf8.o(i._printf_core) refers to printf8.o(i._printf_post_padding) for _printf_post_padding
    printfa.o(i.__0fprintf) refers (Special) to iusefp.o(.text) for __I$use$fp
    printfa.o(i.__0fprintf) refers to printfa.o(i._printf_core) for _printf_core
    printfa.o(i.__0fprintf) refers to fputc.o(i.fputc) for fputc
    printfa.o(i.__0printf) refers (Special) to iusefp.o(.text) for __I$use$fp
    printfa.o(i.__0printf) refers to printfa.o(i._printf_core) for _printf_core
    printfa.o(i.__0printf) refers to fputc.o(i.fputc) for fputc
    printfa.o(i.__0printf) refers to stdout.o(.data) for __stdout
    printfa.o(i.__0snprintf) refers (Special) to iusefp.o(.text) for __I$use$fp
    printfa.o(i.__0snprintf) refers to printfa.o(i._printf_core) for _printf_core
    printfa.o(i.__0snprintf) refers to printfa.o(i._snputc) for _snputc
    printfa.o(i.__0sprintf) refers (Special) to iusefp.o(.text) for __I$use$fp
    printfa.o(i.__0sprintf) refers to printfa.o(i._printf_core) for _printf_core
    printfa.o(i.__0sprintf) refers to printfa.o(i._sputc) for _sputc
    printfa.o(i.__0vfprintf) refers (Special) to iusefp.o(.text) for __I$use$fp
    printfa.o(i.__0vfprintf) refers to printfa.o(i._printf_core) for _printf_core
    printfa.o(i.__0vfprintf) refers to fputc.o(i.fputc) for fputc
    printfa.o(i.__0vprintf) refers (Special) to iusefp.o(.text) for __I$use$fp
    printfa.o(i.__0vprintf) refers to printfa.o(i._printf_core) for _printf_core
    printfa.o(i.__0vprintf) refers to fputc.o(i.fputc) for fputc
    printfa.o(i.__0vprintf) refers to stdout.o(.data) for __stdout
    printfa.o(i.__0vsnprintf) refers (Special) to iusefp.o(.text) for __I$use$fp
    printfa.o(i.__0vsnprintf) refers to printfa.o(i._printf_core) for _printf_core
    printfa.o(i.__0vsnprintf) refers to printfa.o(i._snputc) for _snputc
    printfa.o(i.__0vsprintf) refers (Special) to iusefp.o(.text) for __I$use$fp
    printfa.o(i.__0vsprintf) refers to printfa.o(i._printf_core) for _printf_core
    printfa.o(i.__0vsprintf) refers to printfa.o(i._sputc) for _sputc
    printfa.o(i._fp_digits) refers (Special) to iusefp.o(.text) for __I$use$fp
    printfa.o(i._fp_digits) refers to dmul.o(.text) for __aeabi_dmul
    printfa.o(i._fp_digits) refers to ddiv.o(.text) for __aeabi_ddiv
    printfa.o(i._fp_digits) refers to cdrcmple.o(.text) for __aeabi_cdrcmple
    printfa.o(i._fp_digits) refers to dadd.o(.text) for __aeabi_dadd
    printfa.o(i._fp_digits) refers to dfixul.o(.text) for __aeabi_d2ulz
    printfa.o(i._fp_digits) refers to uldiv.o(.text) for __aeabi_uldivmod
    printfa.o(i._printf_core) refers (Special) to iusefp.o(.text) for __I$use$fp
    printfa.o(i._printf_core) refers to printfa.o(i._printf_pre_padding) for _printf_pre_padding
    printfa.o(i._printf_core) refers to uldiv.o(.text) for __aeabi_uldivmod
    printfa.o(i._printf_core) refers to printfa.o(i._printf_post_padding) for _printf_post_padding
    printfa.o(i._printf_core) refers to printfa.o(i._fp_digits) for _fp_digits
    printfa.o(i._printf_core) refers to uidiv.o(.text) for __aeabi_uidivmod
    printfa.o(i._printf_post_padding) refers (Special) to iusefp.o(.text) for __I$use$fp
    printfa.o(i._printf_pre_padding) refers (Special) to iusefp.o(.text) for __I$use$fp
    printfa.o(i._snputc) refers (Special) to iusefp.o(.text) for __I$use$fp
    printfa.o(i._sputc) refers (Special) to iusefp.o(.text) for __I$use$fp
    fadd.o(.text) refers (Special) to iusefp.o(.text) for __I$use$fp
    fadd.o(.text) refers to fepilogue.o(.text) for _float_epilogue
    fmul.o(.text) refers (Special) to iusefp.o(.text) for __I$use$fp
    fdiv.o(.text) refers (Special) to iusefp.o(.text) for __I$use$fp
    fdiv.o(.text) refers to fepilogue.o(.text) for _float_round
    dadd.o(.text) refers (Special) to iusefp.o(.text) for __I$use$fp
    dadd.o(.text) refers to llshl.o(.text) for __aeabi_llsl
    dadd.o(.text) refers to llsshr.o(.text) for __aeabi_lasr
    dadd.o(.text) refers to depilogue.o(.text) for _double_epilogue
    dmul.o(.text) refers (Special) to iusefp.o(.text) for __I$use$fp
    dmul.o(.text) refers to depilogue.o(.text) for _double_epilogue
    ddiv.o(.text) refers (Special) to iusefp.o(.text) for __I$use$fp
    ddiv.o(.text) refers to depilogue.o(.text) for _double_round
    fcmple.o(.text) refers (Special) to iusefp.o(.text) for __I$use$fp
    fcmplt.o(.text) refers (Special) to iusefp.o(.text) for __I$use$fp
    fcmpgt.o(.text) refers (Special) to iusefp.o(.text) for __I$use$fp
    fflti.o(.text) refers (Special) to iusefp.o(.text) for __I$use$fp
    fflti.o(.text) refers to fepilogue.o(.text) for _float_epilogue
    ffltui.o(.text) refers (Special) to iusefp.o(.text) for __I$use$fp
    ffltui.o(.text) refers to fepilogue.o(.text) for _float_epilogue
    dflti.o(.text) refers (Special) to iusefp.o(.text) for __I$use$fp
    dflti.o(.text) refers to depilogue.o(.text) for _double_epilogue
    dfltui.o(.text) refers (Special) to iusefp.o(.text) for __I$use$fp
    dfltui.o(.text) refers to depilogue.o(.text) for _double_epilogue
    ffixi.o(.text) refers (Special) to iusefp.o(.text) for __I$use$fp
    ffixl.o(.text) refers (Special) to iusefp.o(.text) for __I$use$fp
    ffixl.o(.text) refers to llshl.o(.text) for __aeabi_llsl
    dfixi.o(.text) refers (Special) to iusefp.o(.text) for __I$use$fp
    dfixi.o(.text) refers to llushr.o(.text) for __aeabi_llsr
    f2d.o(.text) refers (Special) to iusefp.o(.text) for __I$use$fp
    d2f.o(.text) refers (Special) to iusefp.o(.text) for __I$use$fp
    d2f.o(.text) refers to fepilogue.o(.text) for _float_round
    entry2.o(.ARM.Collect$$$$00000001) refers to entry2.o(.ARM.Collect$$$$00002712) for __lit__00000000
    entry2.o(.ARM.Collect$$$$00002712) refers to startup_gd32f1x0.o(STACK) for __initial_sp
    entry2.o(__vectab_stack_and_reset_area) refers to startup_gd32f1x0.o(STACK) for __initial_sp
    entry2.o(__vectab_stack_and_reset_area) refers to entry.o(.ARM.Collect$$$$00000000) for __main
    entry5.o(.ARM.Collect$$$$00000004) refers to init.o(.text) for __scatterload
    entry9a.o(.ARM.Collect$$$$0000000B) refers to main.o(.text) for main
    entry9b.o(.ARM.Collect$$$$0000000C) refers to main.o(.text) for main
    fputc.o(i.fputc) refers (Special) to iusesemip.o(.text) for __I$use$semihosting$fputc
    fputc.o(i.fputc) refers (Special) to semi.o(.text) for __semihosting_library_function
    fputc_h.o(i._fputc$hlt) refers (Special) to iusesemip.o(.text) for __I$use$semihosting$fputc
    fputc_h.o(i._fputc$hlt) refers (Special) to semi.o(.text) for __semihosting_library_function
    uldiv.o(.text) refers to llushr.o(.text) for __aeabi_llsr
    uldiv.o(.text) refers to llshl.o(.text) for __aeabi_llsl
    strtof.o(.text) refers to strtod.o(.text) for __strtod_int
    fepilogue.o(.text) refers (Special) to iusefp.o(.text) for __I$use$fp
    depilogue.o(.text) refers (Special) to iusefp.o(.text) for __I$use$fp
    depilogue.o(.text) refers to llshl.o(.text) for __aeabi_llsl
    depilogue.o(.text) refers to llushr.o(.text) for __aeabi_llsr
    dfixul.o(.text) refers (Special) to iusefp.o(.text) for __I$use$fp
    dfixul.o(.text) refers to llushr.o(.text) for __aeabi_llsr
    dfixul.o(.text) refers to llshl.o(.text) for __aeabi_llsl
    cdrcmple.o(.text) refers (Special) to iusefp.o(.text) for __I$use$fp
    init.o(.text) refers to entry5.o(.ARM.Collect$$$$00000004) for __main_after_scatterload
    strtod.o(.text) refers to scanf_fp.o(.text) for _scanf_real
    strtod.o(.text) refers to _sgetc.o(.text) for _sgetc
    strtod.o(.text) refers to isspace_c.o(.text) for isspace
    isspace_c.o(.text) refers to ctype_c.o(.text) for __ctype_lookup
    scanf_fp.o(.text) refers (Special) to iusefp.o(.text) for __I$use$fp
    scanf_fp.o(.text) refers to dfltul.o(.text) for __aeabi_ul2d
    scanf_fp.o(.text) refers to dmul.o(.text) for __aeabi_dmul
    scanf_fp.o(.text) refers to ddiv.o(.text) for __aeabi_ddiv
    scanf_fp.o(.text) refers to scanf_fp.o(i._is_digit) for _is_digit
    scanf_fp.o(.text) refers to d2f.o(.text) for __aeabi_d2f
    ctype_c.o(.text) refers to ctype_c.o(.constdata) for .constdata
    dfltul.o(.text) refers (Special) to iusefp.o(.text) for __I$use$fp
    dfltul.o(.text) refers to depilogue.o(.text) for _double_epilogue
    scanf_fp.o(i._is_digit) refers (Special) to iusefp.o(.text) for __I$use$fp


==============================================================================

Removing Unused input sections from the image.

    Removing main.o(.ARM.exidx), (32 bytes).
    Removing main.o(.data.iBug8), (1 bytes).
    Removing main.o(.data.wStateSlave), (1 bytes).
    Removing main.o(.bss.activateWeakening), (1 bytes).
    Removing main.o(.data.beepsBackwards), (1 bytes).
    Removing main.o(.bss.slaveError), (1 bytes).
    Removing main.o(.ARM.use_no_argv), (4 bytes).
    Removing bldc.o(.ARM.exidx), (56 bytes).
    Removing bldc.o(.bss.revs32x), (4 bytes).
    Removing bldc.o(.data.revs32Scale), (4 bytes).
    Removing bldc.o(.bss.speedCounterLog), (4 bytes).
    Removing bldc.o(.data.iDriverDo), (2 bytes).
    Removing driver.o(.ARM.exidx), (40 bytes).
    Removing driver.o(.data.iPID_DoI), (2 bytes).
    Removing driver.o(.bss.bErr), (2 bytes).
    Removing bldcbc.o(.text), (0 bytes).
    Removing bldcsine.o(.ARM.exidx), (56 bytes).
    Removing bldcsine.o(.bss.fGradient), (4 bytes).
    Removing bldcsine.o(.bss.fGradientX), (4 bytes).
    Removing setup.o(.ARM.exidx), (208 bytes).
    Removing setup.o(.bss.dma_init_struct_usart), (36 bytes).
    Removing setup.o(.bss.usart0_rx_buf), (1 bytes).
    Removing setup.o(.bss.usart1_rx_buf), (1 bytes).
    Removing setup.o(.bss.usart2_rx_buf), (1 bytes).
    Removing it.o(.ARM.exidx), (128 bytes).
    Removing it.o(.bss.iPwmTicks), (4 bytes).
    Removing it.o(.bss.iPwmTicks0), (4 bytes).
    Removing it.o(.bss.iAdcTicks), (4 bytes).
    Removing it.o(.bss.iAdcTicks0), (4 bytes).
    Removing it.o(.bss.iCounterUsart0), (4 bytes).
    Removing it.o(.bss.iCounter2Usart0), (4 bytes).
    Removing it.o(.bss.iCounterUsart1), (4 bytes).
    Removing it.o(.bss.iCounter2Usart1), (4 bytes).
    Removing it.o(.bss.iCounterUsart2), (4 bytes).
    Removing it.o(.bss.iCounter2Usart2), (4 bytes).
    Removing led.o(.text), (0 bytes).
    Removing comms.o(.text), (92 bytes).
    Removing comms.o(.ARM.exidx), (16 bytes).
    Removing remoteuart.o(.text), (0 bytes).
    Removing remotecrsf.o(.text), (0 bytes).
    Removing remotedummy.o(.ARM.exidx), (48 bytes).
    Removing remoteuartbus.o(.text), (0 bytes).
    Removing remoteoptimizepid.o(.text), (0 bytes).
    Removing commsmasterslave.o(.text), (0 bytes).
    Removing commsmasterslave.o(.bss.mosfetOutMaster), (1 bytes).
    Removing commsmasterslave.o(.bss.beepsBackwardsMaster), (1 bytes).
    Removing remoteadc.o(.text), (0 bytes).
    Removing remoteautodetect.o(.text), (0 bytes).
    Removing remoteautodetect.o(.bss.i), (2 bytes).
    Removing remoteros2.o(.text), (0 bytes).
    Removing i2c.o(.text), (0 bytes).
    Removing mpu6050.o(.text), (0 bytes).
    Removing imumpu6050.o(.text), (0 bytes).
    Removing bmi160.o(.text), (0 bytes).
    Removing pilothoverbike.o(.text), (0 bytes).
    Removing pilotuser.o(.text), (0 bytes).
    Removing segger_rtt.o(.ARM.exidx), (352 bytes).
    Removing gd32f1x0_adc.o(.ARM.exidx), (272 bytes).
    Removing gd32f1x0_dbg.o(.text), (116 bytes).
    Removing gd32f1x0_dbg.o(.ARM.exidx), (48 bytes).
    Removing gd32f1x0_dma.o(.ARM.exidx), (240 bytes).
    Removing gd32f1x0_exti.o(.ARM.exidx), (112 bytes).
    Removing gd32f1x0_fmc.o(.ARM.exidx), (296 bytes).
    Removing gd32f1x0_fwdgt.o(.ARM.exidx), (48 bytes).
    Removing gd32f1x0_gpio.o(.ARM.exidx), (104 bytes).
    Removing gd32f1x0_i2c.o(.text), (684 bytes).
    Removing gd32f1x0_i2c.o(.ARM.exidx), (264 bytes).
    Removing gd32f1x0_misc.o(.ARM.exidx), (56 bytes).
    Removing gd32f1x0_opa.o(.text), (0 bytes).
    Removing gd32f1x0_pmu.o(.text), (412 bytes).
    Removing gd32f1x0_pmu.o(.ARM.exidx), (96 bytes).
    Removing gd32f1x0_pmu.o(.bss..L_MergedGlobals), (16 bytes).
    Removing gd32f1x0_rcu.o(.ARM.exidx), (392 bytes).
    Removing gd32f1x0_syscfg.o(.ARM.exidx), (80 bytes).
    Removing gd32f1x0_timer.o(.ARM.exidx), (592 bytes).
    Removing gd32f1x0_usart.o(.text), (1346 bytes).
    Removing gd32f1x0_usart.o(.ARM.exidx), (592 bytes).
    Removing gd32f1x0_wwdgt.o(.text), (140 bytes).
    Removing gd32f1x0_wwdgt.o(.ARM.exidx), (56 bytes).
    Removing startup_gd32f1x0.o(HEAP), (1024 bytes).
    Removing system_gd32f1x0.o(.ARM.exidx), (16 bytes).

81 unused section(s) (total 8148 bytes) removed from the image.

==============================================================================

Image Symbol Table

    Local Symbols

    Symbol Name                              Value     Ov Type        Size  Object(Section)

    ../clib/division.s                       0x00000000   Number         0  aeabi_sdiv.o ABSOLUTE
    ../clib/microlib/ctype/ctype.c           0x00000000   Number         0  isspace_c.o ABSOLUTE
    ../clib/microlib/ctype/ctype.c           0x00000000   Number         0  ctype_c.o ABSOLUTE
    ../clib/microlib/division.c              0x00000000   Number         0  uidiv.o ABSOLUTE
    ../clib/microlib/division.c              0x00000000   Number         0  uldiv.o ABSOLUTE
    ../clib/microlib/init/entry.s            0x00000000   Number         0  entry.o ABSOLUTE
    ../clib/microlib/init/entry.s            0x00000000   Number         0  entry2.o ABSOLUTE
    ../clib/microlib/init/entry.s            0x00000000   Number         0  entry5.o ABSOLUTE
    ../clib/microlib/init/entry.s            0x00000000   Number         0  entry7a.o ABSOLUTE
    ../clib/microlib/init/entry.s            0x00000000   Number         0  entry7b.o ABSOLUTE
    ../clib/microlib/init/entry.s            0x00000000   Number         0  entry8a.o ABSOLUTE
    ../clib/microlib/init/entry.s            0x00000000   Number         0  entry8b.o ABSOLUTE
    ../clib/microlib/init/entry.s            0x00000000   Number         0  entry9a.o ABSOLUTE
    ../clib/microlib/init/entry.s            0x00000000   Number         0  entry9b.o ABSOLUTE
    ../clib/microlib/init/entry.s            0x00000000   Number         0  entry10a.o ABSOLUTE
    ../clib/microlib/init/entry.s            0x00000000   Number         0  entry10b.o ABSOLUTE
    ../clib/microlib/init/entry.s            0x00000000   Number         0  entry11a.o ABSOLUTE
    ../clib/microlib/init/entry.s            0x00000000   Number         0  entry11b.o ABSOLUTE
    ../clib/microlib/longlong.c              0x00000000   Number         0  llshl.o ABSOLUTE
    ../clib/microlib/longlong.c              0x00000000   Number         0  llushr.o ABSOLUTE
    ../clib/microlib/longlong.c              0x00000000   Number         0  llsshr.o ABSOLUTE
    ../clib/microlib/printf/printf.c         0x00000000   Number         0  printfb.o ABSOLUTE
    ../clib/microlib/printf/printf.c         0x00000000   Number         0  printf0.o ABSOLUTE
    ../clib/microlib/printf/printf.c         0x00000000   Number         0  printf1.o ABSOLUTE
    ../clib/microlib/printf/printf.c         0x00000000   Number         0  printf2.o ABSOLUTE
    ../clib/microlib/printf/printf.c         0x00000000   Number         0  printf3.o ABSOLUTE
    ../clib/microlib/printf/printf.c         0x00000000   Number         0  printf4.o ABSOLUTE
    ../clib/microlib/printf/printf.c         0x00000000   Number         0  printf5.o ABSOLUTE
    ../clib/microlib/printf/printf.c         0x00000000   Number         0  printf6.o ABSOLUTE
    ../clib/microlib/printf/printf.c         0x00000000   Number         0  printf7.o ABSOLUTE
    ../clib/microlib/printf/printf.c         0x00000000   Number         0  printf8.o ABSOLUTE
    ../clib/microlib/printf/printf.c         0x00000000   Number         0  printfa.o ABSOLUTE
    ../clib/microlib/printf/stubs.s          0x00000000   Number         0  printfstubs.o ABSOLUTE
    ../clib/microlib/stdio/fputc.c           0x00000000   Number         0  fputc.o ABSOLUTE
    ../clib/microlib/stdio/fputc.c           0x00000000   Number         0  fputc_h.o ABSOLUTE
    ../clib/microlib/stdio/semi.s            0x00000000   Number         0  semi.o ABSOLUTE
    ../clib/microlib/stdio/streams.c         0x00000000   Number         0  stdout.o ABSOLUTE
    ../clib/microlib/string/memcmp.c         0x00000000   Number         0  memcmp.o ABSOLUTE
    ../clib/microlib/string/memcpy.c         0x00000000   Number         0  memcpya.o ABSOLUTE
    ../clib/microlib/string/memcpy.c         0x00000000   Number         0  memcpyb.o ABSOLUTE
    ../clib/microlib/string/memset.c         0x00000000   Number         0  memseta.o ABSOLUTE
    ../clib/microlib/string/strcmp.c         0x00000000   Number         0  strcmp.o ABSOLUTE
    ../clib/microlib/string/strlen.c         0x00000000   Number         0  strlen.o ABSOLUTE
    ../clib/microlib/stubs.s                 0x00000000   Number         0  iusefp.o ABSOLUTE
    ../clib/microlib/stubs.s                 0x00000000   Number         0  iusesemip.o ABSOLUTE
    ../clib/scanf.c                          0x00000000   Number         0  strtof.o ABSOLUTE
    ../clib/scanf.c                          0x00000000   Number         0  strtod.o ABSOLUTE
    ../clib/scanf.c                          0x00000000   Number         0  scanf_fp.o ABSOLUTE
    ../clib/scanf.c                          0x00000000   Number         0  _sgetc.o ABSOLUTE
    ../fplib/microlib/d2f.c                  0x00000000   Number         0  d2f.o ABSOLUTE
    ../fplib/microlib/f2d.c                  0x00000000   Number         0  f2d.o ABSOLUTE
    ../fplib/microlib/fpadd.c                0x00000000   Number         0  fadd.o ABSOLUTE
    ../fplib/microlib/fpadd.c                0x00000000   Number         0  dadd.o ABSOLUTE
    ../fplib/microlib/fpcmp.c                0x00000000   Number         0  fcmple.o ABSOLUTE
    ../fplib/microlib/fpcmp.c                0x00000000   Number         0  fcmplt.o ABSOLUTE
    ../fplib/microlib/fpcmp.c                0x00000000   Number         0  fcmpgt.o ABSOLUTE
    ../fplib/microlib/fpdiv.c                0x00000000   Number         0  fdiv.o ABSOLUTE
    ../fplib/microlib/fpdiv.c                0x00000000   Number         0  ddiv.o ABSOLUTE
    ../fplib/microlib/fpepilogue.c           0x00000000   Number         0  fepilogue.o ABSOLUTE
    ../fplib/microlib/fpepilogue.c           0x00000000   Number         0  depilogue.o ABSOLUTE
    ../fplib/microlib/fpfix.c                0x00000000   Number         0  ffixi.o ABSOLUTE
    ../fplib/microlib/fpfix.c                0x00000000   Number         0  ffixl.o ABSOLUTE
    ../fplib/microlib/fpfix.c                0x00000000   Number         0  dfixi.o ABSOLUTE
    ../fplib/microlib/fpfix.c                0x00000000   Number         0  dfixul.o ABSOLUTE
    ../fplib/microlib/fpflt.c                0x00000000   Number         0  fflti.o ABSOLUTE
    ../fplib/microlib/fpflt.c                0x00000000   Number         0  ffltui.o ABSOLUTE
    ../fplib/microlib/fpflt.c                0x00000000   Number         0  dflti.o ABSOLUTE
    ../fplib/microlib/fpflt.c                0x00000000   Number         0  dfltui.o ABSOLUTE
    ../fplib/microlib/fpflt.c                0x00000000   Number         0  dfltul.o ABSOLUTE
    ../fplib/microlib/fpmul.c                0x00000000   Number         0  fmul.o ABSOLUTE
    ../fplib/microlib/fpmul.c                0x00000000   Number         0  dmul.o ABSOLUTE
    ../mathlib/strtof.c                      0x00000000   Number         0  strtof.o ABSOLUTE
    PilotHoverbike.c                         0x00000000   Number         0  pilothoverbike.o ABSOLUTE
    PilotUser.c                              0x00000000   Number         0  pilotuser.o ABSOLUTE
    RTE/Device/GD32F130C8/startup_gd32f1x0.s 0x00000000   Number         0  startup_gd32f1x0.o ABSOLUTE
    RemoteAdc.c                              0x00000000   Number         0  remoteadc.o ABSOLUTE
    RemoteAutodetect.c                       0x00000000   Number         0  remoteautodetect.o ABSOLUTE
    RemoteROS2.c                             0x00000000   Number         0  remoteros2.o ABSOLUTE
    SEGGER_RTT.c                             0x00000000   Number         0  segger_rtt.o ABSOLUTE
    bldc.c                                   0x00000000   Number         0  bldc.o ABSOLUTE
    bldcBC.c                                 0x00000000   Number         0  bldcbc.o ABSOLUTE
    bldcSINE.c                               0x00000000   Number         0  bldcsine.o ABSOLUTE
    bmi160.c                                 0x00000000   Number         0  bmi160.o ABSOLUTE
    cdrcmple.s                               0x00000000   Number         0  cdrcmple.o ABSOLUTE
    comms.c                                  0x00000000   Number         0  comms.o ABSOLUTE
    commsMasterSlave.c                       0x00000000   Number         0  commsmasterslave.o ABSOLUTE
    dc.s                                     0x00000000   Number         0  dc.o ABSOLUTE
    driver.c                                 0x00000000   Number         0  driver.o ABSOLUTE
    gd32f1x0_adc.c                           0x00000000   Number         0  gd32f1x0_adc.o ABSOLUTE
    gd32f1x0_dbg.c                           0x00000000   Number         0  gd32f1x0_dbg.o ABSOLUTE
    gd32f1x0_dma.c                           0x00000000   Number         0  gd32f1x0_dma.o ABSOLUTE
    gd32f1x0_exti.c                          0x00000000   Number         0  gd32f1x0_exti.o ABSOLUTE
    gd32f1x0_fmc.c                           0x00000000   Number         0  gd32f1x0_fmc.o ABSOLUTE
    gd32f1x0_fwdgt.c                         0x00000000   Number         0  gd32f1x0_fwdgt.o ABSOLUTE
    gd32f1x0_gpio.c                          0x00000000   Number         0  gd32f1x0_gpio.o ABSOLUTE
    gd32f1x0_i2c.c                           0x00000000   Number         0  gd32f1x0_i2c.o ABSOLUTE
    gd32f1x0_misc.c                          0x00000000   Number         0  gd32f1x0_misc.o ABSOLUTE
    gd32f1x0_opa.c                           0x00000000   Number         0  gd32f1x0_opa.o ABSOLUTE
    gd32f1x0_pmu.c                           0x00000000   Number         0  gd32f1x0_pmu.o ABSOLUTE
    gd32f1x0_rcu.c                           0x00000000   Number         0  gd32f1x0_rcu.o ABSOLUTE
    gd32f1x0_syscfg.c                        0x00000000   Number         0  gd32f1x0_syscfg.o ABSOLUTE
    gd32f1x0_timer.c                         0x00000000   Number         0  gd32f1x0_timer.o ABSOLUTE
    gd32f1x0_usart.c                         0x00000000   Number         0  gd32f1x0_usart.o ABSOLUTE
    gd32f1x0_wwdgt.c                         0x00000000   Number         0  gd32f1x0_wwdgt.o ABSOLUTE
    handlers.s                               0x00000000   Number         0  handlers.o ABSOLUTE
    i2c.c                                    0x00000000   Number         0  i2c.o ABSOLUTE
    imuMPU6050.c                             0x00000000   Number         0  imumpu6050.o ABSOLUTE
    init.s                                   0x00000000   Number         0  init.o ABSOLUTE
    it.c                                     0x00000000   Number         0  it.o ABSOLUTE
    led.c                                    0x00000000   Number         0  led.o ABSOLUTE
    main.c                                   0x00000000   Number         0  main.o ABSOLUTE
    mpu6050.c                                0x00000000   Number         0  mpu6050.o ABSOLUTE
    remoteCrsf.c                             0x00000000   Number         0  remotecrsf.o ABSOLUTE
    remoteDummy.c                            0x00000000   Number         0  remotedummy.o ABSOLUTE
    remoteOptimizePID.c                      0x00000000   Number         0  remoteoptimizepid.o ABSOLUTE
    remoteUart.c                             0x00000000   Number         0  remoteuart.o ABSOLUTE
    remoteUartBus.c                          0x00000000   Number         0  remoteuartbus.o ABSOLUTE
    setup.c                                  0x00000000   Number         0  setup.o ABSOLUTE
    system_gd32f1x0.c                        0x00000000   Number         0  system_gd32f1x0.o ABSOLUTE
    RESET                                    0x08000000   Section      360  startup_gd32f1x0.o(RESET)
    .ARM.Collect$$$$00000000                 0x08000168   Section        0  entry.o(.ARM.Collect$$$$00000000)
    .ARM.Collect$$$$00000001                 0x08000168   Section        4  entry2.o(.ARM.Collect$$$$00000001)
    .ARM.Collect$$$$00000004                 0x0800016c   Section        4  entry5.o(.ARM.Collect$$$$00000004)
    .ARM.Collect$$$$00000008                 0x08000170   Section        0  entry7b.o(.ARM.Collect$$$$00000008)
    .ARM.Collect$$$$0000000A                 0x08000170   Section        0  entry8b.o(.ARM.Collect$$$$0000000A)
    .ARM.Collect$$$$0000000B                 0x08000170   Section        8  entry9a.o(.ARM.Collect$$$$0000000B)
    __lit__00000000                          0x08000178   Data           4  entry2.o(.ARM.Collect$$$$00002712)
    .ARM.Collect$$$$0000000D                 0x08000178   Section        0  entry10a.o(.ARM.Collect$$$$0000000D)
    .ARM.Collect$$$$0000000F                 0x08000178   Section        0  entry11a.o(.ARM.Collect$$$$0000000F)
    .ARM.Collect$$$$00002712                 0x08000178   Section        4  entry2.o(.ARM.Collect$$$$00002712)
    [Anonymous Symbol]                       0x0800017c   Section        0  main.o(.text)
    __arm_cp.0_0                             0x08000524   Number         4  main.o(.text)
    __arm_cp.0_1                             0x08000528   Number         4  main.o(.text)
    __arm_cp.0_2                             0x0800052c   Number         4  main.o(.text)
    __arm_cp.0_3                             0x08000530   Number         4  main.o(.text)
    __arm_cp.0_4                             0x08000534   Number         4  main.o(.text)
    __arm_cp.0_5                             0x08000538   Number         4  main.o(.text)
    __arm_cp.0_6                             0x0800053c   Number         4  main.o(.text)
    __arm_cp.0_7                             0x08000540   Number         4  main.o(.text)
    __arm_cp.0_8                             0x08000544   Number         4  main.o(.text)
    __arm_cp.0_9                             0x08000548   Number         4  main.o(.text)
    __arm_cp.0_10                            0x0800054c   Number         4  main.o(.text)
    __arm_cp.0_11                            0x08000550   Number         4  main.o(.text)
    __arm_cp.0_12                            0x08000554   Number         4  main.o(.text)
    __arm_cp.0_13                            0x08000558   Number         4  main.o(.text)
    __arm_cp.0_14                            0x0800055c   Number         4  main.o(.text)
    __arm_cp.0_15                            0x08000560   Number         4  main.o(.text)
    __arm_cp.0_16                            0x08000564   Number         4  main.o(.text)
    __arm_cp.0_17                            0x08000568   Number         4  main.o(.text)
    __arm_cp.0_18                            0x0800056c   Number         4  main.o(.text)
    __arm_cp.0_19                            0x08000570   Number         4  main.o(.text)
    __arm_cp.0_20                            0x08000574   Number         4  main.o(.text)
    __arm_cp.0_21                            0x08000578   Number         4  main.o(.text)
    __arm_cp.0_22                            0x0800057c   Number         4  main.o(.text)
    __arm_cp.1_0                             0x080005ec   Number         4  main.o(.text)
    __arm_cp.1_1                             0x080005f0   Number         4  main.o(.text)
    __arm_cp.1_2                             0x080005f4   Number         4  main.o(.text)
    __arm_cp.2_0                             0x0800066c   Number         4  main.o(.text)
    __arm_cp.2_1                             0x08000670   Number         4  main.o(.text)
    __arm_cp.2_2                             0x08000674   Number         4  main.o(.text)
    __arm_cp.2_3                             0x08000678   Number         4  main.o(.text)
    OUTLINED_FUNCTION_0                      0x0800067d   Thumb Code    10  main.o(.text)
    [Anonymous Symbol]                       0x08000688   Section        0  bldc.o(.text)
    __arm_cp.1_0                             0x080006c4   Number         4  bldc.o(.text)
    __arm_cp.2_0                             0x080006d0   Number         4  bldc.o(.text)
    __arm_cp.3_0                             0x0800072c   Number         4  bldc.o(.text)
    __arm_cp.3_1                             0x08000730   Number         4  bldc.o(.text)
    __arm_cp.3_2                             0x08000734   Number         4  bldc.o(.text)
    __arm_cp.3_3                             0x08000738   Number         4  bldc.o(.text)
    __arm_cp.4_0                             0x08000754   Number         4  bldc.o(.text)
    __arm_cp.4_1                             0x08000758   Number         4  bldc.o(.text)
    __arm_cp.5_0                             0x08000af0   Number         4  bldc.o(.text)
    __arm_cp.5_1                             0x08000af4   Number         4  bldc.o(.text)
    __arm_cp.5_2                             0x08000af8   Number         4  bldc.o(.text)
    __arm_cp.5_3                             0x08000afc   Number         4  bldc.o(.text)
    __arm_cp.5_4                             0x08000b00   Number         4  bldc.o(.text)
    __arm_cp.5_5                             0x08000b04   Number         4  bldc.o(.text)
    __arm_cp.5_6                             0x08000b08   Number         4  bldc.o(.text)
    __arm_cp.5_7                             0x08000b0c   Number         4  bldc.o(.text)
    __arm_cp.5_8                             0x08000b10   Number         4  bldc.o(.text)
    __arm_cp.5_9                             0x08000b14   Number         4  bldc.o(.text)
    __arm_cp.5_10                            0x08000b18   Number         4  bldc.o(.text)
    __arm_cp.5_11                            0x08000b1c   Number         4  bldc.o(.text)
    __arm_cp.5_12                            0x08000b20   Number         4  bldc.o(.text)
    __arm_cp.5_13                            0x08000b24   Number         4  bldc.o(.text)
    __arm_cp.5_14                            0x08000b28   Number         4  bldc.o(.text)
    __arm_cp.5_15                            0x08000b2c   Number         4  bldc.o(.text)
    __arm_cp.5_16                            0x08000b30   Number         4  bldc.o(.text)
    __arm_cp.5_17                            0x08000b34   Number         4  bldc.o(.text)
    __arm_cp.5_18                            0x08000b38   Number         4  bldc.o(.text)
    __arm_cp.5_19                            0x08000b3c   Number         4  bldc.o(.text)
    __arm_cp.5_20                            0x08000b40   Number         4  bldc.o(.text)
    __arm_cp.5_21                            0x08000b44   Number         4  bldc.o(.text)
    __arm_cp.5_22                            0x08000b48   Number         4  bldc.o(.text)
    __arm_cp.5_23                            0x08000b4c   Number         4  bldc.o(.text)
    __arm_cp.5_24                            0x08000b50   Number         4  bldc.o(.text)
    __arm_cp.5_25                            0x08000b54   Number         4  bldc.o(.text)
    OUTLINED_FUNCTION_0                      0x08000b59   Thumb Code    14  bldc.o(.text)
    [Anonymous Symbol]                       0x08000b68   Section        0  driver.o(.text)
    __arm_cp.0_0                             0x08000bc8   Number         4  driver.o(.text)
    __arm_cp.1_0                             0x08000cbc   Number         4  driver.o(.text)
    __arm_cp.2_0                             0x08000d48   Number         4  driver.o(.text)
    __arm_cp.2_1                             0x08000d4c   Number         4  driver.o(.text)
    __arm_cp.2_2                             0x08000d50   Number         4  driver.o(.text)
    __arm_cp.2_3                             0x08000d54   Number         4  driver.o(.text)
    __arm_cp.3_0                             0x08000d7c   Number         4  driver.o(.text)
    __arm_cp.3_1                             0x08000d80   Number         4  driver.o(.text)
    __arm_cp.3_2                             0x08000d84   Number         4  driver.o(.text)
    __arm_cp.3_3                             0x08000d88   Number         4  driver.o(.text)
    OUTLINED_FUNCTION_0                      0x08000d8d   Thumb Code     8  driver.o(.text)
    [Anonymous Symbol]                       0x08000d94   Section        0  bldcsine.o(.text)
    __arm_cp.1_0                             0x08000df8   Number         4  bldcsine.o(.text)
    __arm_cp.1_1                             0x08000dfc   Number         4  bldcsine.o(.text)
    __arm_cp.1_2                             0x08000e00   Number         4  bldcsine.o(.text)
    __arm_cp.1_3                             0x08000e04   Number         4  bldcsine.o(.text)
    __arm_cp.1_4                             0x08000e08   Number         4  bldcsine.o(.text)
    __arm_cp.2_0                             0x08000e8c   Number         4  bldcsine.o(.text)
    __arm_cp.2_1                             0x08000e90   Number         4  bldcsine.o(.text)
    __arm_cp.2_2                             0x08000e94   Number         4  bldcsine.o(.text)
    __arm_cp.2_3                             0x08000e98   Number         4  bldcsine.o(.text)
    __arm_cp.2_4                             0x08000e9c   Number         4  bldcsine.o(.text)
    __arm_cp.6_0                             0x08001020   Number         4  bldcsine.o(.text)
    __arm_cp.6_1                             0x08001024   Number         4  bldcsine.o(.text)
    __arm_cp.6_2                             0x08001028   Number         4  bldcsine.o(.text)
    __arm_cp.6_3                             0x0800102c   Number         4  bldcsine.o(.text)
    __arm_cp.6_4                             0x08001030   Number         4  bldcsine.o(.text)
    __arm_cp.6_5                             0x08001034   Number         4  bldcsine.o(.text)
    [Anonymous Symbol]                       0x08001038   Section        0  setup.o(.text)
    __arm_cp.4_0                             0x08001120   Number         4  setup.o(.text)
    __arm_cp.4_1                             0x08001124   Number         4  setup.o(.text)
    __arm_cp.4_2                             0x08001128   Number         4  setup.o(.text)
    __arm_cp.5_0                             0x08001290   Number         4  setup.o(.text)
    __arm_cp.5_1                             0x08001294   Number         4  setup.o(.text)
    __arm_cp.5_2                             0x08001298   Number         4  setup.o(.text)
    __arm_cp.5_3                             0x0800129c   Number         4  setup.o(.text)
    __arm_cp.5_4                             0x080012a0   Number         4  setup.o(.text)
    __arm_cp.5_5                             0x080012a4   Number         4  setup.o(.text)
    __arm_cp.5_6                             0x080012a8   Number         4  setup.o(.text)
    __arm_cp.5_7                             0x080012ac   Number         4  setup.o(.text)
    __arm_cp.5_8                             0x080012b0   Number         4  setup.o(.text)
    __arm_cp.6_0                             0x080013e4   Number         4  setup.o(.text)
    __arm_cp.6_1                             0x080013e8   Number         4  setup.o(.text)
    __arm_cp.6_2                             0x080013ec   Number         4  setup.o(.text)
    __arm_cp.6_3                             0x080013f0   Number         4  setup.o(.text)
    __arm_cp.6_4                             0x080013f4   Number         4  setup.o(.text)
    __arm_cp.6_5                             0x080013f8   Number         4  setup.o(.text)
    __arm_cp.6_6                             0x080013fc   Number         4  setup.o(.text)
    __arm_cp.6_7                             0x08001400   Number         4  setup.o(.text)
    __arm_cp.6_8                             0x08001404   Number         4  setup.o(.text)
    __arm_cp.6_9                             0x08001408   Number         4  setup.o(.text)
    __arm_cp.7_0                             0x080014e0   Number         4  setup.o(.text)
    __arm_cp.7_1                             0x080014e4   Number         4  setup.o(.text)
    __arm_cp.7_2                             0x080014e8   Number         4  setup.o(.text)
    __arm_cp.16_0                            0x0800158c   Number         4  setup.o(.text)
    __arm_cp.16_1                            0x08001590   Number         4  setup.o(.text)
    __arm_cp.17_0                            0x080015c0   Number         4  setup.o(.text)
    __arm_cp.17_1                            0x080015c4   Number         4  setup.o(.text)
    __arm_cp.17_2                            0x080015c8   Number         4  setup.o(.text)
    __arm_cp.18_0                            0x0800160c   Number         4  setup.o(.text)
    __arm_cp.18_1                            0x08001610   Number         4  setup.o(.text)
    __arm_cp.18_2                            0x08001614   Number         4  setup.o(.text)
    __arm_cp.19_0                            0x0800163c   Number         4  setup.o(.text)
    __arm_cp.19_1                            0x08001640   Number         4  setup.o(.text)
    __arm_cp.19_2                            0x08001644   Number         4  setup.o(.text)
    __arm_cp.20_0                            0x0800166c   Number         4  setup.o(.text)
    __arm_cp.20_1                            0x08001670   Number         4  setup.o(.text)
    OUTLINED_FUNCTION_0                      0x08001675   Thumb Code     8  setup.o(.text)
    OUTLINED_FUNCTION_1                      0x0800167d   Thumb Code     8  setup.o(.text)
    OUTLINED_FUNCTION_2                      0x08001685   Thumb Code     8  setup.o(.text)
    OUTLINED_FUNCTION_3                      0x0800168d   Thumb Code     8  setup.o(.text)
    OUTLINED_FUNCTION_4                      0x08001695   Thumb Code    10  setup.o(.text)
    [Anonymous Symbol]                       0x080016a0   Section        0  it.o(.text)
    __arm_cp.0_0                             0x080016ac   Number         4  it.o(.text)
    __arm_cp.1_0                             0x080016b8   Number         4  it.o(.text)
    __arm_cp.2_0                             0x080016e8   Number         4  it.o(.text)
    __arm_cp.2_1                             0x080016ec   Number         4  it.o(.text)
    __arm_cp.2_2                             0x080016f0   Number         4  it.o(.text)
    __arm_cp.3_0                             0x08001740   Number         4  it.o(.text)
    __arm_cp.3_1                             0x08001744   Number         4  it.o(.text)
    __arm_cp.4_0                             0x08001784   Number         4  it.o(.text)
    __arm_cp.5_0                             0x08001790   Number         4  it.o(.text)
    __arm_cp.6_0                             0x080017a8   Number         4  it.o(.text)
    __arm_cp.15_0                            0x080017d8   Number         4  it.o(.text)
    __arm_cp.15_1                            0x080017dc   Number         4  it.o(.text)
    [Anonymous Symbol]                       0x080017e0   Section        0  remotedummy.o(.text)
    __arm_cp.1_2                             0x0800198c   Number         4  remotedummy.o(.text)
    __arm_cp.1_4                             0x080019a0   Number         4  remotedummy.o(.text)
    __arm_cp.1_5                             0x080019a4   Number         4  remotedummy.o(.text)
    __arm_cp.1_6                             0x080019a8   Number         4  remotedummy.o(.text)
    __arm_cp.1_7                             0x080019ac   Number         4  remotedummy.o(.text)
    __arm_cp.1_8                             0x080019b0   Number         4  remotedummy.o(.text)
    __arm_cp.1_10                            0x080019cc   Number         4  remotedummy.o(.text)
    __arm_cp.2_0                             0x08001a14   Number         4  remotedummy.o(.text)
    __arm_cp.3_0                             0x08001c38   Number         4  remotedummy.o(.text)
    __arm_cp.3_1                             0x08001c3c   Number         4  remotedummy.o(.text)
    __arm_cp.3_2                             0x08001c40   Number         4  remotedummy.o(.text)
    __arm_cp.3_3                             0x08001c44   Number         4  remotedummy.o(.text)
    __arm_cp.3_4                             0x08001c48   Number         4  remotedummy.o(.text)
    __arm_cp.3_5                             0x08001c4c   Number         4  remotedummy.o(.text)
    __arm_cp.3_7                             0x08001c60   Number         4  remotedummy.o(.text)
    __arm_cp.3_8                             0x08001c64   Number         4  remotedummy.o(.text)
    __arm_cp.3_9                             0x08001c68   Number         4  remotedummy.o(.text)
    __arm_cp.3_10                            0x08001c6c   Number         4  remotedummy.o(.text)
    __arm_cp.3_11                            0x08001c70   Number         4  remotedummy.o(.text)
    __arm_cp.3_12                            0x08001c74   Number         4  remotedummy.o(.text)
    __arm_cp.3_13                            0x08001c78   Number         4  remotedummy.o(.text)
    __arm_cp.3_14                            0x08001c7c   Number         4  remotedummy.o(.text)
    __arm_cp.3_15                            0x08001c80   Number         4  remotedummy.o(.text)
    __arm_cp.3_16                            0x08001c84   Number         4  remotedummy.o(.text)
    __arm_cp.3_17                            0x08001c88   Number         4  remotedummy.o(.text)
    __arm_cp.3_18                            0x08001c8c   Number         4  remotedummy.o(.text)
    __arm_cp.3_19                            0x08001c90   Number         4  remotedummy.o(.text)
    [Anonymous Symbol]                       0x08001cbc   Section        0  segger_rtt.o(.text)
    __arm_cp.0_0                             0x08001d24   Number         4  segger_rtt.o(.text)
    _DoInit                                  0x08001d29   Thumb Code    76  segger_rtt.o(.text)
    __arm_cp.1_0                             0x08001d74   Number         4  segger_rtt.o(.text)
    __arm_cp.1_1                             0x08001d78   Number         4  segger_rtt.o(.text)
    __arm_cp.1_2                             0x08001d7c   Number         4  segger_rtt.o(.text)
    __arm_cp.1_3                             0x08001d80   Number         4  segger_rtt.o(.text)
    _DoInit._aInitStr                        0x08001d84   Number         0  segger_rtt.o(.text)
    __arm_cp.2_0                             0x08001e00   Number         4  segger_rtt.o(.text)
    __arm_cp.5_0                             0x08001eb8   Number         4  segger_rtt.o(.text)
    __arm_cp.6_0                             0x08001f04   Number         4  segger_rtt.o(.text)
    _GetAvailWriteSpace                      0x08001f09   Thumb Code    20  segger_rtt.o(.text)
    _WriteNoCheck                            0x08001f1d   Thumb Code    64  segger_rtt.o(.text)
    _WriteBlocking                           0x08001f5d   Thumb Code    98  segger_rtt.o(.text)
    __arm_cp.10_0                            0x08002008   Number         4  segger_rtt.o(.text)
    __arm_cp.11_0                            0x0800203c   Number         4  segger_rtt.o(.text)
    __arm_cp.12_0                            0x08002070   Number         4  segger_rtt.o(.text)
    __arm_cp.14_0                            0x080020c0   Number         4  segger_rtt.o(.text)
    __arm_cp.15_0                            0x0800210c   Number         4  segger_rtt.o(.text)
    __arm_cp.16_0                            0x08002164   Number         4  segger_rtt.o(.text)
    __arm_cp.19_0                            0x080021b0   Number         4  segger_rtt.o(.text)
    __arm_cp.20_0                            0x080021c8   Number         4  segger_rtt.o(.text)
    __arm_cp.21_0                            0x080021e0   Number         4  segger_rtt.o(.text)
    __arm_cp.22_0                            0x08002240   Number         4  segger_rtt.o(.text)
    __arm_cp.23_0                            0x080022a0   Number         4  segger_rtt.o(.text)
    __arm_cp.24_0                            0x080022ec   Number         4  segger_rtt.o(.text)
    __arm_cp.25_0                            0x08002338   Number         4  segger_rtt.o(.text)
    __arm_cp.26_0                            0x08002374   Number         4  segger_rtt.o(.text)
    __arm_cp.27_0                            0x080023b0   Number         4  segger_rtt.o(.text)
    __arm_cp.28_0                            0x080023ec   Number         4  segger_rtt.o(.text)
    __arm_cp.29_0                            0x08002428   Number         4  segger_rtt.o(.text)
    __arm_cp.31_0                            0x080024ac   Number         4  segger_rtt.o(.text)
    __arm_cp.31_1                            0x080024b0   Number         4  segger_rtt.o(.text)
    __arm_cp.31_2                            0x080024b4   Number         4  segger_rtt.o(.text)
    __arm_cp.32_0                            0x0800254c   Number         4  segger_rtt.o(.text)
    __arm_cp.32_1                            0x08002550   Number         4  segger_rtt.o(.text)
    _PostTerminalSwitch                      0x08002555   Thumb Code    32  segger_rtt.o(.text)
    __arm_cp.33_0                            0x08002574   Number         4  segger_rtt.o(.text)
    __arm_cp.33_1                            0x08002578   Number         4  segger_rtt.o(.text)
    __arm_cp.34_0                            0x0800258c   Number         4  segger_rtt.o(.text)
    __arm_cp.35_0                            0x080025b0   Number         4  segger_rtt.o(.text)
    OUTLINED_FUNCTION_0                      0x080025b5   Thumb Code    14  segger_rtt.o(.text)
    OUTLINED_FUNCTION_1                      0x080025c3   Thumb Code    10  segger_rtt.o(.text)
    OUTLINED_FUNCTION_2                      0x080025cd   Thumb Code    14  segger_rtt.o(.text)
    OUTLINED_FUNCTION_3                      0x080025db   Thumb Code    12  segger_rtt.o(.text)
    OUTLINED_FUNCTION_4                      0x080025e7   Thumb Code    16  segger_rtt.o(.text)
    OUTLINED_FUNCTION_5                      0x080025f7   Thumb Code     8  segger_rtt.o(.text)
    OUTLINED_FUNCTION_6                      0x080025ff   Thumb Code     6  segger_rtt.o(.text)
    OUTLINED_FUNCTION_7                      0x08002605   Thumb Code    14  segger_rtt.o(.text)
    [Anonymous Symbol]                       0x08002614   Section        0  gd32f1x0_adc.o(.text)
    __arm_cp.1_0                             0x08002640   Number         4  gd32f1x0_adc.o(.text)
    __arm_cp.2_0                             0x08002650   Number         4  gd32f1x0_adc.o(.text)
    __arm_cp.3_0                             0x08002674   Number         4  gd32f1x0_adc.o(.text)
    __arm_cp.4_0                             0x08002684   Number         4  gd32f1x0_adc.o(.text)
    __arm_cp.5_0                             0x08002694   Number         4  gd32f1x0_adc.o(.text)
    __arm_cp.6_0                             0x080026a4   Number         4  gd32f1x0_adc.o(.text)
    __arm_cp.7_0                             0x080026b4   Number         4  gd32f1x0_adc.o(.text)
    __arm_cp.8_0                             0x080026c4   Number         4  gd32f1x0_adc.o(.text)
    __arm_cp.9_0                             0x080026d4   Number         4  gd32f1x0_adc.o(.text)
    __arm_cp.10_0                            0x08002714   Number         4  gd32f1x0_adc.o(.text)
    __arm_cp.11_0                            0x08002768   Number         4  gd32f1x0_adc.o(.text)
    __arm_cp.12_0                            0x08002780   Number         4  gd32f1x0_adc.o(.text)
    __arm_cp.13_0                            0x080027bc   Number         4  gd32f1x0_adc.o(.text)
    __arm_cp.14_0                            0x08002848   Number         4  gd32f1x0_adc.o(.text)
    __arm_cp.15_0                            0x080028a0   Number         4  gd32f1x0_adc.o(.text)
    __arm_cp.16_0                            0x080028c0   Number         4  gd32f1x0_adc.o(.text)
    __arm_cp.17_0                            0x080028fc   Number         4  gd32f1x0_adc.o(.text)
    __arm_cp.18_0                            0x08002924   Number         4  gd32f1x0_adc.o(.text)
    __arm_cp.19_0                            0x08002944   Number         4  gd32f1x0_adc.o(.text)
    __arm_cp.20_0                            0x08002950   Number         4  gd32f1x0_adc.o(.text)
    __arm_cp.21_0                            0x08002978   Number         4  gd32f1x0_adc.o(.text)
    __arm_cp.22_0                            0x08002988   Number         4  gd32f1x0_adc.o(.text)
    __arm_cp.23_0                            0x08002990   Number         4  gd32f1x0_adc.o(.text)
    __arm_cp.24_0                            0x080029c4   Number         4  gd32f1x0_adc.o(.text)
    __arm_cp.25_0                            0x080029cc   Number         4  gd32f1x0_adc.o(.text)
    __arm_cp.26_0                            0x080029f8   Number         4  gd32f1x0_adc.o(.text)
    __arm_cp.27_0                            0x08002a24   Number         4  gd32f1x0_adc.o(.text)
    __arm_cp.28_0                            0x08002a44   Number         4  gd32f1x0_adc.o(.text)
    __arm_cp.28_1                            0x08002a48   Number         4  gd32f1x0_adc.o(.text)
    __arm_cp.28_2                            0x08002a4c   Number         4  gd32f1x0_adc.o(.text)
    __arm_cp.29_0                            0x08002a70   Number         4  gd32f1x0_adc.o(.text)
    __arm_cp.29_1                            0x08002a74   Number         4  gd32f1x0_adc.o(.text)
    __arm_cp.30_0                            0x08002a90   Number         4  gd32f1x0_adc.o(.text)
    __arm_cp.30_1                            0x08002a94   Number         4  gd32f1x0_adc.o(.text)
    __arm_cp.31_0                            0x08002aa8   Number         4  gd32f1x0_adc.o(.text)
    OUTLINED_FUNCTION_0                      0x08002aad   Thumb Code    10  gd32f1x0_adc.o(.text)
    OUTLINED_FUNCTION_1                      0x08002ab7   Thumb Code    10  gd32f1x0_adc.o(.text)
    [Anonymous Symbol]                       0x08002ac0   Section        0  gd32f1x0_dma.o(.text)
    __arm_cp.0_0                             0x08002aec   Number         4  gd32f1x0_dma.o(.text)
    __arm_cp.2_0                             0x08002b78   Number         4  gd32f1x0_dma.o(.text)
    __arm_cp.3_0                             0x08002b8c   Number         4  gd32f1x0_dma.o(.text)
    __arm_cp.4_0                             0x08002ba0   Number         4  gd32f1x0_dma.o(.text)
    __arm_cp.5_0                             0x08002bb4   Number         4  gd32f1x0_dma.o(.text)
    __arm_cp.6_0                             0x08002bc8   Number         4  gd32f1x0_dma.o(.text)
    __arm_cp.7_0                             0x08002bdc   Number         4  gd32f1x0_dma.o(.text)
    __arm_cp.8_0                             0x08002bf0   Number         4  gd32f1x0_dma.o(.text)
    __arm_cp.9_0                             0x08002bf8   Number         4  gd32f1x0_dma.o(.text)
    __arm_cp.10_0                            0x08002c00   Number         4  gd32f1x0_dma.o(.text)
    __arm_cp.11_0                            0x08002c08   Number         4  gd32f1x0_dma.o(.text)
    __arm_cp.12_0                            0x08002c18   Number         4  gd32f1x0_dma.o(.text)
    __arm_cp.13_0                            0x08002c2c   Number         4  gd32f1x0_dma.o(.text)
    __arm_cp.14_0                            0x08002c40   Number         4  gd32f1x0_dma.o(.text)
    __arm_cp.15_0                            0x08002c54   Number         4  gd32f1x0_dma.o(.text)
    __arm_cp.16_0                            0x08002c68   Number         4  gd32f1x0_dma.o(.text)
    __arm_cp.17_0                            0x08002c7c   Number         4  gd32f1x0_dma.o(.text)
    __arm_cp.18_0                            0x08002c90   Number         4  gd32f1x0_dma.o(.text)
    __arm_cp.19_0                            0x08002ca4   Number         4  gd32f1x0_dma.o(.text)
    __arm_cp.20_0                            0x08002cc4   Number         4  gd32f1x0_dma.o(.text)
    __arm_cp.21_1                            0x08002d30   Number         4  gd32f1x0_dma.o(.text)
    __arm_cp.22_0                            0x08002d64   Number         4  gd32f1x0_dma.o(.text)
    __arm_cp.23_0                            0x08002d74   Number         4  gd32f1x0_dma.o(.text)
    __arm_cp.24_0                            0x08002d8c   Number         4  gd32f1x0_dma.o(.text)
    __arm_cp.25_0                            0x08002da4   Number         4  gd32f1x0_dma.o(.text)
    __arm_cp.26_0                            0x08002db8   Number         4  gd32f1x0_dma.o(.text)
    OUTLINED_FUNCTION_0                      0x08002dbd   Thumb Code    10  gd32f1x0_dma.o(.text)
    OUTLINED_FUNCTION_1                      0x08002dc7   Thumb Code     8  gd32f1x0_dma.o(.text)
    OUTLINED_FUNCTION_2                      0x08002dcf   Thumb Code     6  gd32f1x0_dma.o(.text)
    [Anonymous Symbol]                       0x08002dd4   Section        0  gd32f1x0_exti.o(.text)
    __arm_cp.0_0                             0x08002de8   Number         4  gd32f1x0_exti.o(.text)
    __arm_cp.1_0                             0x08002e48   Number         4  gd32f1x0_exti.o(.text)
    __arm_cp.2_0                             0x08002e50   Number         4  gd32f1x0_exti.o(.text)
    __arm_cp.3_0                             0x08002e58   Number         4  gd32f1x0_exti.o(.text)
    __arm_cp.4_0                             0x08002e60   Number         4  gd32f1x0_exti.o(.text)
    __arm_cp.5_0                             0x08002e68   Number         4  gd32f1x0_exti.o(.text)
    __arm_cp.6_0                             0x08002e78   Number         4  gd32f1x0_exti.o(.text)
    __arm_cp.7_0                             0x08002e84   Number         4  gd32f1x0_exti.o(.text)
    __arm_cp.8_0                             0x08002ea0   Number         4  gd32f1x0_exti.o(.text)
    __arm_cp.9_0                             0x08002eac   Number         4  gd32f1x0_exti.o(.text)
    __arm_cp.10_0                            0x08002eb4   Number         4  gd32f1x0_exti.o(.text)
    __arm_cp.11_0                            0x08002ebc   Number         4  gd32f1x0_exti.o(.text)
    OUTLINED_FUNCTION_0                      0x08002ec1   Thumb Code    10  gd32f1x0_exti.o(.text)
    OUTLINED_FUNCTION_1                      0x08002ecb   Thumb Code     8  gd32f1x0_exti.o(.text)
    [Anonymous Symbol]                       0x08002ed4   Section        0  gd32f1x0_fmc.o(.text)
    __arm_cp.0_0                             0x08002ee8   Number         4  gd32f1x0_fmc.o(.text)
    __arm_cp.0_1                             0x08002eec   Number         4  gd32f1x0_fmc.o(.text)
    __arm_cp.0_2                             0x08002ef0   Number         4  gd32f1x0_fmc.o(.text)
    __arm_cp.1_0                             0x08002f00   Number         4  gd32f1x0_fmc.o(.text)
    __arm_cp.2_0                             0x08002f14   Number         4  gd32f1x0_fmc.o(.text)
    __arm_cp.3_0                             0x08002f24   Number         4  gd32f1x0_fmc.o(.text)
    __arm_cp.4_0                             0x08002f34   Number         4  gd32f1x0_fmc.o(.text)
    __arm_cp.5_0                             0x08002f68   Number         4  gd32f1x0_fmc.o(.text)
    fmc_ready_wait                           0x08002f6d   Thumb Code    52  gd32f1x0_fmc.o(.text)
    __arm_cp.6_0                             0x08002fa0   Number         4  gd32f1x0_fmc.o(.text)
    __arm_cp.6_1                             0x08002fa4   Number         4  gd32f1x0_fmc.o(.text)
    __arm_cp.7_0                             0x08002fd4   Number         4  gd32f1x0_fmc.o(.text)
    __arm_cp.8_0                             0x08002ff8   Number         4  gd32f1x0_fmc.o(.text)
    __arm_cp.9_0                             0x0800301c   Number         4  gd32f1x0_fmc.o(.text)
    __arm_cp.10_0                            0x08003034   Number         4  gd32f1x0_fmc.o(.text)
    __arm_cp.10_1                            0x08003038   Number         4  gd32f1x0_fmc.o(.text)
    __arm_cp.10_2                            0x0800303c   Number         4  gd32f1x0_fmc.o(.text)
    __arm_cp.11_0                            0x0800304c   Number         4  gd32f1x0_fmc.o(.text)
    __arm_cp.12_0                            0x0800305c   Number         4  gd32f1x0_fmc.o(.text)
    __arm_cp.13_0                            0x080030b8   Number         4  gd32f1x0_fmc.o(.text)
    __arm_cp.13_1                            0x080030bc   Number         4  gd32f1x0_fmc.o(.text)
    __arm_cp.14_0                            0x080030cc   Number         4  gd32f1x0_fmc.o(.text)
    __arm_cp.15_0                            0x0800311c   Number         4  gd32f1x0_fmc.o(.text)
    __arm_cp.15_1                            0x08003120   Number         4  gd32f1x0_fmc.o(.text)
    __arm_cp.16_0                            0x08003168   Number         4  gd32f1x0_fmc.o(.text)
    __arm_cp.16_1                            0x0800316c   Number         4  gd32f1x0_fmc.o(.text)
    __arm_cp.17_0                            0x080031b8   Number         4  gd32f1x0_fmc.o(.text)
    __arm_cp.17_1                            0x080031bc   Number         4  gd32f1x0_fmc.o(.text)
    __arm_cp.18_0                            0x08003204   Number         4  gd32f1x0_fmc.o(.text)
    __arm_cp.18_1                            0x08003208   Number         4  gd32f1x0_fmc.o(.text)
    __arm_cp.19_0                            0x08003218   Number         4  gd32f1x0_fmc.o(.text)
    __arm_cp.20_0                            0x08003224   Number         4  gd32f1x0_fmc.o(.text)
    __arm_cp.21_0                            0x08003230   Number         4  gd32f1x0_fmc.o(.text)
    __arm_cp.22_0                            0x08003238   Number         4  gd32f1x0_fmc.o(.text)
    __arm_cp.23_0                            0x08003248   Number         4  gd32f1x0_fmc.o(.text)
    __arm_cp.24_0                            0x08003258   Number         4  gd32f1x0_fmc.o(.text)
    __arm_cp.25_0                            0x08003260   Number         4  gd32f1x0_fmc.o(.text)
    __arm_cp.26_0                            0x08003270   Number         4  gd32f1x0_fmc.o(.text)
    __arm_cp.27_0                            0x08003278   Number         4  gd32f1x0_fmc.o(.text)
    OUTLINED_FUNCTION_0                      0x0800327d   Thumb Code    18  gd32f1x0_fmc.o(.text)
    OUTLINED_FUNCTION_1                      0x0800328f   Thumb Code    10  gd32f1x0_fmc.o(.text)
    OUTLINED_FUNCTION_2                      0x08003299   Thumb Code    10  gd32f1x0_fmc.o(.text)
    OUTLINED_FUNCTION_3                      0x080032a3   Thumb Code    12  gd32f1x0_fmc.o(.text)
    OUTLINED_FUNCTION_4                      0x080032af   Thumb Code    12  gd32f1x0_fmc.o(.text)
    OUTLINED_FUNCTION_5                      0x080032bb   Thumb Code     6  gd32f1x0_fmc.o(.text)
    OUTLINED_FUNCTION_6                      0x080032c1   Thumb Code    10  gd32f1x0_fmc.o(.text)
    OUTLINED_FUNCTION_7                      0x080032cb   Thumb Code     8  gd32f1x0_fmc.o(.text)
    OUTLINED_FUNCTION_8                      0x080032d3   Thumb Code    10  gd32f1x0_fmc.o(.text)
    [Anonymous Symbol]                       0x080032dc   Section        0  gd32f1x0_fwdgt.o(.text)
    __arm_cp.0_0                             0x080032e4   Number         4  gd32f1x0_fwdgt.o(.text)
    __arm_cp.1_0                             0x080032f4   Number         4  gd32f1x0_fwdgt.o(.text)
    __arm_cp.2_0                             0x08003304   Number         4  gd32f1x0_fwdgt.o(.text)
    __arm_cp.3_0                             0x08003330   Number         4  gd32f1x0_fwdgt.o(.text)
    __arm_cp.3_1                             0x08003334   Number         4  gd32f1x0_fwdgt.o(.text)
    __arm_cp.4_0                             0x0800337c   Number         4  gd32f1x0_fwdgt.o(.text)
    __arm_cp.4_1                             0x08003380   Number         4  gd32f1x0_fwdgt.o(.text)
    __arm_cp.5_0                             0x08003390   Number         4  gd32f1x0_fwdgt.o(.text)
    [Anonymous Symbol]                       0x08003394   Section        0  gd32f1x0_gpio.o(.text)
    [Anonymous Symbol]                       0x08003504   Section        0  gd32f1x0_misc.o(.text)
    __arm_cp.0_0                             0x08003510   Number         4  gd32f1x0_misc.o(.text)
    __arm_cp.0_1                             0x08003514   Number         4  gd32f1x0_misc.o(.text)
    __arm_cp.1_0                             0x080035a4   Number         4  gd32f1x0_misc.o(.text)
    __arm_cp.1_1                             0x080035a8   Number         4  gd32f1x0_misc.o(.text)
    __arm_cp.2_0                             0x080035c4   Number         4  gd32f1x0_misc.o(.text)
    __arm_cp.3_0                             0x080035d4   Number         4  gd32f1x0_misc.o(.text)
    __arm_cp.3_1                             0x080035d8   Number         4  gd32f1x0_misc.o(.text)
    __arm_cp.4_0                             0x080035e8   Number         4  gd32f1x0_misc.o(.text)
    __arm_cp.5_0                             0x080035f8   Number         4  gd32f1x0_misc.o(.text)
    __arm_cp.6_0                             0x08003610   Number         4  gd32f1x0_misc.o(.text)
    [Anonymous Symbol]                       0x08003614   Section        0  gd32f1x0_rcu.o(.text)
    __arm_cp.0_0                             0x08003664   Number         4  gd32f1x0_rcu.o(.text)
    __arm_cp.0_1                             0x08003668   Number         4  gd32f1x0_rcu.o(.text)
    __arm_cp.0_2                             0x0800366c   Number         4  gd32f1x0_rcu.o(.text)
    __arm_cp.0_3                             0x08003670   Number         4  gd32f1x0_rcu.o(.text)
    __arm_cp.1_0                             0x08003680   Number         4  gd32f1x0_rcu.o(.text)
    __arm_cp.2_0                             0x08003690   Number         4  gd32f1x0_rcu.o(.text)
    __arm_cp.3_0                             0x080036a0   Number         4  gd32f1x0_rcu.o(.text)
    __arm_cp.4_0                             0x080036b0   Number         4  gd32f1x0_rcu.o(.text)
    __arm_cp.5_0                             0x080036c0   Number         4  gd32f1x0_rcu.o(.text)
    __arm_cp.6_0                             0x080036d0   Number         4  gd32f1x0_rcu.o(.text)
    __arm_cp.7_0                             0x080036e0   Number         4  gd32f1x0_rcu.o(.text)
    __arm_cp.8_0                             0x080036f0   Number         4  gd32f1x0_rcu.o(.text)
    __arm_cp.9_0                             0x08003700   Number         4  gd32f1x0_rcu.o(.text)
    __arm_cp.10_0                            0x08003710   Number         4  gd32f1x0_rcu.o(.text)
    __arm_cp.11_0                            0x08003720   Number         4  gd32f1x0_rcu.o(.text)
    __arm_cp.12_0                            0x08003730   Number         4  gd32f1x0_rcu.o(.text)
    __arm_cp.13_0                            0x08003740   Number         4  gd32f1x0_rcu.o(.text)
    __arm_cp.14_0                            0x08003794   Number         4  gd32f1x0_rcu.o(.text)
    __arm_cp.15_0                            0x080037a4   Number         4  gd32f1x0_rcu.o(.text)
    __arm_cp.16_0                            0x080037b4   Number         4  gd32f1x0_rcu.o(.text)
    __arm_cp.17_0                            0x080037d0   Number         4  gd32f1x0_rcu.o(.text)
    __arm_cp.17_1                            0x080037d4   Number         4  gd32f1x0_rcu.o(.text)
    __arm_cp.18_0                            0x080037e4   Number         4  gd32f1x0_rcu.o(.text)
    __arm_cp.19_0                            0x080037f4   Number         4  gd32f1x0_rcu.o(.text)
    __arm_cp.20_0                            0x08003804   Number         4  gd32f1x0_rcu.o(.text)
    __arm_cp.21_0                            0x08003814   Number         4  gd32f1x0_rcu.o(.text)
    __arm_cp.22_0                            0x08003824   Number         4  gd32f1x0_rcu.o(.text)
    __arm_cp.23_0                            0x0800383c   Number         4  gd32f1x0_rcu.o(.text)
    __arm_cp.24_0                            0x0800384c   Number         4  gd32f1x0_rcu.o(.text)
    __arm_cp.25_0                            0x0800385c   Number         4  gd32f1x0_rcu.o(.text)
    __arm_cp.26_0                            0x08003868   Number         4  gd32f1x0_rcu.o(.text)
    __arm_cp.27_0                            0x08003874   Number         4  gd32f1x0_rcu.o(.text)
    __arm_cp.28_0                            0x08003884   Number         4  gd32f1x0_rcu.o(.text)
    __arm_cp.29_0                            0x08003948   Number         4  gd32f1x0_rcu.o(.text)
    __arm_cp.29_1                            0x0800394c   Number         4  gd32f1x0_rcu.o(.text)
    __arm_cp.30_0                            0x0800395c   Number         4  gd32f1x0_rcu.o(.text)
    __arm_cp.31_0                            0x0800396c   Number         4  gd32f1x0_rcu.o(.text)
    __arm_cp.32_0                            0x080039a4   Number         4  gd32f1x0_rcu.o(.text)
    __arm_cp.33_0                            0x080039dc   Number         4  gd32f1x0_rcu.o(.text)
    __arm_cp.34_0                            0x080039ec   Number         4  gd32f1x0_rcu.o(.text)
    __arm_cp.35_0                            0x080039fc   Number         4  gd32f1x0_rcu.o(.text)
    __arm_cp.36_0                            0x08003a04   Number         4  gd32f1x0_rcu.o(.text)
    __arm_cp.37_0                            0x08003a0c   Number         4  gd32f1x0_rcu.o(.text)
    __arm_cp.38_0                            0x08003a24   Number         4  gd32f1x0_rcu.o(.text)
    __arm_cp.38_1                            0x08003a28   Number         4  gd32f1x0_rcu.o(.text)
    __arm_cp.39_0                            0x08003a38   Number         4  gd32f1x0_rcu.o(.text)
    __arm_cp.40_0                            0x08003a48   Number         4  gd32f1x0_rcu.o(.text)
    __arm_cp.41_0                            0x08003b44   Number         4  gd32f1x0_rcu.o(.text)
    __arm_cp.41_1                            0x08003b48   Number         4  gd32f1x0_rcu.o(.text)
    __arm_cp.41_2                            0x08003b4c   Number         4  gd32f1x0_rcu.o(.text)
    __arm_cp.41_4                            0x08003b60   Number         4  gd32f1x0_rcu.o(.text)
    __arm_cp.41_5                            0x08003b64   Number         4  gd32f1x0_rcu.o(.text)
    OUTLINED_FUNCTION_0                      0x08003b69   Thumb Code    10  gd32f1x0_rcu.o(.text)
    OUTLINED_FUNCTION_1                      0x08003b73   Thumb Code    14  gd32f1x0_rcu.o(.text)
    OUTLINED_FUNCTION_2                      0x08003b81   Thumb Code    10  gd32f1x0_rcu.o(.text)
    OUTLINED_FUNCTION_3                      0x08003b8b   Thumb Code     6  gd32f1x0_rcu.o(.text)
    OUTLINED_FUNCTION_4                      0x08003b91   Thumb Code     8  gd32f1x0_rcu.o(.text)
    OUTLINED_FUNCTION_5                      0x08003b99   Thumb Code    14  gd32f1x0_rcu.o(.text)
    OUTLINED_FUNCTION_6                      0x08003ba7   Thumb Code    14  gd32f1x0_rcu.o(.text)
    [Anonymous Symbol]                       0x08003bb4   Section        0  gd32f1x0_syscfg.o(.text)
    __arm_cp.1_0                             0x08003bd0   Number         4  gd32f1x0_syscfg.o(.text)
    __arm_cp.2_0                             0x08003be0   Number         4  gd32f1x0_syscfg.o(.text)
    __arm_cp.3_0                             0x08003bf0   Number         4  gd32f1x0_syscfg.o(.text)
    __arm_cp.4_0                             0x08003c00   Number         4  gd32f1x0_syscfg.o(.text)
    __arm_cp.5_0                             0x08003c44   Number         4  gd32f1x0_syscfg.o(.text)
    __arm_cp.6_0                             0x08003c4c   Number         4  gd32f1x0_syscfg.o(.text)
    __arm_cp.7_0                             0x08003c5c   Number         4  gd32f1x0_syscfg.o(.text)
    __arm_cp.8_0                             0x08003c64   Number         4  gd32f1x0_syscfg.o(.text)
    OUTLINED_FUNCTION_0                      0x08003c69   Thumb Code     8  gd32f1x0_syscfg.o(.text)
    [Anonymous Symbol]                       0x08003c70   Section        0  gd32f1x0_timer.o(.text)
    __arm_cp.0_0                             0x08003ce4   Number         4  gd32f1x0_timer.o(.text)
    __arm_cp.0_1                             0x08003ce8   Number         4  gd32f1x0_timer.o(.text)
    __arm_cp.0_2                             0x08003cec   Number         4  gd32f1x0_timer.o(.text)
    __arm_cp.0_3                             0x08003cf0   Number         4  gd32f1x0_timer.o(.text)
    __arm_cp.0_4                             0x08003cf4   Number         4  gd32f1x0_timer.o(.text)
    __arm_cp.0_5                             0x08003cf8   Number         4  gd32f1x0_timer.o(.text)
    __arm_cp.0_6                             0x08003cfc   Number         4  gd32f1x0_timer.o(.text)
    __arm_cp.2_0                             0x08003db8   Number         4  gd32f1x0_timer.o(.text)
    __arm_cp.2_1                             0x08003dbc   Number         4  gd32f1x0_timer.o(.text)
    __arm_cp.2_2                             0x08003dc0   Number         4  gd32f1x0_timer.o(.text)
    __arm_cp.2_3                             0x08003dc4   Number         4  gd32f1x0_timer.o(.text)
    __arm_cp.2_4                             0x08003dc8   Number         4  gd32f1x0_timer.o(.text)
    __arm_cp.2_5                             0x08003dcc   Number         4  gd32f1x0_timer.o(.text)
    __arm_cp.42_0                            0x080041a4   Number         4  gd32f1x0_timer.o(.text)
    __arm_cp.42_1                            0x080041a8   Number         4  gd32f1x0_timer.o(.text)
    __arm_cp.42_2                            0x080041ac   Number         4  gd32f1x0_timer.o(.text)
    __arm_cp.42_3                            0x080041b0   Number         4  gd32f1x0_timer.o(.text)
    __arm_cp.42_4                            0x080041b4   Number         4  gd32f1x0_timer.o(.text)
    OUTLINED_FUNCTION_0                      0x080047c5   Thumb Code    32  gd32f1x0_timer.o(.text)
    OUTLINED_FUNCTION_1                      0x080047e5   Thumb Code    10  gd32f1x0_timer.o(.text)
    OUTLINED_FUNCTION_2                      0x080047ef   Thumb Code    10  gd32f1x0_timer.o(.text)
    .text                                    0x080047f8   Section       36  startup_gd32f1x0.o(.text)
    [Anonymous Symbol]                       0x0800481c   Section        0  system_gd32f1x0.o(.text)
    __arm_cp.0_0                             0x080048c0   Number         4  system_gd32f1x0.o(.text)
    __arm_cp.0_1                             0x080048c4   Number         4  system_gd32f1x0.o(.text)
    __arm_cp.0_2                             0x080048c8   Number         4  system_gd32f1x0.o(.text)
    __arm_cp.0_3                             0x080048cc   Number         4  system_gd32f1x0.o(.text)
    __arm_cp.0_4                             0x080048d0   Number         4  system_gd32f1x0.o(.text)
    __arm_cp.1_0                             0x08004924   Number         4  system_gd32f1x0.o(.text)
    __arm_cp.1_1                             0x08004928   Number         4  system_gd32f1x0.o(.text)
    __arm_cp.1_2                             0x0800492c   Number         4  system_gd32f1x0.o(.text)
    __arm_cp.1_3                             0x08004930   Number         4  system_gd32f1x0.o(.text)
    .text                                    0x08004944   Section        0  memcpya.o(.text)
    .text                                    0x08004968   Section        0  memseta.o(.text)
    .text                                    0x0800498c   Section        0  strlen.o(.text)
    .text                                    0x0800499a   Section        0  strcmp.o(.text)
    .text                                    0x080049b6   Section        0  memcmp.o(.text)
    .text                                    0x080049d0   Section        0  fadd.o(.text)
    .text                                    0x08004a80   Section        0  fmul.o(.text)
    .text                                    0x08004ae4   Section        0  fdiv.o(.text)
    .text                                    0x08004b60   Section        0  dadd.o(.text)
    .text                                    0x08004cae   Section        0  dmul.o(.text)
    .text                                    0x08004d92   Section        0  ddiv.o(.text)
    .text                                    0x08004e70   Section        0  fcmple.o(.text)
    .text                                    0x08004e8c   Section        0  fcmplt.o(.text)
    .text                                    0x08004ea8   Section        0  fcmpgt.o(.text)
    .text                                    0x08004ec4   Section        0  fflti.o(.text)
    .text                                    0x08004ed6   Section        0  ffltui.o(.text)
    .text                                    0x08004ee0   Section        0  dflti.o(.text)
    .text                                    0x08004f02   Section        0  dfltui.o(.text)
    .text                                    0x08004f1c   Section        0  ffixi.o(.text)
    .text                                    0x08004f4e   Section        0  ffixl.o(.text)
    .text                                    0x08004f90   Section        0  dfixi.o(.text)
    .text                                    0x08004fce   Section        0  f2d.o(.text)
    .text                                    0x08004ff4   Section        0  d2f.o(.text)
    .text                                    0x0800502c   Section        0  uidiv.o(.text)
    .text                                    0x08005058   Section        0  uldiv.o(.text)
    .text                                    0x080050ba   Section        0  llshl.o(.text)
    .text                                    0x080050d8   Section        0  llushr.o(.text)
    .text                                    0x080050f8   Section        0  llsshr.o(.text)
    .text                                    0x0800511c   Section        0  strtof.o(.text)
    .text                                    0x08005124   Section        0  iusefp.o(.text)
    .text                                    0x08005124   Section        0  fepilogue.o(.text)
    .text                                    0x08005192   Section        0  depilogue.o(.text)
    .text                                    0x0800524c   Section        0  dfixul.o(.text)
    .text                                    0x0800527c   Section       48  cdrcmple.o(.text)
    .text                                    0x080052ac   Section       48  init.o(.text)
    _local_sscanf                            0x080052dd   Thumb Code    62  strtod.o(.text)
    .text                                    0x080052dc   Section        0  strtod.o(.text)
    .text                                    0x08005384   Section        0  isspace_c.o(.text)
    _fp_value                                0x08005391   Thumb Code   296  scanf_fp.o(.text)
    .text                                    0x08005390   Section        0  scanf_fp.o(.text)
    .text                                    0x080056f0   Section        0  _sgetc.o(.text)
    .text                                    0x08005730   Section        0  ctype_c.o(.text)
    .text                                    0x08005758   Section        0  dfltul.o(.text)
    i.__0sprintf                             0x08005770   Section        0  printfa.o(i.__0sprintf)
    i.__scatterload_copy                     0x08005798   Section       14  handlers.o(i.__scatterload_copy)
    i.__scatterload_null                     0x080057a6   Section        2  handlers.o(i.__scatterload_null)
    i.__scatterload_zeroinit                 0x080057a8   Section       14  handlers.o(i.__scatterload_zeroinit)
    _fp_digits                               0x080057b9   Thumb Code   366  printfa.o(i._fp_digits)
    i._fp_digits                             0x080057b8   Section        0  printfa.o(i._fp_digits)
    i._is_digit                              0x0800593c   Section        0  scanf_fp.o(i._is_digit)
    _printf_core                             0x0800594d   Thumb Code  1744  printfa.o(i._printf_core)
    i._printf_core                           0x0800594c   Section        0  printfa.o(i._printf_core)
    _printf_post_padding                     0x08006029   Thumb Code    36  printfa.o(i._printf_post_padding)
    i._printf_post_padding                   0x08006028   Section        0  printfa.o(i._printf_post_padding)
    _printf_pre_padding                      0x0800604d   Thumb Code    46  printfa.o(i._printf_pre_padding)
    i._printf_pre_padding                    0x0800604c   Section        0  printfa.o(i._printf_pre_padding)
    _sputc                                   0x0800607b   Thumb Code    10  printfa.o(i._sputc)
    i._sputc                                 0x0800607a   Section        0  printfa.o(i._sputc)
    i.strtof                                 0x08006084   Section        0  strtof.o(i.strtof)
    .constdata                               0x08006098   Section       64  ctype_c.o(.constdata)
    [Anonymous Symbol]                       0x080060d8   Section        0  bldc.o(.rodata..L__const.up_or_down.up_down)
    _aTerminalId                             0x080060e4   Data          16  segger_rtt.o(.rodata.cst16)
    [Anonymous Symbol]                       0x080060e4   Section        0  segger_rtt.o(.rodata.cst16)
    hall_to_sector                           0x080060f4   Data           8  bldcsine.o(.rodata.cst8)
    [Anonymous Symbol]                       0x080060f4   Section        0  bldcsine.o(.rodata.cst8)
    [Anonymous Symbol]                       0x080060fc   Section        0  gd32f1x0_rcu.o(.rodata.cst8)
    sine_table                               0x080063e0   Data         720  bldcsine.o(.rodata.sine_table)
    [Anonymous Symbol]                       0x080063e0   Section        0  bldcsine.o(.rodata.sine_table)
    [Anonymous Symbol]                       0x080066b0   Section        0  remotedummy.o(.rodata.str1.1)
    [Anonymous Symbol]                       0x080066f2   Section        0  segger_rtt.o(.rodata.str1.1)
    [Anonymous Symbol]                       0x20000000   Section        0  main.o(.data..L_MergedGlobals)
    [Anonymous Symbol]                       0x20000004   Section        0  bldc.o(.data..L_MergedGlobals)
    [Anonymous Symbol]                       0x20000014   Section        0  driver.o(.data..L_MergedGlobals)
    [Anonymous Symbol]                       0x2000006c   Section        0  remotedummy.o(.data..L_MergedGlobals)
    [Anonymous Symbol]                       0x20000078   Section        0  bldcsine.o(.bss..L_MergedGlobals)
    [Anonymous Symbol]                       0x200000a8   Section        0  setup.o(.bss..L_MergedGlobals)
    [Anonymous Symbol]                       0x200000e8   Section        0  it.o(.bss..L_MergedGlobals)
    TIMER0_BRK_UP_TRG_COM_IRQHandler.interrupt_toggle 0x200000e9   Data           1  it.o(.bss..L_MergedGlobals)
    [Anonymous Symbol]                       0x2000010c   Section        0  main.o(.bss..L_MergedGlobals.1)
    [Anonymous Symbol]                       0x20000130   Section        0  bldc.o(.bss..L_MergedGlobals.1)
    [Anonymous Symbol]                       0x20000190   Section        0  driver.o(.bss..L_MergedGlobals.1)
    [Anonymous Symbol]                       0x200001c4   Section        0  remotedummy.o(.bss..L_MergedGlobals.7)
    buffer_index                             0x200001d0   Data           4  remotedummy.o(.bss..L_MergedGlobals.7)
    message_buffer                           0x200001d8   Data          64  remotedummy.o(.bss..L_MergedGlobals.7)
    _ActiveTerminal                          0x20000218   Data           1  segger_rtt.o(.bss._ActiveTerminal)
    [Anonymous Symbol]                       0x20000218   Section        0  segger_rtt.o(.bss._ActiveTerminal)
    _acDownBuffer                            0x200002c4   Data          16  segger_rtt.o(.bss._acDownBuffer)
    [Anonymous Symbol]                       0x200002c4   Section        0  segger_rtt.o(.bss._acDownBuffer)
    _acUpBuffer                              0x200002d4   Data        1024  segger_rtt.o(.bss._acUpBuffer)
    [Anonymous Symbol]                       0x200002d4   Section        0  segger_rtt.o(.bss._acUpBuffer)
    STACK                                    0x200009a8   Section     1024  startup_gd32f1x0.o(STACK)

    Global Symbols

    Symbol Name                              Value     Ov Type        Size  Object(Section)

    BuildAttributes$$THM_ISAv4$P$D$K$B$S$PE$A:L22UL41UL21$X:L11$S22US41US21$IEEE1$IW$~IW$USESV6$~STKCKD$USESV7$~SHL$OTIME$ROPI$IEEEJ$EBA8$MICROLIB$REQ8$PRES8$EABIv2 0x00000000   Number         0  anon$$obj.o ABSOLUTE
    _printf_a                                0x00000000   Number         0  printfstubs.o ABSOLUTE
    _printf_c                                0x00000000   Number         0  printfstubs.o ABSOLUTE
    _printf_charcount                        0x00000000   Number         0  printfstubs.o ABSOLUTE
    _printf_d                                0x00000000   Number         0  printfstubs.o ABSOLUTE
    _printf_e                                0x00000000   Number         0  printfstubs.o ABSOLUTE
    _printf_f                                0x00000000   Number         0  printfstubs.o ABSOLUTE
    _printf_flags                            0x00000000   Number         0  printfstubs.o ABSOLUTE
    _printf_fp_dec                           0x00000000   Number         0  printfstubs.o ABSOLUTE
    _printf_fp_hex                           0x00000000   Number         0  printfstubs.o ABSOLUTE
    _printf_g                                0x00000000   Number         0  printfstubs.o ABSOLUTE
    _printf_i                                0x00000000   Number         0  printfstubs.o ABSOLUTE
    _printf_int_dec                          0x00000000   Number         0  printfstubs.o ABSOLUTE
    _printf_l                                0x00000000   Number         0  printfstubs.o ABSOLUTE
    _printf_lc                               0x00000000   Number         0  printfstubs.o ABSOLUTE
    _printf_ll                               0x00000000   Number         0  printfstubs.o ABSOLUTE
    _printf_lld                              0x00000000   Number         0  printfstubs.o ABSOLUTE
    _printf_lli                              0x00000000   Number         0  printfstubs.o ABSOLUTE
    _printf_llo                              0x00000000   Number         0  printfstubs.o ABSOLUTE
    _printf_llu                              0x00000000   Number         0  printfstubs.o ABSOLUTE
    _printf_llx                              0x00000000   Number         0  printfstubs.o ABSOLUTE
    _printf_longlong_dec                     0x00000000   Number         0  printfstubs.o ABSOLUTE
    _printf_longlong_hex                     0x00000000   Number         0  printfstubs.o ABSOLUTE
    _printf_longlong_oct                     0x00000000   Number         0  printfstubs.o ABSOLUTE
    _printf_ls                               0x00000000   Number         0  printfstubs.o ABSOLUTE
    _printf_mbtowc                           0x00000000   Number         0  printfstubs.o ABSOLUTE
    _printf_n                                0x00000000   Number         0  printfstubs.o ABSOLUTE
    _printf_o                                0x00000000   Number         0  printfstubs.o ABSOLUTE
    _printf_p                                0x00000000   Number         0  printfstubs.o ABSOLUTE
    _printf_percent                          0x00000000   Number         0  printfstubs.o ABSOLUTE
    _printf_pre_padding                      0x00000000   Number         0  printfstubs.o ABSOLUTE
    _printf_return_value                     0x00000000   Number         0  printfstubs.o ABSOLUTE
    _printf_s                                0x00000000   Number         0  printfstubs.o ABSOLUTE
    _printf_sizespec                         0x00000000   Number         0  printfstubs.o ABSOLUTE
    _printf_str                              0x00000000   Number         0  printfstubs.o ABSOLUTE
    _printf_truncate_signed                  0x00000000   Number         0  printfstubs.o ABSOLUTE
    _printf_truncate_unsigned                0x00000000   Number         0  printfstubs.o ABSOLUTE
    _printf_u                                0x00000000   Number         0  printfstubs.o ABSOLUTE
    _printf_wc                               0x00000000   Number         0  printfstubs.o ABSOLUTE
    _printf_wctomb                           0x00000000   Number         0  printfstubs.o ABSOLUTE
    _printf_widthprec                        0x00000000   Number         0  printfstubs.o ABSOLUTE
    _printf_x                                0x00000000   Number         0  printfstubs.o ABSOLUTE
    __cpp_initialize__aeabi_                  - Undefined Weak Reference
    __cxa_finalize                            - Undefined Weak Reference
    __decompress                              - Undefined Weak Reference
    _clock_init                               - Undefined Weak Reference
    _microlib_exit                            - Undefined Weak Reference
    __Vectors_Size                           0x00000168   Number         0  startup_gd32f1x0.o ABSOLUTE
    __Vectors                                0x08000000   Data           4  startup_gd32f1x0.o(RESET)
    __Vectors_End                            0x08000168   Data           0  startup_gd32f1x0.o(RESET)
    __main                                   0x08000169   Thumb Code     0  entry.o(.ARM.Collect$$$$00000000)
    _main_stk                                0x08000169   Thumb Code     0  entry2.o(.ARM.Collect$$$$00000001)
    _main_scatterload                        0x0800016d   Thumb Code     0  entry5.o(.ARM.Collect$$$$00000004)
    __main_after_scatterload                 0x08000171   Thumb Code     0  entry5.o(.ARM.Collect$$$$00000004)
    _main_clock                              0x08000171   Thumb Code     0  entry7b.o(.ARM.Collect$$$$00000008)
    _main_cpp_init                           0x08000171   Thumb Code     0  entry8b.o(.ARM.Collect$$$$0000000A)
    _main_init                               0x08000171   Thumb Code     0  entry9a.o(.ARM.Collect$$$$0000000B)
    __rt_final_cpp                           0x08000179   Thumb Code     0  entry10a.o(.ARM.Collect$$$$0000000D)
    __rt_final_exit                          0x08000179   Thumb Code     0  entry11a.o(.ARM.Collect$$$$0000000F)
    main                                     0x0800017d   Thumb Code   936  main.o(.text)
    ShutOff                                  0x08000581   Thumb Code   108  main.o(.text)
    ShowBatteryState                         0x080005f9   Thumb Code   116  main.o(.text)
    modulo                                   0x08000689   Thumb Code    22  bldc.o(.text)
    up_or_down                               0x080006a1   Thumb Code    36  bldc.o(.text)
    SetEnable                                0x080006c9   Thumb Code     8  bldc.o(.text)
    SetBldcInput                             0x080006d5   Thumb Code    88  bldc.o(.text)
    SetFilter                                0x0800073d   Thumb Code    24  bldc.o(.text)
    CalculateBLDC                            0x0800075d   Thumb Code   916  bldc.o(.text)
    PID_Init                                 0x08000b69   Thumb Code    96  driver.o(.text)
    PID_Update                               0x08000bcd   Thumb Code   240  driver.o(.text)
    DriverInit                               0x08000cc1   Thumb Code   136  driver.o(.text)
    Driver                                   0x08000d59   Thumb Code    36  driver.o(.text)
    InitEXTI                                 0x08000d95   Thumb Code    64  bldcsine.o(.text)
    InitBldc                                 0x08000dd5   Thumb Code    36  bldcsine.o(.text)
    _HandleEXTI                              0x08000e0d   Thumb Code   128  bldcsine.o(.text)
    EXTI0_1_IRQHandler                       0x08000ea1   Thumb Code     4  bldcsine.o(.text)
    EXTI2_3_IRQHandler                       0x08000ea5   Thumb Code     4  bldcsine.o(.text)
    EXTI4_15_IRQHandler                      0x08000ea9   Thumb Code     4  bldcsine.o(.text)
    bldc_get_pwm                             0x08000ead   Thumb Code   372  bldcsine.o(.text)
    pinMode                                  0x08001039   Thumb Code    42  setup.o(.text)
    pinModePull                              0x08001063   Thumb Code    38  setup.o(.text)
    Interrupt_init                           0x08001089   Thumb Code     8  setup.o(.text)
    Watchdog_init                            0x08001091   Thumb Code    54  setup.o(.text)
    TimeoutTimer_init                        0x080010c9   Thumb Code    88  setup.o(.text)
    GPIO_init                                0x0800112d   Thumb Code   356  setup.o(.text)
    PWM_init                                 0x080012b5   Thumb Code   304  setup.o(.text)
    ADC_init                                 0x0800140d   Thumb Code   212  setup.o(.text)
    USART0_Init                              0x080014ed   Thumb Code     2  setup.o(.text)
    USART1_Init                              0x080014ef   Thumb Code     2  setup.o(.text)
    USART2_Init                              0x080014f1   Thumb Code     2  setup.o(.text)
    flashErase                               0x080014f3   Thumb Code    28  setup.o(.text)
    flashRead                                0x0800150f   Thumb Code     4  setup.o(.text)
    flashWrite                               0x08001513   Thumb Code    38  setup.o(.text)
    flashWriteBuffer                         0x08001539   Thumb Code    30  setup.o(.text)
    flashReadBuffer                          0x08001557   Thumb Code    20  setup.o(.text)
    ConfigReset                              0x0800156d   Thumb Code    32  setup.o(.text)
    ConfigWrite                              0x08001595   Thumb Code    44  setup.o(.text)
    ConfigRead                               0x080015cd   Thumb Code    64  setup.o(.text)
    Clock_init                               0x08001619   Thumb Code    36  setup.o(.text)
    Clock_test                               0x08001649   Thumb Code    36  setup.o(.text)
    SysTick_Handler                          0x080016a1   Thumb Code    12  it.o(.text)
    ResetTimeout                             0x080016b1   Thumb Code     8  it.o(.text)
    TIMER13_IRQHandler                       0x080016bd   Thumb Code    44  it.o(.text)
    TIMER0_BRK_UP_TRG_COM_IRQHandler         0x080016f5   Thumb Code    76  it.o(.text)
    DMA_Channel0_IRQHandler                  0x08001749   Thumb Code    60  it.o(.text)
    millis                                   0x08001789   Thumb Code     8  it.o(.text)
    Delay                                    0x08001795   Thumb Code    20  it.o(.text)
    NMI_Handler                              0x080017ad   Thumb Code     2  it.o(.text)
    HardFault_Handler                        0x080017af   Thumb Code     2  it.o(.text)
    MemManage_Handler                        0x080017b1   Thumb Code     2  it.o(.text)
    BusFault_Handler                         0x080017b3   Thumb Code     2  it.o(.text)
    UsageFault_Handler                       0x080017b5   Thumb Code     2  it.o(.text)
    SVC_Handler                              0x080017b7   Thumb Code     2  it.o(.text)
    DebugMon_Handler                         0x080017b9   Thumb Code     2  it.o(.text)
    PendSV_Handler                           0x080017bb   Thumb Code     2  it.o(.text)
    debug_timer_init                         0x080017bd   Thumb Code    28  it.o(.text)
    _TestKey                                 0x080017e1   Thumb Code    76  remotedummy.o(.text)
    parse_message                            0x0800182d   Thumb Code   284  remotedummy.o(.text)
    check_rtt_for_message                    0x080019d9   Thumb Code    60  remotedummy.o(.text)
    RemoteUpdate                             0x08001a19   Thumb Code   544  remotedummy.o(.text)
    RemoteCallback                           0x08001cb9   Thumb Code     2  remotedummy.o(.text)
    RemoteCalculate                          0x08001cbb   Thumb Code     2  remotedummy.o(.text)
    SEGGER_RTT_ReadUpBufferNoLock            0x08001cbd   Thumb Code   104  segger_rtt.o(.text)
    SEGGER_RTT_ReadNoLock                    0x08001d99   Thumb Code   104  segger_rtt.o(.text)
    SEGGER_RTT_ReadUpBuffer                  0x08001e05   Thumb Code    28  segger_rtt.o(.text)
    SEGGER_RTT_Read                          0x08001e21   Thumb Code    28  segger_rtt.o(.text)
    SEGGER_RTT_WriteWithOverwriteNoLock      0x08001e3d   Thumb Code   124  segger_rtt.o(.text)
    SEGGER_RTT_WriteDownBufferNoLock         0x08001ebd   Thumb Code    72  segger_rtt.o(.text)
    SEGGER_RTT_WriteNoLock                   0x08001fc1   Thumb Code    72  segger_rtt.o(.text)
    SEGGER_RTT_WriteDownBuffer               0x0800200d   Thumb Code    48  segger_rtt.o(.text)
    SEGGER_RTT_Write                         0x08002041   Thumb Code    48  segger_rtt.o(.text)
    SEGGER_RTT_WriteString                   0x08002075   Thumb Code    26  segger_rtt.o(.text)
    SEGGER_RTT_PutCharSkipNoLock             0x08002091   Thumb Code    48  segger_rtt.o(.text)
    SEGGER_RTT_PutCharSkip                   0x080020c5   Thumb Code    72  segger_rtt.o(.text)
    SEGGER_RTT_PutChar                       0x08002111   Thumb Code    84  segger_rtt.o(.text)
    SEGGER_RTT_GetKey                        0x08002169   Thumb Code    30  segger_rtt.o(.text)
    SEGGER_RTT_WaitKey                       0x08002187   Thumb Code    12  segger_rtt.o(.text)
    SEGGER_RTT_HasKey                        0x08002195   Thumb Code    28  segger_rtt.o(.text)
    SEGGER_RTT_HasData                       0x080021b5   Thumb Code    20  segger_rtt.o(.text)
    SEGGER_RTT_HasDataUp                     0x080021cd   Thumb Code    20  segger_rtt.o(.text)
    SEGGER_RTT_AllocDownBuffer               0x080021e5   Thumb Code    92  segger_rtt.o(.text)
    SEGGER_RTT_AllocUpBuffer                 0x08002245   Thumb Code    92  segger_rtt.o(.text)
    SEGGER_RTT_ConfigUpBuffer                0x080022a5   Thumb Code    72  segger_rtt.o(.text)
    SEGGER_RTT_ConfigDownBuffer              0x080022f1   Thumb Code    72  segger_rtt.o(.text)
    SEGGER_RTT_SetNameUpBuffer               0x0800233d   Thumb Code    56  segger_rtt.o(.text)
    SEGGER_RTT_SetNameDownBuffer             0x08002379   Thumb Code    56  segger_rtt.o(.text)
    SEGGER_RTT_SetFlagsUpBuffer              0x080023b5   Thumb Code    56  segger_rtt.o(.text)
    SEGGER_RTT_SetFlagsDownBuffer            0x080023f1   Thumb Code    56  segger_rtt.o(.text)
    SEGGER_RTT_Init                          0x0800242d   Thumb Code     2  segger_rtt.o(.text)
    SEGGER_RTT_SetTerminal                   0x08002431   Thumb Code   124  segger_rtt.o(.text)
    SEGGER_RTT_TerminalOut                   0x080024b9   Thumb Code   148  segger_rtt.o(.text)
    SEGGER_RTT_GetAvailWriteSpace            0x0800257d   Thumb Code    16  segger_rtt.o(.text)
    SEGGER_RTT_GetBytesInBuffer              0x08002591   Thumb Code    32  segger_rtt.o(.text)
    adc_deinit                               0x08002615   Thumb Code    22  gd32f1x0_adc.o(.text)
    adc_enable                               0x0800262d   Thumb Code    20  gd32f1x0_adc.o(.text)
    adc_disable                              0x08002645   Thumb Code    12  gd32f1x0_adc.o(.text)
    adc_calibration_enable                   0x08002655   Thumb Code    32  gd32f1x0_adc.o(.text)
    adc_dma_mode_enable                      0x08002679   Thumb Code    12  gd32f1x0_adc.o(.text)
    adc_dma_mode_disable                     0x08002689   Thumb Code    12  gd32f1x0_adc.o(.text)
    adc_tempsensor_vrefint_enable            0x08002699   Thumb Code    12  gd32f1x0_adc.o(.text)
    adc_tempsensor_vrefint_disable           0x080026a9   Thumb Code    12  gd32f1x0_adc.o(.text)
    adc_vbat_enable                          0x080026b9   Thumb Code    12  gd32f1x0_adc.o(.text)
    adc_vbat_disable                         0x080026c9   Thumb Code    12  gd32f1x0_adc.o(.text)
    adc_discontinuous_mode_config            0x080026d9   Thumb Code    60  gd32f1x0_adc.o(.text)
    adc_special_function_config              0x08002719   Thumb Code    80  gd32f1x0_adc.o(.text)
    adc_data_alignment_config                0x0800276d   Thumb Code    20  gd32f1x0_adc.o(.text)
    adc_channel_length_config                0x08002785   Thumb Code    56  gd32f1x0_adc.o(.text)
    adc_regular_channel_config               0x080027c1   Thumb Code   136  gd32f1x0_adc.o(.text)
    adc_inserted_channel_config              0x0800284d   Thumb Code    84  gd32f1x0_adc.o(.text)
    adc_inserted_channel_offset_config       0x080028a5   Thumb Code    28  gd32f1x0_adc.o(.text)
    adc_external_trigger_config              0x080028c5   Thumb Code    56  gd32f1x0_adc.o(.text)
    adc_external_trigger_source_config       0x08002901   Thumb Code    36  gd32f1x0_adc.o(.text)
    adc_software_trigger_enable              0x08002929   Thumb Code    28  gd32f1x0_adc.o(.text)
    adc_regular_data_read                    0x08002949   Thumb Code     8  gd32f1x0_adc.o(.text)
    adc_inserted_data_read                   0x08002955   Thumb Code    36  gd32f1x0_adc.o(.text)
    adc_flag_get                             0x0800297d   Thumb Code    12  gd32f1x0_adc.o(.text)
    adc_flag_clear                           0x0800298d   Thumb Code     4  gd32f1x0_adc.o(.text)
    adc_interrupt_flag_get                   0x08002995   Thumb Code    48  gd32f1x0_adc.o(.text)
    adc_interrupt_flag_clear                 0x080029c9   Thumb Code     4  gd32f1x0_adc.o(.text)
    adc_interrupt_enable                     0x080029d1   Thumb Code    40  gd32f1x0_adc.o(.text)
    adc_interrupt_disable                    0x080029fd   Thumb Code    40  gd32f1x0_adc.o(.text)
    adc_watchdog_single_channel_enable       0x08002a29   Thumb Code    28  gd32f1x0_adc.o(.text)
    adc_watchdog_group_channel_enable        0x08002a51   Thumb Code    32  gd32f1x0_adc.o(.text)
    adc_watchdog_disable                     0x08002a85   Thumb Code    12  gd32f1x0_adc.o(.text)
    adc_watchdog_threshold_config            0x08002a99   Thumb Code    16  gd32f1x0_adc.o(.text)
    dma_deinit                               0x08002ac1   Thumb Code    44  gd32f1x0_dma.o(.text)
    dma_struct_para_init                     0x08002af1   Thumb Code    24  gd32f1x0_dma.o(.text)
    dma_init                                 0x08002b09   Thumb Code   112  gd32f1x0_dma.o(.text)
    dma_circulation_enable                   0x08002b7d   Thumb Code    16  gd32f1x0_dma.o(.text)
    dma_circulation_disable                  0x08002b91   Thumb Code    16  gd32f1x0_dma.o(.text)
    dma_memory_to_memory_enable              0x08002ba5   Thumb Code    16  gd32f1x0_dma.o(.text)
    dma_memory_to_memory_disable             0x08002bb9   Thumb Code    16  gd32f1x0_dma.o(.text)
    dma_channel_enable                       0x08002bcd   Thumb Code    16  gd32f1x0_dma.o(.text)
    dma_channel_disable                      0x08002be1   Thumb Code    16  gd32f1x0_dma.o(.text)
    dma_periph_address_config                0x08002bf5   Thumb Code     4  gd32f1x0_dma.o(.text)
    dma_memory_address_config                0x08002bfd   Thumb Code     4  gd32f1x0_dma.o(.text)
    dma_transfer_number_config               0x08002c05   Thumb Code     4  gd32f1x0_dma.o(.text)
    dma_transfer_number_get                  0x08002c0d   Thumb Code    12  gd32f1x0_dma.o(.text)
    dma_priority_config                      0x08002c1d   Thumb Code    16  gd32f1x0_dma.o(.text)
    dma_memory_width_config                  0x08002c31   Thumb Code    16  gd32f1x0_dma.o(.text)
    dma_periph_width_config                  0x08002c45   Thumb Code    16  gd32f1x0_dma.o(.text)
    dma_memory_increase_enable               0x08002c59   Thumb Code    16  gd32f1x0_dma.o(.text)
    dma_memory_increase_disable              0x08002c6d   Thumb Code    16  gd32f1x0_dma.o(.text)
    dma_periph_increase_enable               0x08002c81   Thumb Code    16  gd32f1x0_dma.o(.text)
    dma_periph_increase_disable              0x08002c95   Thumb Code    16  gd32f1x0_dma.o(.text)
    dma_transfer_direction_config            0x08002ca9   Thumb Code    28  gd32f1x0_dma.o(.text)
    dma_interrupt_flag_get                   0x08002cc9   Thumb Code    72  gd32f1x0_dma.o(.text)
    dma_interrupt_flag_clear                 0x08002d55   Thumb Code    16  gd32f1x0_dma.o(.text)
    dma_interrupt_enable                     0x08002d69   Thumb Code    12  gd32f1x0_dma.o(.text)
    dma_interrupt_disable                    0x08002d79   Thumb Code    20  gd32f1x0_dma.o(.text)
    dma_flag_get                             0x08002d91   Thumb Code    20  gd32f1x0_dma.o(.text)
    dma_flag_clear                           0x08002da9   Thumb Code    16  gd32f1x0_dma.o(.text)
    exti_deinit                              0x08002dd5   Thumb Code    20  gd32f1x0_exti.o(.text)
    exti_init                                0x08002ded   Thumb Code    92  gd32f1x0_exti.o(.text)
    exti_interrupt_enable                    0x08002e4d   Thumb Code     4  gd32f1x0_exti.o(.text)
    exti_event_enable                        0x08002e55   Thumb Code     4  gd32f1x0_exti.o(.text)
    exti_interrupt_disable                   0x08002e5d   Thumb Code     4  gd32f1x0_exti.o(.text)
    exti_event_disable                       0x08002e65   Thumb Code     4  gd32f1x0_exti.o(.text)
    exti_flag_get                            0x08002e6d   Thumb Code    12  gd32f1x0_exti.o(.text)
    exti_flag_clear                          0x08002e7d   Thumb Code     8  gd32f1x0_exti.o(.text)
    exti_interrupt_flag_get                  0x08002e89   Thumb Code    24  gd32f1x0_exti.o(.text)
    exti_interrupt_flag_clear                0x08002ea5   Thumb Code     8  gd32f1x0_exti.o(.text)
    exti_software_interrupt_enable           0x08002eb1   Thumb Code     4  gd32f1x0_exti.o(.text)
    exti_software_interrupt_disable          0x08002eb9   Thumb Code     4  gd32f1x0_exti.o(.text)
    fmc_unlock                               0x08002ed5   Thumb Code    20  gd32f1x0_fmc.o(.text)
    fmc_lock                                 0x08002ef5   Thumb Code    12  gd32f1x0_fmc.o(.text)
    fmc_wscnt_set                            0x08002f05   Thumb Code    16  gd32f1x0_fmc.o(.text)
    fmc_wait_state_enable                    0x08002f19   Thumb Code    12  gd32f1x0_fmc.o(.text)
    fmc_wait_state_disable                   0x08002f29   Thumb Code    12  gd32f1x0_fmc.o(.text)
    fmc_page_erase                           0x08002f39   Thumb Code    48  gd32f1x0_fmc.o(.text)
    fmc_mass_erase                           0x08002fa9   Thumb Code    44  gd32f1x0_fmc.o(.text)
    fmc_word_program                         0x08002fd9   Thumb Code    32  gd32f1x0_fmc.o(.text)
    fmc_halfword_program                     0x08002ffd   Thumb Code    32  gd32f1x0_fmc.o(.text)
    ob_unlock                                0x08003021   Thumb Code    20  gd32f1x0_fmc.o(.text)
    ob_lock                                  0x08003041   Thumb Code    12  gd32f1x0_fmc.o(.text)
    ob_reset                                 0x08003051   Thumb Code    12  gd32f1x0_fmc.o(.text)
    ob_erase                                 0x08003061   Thumb Code    88  gd32f1x0_fmc.o(.text)
    ob_obstat_plevel_get                     0x080030c1   Thumb Code    12  gd32f1x0_fmc.o(.text)
    ob_write_protection_enable               0x080030d1   Thumb Code    76  gd32f1x0_fmc.o(.text)
    ob_security_protection_config            0x08003125   Thumb Code    68  gd32f1x0_fmc.o(.text)
    ob_user_write                            0x08003171   Thumb Code    72  gd32f1x0_fmc.o(.text)
    ob_data_program                          0x080031c1   Thumb Code    68  gd32f1x0_fmc.o(.text)
    ob_user_get                              0x0800320d   Thumb Code    12  gd32f1x0_fmc.o(.text)
    ob_data_get                              0x0800321d   Thumb Code     8  gd32f1x0_fmc.o(.text)
    ob_write_protection_get                  0x08003229   Thumb Code     8  gd32f1x0_fmc.o(.text)
    fmc_interrupt_enable                     0x08003235   Thumb Code     4  gd32f1x0_fmc.o(.text)
    fmc_interrupt_disable                    0x0800323d   Thumb Code    12  gd32f1x0_fmc.o(.text)
    fmc_flag_get                             0x0800324d   Thumb Code    12  gd32f1x0_fmc.o(.text)
    fmc_flag_clear                           0x0800325d   Thumb Code     4  gd32f1x0_fmc.o(.text)
    fmc_interrupt_flag_get                   0x08003265   Thumb Code    12  gd32f1x0_fmc.o(.text)
    fmc_interrupt_flag_clear                 0x08003275   Thumb Code     4  gd32f1x0_fmc.o(.text)
    fwdgt_write_disable                      0x080032dd   Thumb Code     8  gd32f1x0_fwdgt.o(.text)
    fwdgt_counter_reload                     0x080032e9   Thumb Code    12  gd32f1x0_fwdgt.o(.text)
    fwdgt_enable                             0x080032f9   Thumb Code    12  gd32f1x0_fwdgt.o(.text)
    fwdgt_window_value_config                0x08003309   Thumb Code    40  gd32f1x0_fwdgt.o(.text)
    fwdgt_config                             0x08003339   Thumb Code    68  gd32f1x0_fwdgt.o(.text)
    fwdgt_flag_get                           0x08003385   Thumb Code    12  gd32f1x0_fwdgt.o(.text)
    gpio_deinit                              0x08003395   Thumb Code    52  gd32f1x0_gpio.o(.text)
    gpio_mode_set                            0x080033d5   Thumb Code    78  gd32f1x0_gpio.o(.text)
    gpio_output_options_set                  0x08003423   Thumb Code    58  gd32f1x0_gpio.o(.text)
    gpio_bit_set                             0x0800345d   Thumb Code     4  gd32f1x0_gpio.o(.text)
    gpio_bit_reset                           0x08003461   Thumb Code     4  gd32f1x0_gpio.o(.text)
    gpio_bit_write                           0x08003465   Thumb Code    12  gd32f1x0_gpio.o(.text)
    gpio_port_write                          0x08003471   Thumb Code     4  gd32f1x0_gpio.o(.text)
    gpio_input_bit_get                       0x08003475   Thumb Code    10  gd32f1x0_gpio.o(.text)
    gpio_input_port_get                      0x0800347f   Thumb Code     6  gd32f1x0_gpio.o(.text)
    gpio_output_bit_get                      0x08003485   Thumb Code    10  gd32f1x0_gpio.o(.text)
    gpio_output_port_get                     0x0800348f   Thumb Code     6  gd32f1x0_gpio.o(.text)
    gpio_af_set                              0x08003495   Thumb Code    96  gd32f1x0_gpio.o(.text)
    gpio_pin_lock                            0x080034f5   Thumb Code    16  gd32f1x0_gpio.o(.text)
    nvic_priority_group_set                  0x08003505   Thumb Code    12  gd32f1x0_misc.o(.text)
    nvic_irq_enable                          0x08003519   Thumb Code   140  gd32f1x0_misc.o(.text)
    nvic_irq_disable                         0x080035ad   Thumb Code    24  gd32f1x0_misc.o(.text)
    nvic_vector_table_set                    0x080035c9   Thumb Code    12  gd32f1x0_misc.o(.text)
    system_lowpower_set                      0x080035dd   Thumb Code    12  gd32f1x0_misc.o(.text)
    system_lowpower_reset                    0x080035ed   Thumb Code    12  gd32f1x0_misc.o(.text)
    systick_clksource_set                    0x080035fd   Thumb Code    20  gd32f1x0_misc.o(.text)
    rcu_deinit                               0x08003615   Thumb Code    80  gd32f1x0_rcu.o(.text)
    rcu_periph_clock_enable                  0x08003675   Thumb Code    12  gd32f1x0_rcu.o(.text)
    rcu_periph_clock_disable                 0x08003685   Thumb Code    12  gd32f1x0_rcu.o(.text)
    rcu_periph_clock_sleep_enable            0x08003695   Thumb Code    12  gd32f1x0_rcu.o(.text)
    rcu_periph_clock_sleep_disable           0x080036a5   Thumb Code    12  gd32f1x0_rcu.o(.text)
    rcu_periph_reset_enable                  0x080036b5   Thumb Code    12  gd32f1x0_rcu.o(.text)
    rcu_periph_reset_disable                 0x080036c5   Thumb Code    12  gd32f1x0_rcu.o(.text)
    rcu_bkp_reset_enable                     0x080036d5   Thumb Code    12  gd32f1x0_rcu.o(.text)
    rcu_bkp_reset_disable                    0x080036e5   Thumb Code    12  gd32f1x0_rcu.o(.text)
    rcu_system_clock_source_config           0x080036f5   Thumb Code    12  gd32f1x0_rcu.o(.text)
    rcu_system_clock_source_get              0x08003705   Thumb Code    12  gd32f1x0_rcu.o(.text)
    rcu_ahb_clock_config                     0x08003715   Thumb Code    12  gd32f1x0_rcu.o(.text)
    rcu_apb1_clock_config                    0x08003725   Thumb Code    12  gd32f1x0_rcu.o(.text)
    rcu_apb2_clock_config                    0x08003735   Thumb Code    12  gd32f1x0_rcu.o(.text)
    rcu_adc_clock_config                     0x08003745   Thumb Code    80  gd32f1x0_rcu.o(.text)
    rcu_usbd_clock_config                    0x08003799   Thumb Code    12  gd32f1x0_rcu.o(.text)
    rcu_ckout_config                         0x080037a9   Thumb Code    12  gd32f1x0_rcu.o(.text)
    rcu_pll_config                           0x080037b9   Thumb Code    24  gd32f1x0_rcu.o(.text)
    rcu_usart_clock_config                   0x080037d9   Thumb Code    12  gd32f1x0_rcu.o(.text)
    rcu_cec_clock_config                     0x080037e9   Thumb Code    12  gd32f1x0_rcu.o(.text)
    rcu_rtc_clock_config                     0x080037f9   Thumb Code    12  gd32f1x0_rcu.o(.text)
    rcu_hxtal_prediv_config                  0x08003809   Thumb Code    12  gd32f1x0_rcu.o(.text)
    rcu_lxtal_drive_capability_config        0x08003819   Thumb Code    12  gd32f1x0_rcu.o(.text)
    rcu_flag_get                             0x08003829   Thumb Code    20  gd32f1x0_rcu.o(.text)
    rcu_all_reset_flag_clear                 0x08003841   Thumb Code    12  gd32f1x0_rcu.o(.text)
    rcu_interrupt_flag_get                   0x08003851   Thumb Code    12  gd32f1x0_rcu.o(.text)
    rcu_interrupt_flag_clear                 0x08003861   Thumb Code     8  gd32f1x0_rcu.o(.text)
    rcu_interrupt_enable                     0x0800386d   Thumb Code     8  gd32f1x0_rcu.o(.text)
    rcu_interrupt_disable                    0x08003879   Thumb Code    12  gd32f1x0_rcu.o(.text)
    rcu_osci_stab_wait                       0x08003889   Thumb Code   192  gd32f1x0_rcu.o(.text)
    rcu_osci_on                              0x08003951   Thumb Code    12  gd32f1x0_rcu.o(.text)
    rcu_osci_off                             0x08003961   Thumb Code    12  gd32f1x0_rcu.o(.text)
    rcu_osci_bypass_mode_enable              0x08003971   Thumb Code    52  gd32f1x0_rcu.o(.text)
    rcu_osci_bypass_mode_disable             0x080039a9   Thumb Code    52  gd32f1x0_rcu.o(.text)
    rcu_hxtal_clock_monitor_enable           0x080039e1   Thumb Code    12  gd32f1x0_rcu.o(.text)
    rcu_hxtal_clock_monitor_disable          0x080039f1   Thumb Code    12  gd32f1x0_rcu.o(.text)
    rcu_irc8m_adjust_value_set               0x08003a01   Thumb Code     4  gd32f1x0_rcu.o(.text)
    rcu_irc14m_adjust_value_set              0x08003a09   Thumb Code     4  gd32f1x0_rcu.o(.text)
    rcu_voltage_key_unlock                   0x08003a11   Thumb Code    20  gd32f1x0_rcu.o(.text)
    rcu_deepsleep_voltage_set                0x08003a2d   Thumb Code    12  gd32f1x0_rcu.o(.text)
    rcu_power_down_voltage_set               0x08003a3d   Thumb Code    12  gd32f1x0_rcu.o(.text)
    rcu_clock_freq_get                       0x08003a4d   Thumb Code   248  gd32f1x0_rcu.o(.text)
    syscfg_deinit                            0x08003bb5   Thumb Code    22  gd32f1x0_syscfg.o(.text)
    syscfg_dma_remap_enable                  0x08003bcd   Thumb Code     4  gd32f1x0_syscfg.o(.text)
    syscfg_dma_remap_disable                 0x08003bd5   Thumb Code    12  gd32f1x0_syscfg.o(.text)
    syscfg_high_current_enable               0x08003be5   Thumb Code    12  gd32f1x0_syscfg.o(.text)
    syscfg_high_current_disable              0x08003bf5   Thumb Code    12  gd32f1x0_syscfg.o(.text)
    syscfg_exti_line_config                  0x08003c05   Thumb Code    64  gd32f1x0_syscfg.o(.text)
    syscfg_lock_config                       0x08003c49   Thumb Code     4  gd32f1x0_syscfg.o(.text)
    syscfg_flag_get                          0x08003c51   Thumb Code    12  gd32f1x0_syscfg.o(.text)
    syscfg_flag_clear                        0x08003c61   Thumb Code     4  gd32f1x0_syscfg.o(.text)
    timer_deinit                             0x08003c71   Thumb Code   116  gd32f1x0_timer.o(.text)
    timer_struct_para_init                   0x08003d01   Thumb Code    16  gd32f1x0_timer.o(.text)
    timer_init                               0x08003d11   Thumb Code   168  gd32f1x0_timer.o(.text)
    timer_enable                             0x08003dd1   Thumb Code    10  gd32f1x0_timer.o(.text)
    timer_disable                            0x08003ddb   Thumb Code    10  gd32f1x0_timer.o(.text)
    timer_auto_reload_shadow_enable          0x08003de5   Thumb Code    10  gd32f1x0_timer.o(.text)
    timer_auto_reload_shadow_disable         0x08003def   Thumb Code    10  gd32f1x0_timer.o(.text)
    timer_update_event_enable                0x08003df9   Thumb Code    10  gd32f1x0_timer.o(.text)
    timer_update_event_disable               0x08003e03   Thumb Code    10  gd32f1x0_timer.o(.text)
    timer_counter_alignment                  0x08003e0d   Thumb Code    16  gd32f1x0_timer.o(.text)
    timer_counter_up_direction               0x08003e1d   Thumb Code    10  gd32f1x0_timer.o(.text)
    timer_counter_down_direction             0x08003e27   Thumb Code    10  gd32f1x0_timer.o(.text)
    timer_prescaler_config                   0x08003e31   Thumb Code    16  gd32f1x0_timer.o(.text)
    timer_repetition_value_config            0x08003e41   Thumb Code     4  gd32f1x0_timer.o(.text)
    timer_autoreload_value_config            0x08003e45   Thumb Code     4  gd32f1x0_timer.o(.text)
    timer_counter_value_config               0x08003e49   Thumb Code     4  gd32f1x0_timer.o(.text)
    timer_counter_read                       0x08003e4d   Thumb Code     4  gd32f1x0_timer.o(.text)
    timer_prescaler_read                     0x08003e51   Thumb Code     6  gd32f1x0_timer.o(.text)
    timer_single_pulse_mode_config           0x08003e57   Thumb Code    24  gd32f1x0_timer.o(.text)
    timer_update_source_config               0x08003e6f   Thumb Code    24  gd32f1x0_timer.o(.text)
    timer_ocpre_clear_source_config          0x08003e87   Thumb Code    24  gd32f1x0_timer.o(.text)
    timer_interrupt_enable                   0x08003e9f   Thumb Code     8  gd32f1x0_timer.o(.text)
    timer_interrupt_disable                  0x08003ea7   Thumb Code     4  gd32f1x0_timer.o(.text)
    timer_interrupt_flag_get                 0x08003eab   Thumb Code    20  gd32f1x0_timer.o(.text)
    timer_interrupt_flag_clear               0x08003ebf   Thumb Code     6  gd32f1x0_timer.o(.text)
    timer_flag_get                           0x08003ec5   Thumb Code    10  gd32f1x0_timer.o(.text)
    timer_flag_clear                         0x08003ecf   Thumb Code     6  gd32f1x0_timer.o(.text)
    timer_dma_enable                         0x08003ed5   Thumb Code     8  gd32f1x0_timer.o(.text)
    timer_dma_disable                        0x08003edd   Thumb Code     4  gd32f1x0_timer.o(.text)
    timer_channel_dma_request_source_select  0x08003ee1   Thumb Code    24  gd32f1x0_timer.o(.text)
    timer_dma_transfer_config                0x08003ef9   Thumb Code    22  gd32f1x0_timer.o(.text)
    timer_event_software_generate            0x08003f0f   Thumb Code     8  gd32f1x0_timer.o(.text)
    timer_break_struct_para_init             0x08003f17   Thumb Code    10  gd32f1x0_timer.o(.text)
    timer_break_config                       0x08003f21   Thumb Code    32  gd32f1x0_timer.o(.text)
    timer_break_enable                       0x08003f41   Thumb Code    10  gd32f1x0_timer.o(.text)
    timer_break_disable                      0x08003f4b   Thumb Code    10  gd32f1x0_timer.o(.text)
    timer_automatic_output_enable            0x08003f55   Thumb Code    10  gd32f1x0_timer.o(.text)
    timer_automatic_output_disable           0x08003f5f   Thumb Code    10  gd32f1x0_timer.o(.text)
    timer_primary_output_config              0x08003f69   Thumb Code    18  gd32f1x0_timer.o(.text)
    timer_channel_control_shadow_config      0x08003f7b   Thumb Code    16  gd32f1x0_timer.o(.text)
    timer_channel_control_shadow_update_config 0x08003f8b   Thumb Code    24  gd32f1x0_timer.o(.text)
    timer_channel_output_struct_para_init    0x08003fa3   Thumb Code    12  gd32f1x0_timer.o(.text)
    timer_channel_output_config              0x08003fb1   Thumb Code   500  gd32f1x0_timer.o(.text)
    timer_channel_output_mode_config         0x080041b9   Thumb Code    54  gd32f1x0_timer.o(.text)
    timer_channel_output_pulse_value_config  0x080041ef   Thumb Code    14  gd32f1x0_timer.o(.text)
    timer_channel_output_shadow_config       0x080041fd   Thumb Code    54  gd32f1x0_timer.o(.text)
    timer_channel_output_fast_config         0x08004235   Thumb Code    54  gd32f1x0_timer.o(.text)
    timer_channel_output_clear_config        0x0800426d   Thumb Code    54  gd32f1x0_timer.o(.text)
    timer_channel_output_polarity_config     0x080042a5   Thumb Code    66  gd32f1x0_timer.o(.text)
    timer_channel_complementary_output_polarity_config 0x080042e9   Thumb Code    66  gd32f1x0_timer.o(.text)
    timer_channel_output_state_config        0x0800432d   Thumb Code    66  gd32f1x0_timer.o(.text)
    timer_channel_complementary_output_state_config 0x0800436f   Thumb Code    52  gd32f1x0_timer.o(.text)
    timer_channel_input_struct_para_init     0x080043a3   Thumb Code    12  gd32f1x0_timer.o(.text)
    timer_input_capture_config               0x080043b1   Thumb Code   256  gd32f1x0_timer.o(.text)
    timer_channel_input_capture_prescaler_config 0x080044b1   Thumb Code    54  gd32f1x0_timer.o(.text)
    timer_channel_capture_value_register_read 0x080044e7   Thumb Code    18  gd32f1x0_timer.o(.text)
    timer_input_pwm_capture_config           0x080044f9   Thumb Code   344  gd32f1x0_timer.o(.text)
    timer_hall_mode_config                   0x08004651   Thumb Code    24  gd32f1x0_timer.o(.text)
    timer_input_trigger_source_select        0x08004669   Thumb Code     8  gd32f1x0_timer.o(.text)
    timer_master_output_trigger_source_select 0x08004671   Thumb Code    16  gd32f1x0_timer.o(.text)
    timer_slave_mode_select                  0x08004681   Thumb Code     8  gd32f1x0_timer.o(.text)
    timer_master_slave_mode_config           0x08004689   Thumb Code    24  gd32f1x0_timer.o(.text)
    timer_external_trigger_config            0x080046a1   Thumb Code    28  gd32f1x0_timer.o(.text)
    timer_quadrature_decoder_mode_config     0x080046bd   Thumb Code    64  gd32f1x0_timer.o(.text)
    timer_internal_clock_config              0x080046fd   Thumb Code    10  gd32f1x0_timer.o(.text)
    timer_internal_trigger_as_external_clock_config 0x08004707   Thumb Code    10  gd32f1x0_timer.o(.text)
    timer_external_trigger_as_external_clock_config 0x08004711   Thumb Code   122  gd32f1x0_timer.o(.text)
    timer_external_clock_mode0_config        0x0800478b   Thumb Code    26  gd32f1x0_timer.o(.text)
    timer_external_clock_mode1_config        0x080047a5   Thumb Code    18  gd32f1x0_timer.o(.text)
    timer_external_clock_mode1_disable       0x080047b7   Thumb Code    10  gd32f1x0_timer.o(.text)
    timer_channel_remap_config               0x080047c1   Thumb Code     4  gd32f1x0_timer.o(.text)
    Reset_Handler                            0x080047f9   Thumb Code     8  startup_gd32f1x0.o(.text)
    ADC_CMP_IRQHandler                       0x08004813   Thumb Code     0  startup_gd32f1x0.o(.text)
    CAN0_RX0_IRQHandler                      0x08004813   Thumb Code     0  startup_gd32f1x0.o(.text)
    CAN0_RX1_IRQHandler                      0x08004813   Thumb Code     0  startup_gd32f1x0.o(.text)
    CAN0_SCE_IRQHandler                      0x08004813   Thumb Code     0  startup_gd32f1x0.o(.text)
    CAN0_TX_IRQHandler                       0x08004813   Thumb Code     0  startup_gd32f1x0.o(.text)
    CAN1_RX0_IRQHandler                      0x08004813   Thumb Code     0  startup_gd32f1x0.o(.text)
    CAN1_RX1_IRQHandler                      0x08004813   Thumb Code     0  startup_gd32f1x0.o(.text)
    CAN1_SCE_IRQHandler                      0x08004813   Thumb Code     0  startup_gd32f1x0.o(.text)
    CAN1_TX_IRQHandler                       0x08004813   Thumb Code     0  startup_gd32f1x0.o(.text)
    CEC_IRQHandler                           0x08004813   Thumb Code     0  startup_gd32f1x0.o(.text)
    DMA_Channel1_2_IRQHandler                0x08004813   Thumb Code     0  startup_gd32f1x0.o(.text)
    DMA_Channel3_4_IRQHandler                0x08004813   Thumb Code     0  startup_gd32f1x0.o(.text)
    DMA_Channel5_6_IRQHandler                0x08004813   Thumb Code     0  startup_gd32f1x0.o(.text)
    FMC_IRQHandler                           0x08004813   Thumb Code     0  startup_gd32f1x0.o(.text)
    I2C0_ER_IRQHandler                       0x08004813   Thumb Code     0  startup_gd32f1x0.o(.text)
    I2C0_EV_IRQHandler                       0x08004813   Thumb Code     0  startup_gd32f1x0.o(.text)
    I2C1_ER_IRQHandler                       0x08004813   Thumb Code     0  startup_gd32f1x0.o(.text)
    I2C1_EV_IRQHandler                       0x08004813   Thumb Code     0  startup_gd32f1x0.o(.text)
    I2C2_ER_IRQHandler                       0x08004813   Thumb Code     0  startup_gd32f1x0.o(.text)
    I2C2_EV_IRQHandler                       0x08004813   Thumb Code     0  startup_gd32f1x0.o(.text)
    LVD_IRQHandler                           0x08004813   Thumb Code     0  startup_gd32f1x0.o(.text)
    RCU_IRQHandler                           0x08004813   Thumb Code     0  startup_gd32f1x0.o(.text)
    RTC_IRQHandler                           0x08004813   Thumb Code     0  startup_gd32f1x0.o(.text)
    SLCD_IRQHandler                          0x08004813   Thumb Code     0  startup_gd32f1x0.o(.text)
    SPI0_IRQHandler                          0x08004813   Thumb Code     0  startup_gd32f1x0.o(.text)
    SPI1_IRQHandler                          0x08004813   Thumb Code     0  startup_gd32f1x0.o(.text)
    SPI2_IRQHandler                          0x08004813   Thumb Code     0  startup_gd32f1x0.o(.text)
    TIMER0_Channel_IRQHandler                0x08004813   Thumb Code     0  startup_gd32f1x0.o(.text)
    TIMER14_IRQHandler                       0x08004813   Thumb Code     0  startup_gd32f1x0.o(.text)
    TIMER15_IRQHandler                       0x08004813   Thumb Code     0  startup_gd32f1x0.o(.text)
    TIMER16_IRQHandler                       0x08004813   Thumb Code     0  startup_gd32f1x0.o(.text)
    TIMER1_IRQHandler                        0x08004813   Thumb Code     0  startup_gd32f1x0.o(.text)
    TIMER2_IRQHandler                        0x08004813   Thumb Code     0  startup_gd32f1x0.o(.text)
    TIMER5_DAC_IRQHandler                    0x08004813   Thumb Code     0  startup_gd32f1x0.o(.text)
    TSI_IRQHandler                           0x08004813   Thumb Code     0  startup_gd32f1x0.o(.text)
    USART0_IRQHandler                        0x08004813   Thumb Code     0  startup_gd32f1x0.o(.text)
    USART1_IRQHandler                        0x08004813   Thumb Code     0  startup_gd32f1x0.o(.text)
    USBDWakeUp_IRQHandler                    0x08004813   Thumb Code     0  startup_gd32f1x0.o(.text)
    USBD_HP_IRQHandler                       0x08004813   Thumb Code     0  startup_gd32f1x0.o(.text)
    USBD_LP_IRQHandler                       0x08004813   Thumb Code     0  startup_gd32f1x0.o(.text)
    WWDGT_IRQHandler                         0x08004813   Thumb Code     0  startup_gd32f1x0.o(.text)
    SystemInit                               0x0800481d   Thumb Code   164  system_gd32f1x0.o(.text)
    SystemCoreClockUpdate                    0x080048d5   Thumb Code    80  system_gd32f1x0.o(.text)
    __aeabi_memcpy                           0x08004945   Thumb Code    36  memcpya.o(.text)
    __aeabi_memcpy4                          0x08004945   Thumb Code     0  memcpya.o(.text)
    __aeabi_memcpy8                          0x08004945   Thumb Code     0  memcpya.o(.text)
    __aeabi_memset                           0x08004969   Thumb Code    14  memseta.o(.text)
    __aeabi_memset4                          0x08004969   Thumb Code     0  memseta.o(.text)
    __aeabi_memset8                          0x08004969   Thumb Code     0  memseta.o(.text)
    __aeabi_memclr                           0x08004977   Thumb Code     4  memseta.o(.text)
    __aeabi_memclr4                          0x08004977   Thumb Code     0  memseta.o(.text)
    __aeabi_memclr8                          0x08004977   Thumb Code     0  memseta.o(.text)
    _memset$wrapper                          0x0800497b   Thumb Code    18  memseta.o(.text)
    strlen                                   0x0800498d   Thumb Code    14  strlen.o(.text)
    strcmp                                   0x0800499b   Thumb Code    28  strcmp.o(.text)
    memcmp                                   0x080049b7   Thumb Code    26  memcmp.o(.text)
    __aeabi_fadd                             0x080049d1   Thumb Code   164  fadd.o(.text)
    __aeabi_fsub                             0x08004a75   Thumb Code     6  fadd.o(.text)
    __aeabi_frsub                            0x08004a7b   Thumb Code     6  fadd.o(.text)
    __aeabi_fmul                             0x08004a81   Thumb Code   100  fmul.o(.text)
    __aeabi_fdiv                             0x08004ae5   Thumb Code   124  fdiv.o(.text)
    __aeabi_dadd                             0x08004b61   Thumb Code   322  dadd.o(.text)
    __aeabi_dsub                             0x08004ca3   Thumb Code     6  dadd.o(.text)
    __aeabi_drsub                            0x08004ca9   Thumb Code     6  dadd.o(.text)
    __aeabi_dmul                             0x08004caf   Thumb Code   228  dmul.o(.text)
    __aeabi_ddiv                             0x08004d93   Thumb Code   222  ddiv.o(.text)
    __aeabi_fcmple                           0x08004e71   Thumb Code    28  fcmple.o(.text)
    __aeabi_fcmplt                           0x08004e8d   Thumb Code    28  fcmplt.o(.text)
    __aeabi_fcmpgt                           0x08004ea9   Thumb Code    28  fcmpgt.o(.text)
    __aeabi_i2f                              0x08004ec5   Thumb Code    18  fflti.o(.text)
    __aeabi_ui2f                             0x08004ed7   Thumb Code    10  ffltui.o(.text)
    __aeabi_i2d                              0x08004ee1   Thumb Code    34  dflti.o(.text)
    __aeabi_ui2d                             0x08004f03   Thumb Code    26  dfltui.o(.text)
    __aeabi_f2iz                             0x08004f1d   Thumb Code    50  ffixi.o(.text)
    __aeabi_f2lz                             0x08004f4f   Thumb Code    66  ffixl.o(.text)
    __aeabi_d2iz                             0x08004f91   Thumb Code    62  dfixi.o(.text)
    __aeabi_f2d                              0x08004fcf   Thumb Code    38  f2d.o(.text)
    __aeabi_d2f                              0x08004ff5   Thumb Code    56  d2f.o(.text)
    __aeabi_uidiv                            0x0800502d   Thumb Code     0  uidiv.o(.text)
    __aeabi_uidivmod                         0x0800502d   Thumb Code    44  uidiv.o(.text)
    __aeabi_uldivmod                         0x08005059   Thumb Code    98  uldiv.o(.text)
    __aeabi_llsl                             0x080050bb   Thumb Code    30  llshl.o(.text)
    _ll_shift_l                              0x080050bb   Thumb Code     0  llshl.o(.text)
    __aeabi_llsr                             0x080050d9   Thumb Code    32  llushr.o(.text)
    _ll_ushift_r                             0x080050d9   Thumb Code     0  llushr.o(.text)
    __aeabi_lasr                             0x080050f9   Thumb Code    36  llsshr.o(.text)
    _ll_sshift_r                             0x080050f9   Thumb Code     0  llsshr.o(.text)
    __strtof_int                             0x0800511d   Thumb Code     8  strtof.o(.text)
    __I$use$fp                               0x08005125   Thumb Code     0  iusefp.o(.text)
    _float_round                             0x08005125   Thumb Code    18  fepilogue.o(.text)
    _float_epilogue                          0x08005137   Thumb Code    92  fepilogue.o(.text)
    _double_round                            0x08005193   Thumb Code    30  depilogue.o(.text)
    _double_epilogue                         0x080051b1   Thumb Code   156  depilogue.o(.text)
    __aeabi_d2ulz                            0x0800524d   Thumb Code    48  dfixul.o(.text)
    __aeabi_cdrcmple                         0x0800527d   Thumb Code    48  cdrcmple.o(.text)
    __scatterload                            0x080052ad   Thumb Code    38  init.o(.text)
    __scatterload_rt2                        0x080052ad   Thumb Code     0  init.o(.text)
    __strtod_int                             0x0800531b   Thumb Code    94  strtod.o(.text)
    isspace                                  0x08005385   Thumb Code    10  isspace_c.o(.text)
    _scanf_real                              0x080054b9   Thumb Code     0  scanf_fp.o(.text)
    _scanf_really_real                       0x080054b9   Thumb Code   556  scanf_fp.o(.text)
    _sgetc                                   0x080056f1   Thumb Code    30  _sgetc.o(.text)
    _sbackspace                              0x0800570f   Thumb Code    34  _sgetc.o(.text)
    __ctype_lookup                           0x08005731   Thumb Code    34  ctype_c.o(.text)
    __aeabi_ul2d                             0x08005759   Thumb Code    24  dfltul.o(.text)
    __0sprintf                               0x08005771   Thumb Code    34  printfa.o(i.__0sprintf)
    __1sprintf                               0x08005771   Thumb Code     0  printfa.o(i.__0sprintf)
    __2sprintf                               0x08005771   Thumb Code     0  printfa.o(i.__0sprintf)
    __c89sprintf                             0x08005771   Thumb Code     0  printfa.o(i.__0sprintf)
    sprintf                                  0x08005771   Thumb Code     0  printfa.o(i.__0sprintf)
    __scatterload_copy                       0x08005799   Thumb Code    14  handlers.o(i.__scatterload_copy)
    __scatterload_null                       0x080057a7   Thumb Code     2  handlers.o(i.__scatterload_null)
    __scatterload_zeroinit                   0x080057a9   Thumb Code    14  handlers.o(i.__scatterload_zeroinit)
    _is_digit                                0x0800593d   Thumb Code    14  scanf_fp.o(i._is_digit)
    strtof                                   0x08006085   Thumb Code    20  strtof.o(i.strtof)
    __ctype_categories                       0x08006098   Data          64  ctype_c.o(.constdata)
    hall_to_pos                              0x08006104   Data           8  bldc.o(.rodata.hall_to_pos)
    lookUpTableAngle                         0x0800610c   Data         724  main.o(.rodata.lookUpTableAngle)
    Region$$Table$$Base                      0x080066fc   Number         0  anon$$obj.o(Region$$Table)
    Region$$Table$$Limit                     0x0800671c   Number         0  anon$$obj.o(Region$$Table)
    wState                                   0x20000000   Data           1  main.o(.data..L_MergedGlobals)
    speedLimit                               0x20000002   Data           2  main.o(.data..L_MergedGlobals)
    iFILTER_SHIFT                            0x20000004   Data           1  bldc.o(.data..L_MergedGlobals)
    iFILTER_SHIFTDo                          0x20000005   Data           1  bldc.o(.data..L_MergedGlobals)
    offsetdc                                 0x20000006   Data           2  bldc.o(.data..L_MergedGlobals)
    batteryVoltage                           0x20000008   Data           4  bldc.o(.data..L_MergedGlobals)
    currentDC                                0x2000000c   Data           4  bldc.o(.data..L_MergedGlobals)
    revs32ScaleSlow                          0x20000010   Data           4  bldc.o(.data..L_MergedGlobals)
    iDriverDoEvery                           0x20000014   Data           2  driver.o(.data..L_MergedGlobals)
    aoPIDInit                                0x20000018   Data          84  driver.o(.data..L_MergedGlobals)
    bRemoteInit                              0x2000006c   Data           1  remotedummy.o(.data..L_MergedGlobals)
    iRemotePeriod                            0x2000006d   Data           1  remotedummy.o(.data..L_MergedGlobals)
    iOldRemotePeriod                         0x2000006e   Data           1  remotedummy.o(.data..L_MergedGlobals)
    fRemoteScaleMax                          0x20000070   Data           4  remotedummy.o(.data..L_MergedGlobals)
    SystemCoreClock                          0x20000074   Data           4  system_gd32f1x0.o(.data.SystemCoreClock)
    sectorChange                             0x20000078   Data           1  bldcsine.o(.bss..L_MergedGlobals)
    sector                                   0x20000079   Data           1  bldcsine.o(.bss..L_MergedGlobals)
    sector10x                                0x2000007a   Data           1  bldcsine.o(.bss..L_MergedGlobals)
    bInterrupt                               0x2000007b   Data           1  bldcsine.o(.bss..L_MergedGlobals)
    hall_last                                0x2000007c   Data           1  bldcsine.o(.bss..L_MergedGlobals)
    angle_deg                                0x2000007e   Data           2  bldcsine.o(.bss..L_MergedGlobals)
    angle_deg_add                            0x20000080   Data           2  bldcsine.o(.bss..L_MergedGlobals)
    angle_deg_final                          0x20000082   Data           2  bldcsine.o(.bss..L_MergedGlobals)
    angle_idx                                0x20000084   Data           2  bldcsine.o(.bss..L_MergedGlobals)
    hall_time_last                           0x20000086   Data           2  bldcsine.o(.bss..L_MergedGlobals)
    hall_time_step                           0x20000088   Data           2  bldcsine.o(.bss..L_MergedGlobals)
    iDT                                      0x2000008a   Data           2  bldcsine.o(.bss..L_MergedGlobals)
    iAdd                                     0x2000008c   Data           2  bldcsine.o(.bss..L_MergedGlobals)
    pwmGo                                    0x20000090   Data           4  bldcsine.o(.bss..L_MergedGlobals)
    hall_time_step_LPR                       0x20000094   Data           4  bldcsine.o(.bss..L_MergedGlobals)
    hall_time_step_LP                        0x20000098   Data           4  bldcsine.o(.bss..L_MergedGlobals)
    aHallEXTI                                0x2000009c   Data          12  bldcsine.o(.bss..L_MergedGlobals)
    dev_id                                   0x200000a8   Data           4  setup.o(.bss..L_MergedGlobals)
    pll_mul                                  0x200000ac   Data           4  setup.o(.bss..L_MergedGlobals)
    timerBldc_paramter_struct                0x200000b0   Data          16  setup.o(.bss..L_MergedGlobals)
    timerBldc_oc_parameter_struct            0x200000c0   Data          16  setup.o(.bss..L_MergedGlobals)
    timerBldc_break_parameter_struct         0x200000d0   Data          24  setup.o(.bss..L_MergedGlobals)
    timedOut                                 0x200000e8   Data           1  it.o(.bss..L_MergedGlobals)
    timeoutCounter_ms                        0x200000ec   Data           4  it.o(.bss..L_MergedGlobals)
    msTicks                                  0x200000f0   Data           4  it.o(.bss..L_MergedGlobals)
    iPwmCounter                              0x200000f4   Data           4  it.o(.bss..L_MergedGlobals)
    iPwmTime                                 0x200000f8   Data           4  it.o(.bss..L_MergedGlobals)
    iPwmRate                                 0x200000fc   Data           4  it.o(.bss..L_MergedGlobals)
    iAdcCounter                              0x20000100   Data           4  it.o(.bss..L_MergedGlobals)
    iAdcTime                                 0x20000104   Data           4  it.o(.bss..L_MergedGlobals)
    iAdcRate                                 0x20000108   Data           4  it.o(.bss..L_MergedGlobals)
    iDrivingMode                             0x2000010c   Data           1  main.o(.bss..L_MergedGlobals.1)
    bRemoteTimeout                           0x2000010d   Data           1  main.o(.bss..L_MergedGlobals.1)
    bPilotTimeout                            0x2000010e   Data           1  main.o(.bss..L_MergedGlobals.1)
    enable                                   0x2000010f   Data           1  main.o(.bss..L_MergedGlobals.1)
    pwmSlave                                 0x20000110   Data           2  main.o(.bss..L_MergedGlobals.1)
    iBug                                     0x20000114   Data           4  main.o(.bss..L_MergedGlobals.1)
    steerCounter                             0x20000118   Data           4  main.o(.bss..L_MergedGlobals.1)
    speed                                    0x2000011c   Data           4  main.o(.bss..L_MergedGlobals.1)
    speedShutoff                             0x20000120   Data           4  main.o(.bss..L_MergedGlobals.1)
    steer                                    0x20000124   Data           4  main.o(.bss..L_MergedGlobals.1)
    inactivity_timeout_counter               0x20000128   Data           4  main.o(.bss..L_MergedGlobals.1)
    iTimeNextLoop                            0x2000012c   Data           4  main.o(.bss..L_MergedGlobals.1)
    bldc_enable                              0x20000130   Data           1  bldc.o(.bss..L_MergedGlobals.1)
    hall                                     0x20000131   Data           1  bldc.o(.bss..L_MergedGlobals.1)
    iDrivingModeOverride                     0x20000132   Data           1  bldc.o(.bss..L_MergedGlobals.1)
    buzzerToggle                             0x20000133   Data           1  bldc.o(.bss..L_MergedGlobals.1)
    buzzerFreq                               0x20000134   Data           1  bldc.o(.bss..L_MergedGlobals.1)
    buzzerPattern                            0x20000135   Data           1  bldc.o(.bss..L_MergedGlobals.1)
    hall_a                                   0x20000136   Data           1  bldc.o(.bss..L_MergedGlobals.1)
    hall_b                                   0x20000137   Data           1  bldc.o(.bss..L_MergedGlobals.1)
    hall_c                                   0x20000138   Data           1  bldc.o(.bss..L_MergedGlobals.1)
    pos                                      0x20000139   Data           1  bldc.o(.bss..L_MergedGlobals.1)
    lastPos                                  0x2000013a   Data           1  bldc.o(.bss..L_MergedGlobals.1)
    buzzerTimer                              0x2000013c   Data           2  bldc.o(.bss..L_MergedGlobals.1)
    offsetcount                              0x2000013e   Data           2  bldc.o(.bss..L_MergedGlobals.1)
    realSpeed                                0x20000140   Data           4  bldc.o(.bss..L_MergedGlobals.1)
    revs32                                   0x20000144   Data           4  bldc.o(.bss..L_MergedGlobals.1)
    revs32Latest                             0x20000148   Data           4  bldc.o(.bss..L_MergedGlobals.1)
    torque32                                 0x2000014c   Data           4  bldc.o(.bss..L_MergedGlobals.1)
    revs32_reg                               0x20000150   Data           4  bldc.o(.bss..L_MergedGlobals.1)
    torque32_reg                             0x20000154   Data           4  bldc.o(.bss..L_MergedGlobals.1)
    realSpeed32_reg                          0x20000158   Data           4  bldc.o(.bss..L_MergedGlobals.1)
    iBldcInput                               0x2000015c   Data           4  bldc.o(.bss..L_MergedGlobals.1)
    bldc_inputFilterPwm                      0x20000160   Data           4  bldc.o(.bss..L_MergedGlobals.1)
    bldc_outputFilterPwm                     0x20000164   Data           4  bldc.o(.bss..L_MergedGlobals.1)
    speedCounter                             0x20000168   Data           4  bldc.o(.bss..L_MergedGlobals.1)
    speedCounterSlow                         0x2000016c   Data           4  bldc.o(.bss..L_MergedGlobals.1)
    speedCounterSlowLog                      0x20000170   Data           4  bldc.o(.bss..L_MergedGlobals.1)
    iOdom                                    0x20000174   Data           4  bldc.o(.bss..L_MergedGlobals.1)
    iOdomLast                                0x20000178   Data           4  bldc.o(.bss..L_MergedGlobals.1)
    filter_reg                               0x2000017c   Data           4  bldc.o(.bss..L_MergedGlobals.1)
    iBuzzCounter                             0x20000180   Data           4  bldc.o(.bss..L_MergedGlobals.1)
    iBuzzTime                                0x20000184   Data           4  bldc.o(.bss..L_MergedGlobals.1)
    iBuzzRate                                0x20000188   Data           4  bldc.o(.bss..L_MergedGlobals.1)
    adc_buffer                               0x2000018c   Data           4  bldc.o(.bss..L_MergedGlobals.1)
    error                                    0x20000190   Data           4  driver.o(.bss..L_MergedGlobals.1)
    delta_error                              0x20000194   Data           4  driver.o(.bss..L_MergedGlobals.1)
    p_outH                                   0x20000198   Data           4  driver.o(.bss..L_MergedGlobals.1)
    p_outL                                   0x2000019c   Data           4  driver.o(.bss..L_MergedGlobals.1)
    i_outH                                   0x200001a0   Data           4  driver.o(.bss..L_MergedGlobals.1)
    i_outL                                   0x200001a4   Data           4  driver.o(.bss..L_MergedGlobals.1)
    d_outH                                   0x200001a8   Data           4  driver.o(.bss..L_MergedGlobals.1)
    d_outL                                   0x200001ac   Data           4  driver.o(.bss..L_MergedGlobals.1)
    p_out32                                  0x200001b0   Data           4  driver.o(.bss..L_MergedGlobals.1)
    i_out32                                  0x200001b4   Data           4  driver.o(.bss..L_MergedGlobals.1)
    d_out32                                  0x200001b8   Data           4  driver.o(.bss..L_MergedGlobals.1)
    output32                                 0x200001bc   Data           4  driver.o(.bss..L_MergedGlobals.1)
    output                                   0x200001c0   Data           4  driver.o(.bss..L_MergedGlobals.1)
    iOldDrivingMode                          0x200001c4   Data           1  remotedummy.o(.bss..L_MergedGlobals.7)
    iCounterLog                              0x200001c6   Data           2  remotedummy.o(.bss..L_MergedGlobals.7)
    iRemoteMax                               0x200001c8   Data           4  remotedummy.o(.bss..L_MergedGlobals.7)
    iTimeNextLog                             0x200001cc   Data           4  remotedummy.o(.bss..L_MergedGlobals.7)
    msTicksInit                              0x200001d4   Data           4  remotedummy.o(.bss..L_MergedGlobals.7)
    _SEGGER_RTT                              0x2000021c   Data         168  segger_rtt.o(.bss._SEGGER_RTT)
    aoPIDInitOld                             0x200006d4   Data          84  remotedummy.o(.bss.aoPIDInitOld)
    dma_init_struct_adc                      0x20000728   Data          36  setup.o(.bss.dma_init_struct_adc)
    iTestClock                               0x2000074c   Data           4  setup.o(.bss.iTestClock)
    oConfig                                  0x20000750   Data          20  setup.o(.bss.oConfig)
    pid                                      0x20000768   Data          48  driver.o(.bss.pid)
    sMessage                                 0x20000798   Data         512  remotedummy.o(.bss.sMessage)
    timeoutTimer_paramter_struct             0x20000998   Data          16  setup.o(.bss.timeoutTimer_paramter_struct)
    __initial_sp                             0x20000da8   Data           0  startup_gd32f1x0.o(STACK)



==============================================================================

Memory Map of the image

  Image Entry point : 0x08000169

  Load Region LR_IROM1 (Base: 0x08000000, Size: 0x00006798, Max: 0x00010000, ABSOLUTE)

    Execution Region ER_IROM1 (Exec base: 0x08000000, Load base: 0x08000000, Size: 0x0000671c, Max: 0x00010000, ABSOLUTE)

    Exec Addr    Load Addr    Size         Type   Attr      Idx    E Section Name        Object

    0x08000000   0x08000000   0x00000168   Data   RO          289    RESET               startup_gd32f1x0.o
    0x08000168   0x08000168   0x00000000   Code   RO          310  * .ARM.Collect$$$$00000000  mc_w.l(entry.o)
    0x08000168   0x08000168   0x00000004   Code   RO          622    .ARM.Collect$$$$00000001  mc_w.l(entry2.o)
    0x0800016c   0x0800016c   0x00000004   Code   RO          625    .ARM.Collect$$$$00000004  mc_w.l(entry5.o)
    0x08000170   0x08000170   0x00000000   Code   RO          627    .ARM.Collect$$$$00000008  mc_w.l(entry7b.o)
    0x08000170   0x08000170   0x00000000   Code   RO          629    .ARM.Collect$$$$0000000A  mc_w.l(entry8b.o)
    0x08000170   0x08000170   0x00000008   Code   RO          630    .ARM.Collect$$$$0000000B  mc_w.l(entry9a.o)
    0x08000178   0x08000178   0x00000000   Code   RO          632    .ARM.Collect$$$$0000000D  mc_w.l(entry10a.o)
    0x08000178   0x08000178   0x00000000   Code   RO          634    .ARM.Collect$$$$0000000F  mc_w.l(entry11a.o)
    0x08000178   0x08000178   0x00000004   Code   RO          623    .ARM.Collect$$$$00002712  mc_w.l(entry2.o)
    0x0800017c   0x0800017c   0x0000050a   Code   RO            1    .text               main.o
    0x08000686   0x08000686   0x00000002   PAD
    0x08000688   0x08000688   0x000004de   Code   RO           19    .text               bldc.o
    0x08000b66   0x08000b66   0x00000002   PAD
    0x08000b68   0x08000b68   0x0000022c   Code   RO           36    .text               driver.o
    0x08000d94   0x08000d94   0x000002a4   Code   RO           50    .text               bldcsine.o
    0x08001038   0x08001038   0x00000666   Code   RO           63    .text               setup.o
    0x0800169e   0x0800169e   0x00000002   PAD
    0x080016a0   0x080016a0   0x00000140   Code   RO           81    .text               it.o
    0x080017e0   0x080017e0   0x000004dc   Code   RO          111    .text               remotedummy.o
    0x08001cbc   0x08001cbc   0x00000956   Code   RO          147    .text               segger_rtt.o
    0x08002612   0x08002612   0x00000002   PAD
    0x08002614   0x08002614   0x000004ac   Code   RO          162    .text               gd32f1x0_adc.o
    0x08002ac0   0x08002ac0   0x00000314   Code   RO          178    .text               gd32f1x0_dma.o
    0x08002dd4   0x08002dd4   0x000000fe   Code   RO          186    .text               gd32f1x0_exti.o
    0x08002ed2   0x08002ed2   0x00000002   PAD
    0x08002ed4   0x08002ed4   0x00000408   Code   RO          194    .text               gd32f1x0_fmc.o
    0x080032dc   0x080032dc   0x000000b8   Code   RO          202    .text               gd32f1x0_fwdgt.o
    0x08003394   0x08003394   0x00000170   Code   RO          210    .text               gd32f1x0_gpio.o
    0x08003504   0x08003504   0x00000110   Code   RO          226    .text               gd32f1x0_misc.o
    0x08003614   0x08003614   0x000005a0   Code   RO          244    .text               gd32f1x0_rcu.o
    0x08003bb4   0x08003bb4   0x000000bc   Code   RO          254    .text               gd32f1x0_syscfg.o
    0x08003c70   0x08003c70   0x00000b88   Code   RO          262    .text               gd32f1x0_timer.o
    0x080047f8   0x080047f8   0x00000024   Code   RO          290    .text               startup_gd32f1x0.o
    0x0800481c   0x0800481c   0x00000128   Code   RO          296    .text               system_gd32f1x0.o
    0x08004944   0x08004944   0x00000024   Code   RO          313    .text               mc_w.l(memcpya.o)
    0x08004968   0x08004968   0x00000024   Code   RO          315    .text               mc_w.l(memseta.o)
    0x0800498c   0x0800498c   0x0000000e   Code   RO          317    .text               mc_w.l(strlen.o)
    0x0800499a   0x0800499a   0x0000001c   Code   RO          319    .text               mc_w.l(strcmp.o)
    0x080049b6   0x080049b6   0x0000001a   Code   RO          321    .text               mc_w.l(memcmp.o)
    0x080049d0   0x080049d0   0x000000b0   Code   RO          586    .text               mf_w.l(fadd.o)
    0x08004a80   0x08004a80   0x00000064   Code   RO          588    .text               mf_w.l(fmul.o)
    0x08004ae4   0x08004ae4   0x0000007c   Code   RO          590    .text               mf_w.l(fdiv.o)
    0x08004b60   0x08004b60   0x0000014e   Code   RO          592    .text               mf_w.l(dadd.o)
    0x08004cae   0x08004cae   0x000000e4   Code   RO          594    .text               mf_w.l(dmul.o)
    0x08004d92   0x08004d92   0x000000de   Code   RO          596    .text               mf_w.l(ddiv.o)
    0x08004e70   0x08004e70   0x0000001c   Code   RO          598    .text               mf_w.l(fcmple.o)
    0x08004e8c   0x08004e8c   0x0000001c   Code   RO          600    .text               mf_w.l(fcmplt.o)
    0x08004ea8   0x08004ea8   0x0000001c   Code   RO          602    .text               mf_w.l(fcmpgt.o)
    0x08004ec4   0x08004ec4   0x00000012   Code   RO          604    .text               mf_w.l(fflti.o)
    0x08004ed6   0x08004ed6   0x0000000a   Code   RO          606    .text               mf_w.l(ffltui.o)
    0x08004ee0   0x08004ee0   0x00000022   Code   RO          608    .text               mf_w.l(dflti.o)
    0x08004f02   0x08004f02   0x0000001a   Code   RO          610    .text               mf_w.l(dfltui.o)
    0x08004f1c   0x08004f1c   0x00000032   Code   RO          612    .text               mf_w.l(ffixi.o)
    0x08004f4e   0x08004f4e   0x00000042   Code   RO          614    .text               mf_w.l(ffixl.o)
    0x08004f90   0x08004f90   0x0000003e   Code   RO          616    .text               mf_w.l(dfixi.o)
    0x08004fce   0x08004fce   0x00000026   Code   RO          618    .text               mf_w.l(f2d.o)
    0x08004ff4   0x08004ff4   0x00000038   Code   RO          620    .text               mf_w.l(d2f.o)
    0x0800502c   0x0800502c   0x0000002c   Code   RO          650    .text               mc_w.l(uidiv.o)
    0x08005058   0x08005058   0x00000062   Code   RO          652    .text               mc_w.l(uldiv.o)
    0x080050ba   0x080050ba   0x0000001e   Code   RO          654    .text               mc_w.l(llshl.o)
    0x080050d8   0x080050d8   0x00000020   Code   RO          656    .text               mc_w.l(llushr.o)
    0x080050f8   0x080050f8   0x00000024   Code   RO          658    .text               mc_w.l(llsshr.o)
    0x0800511c   0x0800511c   0x00000008   Code   RO          660    .text               mc_w.l(strtof.o)
    0x08005124   0x08005124   0x00000000   Code   RO          662    .text               mc_w.l(iusefp.o)
    0x08005124   0x08005124   0x0000006e   Code   RO          663    .text               mf_w.l(fepilogue.o)
    0x08005192   0x08005192   0x000000ba   Code   RO          665    .text               mf_w.l(depilogue.o)
    0x0800524c   0x0800524c   0x00000030   Code   RO          667    .text               mf_w.l(dfixul.o)
    0x0800527c   0x0800527c   0x00000030   Code   RO          669    .text               mf_w.l(cdrcmple.o)
    0x080052ac   0x080052ac   0x00000030   Code   RO          671    .text               mc_w.l(init.o)
    0x080052dc   0x080052dc   0x000000a8   Code   RO          674    .text               mc_w.l(strtod.o)
    0x08005384   0x08005384   0x0000000a   Code   RO          677    .text               mc_w.l(isspace_c.o)
    0x0800538e   0x0800538e   0x00000002   PAD
    0x08005390   0x08005390   0x00000360   Code   RO          679    .text               mc_w.l(scanf_fp.o)
    0x080056f0   0x080056f0   0x00000040   Code   RO          683    .text               mc_w.l(_sgetc.o)
    0x08005730   0x08005730   0x00000028   Code   RO          685    .text               mc_w.l(ctype_c.o)
    0x08005758   0x08005758   0x00000018   Code   RO          688    .text               mf_w.l(dfltul.o)
    0x08005770   0x08005770   0x00000028   Code   RO          560    i.__0sprintf        mc_w.l(printfa.o)
    0x08005798   0x08005798   0x0000000e   Code   RO          692    i.__scatterload_copy  mc_w.l(handlers.o)
    0x080057a6   0x080057a6   0x00000002   Code   RO          693    i.__scatterload_null  mc_w.l(handlers.o)
    0x080057a8   0x080057a8   0x0000000e   Code   RO          694    i.__scatterload_zeroinit  mc_w.l(handlers.o)
    0x080057b6   0x080057b6   0x00000002   PAD
    0x080057b8   0x080057b8   0x00000184   Code   RO          565    i._fp_digits        mc_w.l(printfa.o)
    0x0800593c   0x0800593c   0x0000000e   Code   RO          681    i._is_digit         mc_w.l(scanf_fp.o)
    0x0800594a   0x0800594a   0x00000002   PAD
    0x0800594c   0x0800594c   0x000006dc   Code   RO          566    i._printf_core      mc_w.l(printfa.o)
    0x08006028   0x08006028   0x00000024   Code   RO          567    i._printf_post_padding  mc_w.l(printfa.o)
    0x0800604c   0x0800604c   0x0000002e   Code   RO          568    i._printf_pre_padding  mc_w.l(printfa.o)
    0x0800607a   0x0800607a   0x0000000a   Code   RO          570    i._sputc            mc_w.l(printfa.o)
    0x08006084   0x08006084   0x00000014   Code   RO          307    i.strtof            m_ws.l(strtof.o)
    0x08006098   0x08006098   0x00000040   Data   RO          686    .constdata          mc_w.l(ctype_c.o)
    0x080060d8   0x080060d8   0x0000000c   Data   RO           25    .rodata..L__const.up_or_down.up_down  bldc.o
    0x080060e4   0x080060e4   0x00000010   Data   RO          150    .rodata.cst16       segger_rtt.o
    0x080060f4   0x080060f4   0x00000008   Data   RO           54    .rodata.cst8        bldcsine.o
    0x080060fc   0x080060fc   0x00000008   Data   RO          246    .rodata.cst8        gd32f1x0_rcu.o
    0x08006104   0x08006104   0x00000008   Data   RO           26    .rodata.hall_to_pos  bldc.o
    0x0800610c   0x0800610c   0x000002d4   Data   RO            8    .rodata.lookUpTableAngle  main.o
    0x080063e0   0x080063e0   0x000002d0   Data   RO           55    .rodata.sine_table  bldcsine.o
    0x080066b0   0x080066b0   0x00000042   Data   RO          115    .rodata.str1.1      remotedummy.o
    0x080066f2   0x080066f2   0x00000009   Data   RO          152    .rodata.str1.1      segger_rtt.o
    0x080066fb   0x080066fb   0x00000001   PAD
    0x080066fc   0x080066fc   0x00000020   Data   RO          691    Region$$Table       anon$$obj.o


    Execution Region RW_IRAM1 (Exec base: 0x20000000, Load base: 0x08006720, Size: 0x00000da8, Max: 0x00002000, ABSOLUTE)

    Exec Addr    Load Addr    Size         Type   Attr      Idx    E Section Name        Object

    0x20000000   0x08006720   0x00000004   Data   RW           10    .data..L_MergedGlobals  main.o
    0x20000004   0x08006724   0x00000010   Data   RW           27    .data..L_MergedGlobals  bldc.o
    0x20000014   0x08006734   0x00000058   Data   RW           41    .data..L_MergedGlobals  driver.o
    0x2000006c   0x0800678c   0x00000008   Data   RW          116    .data..L_MergedGlobals  remotedummy.o
    0x20000074   0x08006794   0x00000004   Data   RW          298    .data.SystemCoreClock  system_gd32f1x0.o
    0x20000078        -       0x00000030   Zero   RW           56    .bss..L_MergedGlobals  bldcsine.o
    0x200000a8        -       0x00000040   Zero   RW           73    .bss..L_MergedGlobals  setup.o
    0x200000e8        -       0x00000024   Zero   RW           93    .bss..L_MergedGlobals  it.o
    0x2000010c        -       0x00000024   Zero   RW           11    .bss..L_MergedGlobals.1  main.o
    0x20000130        -       0x00000060   Zero   RW           28    .bss..L_MergedGlobals.1  bldc.o
    0x20000190        -       0x00000034   Zero   RW           42    .bss..L_MergedGlobals.1  driver.o
    0x200001c4        -       0x00000054   Zero   RW          117    .bss..L_MergedGlobals.7  remotedummy.o
    0x20000218        -       0x00000001   Zero   RW          151    .bss._ActiveTerminal  segger_rtt.o
    0x20000219   0x08006798   0x00000003   PAD
    0x2000021c        -       0x000000a8   Zero   RW          149    .bss._SEGGER_RTT    segger_rtt.o
    0x200002c4        -       0x00000010   Zero   RW          154    .bss._acDownBuffer  segger_rtt.o
    0x200002d4        -       0x00000400   Zero   RW          153    .bss._acUpBuffer    segger_rtt.o
    0x200006d4        -       0x00000054   Zero   RW          114    .bss.aoPIDInitOld   remotedummy.o
    0x20000728        -       0x00000024   Zero   RW           66    .bss.dma_init_struct_adc  setup.o
    0x2000074c        -       0x00000004   Zero   RW           68    .bss.iTestClock     setup.o
    0x20000750        -       0x00000014   Zero   RW           67    .bss.oConfig        setup.o
    0x20000764   0x08006798   0x00000004   PAD
    0x20000768        -       0x00000030   Zero   RW           39    .bss.pid            driver.o
    0x20000798        -       0x00000200   Zero   RW          113    .bss.sMessage       remotedummy.o
    0x20000998        -       0x00000010   Zero   RW           65    .bss.timeoutTimer_paramter_struct  setup.o
    0x200009a8        -       0x00000400   Zero   RW          287    STACK               startup_gd32f1x0.o


==============================================================================

Image component sizes


      Code (inc. data)   RO Data    RW Data    ZI Data      Debug   Object Name

      1246        136         20         16         96       4937   bldc.o
       676         64        728          0         48       5991   bldcsine.o
       556         44          0         88        100       3569   driver.o
      1196        156          0          0          0       7367   gd32f1x0_adc.o
       788        168          0          0          0       5934   gd32f1x0_dma.o
       254         48          0          0          0       3031   gd32f1x0_exti.o
      1032        152          0          0          0       6872   gd32f1x0_fmc.o
       184         32          0          0          0       1949   gd32f1x0_fwdgt.o
       368         12          0          0          0       4156   gd32f1x0_gpio.o
       272         40          0          0          0       3216   gd32f1x0_misc.o
      1440        242          8          0          0      12255   gd32f1x0_rcu.o
       188         36          0          0          0       2849   gd32f1x0_syscfg.o
      2952        112          0          0          0      17994   gd32f1x0_timer.o
       320         48          0          0         36       3161   it.o
      1290        120        724          4         36       6208   main.o
      1244        282         66          8        680       3668   remotedummy.o
      2390        160         25          0       1209      15849   segger_rtt.o
      1638        152          0          0        140       9855   setup.o
        36          8        360          0       1024        844   startup_gd32f1x0.o
       296         52          0          4          0       1599   system_gd32f1x0.o

    ----------------------------------------------------------------------
     18376       2064       1964        120       3376     121304   Object Totals
         0          0         32          0          0          0   (incl. Generated)
        10          0          1          0          7          0   (incl. Padding)

    ----------------------------------------------------------------------

      Code (inc. data)   RO Data    RW Data    ZI Data      Debug   Library Member Name

        20          0          0          0          0         76   strtof.o
        64          0          0          0          0         84   _sgetc.o
        40          6         64          0          0         68   ctype_c.o
         0          0          0          0          0          0   entry.o
         0          0          0          0          0          0   entry10a.o
         0          0          0          0          0          0   entry11a.o
         8          4          0          0          0          0   entry2.o
         4          0          0          0          0          0   entry5.o
         0          0          0          0          0          0   entry7b.o
         0          0          0          0          0          0   entry8b.o
         8          4          0          0          0          0   entry9a.o
        30          0          0          0          0          0   handlers.o
        48         10          0          0          0         68   init.o
        10          0          0          0          0         68   isspace_c.o
         0          0          0          0          0          0   iusefp.o
        30          0          0          0          0         68   llshl.o
        36          0          0          0          0         68   llsshr.o
        32          0          0          0          0         68   llushr.o
        26          0          0          0          0         80   memcmp.o
        36          0          0          0          0         68   memcpya.o
        36          0          0          0          0        108   memseta.o
      2276         86          0          0          0        520   printfa.o
       878         12          0          0          0        216   scanf_fp.o
        28          0          0          0          0         76   strcmp.o
        14          0          0          0          0         68   strlen.o
       168         12          0          0          0        124   strtod.o
         8          0          0          0          0         68   strtof.o
        44          0          0          0          0         80   uidiv.o
        98          0          0          0          0         92   uldiv.o
        48          0          0          0          0         68   cdrcmple.o
        56          0          0          0          0         88   d2f.o
       334          0          0          0          0        148   dadd.o
       222          0          0          0          0        100   ddiv.o
       186          0          0          0          0        176   depilogue.o
        62          0          0          0          0         80   dfixi.o
        48          0          0          0          0         68   dfixul.o
        34          0          0          0          0         76   dflti.o
        26          0          0          0          0         76   dfltui.o
        24          0          0          0          0         76   dfltul.o
       228          0          0          0          0         96   dmul.o
        38          0          0          0          0         68   f2d.o
       176          0          0          0          0        140   fadd.o
        28          0          0          0          0         68   fcmpgt.o
        28          0          0          0          0         68   fcmple.o
        28          0          0          0          0         68   fcmplt.o
       124          0          0          0          0         88   fdiv.o
       110          0          0          0          0        168   fepilogue.o
        50          0          0          0          0         68   ffixi.o
        66          0          0          0          0         76   ffixl.o
        18          0          0          0          0         68   fflti.o
        10          0          0          0          0         68   ffltui.o
       100          0          0          0          0         76   fmul.o

    ----------------------------------------------------------------------
      5992        134         64          0          0       4144   Library Totals
         6          0          0          0          0          0   (incl. Padding)

    ----------------------------------------------------------------------

      Code (inc. data)   RO Data    RW Data    ZI Data      Debug   Library Name

        20          0          0          0          0         76   m_ws.l
      3922        134         64          0          0       1992   mc_w.l
      2044          0          0          0          0       2076   mf_w.l

    ----------------------------------------------------------------------
      5992        134         64          0          0       4144   Library Totals

    ----------------------------------------------------------------------

==============================================================================


      Code (inc. data)   RO Data    RW Data    ZI Data      Debug   

     24368       2198       2028        120       3376     122900   Grand Totals
     24368       2198       2028        120       3376     122900   ELF Image Totals
     24368       2198       2028        120          0          0   ROM Totals

==============================================================================

    Total RO  Size (Code + RO Data)                26396 (  25.78kB)
    Total RW  Size (RW Data + ZI Data)              3496 (   3.41kB)
    Total ROM Size (Code + RO Data + RW Data)      26516 (  25.89kB)

==============================================================================

