Component: Arm Compiler for Embedded 6.23 Tool: armlink [5f102400]

==============================================================================

Section Cross References

    main.o(.text) refers to setup.o(.text) for ConfigRead
    main.o(.text) refers to system_gd32e23x.o(.text) for SystemCoreClockUpdate
    main.o(.text) refers to gd32e23x_gpio.o(.text) for gpio_bit_write
    main.o(.text) refers to bldcsine.o(.text) for InitBldc
    main.o(.text) refers to driver.o(.text) for DriverInit
    main.o(.text) refers to gd32e23x_fwdgt.o(.text) for fwdgt_counter_reload
    main.o(.text) refers to it.o(.text) for Delay
    main.o(.text) refers to remotedummy.o(.text) for RemoteUpdate
    main.o(.text) refers to dflti.o(.text) for __aeabi_i2d
    main.o(.text) refers to ddiv.o(.text) for __aeabi_ddiv
    main.o(.text) refers to daddsub.o(.text) for __aeabi_dsub
    main.o(.text) refers to dmul.o(.text) for __aeabi_dmul
    main.o(.text) refers to dfixi.o(.text) for __aeabi_d2iz
    main.o(.text) refers to fflti.o(.text) for __aeabi_ui2f
    main.o(.text) refers to f2d.o(.text) for __aeabi_f2d
    main.o(.text) refers to d2f.o(.text) for __aeabi_d2f
    main.o(.text) refers to fmul.o(x$fpl$fmul) for __aeabi_fmul
    main.o(.text) refers to ffixi.o(.text) for __aeabi_f2iz
    main.o(.text) refers to faddsub.o(x$fpl$fsub) for __aeabi_fsub
    main.o(.text) refers to fdiv.o(.text) for __aeabi_fdiv
    main.o(.text) refers to faddsub.o(x$fpl$fadd) for __aeabi_fadd
    main.o(.text) refers to fcmp.o(i._fls) for __aeabi_fcmplt
    main.o(.text) refers to bldc.o(.text) for SetBldcInput
    main.o(.text) refers to fcmp.o(i._fleq) for __aeabi_fcmple
    main.o(.text) refers to dcmp.o(i._dleq) for __aeabi_dcmple
    main.o(.text) refers to main.o(.bss.iBug) for iBug
    main.o(.text) refers to system_gd32e23x.o(.data.SystemCoreClock) for SystemCoreClock
    main.o(.text) refers to main.o(.data.iDrivingMode) for iDrivingMode
    main.o(.text) refers to bldc.o(.bss.buzzerFreq) for buzzerFreq
    main.o(.text) refers to main.o(.bss.iTimeNextLoop) for iTimeNextLoop
    main.o(.text) refers to main.o(.bss.speedShutoff) for speedShutoff
    main.o(.text) refers to main.o(.bss.steerCounter) for steerCounter
    main.o(.text) refers to main.o(.bss.speed) for speed
    main.o(.text) refers to main.o(.bss.steer) for steer
    main.o(.text) refers to main.o(.bss.pwmSlave) for pwmSlave
    main.o(.text) refers to main.o(.data.speedLimit) for speedLimit
    main.o(.text) refers to main.o(.rodata.lookUpTableAngle) for lookUpTableAngle
    main.o(.text) refers to bldc.o(.data.batteryVoltage) for batteryVoltage
    main.o(.text) refers to main.o(.data.wState) for wState
    main.o(.text) refers to main.o(.data.beepsBackwards) for beepsBackwards
    main.o(.text) refers to bldc.o(.bss.buzzerPattern) for buzzerPattern
    main.o(.text) refers to main.o(.bss.inactivity_timeout_counter) for inactivity_timeout_counter
    main.o(.text) refers to main.o(.bss.enable) for enable
    main.o(.text) refers to main.o(.bss.bPilotTimeout) for bPilotTimeout
    main.o(.text) refers to main.o(.bss.bRemoteTimeout) for bRemoteTimeout
    main.o(.ARM.exidx) refers to main.o(.text) for [Anonymous Symbol]
    bldc.o(.text) refers to bldc.o(.rodata..L__const.up_or_down.up_down) for [Anonymous Symbol]
    bldc.o(.text) refers to bldc.o(.bss.bldc_enable) for bldc_enable
    bldc.o(.text) refers to dflti.o(.text) for __aeabi_i2d
    bldc.o(.text) refers to ddiv.o(.text) for __aeabi_ddiv
    bldc.o(.text) refers to dmul.o(.text) for __aeabi_dmul
    bldc.o(.text) refers to dfixi.o(.text) for __aeabi_d2iz
    bldc.o(.text) refers to main.o(.data.iDrivingMode) for iDrivingMode
    bldc.o(.text) refers to system_gd32e23x.o(.data.SystemCoreClock) for SystemCoreClock
    bldc.o(.text) refers to bldc.o(.bss.iBldcInput) for iBldcInput
    bldc.o(.text) refers to bldc.o(.data.iFILTER_SHIFT) for iFILTER_SHIFT
    bldc.o(.text) refers to bldc.o(.bss.bldc_outputFilterPwm) for bldc_outputFilterPwm
    bldc.o(.text) refers to bldc.o(.bss.filter_reg) for filter_reg
    bldc.o(.text) refers to f2d.o(.text) for __aeabi_f2d
    bldc.o(.text) refers to daddsub.o(.text) for __aeabi_dadd
    bldc.o(.text) refers to d2f.o(.text) for __aeabi_d2f
    bldc.o(.text) refers to gd32e23x_gpio.o(.text) for gpio_bit_write
    bldc.o(.text) refers to fcmp.o(i._fgr) for __aeabi_fcmpgt
    bldc.o(.text) refers to gd32e23x_timer.o(.text) for timer_automatic_output_disable
    bldc.o(.text) refers to driver.o(.text) for Driver
    bldc.o(.text) refers to bldcsine.o(.text) for bldc_get_pwm
    bldc.o(.text) refers to bldc.o(.bss.offsetcount) for offsetcount
    bldc.o(.text) refers to bldc.o(.data.offsetdc) for offsetdc
    bldc.o(.text) refers to bldc.o(.bss.adc_buffer) for adc_buffer
    bldc.o(.text) refers to bldc.o(.bss.buzzerTimer) for buzzerTimer
    bldc.o(.text) refers to bldc.o(.data.batteryVoltage) for batteryVoltage
    bldc.o(.text) refers to fflti.o(.text) for __aeabi_ui2f
    bldc.o(.text) refers to fdiv.o(.text) for __aeabi_fdiv
    bldc.o(.text) refers to main.o(.bss.iBug) for iBug
    bldc.o(.text) refers to it.o(.bss.msTicks) for msTicks
    bldc.o(.text) refers to bldc.o(.bss.iBuzzTime) for iBuzzTime
    bldc.o(.text) refers to bldc.o(.bss.iBuzzCounter) for iBuzzCounter
    bldc.o(.text) refers to bldc.o(.bss.iBuzzRate) for iBuzzRate
    bldc.o(.text) refers to bldc.o(.bss.buzzerFreq) for buzzerFreq
    bldc.o(.text) refers to bldc.o(.bss.buzzerPattern) for buzzerPattern
    bldc.o(.text) refers to bldc.o(.bss.buzzerToggle) for buzzerToggle
    bldc.o(.text) refers to bldc.o(.data.currentDC) for currentDC
    bldc.o(.text) refers to it.o(.bss.timedOut) for timedOut
    bldc.o(.text) refers to bldc.o(.bss.iDrivingModeOverride) for iDrivingModeOverride
    bldc.o(.text) refers to bldc.o(.bss.bldc_inputFilterPwm) for bldc_inputFilterPwm
    bldc.o(.text) refers to bldc.o(.bss.hall_a) for hall_a
    bldc.o(.text) refers to bldc.o(.bss.hall_b) for hall_b
    bldc.o(.text) refers to bldc.o(.bss.hall_c) for hall_c
    bldc.o(.text) refers to bldc.o(.bss.hall) for hall
    bldc.o(.text) refers to bldc.o(.rodata.hall_to_pos) for hall_to_pos
    bldc.o(.text) refers to bldc.o(.bss.pos) for pos
    bldc.o(.text) refers to bldc.o(.bss.lastPos) for lastPos
    bldc.o(.text) refers to bldc.o(.bss.iOdom) for iOdom
    bldc.o(.text) refers to bldc.o(.bss.speedCounterSlow) for speedCounterSlow
    bldc.o(.text) refers to bldc.o(.bss.iOdomLast) for iOdomLast
    bldc.o(.text) refers to bldc.o(.bss.speedCounterSlowLog) for speedCounterSlowLog
    bldc.o(.text) refers to bldc.o(.data.revs32ScaleSlow) for revs32ScaleSlow
    bldc.o(.text) refers to bldc.o(.bss.revs32_reg) for revs32_reg
    bldc.o(.text) refers to bldc.o(.bss.revs32) for revs32
    bldc.o(.text) refers to bldc.o(.bss.torque32_reg) for torque32_reg
    bldc.o(.text) refers to bldc.o(.bss.torque32) for torque32
    bldc.o(.text) refers to bldc.o(.bss.speedCounter) for speedCounter
    bldc.o(.text) refers to bldc.o(.bss.realSpeed) for realSpeed
    bldc.o(.text) refers to bldc.o(.bss.revs32x) for revs32x
    bldc.o(.text) refers to bldc.o(.data.revs32Scale) for revs32Scale
    bldc.o(.text) refers to bldc.o(.bss.speedCounterLog) for speedCounterLog
    bldc.o(.ARM.exidx) refers to bldc.o(.text) for [Anonymous Symbol]
    driver.o(.text) refers to fmul.o(x$fpl$fmul) for __aeabi_fmul
    driver.o(.text) refers to ffixl.o(.text) for __aeabi_f2lz
    driver.o(.text) refers to ffixi.o(.text) for __aeabi_f2iz
    driver.o(.text) refers to fdiv.o(.text) for __aeabi_fdiv
    driver.o(.text) refers to llmul.o(.text) for __aeabi_lmul
    driver.o(.text) refers to fflti.o(.text) for __aeabi_i2f
    driver.o(.text) refers to main.o(.data.iDrivingMode) for iDrivingMode
    driver.o(.text) refers to driver.o(.bss.pid) for pid
    driver.o(.text) refers to system_gd32e23x.o(.data.SystemCoreClock) for SystemCoreClock
    driver.o(.text) refers to bldc.o(.bss.iOdom) for iOdom
    driver.o(.text) refers to bldc.o(.bss.torque32) for torque32
    driver.o(.text) refers to bldc.o(.bss.revs32) for revs32
    driver.o(.ARM.exidx) refers to driver.o(.text) for [Anonymous Symbol]
    bldcsine.o(.text) refers to gd32e23x_syscfg.o(.text) for syscfg_exti_line_config
    bldcsine.o(.text) refers to gd32e23x_exti.o(.text) for exti_init
    bldcsine.o(.text) refers to gd32e23x_misc.o(.text) for nvic_irq_enable
    bldcsine.o(.text) refers to gd32e23x_rcu.o(.text) for rcu_periph_clock_enable
    bldcsine.o(.text) refers to bldcsine.o(.bss.aHallEXTI) for aHallEXTI
    bldcsine.o(.text) refers to gd32e23x_gpio.o(.text) for gpio_input_bit_get
    bldcsine.o(.text) refers to bldcsine.o(.bss.bInterrupt) for bInterrupt
    bldcsine.o(.text) refers to bldcsine.o(.bss.hall_time_last) for hall_time_last
    bldcsine.o(.text) refers to bldc.o(.bss.buzzerTimer) for buzzerTimer
    bldcsine.o(.text) refers to bldcsine.o(.bss.hall_time_step) for hall_time_step
    bldcsine.o(.text) refers to bldc.o(.bss.hall) for hall
    bldcsine.o(.text) refers to bldcsine.o(.bss.hall_last) for hall_last
    bldcsine.o(.text) refers to bldcsine.o(.bss.pwmGo) for pwmGo
    bldcsine.o(.text) refers to bldcsine.o(.rodata.cst8) for [Anonymous Symbol]
    bldcsine.o(.text) refers to bldcsine.o(.bss.sector) for sector
    bldcsine.o(.text) refers to bldcsine.o(.bss.angle_deg_add) for angle_deg_add
    bldcsine.o(.text) refers to bldcsine.o(.bss.sector10x) for sector10x
    bldcsine.o(.text) refers to bldcsine.o(.bss.angle_deg) for angle_deg
    bldcsine.o(.text) refers to bldcsine.o(.bss.hall_time_step_LPR) for hall_time_step_LPR
    bldcsine.o(.text) refers to bldcsine.o(.bss.sectorChange) for sectorChange
    bldcsine.o(.text) refers to bldcsine.o(.bss.hall_time_step_LP) for hall_time_step_LP
    bldcsine.o(.text) refers to bldcsine.o(.bss.iDT) for iDT
    bldcsine.o(.text) refers to bldcsine.o(.bss.iAdd) for iAdd
    bldcsine.o(.text) refers to bldcsine.o(.rodata.sine_table) for [Anonymous Symbol]
    bldcsine.o(.text) refers to bldcsine.o(.bss.angle_deg_final) for angle_deg_final
    bldcsine.o(.text) refers to bldcsine.o(.bss.angle_idx) for angle_idx
    bldcsine.o(.ARM.exidx) refers to bldcsine.o(.text) for [Anonymous Symbol]
    setup.o(.text) refers to gd32e23x_gpio.o(.text) for gpio_mode_set
    setup.o(.text) refers to gd32e23x_rcu.o(.text) for rcu_flag_get
    setup.o(.text) refers to gd32e23x_fwdgt.o(.text) for fwdgt_config
    setup.o(.text) refers to gd32e23x_timer.o(.text) for timer_deinit
    setup.o(.text) refers to gd32e23x_misc.o(.text) for nvic_irq_enable
    setup.o(.text) refers to setup.o(.bss.timeoutTimer_paramter_struct) for timeoutTimer_paramter_struct
    setup.o(.text) refers to setup.o(.bss.timerBldc_paramter_struct) for timerBldc_paramter_struct
    setup.o(.text) refers to system_gd32e23x.o(.data.SystemCoreClock) for SystemCoreClock
    setup.o(.text) refers to setup.o(.bss.timerBldc_oc_parameter_struct) for timerBldc_oc_parameter_struct
    setup.o(.text) refers to setup.o(.bss.timerBldc_break_parameter_struct) for timerBldc_break_parameter_struct
    setup.o(.text) refers to gd32e23x_dma.o(.text) for dma_deinit
    setup.o(.text) refers to gd32e23x_adc.o(.text) for adc_channel_length_config
    setup.o(.text) refers to setup.o(.bss.dma_init_struct_adc) for dma_init_struct_adc
    setup.o(.text) refers to bldc.o(.bss.adc_buffer) for adc_buffer
    setup.o(.text) refers to gd32e23x_fmc.o(.text) for fmc_unlock
    setup.o(.text) refers to setup.o(.bss.oConfig) for oConfig
    setup.o(.ARM.exidx) refers to setup.o(.text) for [Anonymous Symbol]
    it.o(.text) refers to it.o(.bss.msTicks) for msTicks
    it.o(.text) refers to it.o(.bss.timeoutCounter_ms) for timeoutCounter_ms
    it.o(.text) refers to gd32e23x_timer.o(.text) for timer_interrupt_flag_clear
    it.o(.text) refers to it.o(.bss.timedOut) for timedOut
    it.o(.text) refers to main.o(.bss.speed) for speed
    it.o(.text) refers to gd32e23x_adc.o(.text) for adc_software_trigger_enable
    it.o(.text) refers to it.o(.bss.TIMER0_BRK_UP_TRG_COM_IRQHandler.interrupt_toggle) for [Anonymous Symbol]
    it.o(.text) refers to it.o(.bss.iPwmTime) for iPwmTime
    it.o(.text) refers to it.o(.bss.iPwmCounter) for iPwmCounter
    it.o(.text) refers to it.o(.bss.iPwmRate) for iPwmRate
    it.o(.text) refers to gd32e23x_dma.o(.text) for dma_interrupt_flag_get
    it.o(.text) refers to bldc.o(.text) for CalculateBLDC
    it.o(.text) refers to it.o(.bss.iAdcTime) for iAdcTime
    it.o(.text) refers to it.o(.bss.iAdcCounter) for iAdcCounter
    it.o(.text) refers to it.o(.bss.iAdcRate) for iAdcRate
    it.o(.ARM.exidx) refers to it.o(.text) for [Anonymous Symbol]
    comms.o(.text) refers to gd32e23x_usart.o(.text) for usart_data_transmit
    comms.o(.ARM.exidx) refers to comms.o(.text) for [Anonymous Symbol]
    remotedummy.o(.text) refers to it.o(.text) for ResetTimeout
    remotedummy.o(.text) refers to main.o(.data.iDrivingMode) for iDrivingMode
    remotedummy.o(.text) refers to main.o(.bss.steer) for steer
    remotedummy.o(.text) refers to it.o(.bss.msTicks) for msTicks
    remotedummy.o(.text) refers to main.o(.bss.speed) for speed
    remotedummy.o(.ARM.exidx) refers to remotedummy.o(.text) for [Anonymous Symbol]
    segger_rtt.o(.text) refers to rt_memclr.o(.text) for __aeabi_memclr4
    segger_rtt.o(.text) refers to rt_memcpy.o(.text) for __aeabi_memcpy
    segger_rtt.o(.text) refers to segger_rtt.o(.bss._SEGGER_RTT) for _SEGGER_RTT
    segger_rtt.o(.text) refers to segger_rtt.o(.rodata.str1.1) for [Anonymous Symbol]
    segger_rtt.o(.text) refers to segger_rtt.o(.bss._acUpBuffer) for [Anonymous Symbol]
    segger_rtt.o(.text) refers to segger_rtt.o(.bss._acDownBuffer) for [Anonymous Symbol]
    segger_rtt.o(.text) refers to segger_rtt.o(.rodata._DoInit._aInitStr) for [Anonymous Symbol]
    segger_rtt.o(.text) refers to strlen.o(.text) for strlen
    segger_rtt.o(.text) refers to segger_rtt.o(.rodata.cst16) for [Anonymous Symbol]
    segger_rtt.o(.text) refers to segger_rtt.o(.bss._ActiveTerminal) for [Anonymous Symbol]
    segger_rtt.o(.ARM.exidx) refers to segger_rtt.o(.text) for [Anonymous Symbol]
    gd32e23x_adc.o(.text) refers to gd32e23x_rcu.o(.text) for rcu_periph_reset_enable
    gd32e23x_adc.o(.ARM.exidx) refers to gd32e23x_adc.o(.text) for [Anonymous Symbol]
    gd32e23x_dma.o(.ARM.exidx) refers to gd32e23x_dma.o(.text) for [Anonymous Symbol]
    gd32e23x_exti.o(.ARM.exidx) refers to gd32e23x_exti.o(.text) for [Anonymous Symbol]
    gd32e23x_fmc.o(.ARM.exidx) refers to gd32e23x_fmc.o(.text) for [Anonymous Symbol]
    gd32e23x_fwdgt.o(.ARM.exidx) refers to gd32e23x_fwdgt.o(.text) for [Anonymous Symbol]
    gd32e23x_gpio.o(.text) refers to gd32e23x_rcu.o(.text) for rcu_periph_reset_enable
    gd32e23x_gpio.o(.text) refers to gd32e23x_gpio.o(.rodata..Lswitch.table.gpio_deinit.1) for [Anonymous Symbol]
    gd32e23x_gpio.o(.ARM.exidx) refers to gd32e23x_gpio.o(.text) for [Anonymous Symbol]
    gd32e23x_i2c.o(.text) refers to gd32e23x_rcu.o(.text) for rcu_periph_reset_enable
    gd32e23x_i2c.o(.ARM.exidx) refers to gd32e23x_i2c.o(.text) for [Anonymous Symbol]
    gd32e23x_misc.o(.ARM.exidx) refers to gd32e23x_misc.o(.text) for [Anonymous Symbol]
    gd32e23x_pmu.o(.text) refers to gd32e23x_rcu.o(.text) for rcu_periph_reset_enable
    gd32e23x_pmu.o(.text) refers to gd32e23x_pmu.o(.bss.pmu_to_deepsleepmode.reg_snap.0) for [Anonymous Symbol]
    gd32e23x_pmu.o(.text) refers to gd32e23x_pmu.o(.bss.pmu_to_deepsleepmode.reg_snap.1) for [Anonymous Symbol]
    gd32e23x_pmu.o(.text) refers to gd32e23x_pmu.o(.bss.pmu_to_deepsleepmode.reg_snap.2) for [Anonymous Symbol]
    gd32e23x_pmu.o(.ARM.exidx) refers to gd32e23x_pmu.o(.text) for [Anonymous Symbol]
    gd32e23x_rcu.o(.text) refers to gd32e23x_rcu.o(.rodata.cst8) for [Anonymous Symbol]
    gd32e23x_rcu.o(.ARM.exidx) refers to gd32e23x_rcu.o(.text) for [Anonymous Symbol]
    gd32e23x_syscfg.o(.text) refers to gd32e23x_rcu.o(.text) for rcu_periph_reset_enable
    gd32e23x_syscfg.o(.ARM.exidx) refers to gd32e23x_syscfg.o(.text) for [Anonymous Symbol]
    gd32e23x_timer.o(.text) refers to gd32e23x_rcu.o(.text) for rcu_periph_reset_enable
    gd32e23x_timer.o(.ARM.exidx) refers to gd32e23x_timer.o(.text) for [Anonymous Symbol]
    gd32e23x_usart.o(.text) refers to gd32e23x_rcu.o(.text) for rcu_periph_reset_enable
    gd32e23x_usart.o(.ARM.exidx) refers to gd32e23x_usart.o(.text) for [Anonymous Symbol]
    gd32e23x_wwdgt.o(.text) refers to gd32e23x_rcu.o(.text) for rcu_periph_reset_enable
    gd32e23x_wwdgt.o(.ARM.exidx) refers to gd32e23x_wwdgt.o(.text) for [Anonymous Symbol]
    startup_gd32e23x.o(STACK) refers (Special) to heapauxi.o(.text) for __use_two_region_memory
    startup_gd32e23x.o(HEAP) refers (Special) to heapauxi.o(.text) for __use_two_region_memory
    startup_gd32e23x.o(RESET) refers (Special) to heapauxi.o(.text) for __use_two_region_memory
    startup_gd32e23x.o(RESET) refers to startup_gd32e23x.o(STACK) for __initial_sp
    startup_gd32e23x.o(RESET) refers to startup_gd32e23x.o(.text) for Reset_Handler
    startup_gd32e23x.o(RESET) refers to it.o(.text) for NMI_Handler
    startup_gd32e23x.o(RESET) refers to bldcsine.o(.text) for EXTI0_1_IRQHandler
    startup_gd32e23x.o(.text) refers (Special) to heapauxi.o(.text) for __use_two_region_memory
    startup_gd32e23x.o(.text) refers to system_gd32e23x.o(.text) for SystemInit
    startup_gd32e23x.o(.text) refers to __main.o(!!!main) for __main
    startup_gd32e23x.o(.text) refers to startup_gd32e23x.o(HEAP) for Heap_Mem
    startup_gd32e23x.o(.text) refers to startup_gd32e23x.o(STACK) for Stack_Mem
    system_gd32e23x.o(.text) refers to gd32e23x_misc.o(.text) for nvic_vector_table_set
    system_gd32e23x.o(.text) refers to system_gd32e23x.o(.data.SystemCoreClock) for SystemCoreClock
    system_gd32e23x.o(.ARM.exidx) refers to system_gd32e23x.o(.text) for [Anonymous Symbol]
    rt_memcpy.o(.text) refers to rt_memcpy.o(.emb_text) for __aeabi_memcpy4
    __main.o(!!!main) refers to __rtentry.o(.ARM.Collect$$rtentry$$00000000) for __rt_entry
    d2f.o(.text) refers (Special) to usenofp.o(x$fpl$usenofp) for __I$use$fp
    daddsub.o(.text) refers (Special) to usenofp.o(x$fpl$usenofp) for __I$use$fp
    dcmp.o(i.__eqdf2) refers (Special) to usenofp.o(x$fpl$usenofp) for __I$use$fp
    dcmp.o(i.__eqdf2) refers to deqf.o(x$fpl$deqf) for _dcmpeq
    dcmp.o(i.__gedf2) refers (Special) to usenofp.o(x$fpl$usenofp) for __I$use$fp
    dcmp.o(i.__gedf2) refers to dgef.o(x$fpl$dgeqf) for _dcmpge
    dcmp.o(i.__gtdf2) refers (Special) to usenofp.o(x$fpl$usenofp) for __I$use$fp
    dcmp.o(i.__gtdf2) refers to dgef.o(x$fpl$dgeqf) for _dcmpge
    dcmp.o(i.__ledf2) refers (Special) to usenofp.o(x$fpl$usenofp) for __I$use$fp
    dcmp.o(i.__ledf2) refers to dlef.o(x$fpl$dleqf) for _dcmple
    dcmp.o(i.__ltdf2) refers (Special) to usenofp.o(x$fpl$usenofp) for __I$use$fp
    dcmp.o(i.__ltdf2) refers to dlef.o(x$fpl$dleqf) for _dcmple
    dcmp.o(i.__nedf2) refers (Special) to usenofp.o(x$fpl$usenofp) for __I$use$fp
    dcmp.o(i.__nedf2) refers to deqf.o(x$fpl$deqf) for _dcmpeq
    dcmp.o(i._deq) refers (Special) to usenofp.o(x$fpl$usenofp) for __I$use$fp
    dcmp.o(i._deq) refers to deqf.o(x$fpl$deqf) for _dcmpeq
    dcmp.o(i._dgeq) refers (Special) to usenofp.o(x$fpl$usenofp) for __I$use$fp
    dcmp.o(i._dgeq) refers to dgef.o(x$fpl$dgeqf) for _dcmpge
    dcmp.o(i._dgr) refers (Special) to usenofp.o(x$fpl$usenofp) for __I$use$fp
    dcmp.o(i._dgr) refers to dgef.o(x$fpl$dgeqf) for _dcmpge
    dcmp.o(i._dleq) refers (Special) to usenofp.o(x$fpl$usenofp) for __I$use$fp
    dcmp.o(i._dleq) refers to dlef.o(x$fpl$dleqf) for _dcmple
    dcmp.o(i._dls) refers (Special) to usenofp.o(x$fpl$usenofp) for __I$use$fp
    dcmp.o(i._dls) refers to dlef.o(x$fpl$dleqf) for _dcmple
    dcmp.o(i._dneq) refers (Special) to usenofp.o(x$fpl$usenofp) for __I$use$fp
    dcmp.o(i._dneq) refers to deqf.o(x$fpl$deqf) for _dcmpeq
    ddiv.o(.text) refers (Special) to usenofp.o(x$fpl$usenofp) for __I$use$fp
    ddiv.o(.text) refers to ddiv.o(.constdata) for .constdata
    ddiv.o(.constdata) refers (Special) to usenofp.o(x$fpl$usenofp) for __I$use$fp
    dfixi.o(.text) refers (Special) to usenofp.o(x$fpl$usenofp) for __I$use$fp
    dflti.o(.text) refers (Special) to usenofp.o(x$fpl$usenofp) for __I$use$fp
    dmul.o(.text) refers (Special) to usenofp.o(x$fpl$usenofp) for __I$use$fp
    f2d.o(.text) refers (Special) to usenofp.o(x$fpl$usenofp) for __I$use$fp
    faddsub.o(x$fpl$fadd) refers (Special) to usenofp.o(x$fpl$usenofp) for __I$use$fp
    faddsub.o(x$fpl$fadd) refers to faddsub.o(x$fpl$fsub) for _fsub1
    faddsub.o(x$fpl$frsb) refers (Special) to usenofp.o(x$fpl$usenofp) for __I$use$fp
    faddsub.o(x$fpl$frsb) refers to faddsub.o(x$fpl$fsub) for _fsub1
    faddsub.o(x$fpl$frsb) refers to faddsub.o(x$fpl$fadd) for _fadd1
    faddsub.o(x$fpl$fsub) refers (Special) to usenofp.o(x$fpl$usenofp) for __I$use$fp
    faddsub.o(x$fpl$fsub) refers to faddsub.o(x$fpl$fadd) for _fadd1
    fcmp.o(i.__eqsf2) refers (Special) to usenofp.o(x$fpl$usenofp) for __I$use$fp
    fcmp.o(i.__eqsf2) refers to feqf.o(x$fpl$feqf) for _fcmpeq
    fcmp.o(i.__gesf2) refers (Special) to usenofp.o(x$fpl$usenofp) for __I$use$fp
    fcmp.o(i.__gesf2) refers to fgef.o(x$fpl$fgeqf) for _fcmpge
    fcmp.o(i.__gtsf2) refers (Special) to usenofp.o(x$fpl$usenofp) for __I$use$fp
    fcmp.o(i.__gtsf2) refers to fgef.o(x$fpl$fgeqf) for _fcmpge
    fcmp.o(i.__lesf2) refers (Special) to usenofp.o(x$fpl$usenofp) for __I$use$fp
    fcmp.o(i.__lesf2) refers to flef.o(x$fpl$fleqf) for _fcmple
    fcmp.o(i.__ltsf2) refers (Special) to usenofp.o(x$fpl$usenofp) for __I$use$fp
    fcmp.o(i.__ltsf2) refers to flef.o(x$fpl$fleqf) for _fcmple
    fcmp.o(i.__nesf2) refers (Special) to usenofp.o(x$fpl$usenofp) for __I$use$fp
    fcmp.o(i.__nesf2) refers to feqf.o(x$fpl$feqf) for _fcmpeq
    fcmp.o(i._feq) refers (Special) to usenofp.o(x$fpl$usenofp) for __I$use$fp
    fcmp.o(i._feq) refers to feqf.o(x$fpl$feqf) for _fcmpeq
    fcmp.o(i._fgeq) refers (Special) to usenofp.o(x$fpl$usenofp) for __I$use$fp
    fcmp.o(i._fgeq) refers to fgef.o(x$fpl$fgeqf) for _fcmpge
    fcmp.o(i._fgr) refers (Special) to usenofp.o(x$fpl$usenofp) for __I$use$fp
    fcmp.o(i._fgr) refers to fgef.o(x$fpl$fgeqf) for _fcmpge
    fcmp.o(i._fleq) refers (Special) to usenofp.o(x$fpl$usenofp) for __I$use$fp
    fcmp.o(i._fleq) refers to flef.o(x$fpl$fleqf) for _fcmple
    fcmp.o(i._fls) refers (Special) to usenofp.o(x$fpl$usenofp) for __I$use$fp
    fcmp.o(i._fls) refers to flef.o(x$fpl$fleqf) for _fcmple
    fcmp.o(i._fneq) refers (Special) to usenofp.o(x$fpl$usenofp) for __I$use$fp
    fcmp.o(i._fneq) refers to feqf.o(x$fpl$feqf) for _fcmpeq
    fdiv.o(.text) refers (Special) to usenofp.o(x$fpl$usenofp) for __I$use$fp
    fdiv.o(.text) refers to fdiv.o(.constdata) for .constdata
    fdiv.o(.constdata) refers (Special) to usenofp.o(x$fpl$usenofp) for __I$use$fp
    ffixi.o(.text) refers (Special) to usenofp.o(x$fpl$usenofp) for __I$use$fp
    ffixl.o(.text) refers (Special) to usenofp.o(x$fpl$usenofp) for __I$use$fp
    fflti.o(.text) refers (Special) to usenofp.o(x$fpl$usenofp) for __I$use$fp
    fmul.o(x$fpl$fmul) refers (Special) to usenofp.o(x$fpl$usenofp) for __I$use$fp
    __rtentry.o(.ARM.Collect$$rtentry$$00000000) refers (Special) to __rtentry2.o(.ARM.Collect$$rtentry$$0000000A) for __rt_entry_li
    __rtentry.o(.ARM.Collect$$rtentry$$00000000) refers (Special) to __rtentry2.o(.ARM.Collect$$rtentry$$0000000D) for __rt_entry_main
    __rtentry.o(.ARM.Collect$$rtentry$$00000000) refers (Special) to __rtentry2.o(.ARM.Collect$$rtentry$$0000000C) for __rt_entry_postli_1
    __rtentry.o(.ARM.Collect$$rtentry$$00000000) refers (Special) to __rtentry2.o(.ARM.Collect$$rtentry$$00000009) for __rt_entry_postsh_1
    __rtentry.o(.ARM.Collect$$rtentry$$00000000) refers (Special) to __rtentry2.o(.ARM.Collect$$rtentry$$00000002) for __rt_entry_presh_1
    __rtentry.o(.ARM.Collect$$rtentry$$00000000) refers (Special) to __rtentry4.o(.ARM.Collect$$rtentry$$00000004) for __rt_entry_sh
    deqf.o(x$fpl$deqf) refers (Special) to usenofp.o(x$fpl$usenofp) for __I$use$fp
    deqf.o(x$fpl$deqf) refers to dcmpin.o(.text) for __fpl_dcmp_InfNaN
    dgef.o(x$fpl$dgeqf) refers (Special) to usenofp.o(x$fpl$usenofp) for __I$use$fp
    dgef.o(x$fpl$dgeqf) refers to dcmpin.o(.text) for __fpl_dcmp_InfNaN
    dlef.o(x$fpl$dleqf) refers (Special) to usenofp.o(x$fpl$usenofp) for __I$use$fp
    dlef.o(x$fpl$dleqf) refers to dcmpin.o(.text) for __fpl_dcmp_InfNaN
    feqf.o(x$fpl$feqf) refers (Special) to usenofp.o(x$fpl$usenofp) for __I$use$fp
    feqf.o(x$fpl$feqf) refers to fcmpin.o(.text) for __fpl_fcmp_InfNaN
    fgef.o(x$fpl$fgeqf) refers (Special) to usenofp.o(x$fpl$usenofp) for __I$use$fp
    fgef.o(x$fpl$fgeqf) refers to fcmpin.o(.text) for __fpl_fcmp_InfNaN
    flef.o(x$fpl$fleqf) refers (Special) to usenofp.o(x$fpl$usenofp) for __I$use$fp
    flef.o(x$fpl$fleqf) refers to fcmpin.o(.text) for __fpl_fcmp_InfNaN
    __rtentry2.o(.ARM.Collect$$rtentry$$00000008) refers to boardinit2.o(.text) for _platform_post_stackheap_init
    __rtentry2.o(.ARM.Collect$$rtentry$$0000000A) refers to libinit.o(.ARM.Collect$$libinit$$00000000) for __rt_lib_init
    __rtentry2.o(.ARM.Collect$$rtentry$$0000000B) refers to boardinit3.o(.text) for _platform_post_lib_init
    __rtentry2.o(.ARM.Collect$$rtentry$$0000000D) refers to main.o(.text) for main
    __rtentry2.o(.ARM.Collect$$rtentry$$0000000D) refers to exit.o(.text) for exit
    __rtentry2.o(.ARM.exidx) refers to __rtentry2.o(.ARM.Collect$$rtentry$$00000001) for .ARM.Collect$$rtentry$$00000001
    __rtentry2.o(.ARM.exidx) refers to __rtentry2.o(.ARM.Collect$$rtentry$$00000008) for .ARM.Collect$$rtentry$$00000008
    __rtentry2.o(.ARM.exidx) refers to __rtentry2.o(.ARM.Collect$$rtentry$$0000000A) for .ARM.Collect$$rtentry$$0000000A
    __rtentry2.o(.ARM.exidx) refers to __rtentry2.o(.ARM.Collect$$rtentry$$0000000B) for .ARM.Collect$$rtentry$$0000000B
    __rtentry2.o(.ARM.exidx) refers to __rtentry2.o(.ARM.Collect$$rtentry$$0000000D) for .ARM.Collect$$rtentry$$0000000D
    __rtentry4.o(.ARM.Collect$$rtentry$$00000004) refers to sys_stackheap_outer.o(.text) for __user_setup_stackheap
    __rtentry4.o(.ARM.exidx) refers to __rtentry4.o(.ARM.Collect$$rtentry$$00000004) for .ARM.Collect$$rtentry$$00000004
    dcmpin.o(.text) refers (Special) to usenofp.o(x$fpl$usenofp) for __I$use$fp
    dcmpin.o(.text) refers to cmpret.o(.text) for __fpl_cmpreturn
    dcmpin.o(.text) refers to dnan2.o(.text) for __fpl_dcheck_NaN2
    fcmpin.o(.text) refers (Special) to usenofp.o(x$fpl$usenofp) for __I$use$fp
    fcmpin.o(.text) refers to cmpret.o(.text) for __fpl_cmpreturn
    fcmpin.o(.text) refers to fnan2.o(.text) for __fpl_fcheck_NaN2
    sys_stackheap_outer.o(.text) refers to libspace.o(.text) for __user_perproc_libspace
    sys_stackheap_outer.o(.text) refers to startup_gd32e23x.o(.text) for __user_initial_stackheap
    sys_stackheap_outer.o(__vectab_stack_and_reset_area) refers to tempstk.o(.text) for __temporary_stack_top
    sys_stackheap_outer.o(__vectab_stack_and_reset_area) refers to __main.o(!!!main) for __main
    exit.o(.text) refers to rtexit.o(.ARM.Collect$$rtexit$$00000000) for __rt_exit
    libinit.o(.ARM.Collect$$libinit$$00000000) refers (Special) to libinit2.o(.ARM.Collect$$libinit$$00000030) for __rt_lib_init_alloca_1
    libinit.o(.ARM.Collect$$libinit$$00000000) refers (Special) to libinit2.o(.ARM.Collect$$libinit$$0000002E) for __rt_lib_init_argv_1
    libinit.o(.ARM.Collect$$libinit$$00000000) refers (Special) to libinit2.o(.ARM.Collect$$libinit$$0000001D) for __rt_lib_init_atexit_1
    libinit.o(.ARM.Collect$$libinit$$00000000) refers (Special) to libinit2.o(.ARM.Collect$$libinit$$00000023) for __rt_lib_init_clock_1
    libinit.o(.ARM.Collect$$libinit$$00000000) refers (Special) to libinit2.o(.ARM.Collect$$libinit$$00000034) for __rt_lib_init_cpp_1
    libinit.o(.ARM.Collect$$libinit$$00000000) refers (Special) to libinit2.o(.ARM.Collect$$libinit$$00000032) for __rt_lib_init_exceptions_1
    libinit.o(.ARM.Collect$$libinit$$00000000) refers (Special) to libinit2.o(.ARM.Collect$$libinit$$00000002) for __rt_lib_init_fp_1
    libinit.o(.ARM.Collect$$libinit$$00000000) refers (Special) to libinit2.o(.ARM.Collect$$libinit$$00000021) for __rt_lib_init_fp_trap_1
    libinit.o(.ARM.Collect$$libinit$$00000000) refers (Special) to libinit2.o(.ARM.Collect$$libinit$$00000025) for __rt_lib_init_getenv_1
    libinit.o(.ARM.Collect$$libinit$$00000000) refers (Special) to libinit2.o(.ARM.Collect$$libinit$$0000000C) for __rt_lib_init_heap_1
    libinit.o(.ARM.Collect$$libinit$$00000000) refers (Special) to libinit2.o(.ARM.Collect$$libinit$$00000013) for __rt_lib_init_lc_collate_1
    libinit.o(.ARM.Collect$$libinit$$00000000) refers (Special) to libinit2.o(.ARM.Collect$$libinit$$00000015) for __rt_lib_init_lc_ctype_1
    libinit.o(.ARM.Collect$$libinit$$00000000) refers (Special) to libinit2.o(.ARM.Collect$$libinit$$00000017) for __rt_lib_init_lc_monetary_1
    libinit.o(.ARM.Collect$$libinit$$00000000) refers (Special) to libinit2.o(.ARM.Collect$$libinit$$00000019) for __rt_lib_init_lc_numeric_1
    libinit.o(.ARM.Collect$$libinit$$00000000) refers (Special) to libinit2.o(.ARM.Collect$$libinit$$0000001B) for __rt_lib_init_lc_time_1
    libinit.o(.ARM.Collect$$libinit$$00000000) refers (Special) to libinit2.o(.ARM.Collect$$libinit$$00000006) for __rt_lib_init_preinit_1
    libinit.o(.ARM.Collect$$libinit$$00000000) refers (Special) to libinit2.o(.ARM.Collect$$libinit$$00000010) for __rt_lib_init_rand_1
    libinit.o(.ARM.Collect$$libinit$$00000000) refers (Special) to libinit2.o(.ARM.Collect$$libinit$$00000004) for __rt_lib_init_relocate_pie_1
    libinit.o(.ARM.Collect$$libinit$$00000000) refers (Special) to libinit2.o(.ARM.Collect$$libinit$$00000035) for __rt_lib_init_return
    libinit.o(.ARM.Collect$$libinit$$00000000) refers (Special) to libinit2.o(.ARM.Collect$$libinit$$0000001F) for __rt_lib_init_signal_1
    libinit.o(.ARM.Collect$$libinit$$00000000) refers (Special) to libinit2.o(.ARM.Collect$$libinit$$00000027) for __rt_lib_init_stdio_1
    libinit.o(.ARM.Collect$$libinit$$00000000) refers (Special) to libinit2.o(.ARM.Collect$$libinit$$0000000E) for __rt_lib_init_user_alloc_1
    cmpret.o(.text) refers (Special) to usenofp.o(x$fpl$usenofp) for __I$use$fp
    dnan2.o(.text) refers (Special) to usenofp.o(x$fpl$usenofp) for __I$use$fp
    dnan2.o(.text) refers to retnan.o(.text) for __fpl_return_NaN
    fnan2.o(.text) refers (Special) to usenofp.o(x$fpl$usenofp) for __I$use$fp
    fnan2.o(.text) refers to retnan.o(.text) for __fpl_return_NaN
    libspace.o(.text) refers to libspace.o(.bss) for __libspace_start
    rtexit.o(.ARM.Collect$$rtexit$$00000000) refers (Special) to rtexit2.o(.ARM.Collect$$rtexit$$00000004) for __rt_exit_exit
    rtexit.o(.ARM.Collect$$rtexit$$00000000) refers (Special) to rtexit2.o(.ARM.Collect$$rtexit$$00000003) for __rt_exit_ls
    rtexit.o(.ARM.Collect$$rtexit$$00000000) refers (Special) to rtexit2.o(.ARM.Collect$$rtexit$$00000002) for __rt_exit_prels_1
    rtexit.o(.ARM.exidx) refers (Special) to rtexit2.o(.ARM.Collect$$rtexit$$00000004) for __rt_exit_exit
    rtexit.o(.ARM.exidx) refers (Special) to rtexit2.o(.ARM.Collect$$rtexit$$00000003) for __rt_exit_ls
    rtexit.o(.ARM.exidx) refers (Special) to rtexit2.o(.ARM.Collect$$rtexit$$00000002) for __rt_exit_prels_1
    rtexit.o(.ARM.exidx) refers to rtexit.o(.ARM.Collect$$rtexit$$00000000) for .ARM.Collect$$rtexit$$00000000
    libinit2.o(.ARM.Collect$$libinit$$00000012) refers to libinit2.o(.ARM.Collect$$libinit$$00000011) for .ARM.Collect$$libinit$$00000011
    libinit2.o(.ARM.Collect$$libinit$$00000014) refers to libinit2.o(.ARM.Collect$$libinit$$00000011) for .ARM.Collect$$libinit$$00000011
    libinit2.o(.ARM.Collect$$libinit$$00000016) refers to libinit2.o(.ARM.Collect$$libinit$$00000011) for .ARM.Collect$$libinit$$00000011
    libinit2.o(.ARM.Collect$$libinit$$00000018) refers to libinit2.o(.ARM.Collect$$libinit$$00000011) for .ARM.Collect$$libinit$$00000011
    libinit2.o(.ARM.Collect$$libinit$$0000001A) refers to libinit2.o(.ARM.Collect$$libinit$$00000011) for .ARM.Collect$$libinit$$00000011
    libinit2.o(.ARM.Collect$$libinit$$00000028) refers to argv_veneer.o(.text) for __ARM_argv_veneer
    libinit2.o(.ARM.Collect$$libinit$$00000029) refers to argv_veneer.o(.text) for __ARM_argv_veneer
    retnan.o(.text) refers (Special) to usenofp.o(x$fpl$usenofp) for __I$use$fp
    retnan.o(.text) refers to cmpret.o(.text) for __fpl_cmpreturn
    rtexit2.o(.ARM.Collect$$rtexit$$00000003) refers to libshutdown.o(.ARM.Collect$$libshutdown$$00000000) for __rt_lib_shutdown
    rtexit2.o(.ARM.Collect$$rtexit$$00000004) refers to sys_exit.o(.text) for _sys_exit
    rtexit2.o(.ARM.exidx) refers to rtexit2.o(.ARM.Collect$$rtexit$$00000001) for .ARM.Collect$$rtexit$$00000001
    rtexit2.o(.ARM.exidx) refers to rtexit2.o(.ARM.Collect$$rtexit$$00000003) for .ARM.Collect$$rtexit$$00000003
    rtexit2.o(.ARM.exidx) refers to rtexit2.o(.ARM.Collect$$rtexit$$00000004) for .ARM.Collect$$rtexit$$00000004
    sys_exit.o(.text) refers (Special) to use_no_semi.o(.text) for __I$use$semihosting
    sys_exit.o(.text) refers (Special) to indicate_semi.o(.text) for __semihosting_library_function
    sys_exit_hlt.o(.text) refers (Special) to use_no_semi.o(.text) for __I$use$semihosting
    sys_exit_hlt.o(.text) refers (Special) to indicate_semi.o(.text) for __semihosting_library_function
    _get_argv_nomalloc.o(.text) refers (Special) to hrguard.o(.text) for __heap_region$guard
    _get_argv_nomalloc.o(.text) refers to defsig_rtmem_outer.o(.text) for __rt_SIGRTMEM
    _get_argv_nomalloc.o(.text) refers to sys_command.o(.text) for _sys_command_string
    libshutdown.o(.ARM.Collect$$libshutdown$$00000000) refers (Special) to libshutdown2.o(.ARM.Collect$$libshutdown$$00000002) for __rt_lib_shutdown_cpp_1
    libshutdown.o(.ARM.Collect$$libshutdown$$00000000) refers (Special) to libshutdown2.o(.ARM.Collect$$libshutdown$$00000007) for __rt_lib_shutdown_fp_trap_1
    libshutdown.o(.ARM.Collect$$libshutdown$$00000000) refers (Special) to libshutdown2.o(.ARM.Collect$$libshutdown$$0000000F) for __rt_lib_shutdown_heap_1
    libshutdown.o(.ARM.Collect$$libshutdown$$00000000) refers (Special) to libshutdown2.o(.ARM.Collect$$libshutdown$$00000010) for __rt_lib_shutdown_return
    libshutdown.o(.ARM.Collect$$libshutdown$$00000000) refers (Special) to libshutdown2.o(.ARM.Collect$$libshutdown$$0000000A) for __rt_lib_shutdown_signal_1
    libshutdown.o(.ARM.Collect$$libshutdown$$00000000) refers (Special) to libshutdown2.o(.ARM.Collect$$libshutdown$$00000004) for __rt_lib_shutdown_stdio_1
    libshutdown.o(.ARM.Collect$$libshutdown$$00000000) refers (Special) to libshutdown2.o(.ARM.Collect$$libshutdown$$0000000C) for __rt_lib_shutdown_user_alloc_1
    sys_command.o(.text) refers (Special) to use_no_semi.o(.text) for __I$use$semihosting
    sys_command.o(.text) refers (Special) to indicate_semi.o(.text) for __semihosting_library_function
    sys_command_hlt.o(.text) refers (Special) to use_no_semi.o(.text) for __I$use$semihosting
    sys_command_hlt.o(.text) refers (Special) to indicate_semi.o(.text) for __semihosting_library_function
    defsig_rtmem_outer.o(.text) refers to defsig_rtmem_inner.o(.text) for __rt_SIGRTMEM_inner
    defsig_rtmem_outer.o(.text) refers to defsig_exit.o(.text) for __sig_exit
    defsig_rtmem_formal.o(.text) refers to rt_raise.o(.text) for __rt_raise
    rt_raise.o(.text) refers to __raise.o(.text) for __raise
    rt_raise.o(.text) refers to sys_exit.o(.text) for _sys_exit
    defsig_exit.o(.text) refers to sys_exit.o(.text) for _sys_exit
    defsig_rtmem_inner.o(.text) refers to defsig_general.o(.text) for __default_signal_display
    __raise.o(.text) refers to defsig.o(CL$$defsig) for __default_signal_handler
    defsig_general.o(.text) refers to sys_wrch.o(.text) for _ttywrch
    sys_wrch.o(.text) refers (Special) to use_no_semi.o(.text) for __I$use$semihosting
    sys_wrch.o(.text) refers (Special) to indicate_semi.o(.text) for __semihosting_library_function
    sys_wrch_hlt.o(.text) refers (Special) to use_no_semi.o(.text) for __I$use$semihosting
    sys_wrch_hlt.o(.text) refers (Special) to indicate_semi.o(.text) for __semihosting_library_function
    defsig.o(CL$$defsig) refers to defsig_rtmem_inner.o(.text) for __rt_SIGRTMEM_inner
    defsig_abrt_inner.o(.text) refers to defsig_general.o(.text) for __default_signal_display
    defsig_fpe_inner.o(.text) refers to defsig_general.o(.text) for __default_signal_display
    defsig_rtred_inner.o(.text) refers to defsig_general.o(.text) for __default_signal_display
    defsig_stak_inner.o(.text) refers to defsig_general.o(.text) for __default_signal_display
    defsig_pvfn_inner.o(.text) refers to defsig_general.o(.text) for __default_signal_display
    defsig_cppl_inner.o(.text) refers to defsig_general.o(.text) for __default_signal_display
    defsig_segv_inner.o(.text) refers to defsig_general.o(.text) for __default_signal_display
    defsig_other.o(.text) refers to defsig_general.o(.text) for __default_signal_display


==============================================================================

Removing Unused input sections from the image.

    Removing main.o(.ARM.exidx), (24 bytes).
    Removing main.o(.data.iBug8), (1 bytes).
    Removing main.o(.data.wStateSlave), (1 bytes).
    Removing main.o(.bss.activateWeakening), (1 bytes).
    Removing main.o(.bss.slaveError), (1 bytes).
    Removing main.o(.ARM.use_no_argv), (4 bytes).
    Removing bldc.o(.ARM.exidx), (48 bytes).
    Removing bldc.o(.bss.realSpeed32_reg), (4 bytes).
    Removing driver.o(.ARM.exidx), (32 bytes).
    Removing bldcbc.o(.text), (0 bytes).
    Removing bldcsine.o(.ARM.exidx), (56 bytes).
    Removing bldcsine.o(.bss.fGradient), (4 bytes).
    Removing bldcsine.o(.bss.fGradientX), (4 bytes).
    Removing setup.o(.ARM.exidx), (152 bytes).
    Removing setup.o(.bss.dma_init_struct_usart), (28 bytes).
    Removing setup.o(.bss.usart0_rx_buf), (1 bytes).
    Removing setup.o(.bss.usart1_rx_buf), (1 bytes).
    Removing setup.o(.bss.usart2_rx_buf), (1 bytes).
    Removing it.o(.ARM.exidx), (120 bytes).
    Removing it.o(.bss.iPwmTicks), (4 bytes).
    Removing it.o(.bss.iPwmTicks0), (4 bytes).
    Removing it.o(.bss.iAdcTicks), (4 bytes).
    Removing it.o(.bss.iAdcTicks0), (4 bytes).
    Removing it.o(.bss.iCounterUsart0), (4 bytes).
    Removing it.o(.bss.iCounter2Usart0), (4 bytes).
    Removing it.o(.bss.iCounterUsart1), (4 bytes).
    Removing it.o(.bss.iCounter2Usart1), (4 bytes).
    Removing it.o(.bss.iCounterUsart2), (4 bytes).
    Removing it.o(.bss.iCounter2Usart2), (4 bytes).
    Removing led.o(.text), (0 bytes).
    Removing comms.o(.text), (124 bytes).
    Removing comms.o(.ARM.exidx), (16 bytes).
    Removing remoteuart.o(.text), (0 bytes).
    Removing remotecrsf.o(.text), (0 bytes).
    Removing remotedummy.o(.ARM.exidx), (24 bytes).
    Removing remotedummy.o(.bss.iTimeRTT), (4 bytes).
    Removing remoteuartbus.o(.text), (0 bytes).
    Removing commsmasterslave.o(.text), (0 bytes).
    Removing commsmasterslave.o(.bss.mosfetOutMaster), (1 bytes).
    Removing commsmasterslave.o(.bss.beepsBackwardsMaster), (1 bytes).
    Removing remoteadc.o(.text), (0 bytes).
    Removing remoteautodetect.o(.text), (0 bytes).
    Removing remoteautodetect.o(.bss.i), (2 bytes).
    Removing remoteros2.o(.text), (0 bytes).
    Removing i2c.o(.text), (0 bytes).
    Removing mpu6050.o(.text), (0 bytes).
    Removing pilothoverbike.o(.text), (0 bytes).
    Removing pilotuser.o(.text), (0 bytes).
    Removing segger_rtt.o(.text), (5584 bytes).
    Removing segger_rtt.o(.ARM.exidx), (256 bytes).
    Removing segger_rtt.o(.bss._SEGGER_RTT), (168 bytes).
    Removing segger_rtt.o(.rodata.cst16), (16 bytes).
    Removing segger_rtt.o(.bss._ActiveTerminal), (1 bytes).
    Removing segger_rtt.o(.rodata._DoInit._aInitStr), (17 bytes).
    Removing segger_rtt.o(.rodata.str1.1), (9 bytes).
    Removing segger_rtt.o(.bss._acUpBuffer), (1024 bytes).
    Removing segger_rtt.o(.bss._acDownBuffer), (16 bytes).
    Removing gd32e23x_adc.o(.ARM.exidx), (272 bytes).
    Removing gd32e23x_dma.o(.ARM.exidx), (216 bytes).
    Removing gd32e23x_exti.o(.ARM.exidx), (96 bytes).
    Removing gd32e23x_fmc.o(.ARM.exidx), (240 bytes).
    Removing gd32e23x_fwdgt.o(.ARM.exidx), (72 bytes).
    Removing gd32e23x_gpio.o(.ARM.exidx), (120 bytes).
    Removing gd32e23x_i2c.o(.text), (892 bytes).
    Removing gd32e23x_i2c.o(.ARM.exidx), (280 bytes).
    Removing gd32e23x_misc.o(.ARM.exidx), (56 bytes).
    Removing gd32e23x_pmu.o(.text), (456 bytes).
    Removing gd32e23x_pmu.o(.ARM.exidx), (104 bytes).
    Removing gd32e23x_pmu.o(.bss.pmu_to_deepsleepmode.reg_snap.0), (4 bytes).
    Removing gd32e23x_pmu.o(.bss.pmu_to_deepsleepmode.reg_snap.1), (4 bytes).
    Removing gd32e23x_pmu.o(.bss.pmu_to_deepsleepmode.reg_snap.2), (4 bytes).
    Removing gd32e23x_rcu.o(.ARM.exidx), (312 bytes).
    Removing gd32e23x_syscfg.o(.ARM.exidx), (80 bytes).
    Removing gd32e23x_timer.o(.ARM.exidx), (584 bytes).
    Removing gd32e23x_usart.o(.text), (1692 bytes).
    Removing gd32e23x_usart.o(.ARM.exidx), (592 bytes).
    Removing gd32e23x_wwdgt.o(.text), (156 bytes).
    Removing gd32e23x_wwdgt.o(.ARM.exidx), (56 bytes).
    Removing system_gd32e23x.o(.ARM.exidx), (16 bytes).

79 unused section(s) (total 14090 bytes) removed from the image.

==============================================================================

Image Symbol Table

    Local Symbols

    Symbol Name                              Value     Ov Type        Size  Object(Section)

    ../clib/angel/boardlib.s                 0x00000000   Number         0  boardinit1.o ABSOLUTE
    ../clib/angel/boardlib.s                 0x00000000   Number         0  boardinit2.o ABSOLUTE
    ../clib/angel/boardlib.s                 0x00000000   Number         0  boardinit3.o ABSOLUTE
    ../clib/angel/boardlib.s                 0x00000000   Number         0  boardshut.o ABSOLUTE
    ../clib/angel/handlers.s                 0x00000000   Number         0  __scatter_copy.o ABSOLUTE
    ../clib/angel/handlers.s                 0x00000000   Number         0  __scatter_zi.o ABSOLUTE
    ../clib/angel/kernel.s                   0x00000000   Number         0  __rtentry.o ABSOLUTE
    ../clib/angel/kernel.s                   0x00000000   Number         0  __rtentry2.o ABSOLUTE
    ../clib/angel/kernel.s                   0x00000000   Number         0  __rtentry4.o ABSOLUTE
    ../clib/angel/kernel.s                   0x00000000   Number         0  rtexit.o ABSOLUTE
    ../clib/angel/kernel.s                   0x00000000   Number         0  rtexit2.o ABSOLUTE
    ../clib/angel/rt.s                       0x00000000   Number         0  rt_raise.o ABSOLUTE
    ../clib/angel/scatterp.s                 0x00000000   Number         0  __scatter.o ABSOLUTE
    ../clib/angel/startup.s                  0x00000000   Number         0  __main.o ABSOLUTE
    ../clib/angel/sys.s                      0x00000000   Number         0  sys_stackheap_outer.o ABSOLUTE
    ../clib/angel/sys.s                      0x00000000   Number         0  libspace.o ABSOLUTE
    ../clib/angel/sys.s                      0x00000000   Number         0  tempstk.o ABSOLUTE
    ../clib/angel/sys.s                      0x00000000   Number         0  use_no_semi.o ABSOLUTE
    ../clib/angel/sys.s                      0x00000000   Number         0  indicate_semi.o ABSOLUTE
    ../clib/angel/sysapp.c                   0x00000000   Number         0  sys_exit.o ABSOLUTE
    ../clib/angel/sysapp.c                   0x00000000   Number         0  sys_exit_hlt.o ABSOLUTE
    ../clib/angel/sysapp.c                   0x00000000   Number         0  sys_command.o ABSOLUTE
    ../clib/angel/sysapp.c                   0x00000000   Number         0  sys_command_hlt.o ABSOLUTE
    ../clib/angel/sysapp.c                   0x00000000   Number         0  sys_wrch.o ABSOLUTE
    ../clib/angel/sysapp.c                   0x00000000   Number         0  sys_wrch_hlt.o ABSOLUTE
    ../clib/armsys.c                         0x00000000   Number         0  argv_veneer.o ABSOLUTE
    ../clib/armsys.c                         0x00000000   Number         0  _get_argv_nomalloc.o ABSOLUTE
    ../clib/armsys.c                         0x00000000   Number         0  no_argv.o ABSOLUTE
    ../clib/heapalloc.c                      0x00000000   Number         0  hrguard.o ABSOLUTE
    ../clib/heapaux.c                        0x00000000   Number         0  heapauxi.o ABSOLUTE
    ../clib/libinit.s                        0x00000000   Number         0  libinit.o ABSOLUTE
    ../clib/libinit.s                        0x00000000   Number         0  libinit2.o ABSOLUTE
    ../clib/libinit.s                        0x00000000   Number         0  libshutdown.o ABSOLUTE
    ../clib/libinit.s                        0x00000000   Number         0  libshutdown2.o ABSOLUTE
    ../clib/longlong.c                       0x00000000   Number         0  llmul.o ABSOLUTE
    ../clib/memcpset.c                       0x00000000   Number         0  rt_memcpy.o ABSOLUTE
    ../clib/memcpset.c                       0x00000000   Number         0  rt_memcpy.o ABSOLUTE
    ../clib/memcpset.c                       0x00000000   Number         0  rt_memclr.o ABSOLUTE
    ../clib/signal.c                         0x00000000   Number         0  defsig_rtmem_outer.o ABSOLUTE
    ../clib/signal.c                         0x00000000   Number         0  defsig_rtmem_formal.o ABSOLUTE
    ../clib/signal.c                         0x00000000   Number         0  defsig_exit.o ABSOLUTE
    ../clib/signal.c                         0x00000000   Number         0  defsig_rtmem_inner.o ABSOLUTE
    ../clib/signal.c                         0x00000000   Number         0  __raise.o ABSOLUTE
    ../clib/signal.c                         0x00000000   Number         0  defsig_general.o ABSOLUTE
    ../clib/signal.c                         0x00000000   Number         0  defsig_abrt_inner.o ABSOLUTE
    ../clib/signal.c                         0x00000000   Number         0  defsig_fpe_inner.o ABSOLUTE
    ../clib/signal.c                         0x00000000   Number         0  defsig_rtred_inner.o ABSOLUTE
    ../clib/signal.c                         0x00000000   Number         0  defsig_stak_inner.o ABSOLUTE
    ../clib/signal.c                         0x00000000   Number         0  defsig_pvfn_inner.o ABSOLUTE
    ../clib/signal.c                         0x00000000   Number         0  defsig_cppl_inner.o ABSOLUTE
    ../clib/signal.c                         0x00000000   Number         0  defsig_segv_inner.o ABSOLUTE
    ../clib/signal.c                         0x00000000   Number         0  defsig_other.o ABSOLUTE
    ../clib/signal.s                         0x00000000   Number         0  defsig.o ABSOLUTE
    ../clib/stdlib.c                         0x00000000   Number         0  exit.o ABSOLUTE
    ../clib/string.c                         0x00000000   Number         0  strlen.o ABSOLUTE
    ../fplib/cfplib/cmp.c                    0x00000000   Number         0  dcmp.o ABSOLUTE
    ../fplib/cfplib/cmp.c                    0x00000000   Number         0  fcmp.o ABSOLUTE
    ../fplib/cfplib/cmpret.c                 0x00000000   Number         0  cmpret.o ABSOLUTE
    ../fplib/cfplib/d2f.c                    0x00000000   Number         0  d2f.o ABSOLUTE
    ../fplib/cfplib/daddsub.c                0x00000000   Number         0  daddsub.o ABSOLUTE
    ../fplib/cfplib/dcmpin.c                 0x00000000   Number         0  dcmpin.o ABSOLUTE
    ../fplib/cfplib/ddiv.c                   0x00000000   Number         0  ddiv.o ABSOLUTE
    ../fplib/cfplib/dmul.c                   0x00000000   Number         0  dmul.o ABSOLUTE
    ../fplib/cfplib/f2d.c                    0x00000000   Number         0  f2d.o ABSOLUTE
    ../fplib/cfplib/fcmpin.c                 0x00000000   Number         0  fcmpin.o ABSOLUTE
    ../fplib/cfplib/fdiv.c                   0x00000000   Number         0  fdiv.o ABSOLUTE
    ../fplib/cfplib/ffix.c                   0x00000000   Number         0  dfixi.o ABSOLUTE
    ../fplib/cfplib/ffix.c                   0x00000000   Number         0  ffixi.o ABSOLUTE
    ../fplib/cfplib/ffix.c                   0x00000000   Number         0  ffixl.o ABSOLUTE
    ../fplib/cfplib/fflt.c                   0x00000000   Number         0  dflti.o ABSOLUTE
    ../fplib/cfplib/fflt.c                   0x00000000   Number         0  fflti.o ABSOLUTE
    ../fplib/cfplib/fpinit.c                 0x00000000   Number         0  fpinit.o ABSOLUTE
    ../fplib/cfplib/nan2.c                   0x00000000   Number         0  dnan2.o ABSOLUTE
    ../fplib/cfplib/nan2.c                   0x00000000   Number         0  fnan2.o ABSOLUTE
    ../fplib/cfplib/retnan.c                 0x00000000   Number         0  retnan.o ABSOLUTE
    ../fplib/deqf6m.s                        0x00000000   Number         0  deqf.o ABSOLUTE
    ../fplib/dgeqf6m.s                       0x00000000   Number         0  dgef.o ABSOLUTE
    ../fplib/dleqf6m.s                       0x00000000   Number         0  dlef.o ABSOLUTE
    ../fplib/faddsub6m.s                     0x00000000   Number         0  faddsub.o ABSOLUTE
    ../fplib/feqf6m.s                        0x00000000   Number         0  feqf.o ABSOLUTE
    ../fplib/fgeqf6m.s                       0x00000000   Number         0  fgef.o ABSOLUTE
    ../fplib/fleqf6m.s                       0x00000000   Number         0  flef.o ABSOLUTE
    ../fplib/fmul6m.s                        0x00000000   Number         0  fmul.o ABSOLUTE
    ../fplib/usenofp.s                       0x00000000   Number         0  usenofp.o ABSOLUTE
    PilotHoverbike.c                         0x00000000   Number         0  pilothoverbike.o ABSOLUTE
    PilotUser.c                              0x00000000   Number         0  pilotuser.o ABSOLUTE
    RTE/Device/GD32E230C8/startup_gd32e23x.s 0x00000000   Number         0  startup_gd32e23x.o ABSOLUTE
    RemoteAdc.c                              0x00000000   Number         0  remoteadc.o ABSOLUTE
    RemoteAutodetect.c                       0x00000000   Number         0  remoteautodetect.o ABSOLUTE
    RemoteROS2.c                             0x00000000   Number         0  remoteros2.o ABSOLUTE
    SEGGER_RTT.c                             0x00000000   Number         0  segger_rtt.o ABSOLUTE
    bldc.c                                   0x00000000   Number         0  bldc.o ABSOLUTE
    bldcBC.c                                 0x00000000   Number         0  bldcbc.o ABSOLUTE
    bldcSINE.c                               0x00000000   Number         0  bldcsine.o ABSOLUTE
    comms.c                                  0x00000000   Number         0  comms.o ABSOLUTE
    commsMasterSlave.c                       0x00000000   Number         0  commsmasterslave.o ABSOLUTE
    dc.s                                     0x00000000   Number         0  dc.o ABSOLUTE
    driver.c                                 0x00000000   Number         0  driver.o ABSOLUTE
    gd32e23x_adc.c                           0x00000000   Number         0  gd32e23x_adc.o ABSOLUTE
    gd32e23x_dma.c                           0x00000000   Number         0  gd32e23x_dma.o ABSOLUTE
    gd32e23x_exti.c                          0x00000000   Number         0  gd32e23x_exti.o ABSOLUTE
    gd32e23x_fmc.c                           0x00000000   Number         0  gd32e23x_fmc.o ABSOLUTE
    gd32e23x_fwdgt.c                         0x00000000   Number         0  gd32e23x_fwdgt.o ABSOLUTE
    gd32e23x_gpio.c                          0x00000000   Number         0  gd32e23x_gpio.o ABSOLUTE
    gd32e23x_i2c.c                           0x00000000   Number         0  gd32e23x_i2c.o ABSOLUTE
    gd32e23x_misc.c                          0x00000000   Number         0  gd32e23x_misc.o ABSOLUTE
    gd32e23x_pmu.c                           0x00000000   Number         0  gd32e23x_pmu.o ABSOLUTE
    gd32e23x_rcu.c                           0x00000000   Number         0  gd32e23x_rcu.o ABSOLUTE
    gd32e23x_syscfg.c                        0x00000000   Number         0  gd32e23x_syscfg.o ABSOLUTE
    gd32e23x_timer.c                         0x00000000   Number         0  gd32e23x_timer.o ABSOLUTE
    gd32e23x_usart.c                         0x00000000   Number         0  gd32e23x_usart.o ABSOLUTE
    gd32e23x_wwdgt.c                         0x00000000   Number         0  gd32e23x_wwdgt.o ABSOLUTE
    i2c.c                                    0x00000000   Number         0  i2c.o ABSOLUTE
    it.c                                     0x00000000   Number         0  it.o ABSOLUTE
    led.c                                    0x00000000   Number         0  led.o ABSOLUTE
    main.c                                   0x00000000   Number         0  main.o ABSOLUTE
    mpu6050.c                                0x00000000   Number         0  mpu6050.o ABSOLUTE
    remoteCrsf.c                             0x00000000   Number         0  remotecrsf.o ABSOLUTE
    remoteDummy.c                            0x00000000   Number         0  remotedummy.o ABSOLUTE
    remoteUart.c                             0x00000000   Number         0  remoteuart.o ABSOLUTE
    remoteUartBus.c                          0x00000000   Number         0  remoteuartbus.o ABSOLUTE
    setup.c                                  0x00000000   Number         0  setup.o ABSOLUTE
    system_gd32e23x.c                        0x00000000   Number         0  system_gd32e23x.o ABSOLUTE
    RESET                                    0x08000000   Section      204  startup_gd32e23x.o(RESET)
    !!!main                                  0x080000cc   Section        8  __main.o(!!!main)
    !!!scatter                               0x080000d4   Section       84  __scatter.o(!!!scatter)
    !!handler_copy                           0x08000128   Section       26  __scatter_copy.o(!!handler_copy)
    !!handler_null                           0x08000144   Section        2  __scatter.o(!!handler_null)
    !!handler_zi                             0x08000148   Section       28  __scatter_zi.o(!!handler_zi)
    .ARM.Collect$$libinit$$00000000          0x08000164   Section        2  libinit.o(.ARM.Collect$$libinit$$00000000)
    .ARM.Collect$$libinit$$00000002          0x08000166   Section        0  libinit2.o(.ARM.Collect$$libinit$$00000002)
    .ARM.Collect$$libinit$$00000004          0x08000166   Section        0  libinit2.o(.ARM.Collect$$libinit$$00000004)
    .ARM.Collect$$libinit$$00000006          0x08000166   Section        0  libinit2.o(.ARM.Collect$$libinit$$00000006)
    .ARM.Collect$$libinit$$0000000C          0x08000166   Section        0  libinit2.o(.ARM.Collect$$libinit$$0000000C)
    .ARM.Collect$$libinit$$0000000E          0x08000166   Section        0  libinit2.o(.ARM.Collect$$libinit$$0000000E)
    .ARM.Collect$$libinit$$00000010          0x08000166   Section        0  libinit2.o(.ARM.Collect$$libinit$$00000010)
    .ARM.Collect$$libinit$$00000013          0x08000166   Section        0  libinit2.o(.ARM.Collect$$libinit$$00000013)
    .ARM.Collect$$libinit$$00000015          0x08000166   Section        0  libinit2.o(.ARM.Collect$$libinit$$00000015)
    .ARM.Collect$$libinit$$00000017          0x08000166   Section        0  libinit2.o(.ARM.Collect$$libinit$$00000017)
    .ARM.Collect$$libinit$$00000019          0x08000166   Section        0  libinit2.o(.ARM.Collect$$libinit$$00000019)
    .ARM.Collect$$libinit$$0000001B          0x08000166   Section        0  libinit2.o(.ARM.Collect$$libinit$$0000001B)
    .ARM.Collect$$libinit$$0000001D          0x08000166   Section        0  libinit2.o(.ARM.Collect$$libinit$$0000001D)
    .ARM.Collect$$libinit$$0000001F          0x08000166   Section        0  libinit2.o(.ARM.Collect$$libinit$$0000001F)
    .ARM.Collect$$libinit$$00000021          0x08000166   Section        0  libinit2.o(.ARM.Collect$$libinit$$00000021)
    .ARM.Collect$$libinit$$00000023          0x08000166   Section        0  libinit2.o(.ARM.Collect$$libinit$$00000023)
    .ARM.Collect$$libinit$$00000025          0x08000166   Section        0  libinit2.o(.ARM.Collect$$libinit$$00000025)
    .ARM.Collect$$libinit$$00000027          0x08000166   Section        0  libinit2.o(.ARM.Collect$$libinit$$00000027)
    .ARM.Collect$$libinit$$0000002E          0x08000166   Section        0  libinit2.o(.ARM.Collect$$libinit$$0000002E)
    .ARM.Collect$$libinit$$00000030          0x08000166   Section        0  libinit2.o(.ARM.Collect$$libinit$$00000030)
    .ARM.Collect$$libinit$$00000032          0x08000166   Section        0  libinit2.o(.ARM.Collect$$libinit$$00000032)
    .ARM.Collect$$libinit$$00000034          0x08000166   Section        0  libinit2.o(.ARM.Collect$$libinit$$00000034)
    .ARM.Collect$$libinit$$00000035          0x08000166   Section        2  libinit2.o(.ARM.Collect$$libinit$$00000035)
    .ARM.Collect$$libshutdown$$00000000      0x08000168   Section        2  libshutdown.o(.ARM.Collect$$libshutdown$$00000000)
    .ARM.Collect$$libshutdown$$00000002      0x0800016a   Section        0  libshutdown2.o(.ARM.Collect$$libshutdown$$00000002)
    .ARM.Collect$$libshutdown$$00000004      0x0800016a   Section        0  libshutdown2.o(.ARM.Collect$$libshutdown$$00000004)
    .ARM.Collect$$libshutdown$$00000007      0x0800016a   Section        0  libshutdown2.o(.ARM.Collect$$libshutdown$$00000007)
    .ARM.Collect$$libshutdown$$0000000A      0x0800016a   Section        0  libshutdown2.o(.ARM.Collect$$libshutdown$$0000000A)
    .ARM.Collect$$libshutdown$$0000000C      0x0800016a   Section        0  libshutdown2.o(.ARM.Collect$$libshutdown$$0000000C)
    .ARM.Collect$$libshutdown$$0000000F      0x0800016a   Section        0  libshutdown2.o(.ARM.Collect$$libshutdown$$0000000F)
    .ARM.Collect$$libshutdown$$00000010      0x0800016a   Section        2  libshutdown2.o(.ARM.Collect$$libshutdown$$00000010)
    .ARM.Collect$$rtentry$$00000000          0x0800016c   Section        0  __rtentry.o(.ARM.Collect$$rtentry$$00000000)
    .ARM.Collect$$rtentry$$00000002          0x0800016c   Section        0  __rtentry2.o(.ARM.Collect$$rtentry$$00000002)
    .ARM.Collect$$rtentry$$00000004          0x0800016c   Section        6  __rtentry4.o(.ARM.Collect$$rtentry$$00000004)
    .ARM.Collect$$rtentry$$00000009          0x08000172   Section        0  __rtentry2.o(.ARM.Collect$$rtentry$$00000009)
    .ARM.Collect$$rtentry$$0000000A          0x08000172   Section        4  __rtentry2.o(.ARM.Collect$$rtentry$$0000000A)
    .ARM.Collect$$rtentry$$0000000C          0x08000176   Section        0  __rtentry2.o(.ARM.Collect$$rtentry$$0000000C)
    .ARM.Collect$$rtentry$$0000000D          0x08000176   Section        8  __rtentry2.o(.ARM.Collect$$rtentry$$0000000D)
    .ARM.Collect$$rtexit$$00000000           0x0800017e   Section        2  rtexit.o(.ARM.Collect$$rtexit$$00000000)
    .ARM.Collect$$rtexit$$00000002           0x08000180   Section        0  rtexit2.o(.ARM.Collect$$rtexit$$00000002)
    .ARM.Collect$$rtexit$$00000003           0x08000180   Section        4  rtexit2.o(.ARM.Collect$$rtexit$$00000003)
    .ARM.Collect$$rtexit$$00000004           0x08000184   Section        6  rtexit2.o(.ARM.Collect$$rtexit$$00000004)
    [Anonymous Symbol]                       0x0800018c   Section        0  main.o(.text)
    __arm_cp.0_40                            0x08000558   Number         4  main.o(.text)
    __arm_cp.0_41                            0x0800055c   Number         4  main.o(.text)
    __arm_cp.0_42                            0x08000560   Number         4  main.o(.text)
    __arm_cp.0_43                            0x08000564   Number         4  main.o(.text)
    __arm_cp.0_44                            0x08000568   Number         4  main.o(.text)
    __arm_cp.0_48                            0x08000578   Number         4  main.o(.text)
    __arm_cp.0_52                            0x08000588   Number         4  main.o(.text)
    __arm_cp.0_53                            0x0800058c   Number         4  main.o(.text)
    __arm_cp.0_54                            0x08000590   Number         4  main.o(.text)
    __arm_cp.0_56                            0x08000598   Number         4  main.o(.text)
    __arm_cp.0_57                            0x0800059c   Number         4  main.o(.text)
    __arm_cp.0_59                            0x08000768   Number         4  main.o(.text)
    __arm_cp.0_60                            0x0800076c   Number         4  main.o(.text)
    __arm_cp.0_61                            0x08000770   Number         4  main.o(.text)
    __arm_cp.0_62                            0x08000774   Number         4  main.o(.text)
    __arm_cp.0_63                            0x08000778   Number         4  main.o(.text)
    __arm_cp.0_5                             0x0800077c   Number         4  main.o(.text)
    __arm_cp.0_6                             0x08000780   Number         4  main.o(.text)
    __arm_cp.0_7                             0x08000784   Number         4  main.o(.text)
    __arm_cp.0_8                             0x08000788   Number         4  main.o(.text)
    __arm_cp.0_9                             0x0800078c   Number         4  main.o(.text)
    __arm_cp.0_11                            0x08000790   Number         4  main.o(.text)
    __arm_cp.0_12                            0x08000794   Number         4  main.o(.text)
    __arm_cp.0_13                            0x08000798   Number         4  main.o(.text)
    __arm_cp.0_17                            0x0800079c   Number         4  main.o(.text)
    __arm_cp.0_20                            0x080007a0   Number         4  main.o(.text)
    __arm_cp.0_26                            0x080007a4   Number         4  main.o(.text)
    __arm_cp.0_27                            0x080007a8   Number         4  main.o(.text)
    __arm_cp.0_28                            0x080007ac   Number         4  main.o(.text)
    __arm_cp.0_29                            0x080007b0   Number         4  main.o(.text)
    __arm_cp.0_30                            0x080007b4   Number         4  main.o(.text)
    __arm_cp.0_31                            0x080007b8   Number         4  main.o(.text)
    __arm_cp.0_32                            0x080007bc   Number         4  main.o(.text)
    __arm_cp.0_33                            0x080007c0   Number         4  main.o(.text)
    __arm_cp.0_34                            0x080007c4   Number         4  main.o(.text)
    __arm_cp.0_35                            0x080007c8   Number         4  main.o(.text)
    __arm_cp.0_36                            0x080007cc   Number         4  main.o(.text)
    __arm_cp.0_37                            0x080007d0   Number         4  main.o(.text)
    __arm_cp.0_38                            0x080007d4   Number         4  main.o(.text)
    __arm_cp.0_39                            0x080007d8   Number         4  main.o(.text)
    __arm_cp.1_0                             0x08000848   Number         4  main.o(.text)
    __arm_cp.1_1                             0x0800084c   Number         4  main.o(.text)
    __arm_cp.1_2                             0x08000850   Number         4  main.o(.text)
    __arm_cp.1_3                             0x08000854   Number         4  main.o(.text)
    __arm_cp.2_0                             0x080008d8   Number         4  main.o(.text)
    __arm_cp.2_1                             0x080008dc   Number         4  main.o(.text)
    __arm_cp.2_2                             0x080008e0   Number         4  main.o(.text)
    __arm_cp.2_3                             0x080008e4   Number         4  main.o(.text)
    [Anonymous Symbol]                       0x080008e8   Section        0  bldc.o(.text)
    __arm_cp.1_0                             0x08000920   Number         4  bldc.o(.text)
    __arm_cp.2_0                             0x0800092c   Number         4  bldc.o(.text)
    __arm_cp.3_0                             0x08000994   Number         4  bldc.o(.text)
    __arm_cp.3_1                             0x08000998   Number         4  bldc.o(.text)
    __arm_cp.3_2                             0x0800099c   Number         4  bldc.o(.text)
    __arm_cp.3_3                             0x080009a0   Number         4  bldc.o(.text)
    __arm_cp.4_0                             0x080009bc   Number         4  bldc.o(.text)
    __arm_cp.4_1                             0x080009c0   Number         4  bldc.o(.text)
    __arm_cp.4_2                             0x080009c4   Number         4  bldc.o(.text)
    __arm_cp.5_65                            0x08000d10   Number         4  bldc.o(.text)
    __arm_cp.5_66                            0x08000d14   Number         4  bldc.o(.text)
    __arm_cp.5_70                            0x08000d24   Number         4  bldc.o(.text)
    __arm_cp.5_72                            0x08000d2c   Number         4  bldc.o(.text)
    __arm_cp.5_73                            0x08000d30   Number         4  bldc.o(.text)
    __arm_cp.5_74                            0x08000d34   Number         4  bldc.o(.text)
    __arm_cp.5_75                            0x08000d38   Number         4  bldc.o(.text)
    __arm_cp.5_76                            0x08000d3c   Number         4  bldc.o(.text)
    __arm_cp.5_2                             0x08000e44   Number         4  bldc.o(.text)
    __arm_cp.5_4                             0x08000e48   Number         4  bldc.o(.text)
    __arm_cp.5_5                             0x08000e4c   Number         4  bldc.o(.text)
    __arm_cp.5_11                            0x08000e50   Number         4  bldc.o(.text)
    __arm_cp.5_12                            0x08000e54   Number         4  bldc.o(.text)
    __arm_cp.5_13                            0x08000e58   Number         4  bldc.o(.text)
    __arm_cp.5_14                            0x08000e5c   Number         4  bldc.o(.text)
    __arm_cp.5_15                            0x08000e60   Number         4  bldc.o(.text)
    __arm_cp.5_16                            0x08000e64   Number         4  bldc.o(.text)
    __arm_cp.5_17                            0x08000e68   Number         4  bldc.o(.text)
    __arm_cp.5_18                            0x08000e6c   Number         4  bldc.o(.text)
    __arm_cp.5_19                            0x08000e70   Number         4  bldc.o(.text)
    __arm_cp.5_20                            0x08000e74   Number         4  bldc.o(.text)
    __arm_cp.5_21                            0x08000e78   Number         4  bldc.o(.text)
    __arm_cp.5_22                            0x08000e7c   Number         4  bldc.o(.text)
    __arm_cp.5_23                            0x08000e80   Number         4  bldc.o(.text)
    __arm_cp.5_24                            0x08000e84   Number         4  bldc.o(.text)
    __arm_cp.5_25                            0x08000e88   Number         4  bldc.o(.text)
    __arm_cp.5_26                            0x08000e8c   Number         4  bldc.o(.text)
    __arm_cp.5_27                            0x08000e90   Number         4  bldc.o(.text)
    __arm_cp.5_28                            0x08000e94   Number         4  bldc.o(.text)
    __arm_cp.5_29                            0x08000e98   Number         4  bldc.o(.text)
    __arm_cp.5_30                            0x08000e9c   Number         4  bldc.o(.text)
    __arm_cp.5_31                            0x08000ea0   Number         4  bldc.o(.text)
    __arm_cp.5_32                            0x08000ea4   Number         4  bldc.o(.text)
    __arm_cp.5_33                            0x08000ea8   Number         4  bldc.o(.text)
    __arm_cp.5_34                            0x08000eac   Number         4  bldc.o(.text)
    __arm_cp.5_35                            0x08000eb0   Number         4  bldc.o(.text)
    __arm_cp.5_36                            0x08000eb4   Number         4  bldc.o(.text)
    __arm_cp.5_37                            0x08000eb8   Number         4  bldc.o(.text)
    __arm_cp.5_38                            0x08000ebc   Number         4  bldc.o(.text)
    __arm_cp.5_39                            0x08000ec0   Number         4  bldc.o(.text)
    __arm_cp.5_40                            0x08000ec4   Number         4  bldc.o(.text)
    __arm_cp.5_41                            0x08000ec8   Number         4  bldc.o(.text)
    __arm_cp.5_42                            0x08000ecc   Number         4  bldc.o(.text)
    __arm_cp.5_43                            0x08000ed0   Number         4  bldc.o(.text)
    __arm_cp.5_44                            0x08000ed4   Number         4  bldc.o(.text)
    __arm_cp.5_45                            0x08000ed8   Number         4  bldc.o(.text)
    __arm_cp.5_46                            0x08000edc   Number         4  bldc.o(.text)
    __arm_cp.5_47                            0x08000ee0   Number         4  bldc.o(.text)
    __arm_cp.5_48                            0x08000ee4   Number         4  bldc.o(.text)
    __arm_cp.5_49                            0x08000ee8   Number         4  bldc.o(.text)
    __arm_cp.5_50                            0x08000eec   Number         4  bldc.o(.text)
    __arm_cp.5_51                            0x08000ef0   Number         4  bldc.o(.text)
    __arm_cp.5_52                            0x08000ef4   Number         4  bldc.o(.text)
    __arm_cp.5_53                            0x08000ef8   Number         4  bldc.o(.text)
    __arm_cp.5_54                            0x08000efc   Number         4  bldc.o(.text)
    __arm_cp.5_55                            0x08000f00   Number         4  bldc.o(.text)
    __arm_cp.5_56                            0x08000f04   Number         4  bldc.o(.text)
    __arm_cp.5_57                            0x08000f08   Number         4  bldc.o(.text)
    __arm_cp.5_58                            0x08000f0c   Number         4  bldc.o(.text)
    __arm_cp.5_59                            0x08000f10   Number         4  bldc.o(.text)
    __arm_cp.5_60                            0x08000f14   Number         4  bldc.o(.text)
    __arm_cp.5_61                            0x08000f18   Number         4  bldc.o(.text)
    __arm_cp.5_62                            0x08000f1c   Number         4  bldc.o(.text)
    __arm_cp.5_63                            0x08000f20   Number         4  bldc.o(.text)
    __arm_cp.5_64                            0x08000f24   Number         4  bldc.o(.text)
    [Anonymous Symbol]                       0x08000f28   Section        0  driver.o(.text)
    __arm_cp.0_0                             0x08000f94   Number         4  driver.o(.text)
    __arm_cp.2_0                             0x08001084   Number         4  driver.o(.text)
    __arm_cp.2_1                             0x08001088   Number         4  driver.o(.text)
    __arm_cp.2_2                             0x0800108c   Number         4  driver.o(.text)
    __arm_cp.3_0                             0x080011a4   Number         4  driver.o(.text)
    __arm_cp.3_1                             0x080011a8   Number         4  driver.o(.text)
    __arm_cp.3_2                             0x080011ac   Number         4  driver.o(.text)
    __arm_cp.3_3                             0x080011b0   Number         4  driver.o(.text)
    [Anonymous Symbol]                       0x080011b4   Section        0  bldcsine.o(.text)
    __arm_cp.1_0                             0x0800128c   Number         4  bldcsine.o(.text)
    __arm_cp.2_0                             0x08001304   Number         4  bldcsine.o(.text)
    __arm_cp.2_1                             0x08001308   Number         4  bldcsine.o(.text)
    __arm_cp.2_2                             0x0800130c   Number         4  bldcsine.o(.text)
    __arm_cp.2_3                             0x08001310   Number         4  bldcsine.o(.text)
    __arm_cp.2_4                             0x08001314   Number         4  bldcsine.o(.text)
    __arm_cp.2_5                             0x08001318   Number         4  bldcsine.o(.text)
    __arm_cp.2_6                             0x0800131c   Number         4  bldcsine.o(.text)
    __arm_cp.2_7                             0x08001320   Number         4  bldcsine.o(.text)
    __arm_cp.2_8                             0x08001324   Number         4  bldcsine.o(.text)
    __arm_cp.6_0                             0x080014a0   Number         4  bldcsine.o(.text)
    __arm_cp.6_1                             0x080014a4   Number         4  bldcsine.o(.text)
    __arm_cp.6_2                             0x080014a8   Number         4  bldcsine.o(.text)
    __arm_cp.6_3                             0x080014ac   Number         4  bldcsine.o(.text)
    __arm_cp.6_4                             0x080014b0   Number         4  bldcsine.o(.text)
    __arm_cp.6_5                             0x080014b4   Number         4  bldcsine.o(.text)
    __arm_cp.6_6                             0x080014b8   Number         4  bldcsine.o(.text)
    __arm_cp.6_7                             0x080014bc   Number         4  bldcsine.o(.text)
    __arm_cp.6_8                             0x080014c0   Number         4  bldcsine.o(.text)
    __arm_cp.6_9                             0x080014c4   Number         4  bldcsine.o(.text)
    __arm_cp.6_10                            0x080014c8   Number         4  bldcsine.o(.text)
    __arm_cp.6_11                            0x080014cc   Number         4  bldcsine.o(.text)
    __arm_cp.6_12                            0x080014d0   Number         4  bldcsine.o(.text)
    __arm_cp.6_13                            0x080014d4   Number         4  bldcsine.o(.text)
    __arm_cp.6_14                            0x080014d8   Number         4  bldcsine.o(.text)
    __arm_cp.6_15                            0x080014dc   Number         4  bldcsine.o(.text)
    __arm_cp.6_16                            0x080014e0   Number         4  bldcsine.o(.text)
    __arm_cp.6_17                            0x080014e4   Number         4  bldcsine.o(.text)
    __arm_cp.6_18                            0x080014e8   Number         4  bldcsine.o(.text)
    __arm_cp.6_19                            0x080014ec   Number         4  bldcsine.o(.text)
    __arm_cp.6_20                            0x080014f0   Number         4  bldcsine.o(.text)
    __arm_cp.6_21                            0x080014f4   Number         4  bldcsine.o(.text)
    __arm_cp.6_22                            0x080014f8   Number         4  bldcsine.o(.text)
    __arm_cp.6_23                            0x080014fc   Number         4  bldcsine.o(.text)
    [Anonymous Symbol]                       0x08001500   Section        0  setup.o(.text)
    __arm_cp.3_0                             0x0800159c   Number         4  setup.o(.text)
    __arm_cp.3_1                             0x080015a0   Number         4  setup.o(.text)
    __arm_cp.4_0                             0x080015f4   Number         4  setup.o(.text)
    __arm_cp.4_1                             0x080015f8   Number         4  setup.o(.text)
    __arm_cp.4_2                             0x080015fc   Number         4  setup.o(.text)
    __arm_cp.5_0                             0x08001874   Number         4  setup.o(.text)
    __arm_cp.5_1                             0x08001878   Number         4  setup.o(.text)
    __arm_cp.5_2                             0x0800187c   Number         4  setup.o(.text)
    __arm_cp.5_3                             0x08001880   Number         4  setup.o(.text)
    __arm_cp.6_0                             0x080019fc   Number         4  setup.o(.text)
    __arm_cp.6_1                             0x08001a00   Number         4  setup.o(.text)
    __arm_cp.6_2                             0x08001a04   Number         4  setup.o(.text)
    __arm_cp.6_3                             0x08001a08   Number         4  setup.o(.text)
    __arm_cp.6_4                             0x08001a0c   Number         4  setup.o(.text)
    __arm_cp.6_5                             0x08001a10   Number         4  setup.o(.text)
    __arm_cp.7_0                             0x08001ae8   Number         4  setup.o(.text)
    __arm_cp.7_1                             0x08001aec   Number         4  setup.o(.text)
    __arm_cp.7_2                             0x08001af0   Number         4  setup.o(.text)
    __arm_cp.7_3                             0x08001af4   Number         4  setup.o(.text)
    __arm_cp.16_0                            0x08001bb0   Number         4  setup.o(.text)
    __arm_cp.16_1                            0x08001bb4   Number         4  setup.o(.text)
    __arm_cp.17_0                            0x08001c18   Number         4  setup.o(.text)
    __arm_cp.17_1                            0x08001c1c   Number         4  setup.o(.text)
    __arm_cp.17_2                            0x08001c20   Number         4  setup.o(.text)
    __arm_cp.17_3                            0x08001c24   Number         4  setup.o(.text)
    __arm_cp.18_0                            0x08001c80   Number         4  setup.o(.text)
    __arm_cp.18_1                            0x08001c84   Number         4  setup.o(.text)
    __arm_cp.18_2                            0x08001c88   Number         4  setup.o(.text)
    __arm_cp.18_3                            0x08001c8c   Number         4  setup.o(.text)
    __arm_cp.18_4                            0x08001c90   Number         4  setup.o(.text)
    [Anonymous Symbol]                       0x08001c94   Section        0  it.o(.text)
    __arm_cp.0_0                             0x08001ca0   Number         4  it.o(.text)
    __arm_cp.1_0                             0x08001cac   Number         4  it.o(.text)
    __arm_cp.2_0                             0x08001ce0   Number         4  it.o(.text)
    __arm_cp.2_1                             0x08001ce4   Number         4  it.o(.text)
    __arm_cp.2_2                             0x08001ce8   Number         4  it.o(.text)
    __arm_cp.2_3                             0x08001cec   Number         4  it.o(.text)
    __arm_cp.2_4                             0x08001cf0   Number         4  it.o(.text)
    __arm_cp.3_0                             0x08001d50   Number         4  it.o(.text)
    __arm_cp.3_1                             0x08001d54   Number         4  it.o(.text)
    __arm_cp.3_2                             0x08001d58   Number         4  it.o(.text)
    __arm_cp.3_3                             0x08001d5c   Number         4  it.o(.text)
    __arm_cp.3_4                             0x08001d60   Number         4  it.o(.text)
    __arm_cp.3_5                             0x08001d64   Number         4  it.o(.text)
    __arm_cp.4_0                             0x08001db4   Number         4  it.o(.text)
    __arm_cp.4_1                             0x08001db8   Number         4  it.o(.text)
    __arm_cp.4_2                             0x08001dbc   Number         4  it.o(.text)
    __arm_cp.4_3                             0x08001dc0   Number         4  it.o(.text)
    __arm_cp.5_0                             0x08001dcc   Number         4  it.o(.text)
    __arm_cp.6_0                             0x08001de4   Number         4  it.o(.text)
    [Anonymous Symbol]                       0x08001df8   Section        0  remotedummy.o(.text)
    __arm_cp.0_0                             0x08001e58   Number         4  remotedummy.o(.text)
    __arm_cp.0_2                             0x08001e6c   Number         4  remotedummy.o(.text)
    __arm_cp.0_3                             0x08001e70   Number         4  remotedummy.o(.text)
    __arm_cp.0_4                             0x08001e74   Number         4  remotedummy.o(.text)
    [Anonymous Symbol]                       0x08001e7c   Section        0  gd32e23x_adc.o(.text)
    __arm_cp.0_0                             0x08001e94   Number         4  gd32e23x_adc.o(.text)
    __arm_cp.1_0                             0x08001eac   Number         4  gd32e23x_adc.o(.text)
    __arm_cp.2_0                             0x08001ebc   Number         4  gd32e23x_adc.o(.text)
    __arm_cp.3_0                             0x08001ee0   Number         4  gd32e23x_adc.o(.text)
    __arm_cp.4_0                             0x08001ef4   Number         4  gd32e23x_adc.o(.text)
    __arm_cp.5_0                             0x08001f08   Number         4  gd32e23x_adc.o(.text)
    __arm_cp.6_0                             0x08001f1c   Number         4  gd32e23x_adc.o(.text)
    __arm_cp.7_0                             0x08001f30   Number         4  gd32e23x_adc.o(.text)
    __arm_cp.8_0                             0x08001f74   Number         4  gd32e23x_adc.o(.text)
    __arm_cp.9_0                             0x08001fe0   Number         4  gd32e23x_adc.o(.text)
    __arm_cp.10_0                            0x08001ffc   Number         4  gd32e23x_adc.o(.text)
    __arm_cp.11_0                            0x0800203c   Number         4  gd32e23x_adc.o(.text)
    __arm_cp.12_0                            0x080020c8   Number         4  gd32e23x_adc.o(.text)
    __arm_cp.13_0                            0x08002120   Number         4  gd32e23x_adc.o(.text)
    __arm_cp.14_0                            0x08002140   Number         4  gd32e23x_adc.o(.text)
    __arm_cp.14_1                            0x08002144   Number         4  gd32e23x_adc.o(.text)
    __arm_cp.15_0                            0x08002188   Number         4  gd32e23x_adc.o(.text)
    __arm_cp.16_0                            0x080021ac   Number         4  gd32e23x_adc.o(.text)
    __arm_cp.16_1                            0x080021b0   Number         4  gd32e23x_adc.o(.text)
    __arm_cp.16_2                            0x080021b4   Number         4  gd32e23x_adc.o(.text)
    __arm_cp.17_0                            0x080021e0   Number         4  gd32e23x_adc.o(.text)
    __arm_cp.18_0                            0x080021ec   Number         4  gd32e23x_adc.o(.text)
    __arm_cp.19_0                            0x08002234   Number         4  gd32e23x_adc.o(.text)
    __arm_cp.20_0                            0x08002244   Number         4  gd32e23x_adc.o(.text)
    __arm_cp.21_0                            0x08002254   Number         4  gd32e23x_adc.o(.text)
    __arm_cp.22_0                            0x08002288   Number         4  gd32e23x_adc.o(.text)
    __arm_cp.23_0                            0x08002298   Number         4  gd32e23x_adc.o(.text)
    __arm_cp.24_0                            0x080022d0   Number         4  gd32e23x_adc.o(.text)
    __arm_cp.25_0                            0x08002308   Number         4  gd32e23x_adc.o(.text)
    __arm_cp.26_0                            0x08002328   Number         4  gd32e23x_adc.o(.text)
    __arm_cp.26_1                            0x0800232c   Number         4  gd32e23x_adc.o(.text)
    __arm_cp.26_2                            0x08002330   Number         4  gd32e23x_adc.o(.text)
    __arm_cp.27_0                            0x08002354   Number         4  gd32e23x_adc.o(.text)
    __arm_cp.27_1                            0x08002358   Number         4  gd32e23x_adc.o(.text)
    __arm_cp.28_0                            0x08002374   Number         4  gd32e23x_adc.o(.text)
    __arm_cp.28_1                            0x08002378   Number         4  gd32e23x_adc.o(.text)
    __arm_cp.29_0                            0x0800238c   Number         4  gd32e23x_adc.o(.text)
    __arm_cp.29_1                            0x08002390   Number         4  gd32e23x_adc.o(.text)
    __arm_cp.30_0                            0x080023a8   Number         4  gd32e23x_adc.o(.text)
    __arm_cp.31_0                            0x080023d4   Number         4  gd32e23x_adc.o(.text)
    __arm_cp.31_1                            0x080023d8   Number         4  gd32e23x_adc.o(.text)
    __arm_cp.32_0                            0x080023e8   Number         4  gd32e23x_adc.o(.text)
    __arm_cp.33_0                            0x080023f8   Number         4  gd32e23x_adc.o(.text)
    [Anonymous Symbol]                       0x080023fc   Section        0  gd32e23x_dma.o(.text)
    __arm_cp.0_0                             0x08002428   Number         4  gd32e23x_dma.o(.text)
    __arm_cp.2_0                             0x080024b0   Number         4  gd32e23x_dma.o(.text)
    __arm_cp.3_0                             0x080024c4   Number         4  gd32e23x_dma.o(.text)
    __arm_cp.4_0                             0x080024d8   Number         4  gd32e23x_dma.o(.text)
    __arm_cp.5_0                             0x080024ec   Number         4  gd32e23x_dma.o(.text)
    __arm_cp.6_0                             0x08002504   Number         4  gd32e23x_dma.o(.text)
    __arm_cp.7_0                             0x0800251c   Number         4  gd32e23x_dma.o(.text)
    __arm_cp.8_0                             0x08002530   Number         4  gd32e23x_dma.o(.text)
    __arm_cp.9_0                             0x08002540   Number         4  gd32e23x_dma.o(.text)
    __arm_cp.10_0                            0x08002550   Number         4  gd32e23x_dma.o(.text)
    __arm_cp.11_0                            0x08002560   Number         4  gd32e23x_dma.o(.text)
    __arm_cp.12_0                            0x08002570   Number         4  gd32e23x_dma.o(.text)
    __arm_cp.13_0                            0x0800258c   Number         4  gd32e23x_dma.o(.text)
    __arm_cp.14_0                            0x080025a8   Number         4  gd32e23x_dma.o(.text)
    __arm_cp.15_0                            0x080025c4   Number         4  gd32e23x_dma.o(.text)
    __arm_cp.16_0                            0x080025d8   Number         4  gd32e23x_dma.o(.text)
    __arm_cp.17_0                            0x080025ec   Number         4  gd32e23x_dma.o(.text)
    __arm_cp.18_0                            0x08002600   Number         4  gd32e23x_dma.o(.text)
    __arm_cp.19_0                            0x08002614   Number         4  gd32e23x_dma.o(.text)
    __arm_cp.20_0                            0x08002634   Number         4  gd32e23x_dma.o(.text)
    __arm_cp.21_0                            0x08002648   Number         4  gd32e23x_dma.o(.text)
    __arm_cp.22_0                            0x0800265c   Number         4  gd32e23x_dma.o(.text)
    __arm_cp.23_0                            0x08002698   Number         4  gd32e23x_dma.o(.text)
    __arm_cp.24_0                            0x080026ac   Number         4  gd32e23x_dma.o(.text)
    __arm_cp.25_0                            0x080026c0   Number         4  gd32e23x_dma.o(.text)
    __arm_cp.26_0                            0x080026d4   Number         4  gd32e23x_dma.o(.text)
    [Anonymous Symbol]                       0x080026d8   Section        0  gd32e23x_exti.o(.text)
    __arm_cp.0_0                             0x080026ec   Number         4  gd32e23x_exti.o(.text)
    __arm_cp.0_1                             0x080026f0   Number         4  gd32e23x_exti.o(.text)
    __arm_cp.1_0                             0x0800275c   Number         4  gd32e23x_exti.o(.text)
    __arm_cp.2_0                             0x0800276c   Number         4  gd32e23x_exti.o(.text)
    __arm_cp.3_0                             0x0800277c   Number         4  gd32e23x_exti.o(.text)
    __arm_cp.4_0                             0x0800278c   Number         4  gd32e23x_exti.o(.text)
    __arm_cp.5_0                             0x0800279c   Number         4  gd32e23x_exti.o(.text)
    __arm_cp.6_0                             0x080027ac   Number         4  gd32e23x_exti.o(.text)
    __arm_cp.7_0                             0x080027b8   Number         4  gd32e23x_exti.o(.text)
    __arm_cp.8_0                             0x080027d4   Number         4  gd32e23x_exti.o(.text)
    __arm_cp.9_0                             0x080027e0   Number         4  gd32e23x_exti.o(.text)
    __arm_cp.10_0                            0x080027f0   Number         4  gd32e23x_exti.o(.text)
    __arm_cp.11_0                            0x08002800   Number         4  gd32e23x_exti.o(.text)
    [Anonymous Symbol]                       0x08002804   Section        0  gd32e23x_fmc.o(.text)
    __arm_cp.0_0                             0x08002818   Number         4  gd32e23x_fmc.o(.text)
    __arm_cp.0_1                             0x0800281c   Number         4  gd32e23x_fmc.o(.text)
    __arm_cp.0_2                             0x08002820   Number         4  gd32e23x_fmc.o(.text)
    __arm_cp.1_0                             0x08002830   Number         4  gd32e23x_fmc.o(.text)
    __arm_cp.2_0                             0x08002844   Number         4  gd32e23x_fmc.o(.text)
    __arm_cp.3_0                             0x08002854   Number         4  gd32e23x_fmc.o(.text)
    __arm_cp.4_0                             0x08002864   Number         4  gd32e23x_fmc.o(.text)
    __arm_cp.5_0                             0x080028f0   Number         4  gd32e23x_fmc.o(.text)
    __arm_cp.5_1                             0x080028f4   Number         4  gd32e23x_fmc.o(.text)
    __arm_cp.6_0                             0x08002934   Number         4  gd32e23x_fmc.o(.text)
    __arm_cp.7_0                             0x080029b8   Number         4  gd32e23x_fmc.o(.text)
    __arm_cp.7_1                             0x080029bc   Number         4  gd32e23x_fmc.o(.text)
    __arm_cp.8_0                             0x08002a60   Number         4  gd32e23x_fmc.o(.text)
    __arm_cp.8_1                             0x08002a64   Number         4  gd32e23x_fmc.o(.text)
    __arm_cp.9_0                             0x08002af0   Number         4  gd32e23x_fmc.o(.text)
    __arm_cp.9_1                             0x08002af4   Number         4  gd32e23x_fmc.o(.text)
    __arm_cp.10_0                            0x08002b14   Number         4  gd32e23x_fmc.o(.text)
    __arm_cp.10_1                            0x08002b18   Number         4  gd32e23x_fmc.o(.text)
    __arm_cp.10_2                            0x08002b1c   Number         4  gd32e23x_fmc.o(.text)
    __arm_cp.11_0                            0x08002b30   Number         4  gd32e23x_fmc.o(.text)
    __arm_cp.12_0                            0x08002b44   Number         4  gd32e23x_fmc.o(.text)
    __arm_cp.14_0                            0x08002c54   Number         4  gd32e23x_fmc.o(.text)
    __arm_cp.14_1                            0x08002c58   Number         4  gd32e23x_fmc.o(.text)
    __arm_cp.14_2                            0x08002c5c   Number         4  gd32e23x_fmc.o(.text)
    __arm_cp.14_3                            0x08002c60   Number         4  gd32e23x_fmc.o(.text)
    __arm_cp.14_4                            0x08002c64   Number         4  gd32e23x_fmc.o(.text)
    __arm_cp.15_0                            0x08002c74   Number         4  gd32e23x_fmc.o(.text)
    __arm_cp.16_0                            0x08002d14   Number         4  gd32e23x_fmc.o(.text)
    __arm_cp.16_1                            0x08002d18   Number         4  gd32e23x_fmc.o(.text)
    __arm_cp.16_2                            0x08002d1c   Number         4  gd32e23x_fmc.o(.text)
    __arm_cp.16_3                            0x08002d20   Number         4  gd32e23x_fmc.o(.text)
    __arm_cp.16_4                            0x08002d24   Number         4  gd32e23x_fmc.o(.text)
    __arm_cp.17_0                            0x08002e24   Number         4  gd32e23x_fmc.o(.text)
    __arm_cp.17_1                            0x08002e28   Number         4  gd32e23x_fmc.o(.text)
    __arm_cp.17_2                            0x08002e2c   Number         4  gd32e23x_fmc.o(.text)
    __arm_cp.17_3                            0x08002e30   Number         4  gd32e23x_fmc.o(.text)
    __arm_cp.18_0                            0x08002f2c   Number         4  gd32e23x_fmc.o(.text)
    __arm_cp.18_1                            0x08002f30   Number         4  gd32e23x_fmc.o(.text)
    __arm_cp.18_2                            0x08002f34   Number         4  gd32e23x_fmc.o(.text)
    __arm_cp.19_0                            0x08002fd0   Number         4  gd32e23x_fmc.o(.text)
    __arm_cp.19_1                            0x08002fd4   Number         4  gd32e23x_fmc.o(.text)
    __arm_cp.19_2                            0x08002fd8   Number         4  gd32e23x_fmc.o(.text)
    __arm_cp.19_3                            0x08002fdc   Number         4  gd32e23x_fmc.o(.text)
    __arm_cp.20_0                            0x08002fec   Number         4  gd32e23x_fmc.o(.text)
    __arm_cp.21_0                            0x08002ff8   Number         4  gd32e23x_fmc.o(.text)
    __arm_cp.22_0                            0x08003004   Number         4  gd32e23x_fmc.o(.text)
    __arm_cp.23_0                            0x08003014   Number         4  gd32e23x_fmc.o(.text)
    __arm_cp.24_0                            0x08003024   Number         4  gd32e23x_fmc.o(.text)
    __arm_cp.25_0                            0x08003034   Number         4  gd32e23x_fmc.o(.text)
    __arm_cp.26_0                            0x08003040   Number         4  gd32e23x_fmc.o(.text)
    __arm_cp.27_0                            0x08003068   Number         4  gd32e23x_fmc.o(.text)
    __arm_cp.28_0                            0x08003074   Number         4  gd32e23x_fmc.o(.text)
    __arm_cp.29_0                            0x08003098   Number         4  gd32e23x_fmc.o(.text)
    [Anonymous Symbol]                       0x0800309c   Section        0  gd32e23x_fwdgt.o(.text)
    __arm_cp.0_0                             0x080030a4   Number         4  gd32e23x_fwdgt.o(.text)
    __arm_cp.0_1                             0x080030a8   Number         4  gd32e23x_fwdgt.o(.text)
    __arm_cp.1_0                             0x080030b4   Number         4  gd32e23x_fwdgt.o(.text)
    __arm_cp.2_0                             0x080030c0   Number         4  gd32e23x_fwdgt.o(.text)
    __arm_cp.2_1                             0x080030c4   Number         4  gd32e23x_fwdgt.o(.text)
    __arm_cp.3_0                             0x080030ec   Number         4  gd32e23x_fwdgt.o(.text)
    __arm_cp.3_1                             0x080030f0   Number         4  gd32e23x_fwdgt.o(.text)
    __arm_cp.3_2                             0x080030f4   Number         4  gd32e23x_fwdgt.o(.text)
    __arm_cp.4_0                             0x08003120   Number         4  gd32e23x_fwdgt.o(.text)
    __arm_cp.4_1                             0x08003124   Number         4  gd32e23x_fwdgt.o(.text)
    __arm_cp.4_2                             0x08003128   Number         4  gd32e23x_fwdgt.o(.text)
    __arm_cp.4_3                             0x0800312c   Number         4  gd32e23x_fwdgt.o(.text)
    __arm_cp.5_0                             0x08003158   Number         4  gd32e23x_fwdgt.o(.text)
    __arm_cp.5_1                             0x0800315c   Number         4  gd32e23x_fwdgt.o(.text)
    __arm_cp.5_2                             0x08003160   Number         4  gd32e23x_fwdgt.o(.text)
    __arm_cp.5_3                             0x08003164   Number         4  gd32e23x_fwdgt.o(.text)
    __arm_cp.6_0                             0x08003170   Number         4  gd32e23x_fwdgt.o(.text)
    __arm_cp.6_1                             0x08003174   Number         4  gd32e23x_fwdgt.o(.text)
    __arm_cp.7_0                             0x080031b8   Number         4  gd32e23x_fwdgt.o(.text)
    __arm_cp.7_1                             0x080031bc   Number         4  gd32e23x_fwdgt.o(.text)
    __arm_cp.7_2                             0x080031c0   Number         4  gd32e23x_fwdgt.o(.text)
    __arm_cp.7_3                             0x080031c4   Number         4  gd32e23x_fwdgt.o(.text)
    __arm_cp.7_4                             0x080031c8   Number         4  gd32e23x_fwdgt.o(.text)
    __arm_cp.8_0                             0x080031d8   Number         4  gd32e23x_fwdgt.o(.text)
    [Anonymous Symbol]                       0x080031dc   Section        0  gd32e23x_gpio.o(.text)
    __arm_cp.0_0                             0x08003210   Number         4  gd32e23x_gpio.o(.text)
    __arm_cp.14_0                            0x08003354   Number         4  gd32e23x_gpio.o(.text)
    [Anonymous Symbol]                       0x08003358   Section        0  gd32e23x_misc.o(.text)
    __arm_cp.0_0                             0x080033a4   Number         4  gd32e23x_misc.o(.text)
    __arm_cp.0_1                             0x080033a8   Number         4  gd32e23x_misc.o(.text)
    __arm_cp.0_2                             0x080033ac   Number         4  gd32e23x_misc.o(.text)
    __arm_cp.1_0                             0x080033d4   Number         4  gd32e23x_misc.o(.text)
    __arm_cp.2_0                             0x080033ec   Number         4  gd32e23x_misc.o(.text)
    __arm_cp.2_1                             0x080033f0   Number         4  gd32e23x_misc.o(.text)
    __arm_cp.3_0                             0x08003400   Number         4  gd32e23x_misc.o(.text)
    __arm_cp.3_1                             0x08003404   Number         4  gd32e23x_misc.o(.text)
    __arm_cp.4_0                             0x08003414   Number         4  gd32e23x_misc.o(.text)
    __arm_cp.5_0                             0x08003424   Number         4  gd32e23x_misc.o(.text)
    __arm_cp.6_0                             0x08003440   Number         4  gd32e23x_misc.o(.text)
    [Anonymous Symbol]                       0x08003444   Section        0  gd32e23x_rcu.o(.text)
    __arm_cp.0_0                             0x080034a8   Number         4  gd32e23x_rcu.o(.text)
    __arm_cp.0_1                             0x080034ac   Number         4  gd32e23x_rcu.o(.text)
    __arm_cp.0_2                             0x080034b0   Number         4  gd32e23x_rcu.o(.text)
    __arm_cp.0_3                             0x080034b4   Number         4  gd32e23x_rcu.o(.text)
    __arm_cp.1_0                             0x080034cc   Number         4  gd32e23x_rcu.o(.text)
    __arm_cp.2_0                             0x080034e4   Number         4  gd32e23x_rcu.o(.text)
    __arm_cp.3_0                             0x080034fc   Number         4  gd32e23x_rcu.o(.text)
    __arm_cp.4_0                             0x08003514   Number         4  gd32e23x_rcu.o(.text)
    __arm_cp.5_0                             0x0800352c   Number         4  gd32e23x_rcu.o(.text)
    __arm_cp.6_0                             0x08003544   Number         4  gd32e23x_rcu.o(.text)
    __arm_cp.7_0                             0x08003558   Number         4  gd32e23x_rcu.o(.text)
    __arm_cp.8_0                             0x0800356c   Number         4  gd32e23x_rcu.o(.text)
    __arm_cp.9_0                             0x08003580   Number         4  gd32e23x_rcu.o(.text)
    __arm_cp.10_0                            0x08003590   Number         4  gd32e23x_rcu.o(.text)
    __arm_cp.11_0                            0x080035a4   Number         4  gd32e23x_rcu.o(.text)
    __arm_cp.12_0                            0x080035b8   Number         4  gd32e23x_rcu.o(.text)
    __arm_cp.13_0                            0x080035cc   Number         4  gd32e23x_rcu.o(.text)
    __arm_cp.14_0                            0x08003698   Number         4  gd32e23x_rcu.o(.text)
    __arm_cp.14_1                            0x0800369c   Number         4  gd32e23x_rcu.o(.text)
    __arm_cp.15_0                            0x080036b4   Number         4  gd32e23x_rcu.o(.text)
    __arm_cp.16_0                            0x080036d0   Number         4  gd32e23x_rcu.o(.text)
    __arm_cp.16_1                            0x080036d4   Number         4  gd32e23x_rcu.o(.text)
    __arm_cp.17_0                            0x080036ec   Number         4  gd32e23x_rcu.o(.text)
    __arm_cp.18_0                            0x08003704   Number         4  gd32e23x_rcu.o(.text)
    __arm_cp.19_0                            0x08003718   Number         4  gd32e23x_rcu.o(.text)
    __arm_cp.20_0                            0x08003730   Number         4  gd32e23x_rcu.o(.text)
    __arm_cp.21_0                            0x08003748   Number         4  gd32e23x_rcu.o(.text)
    __arm_cp.22_0                            0x0800375c   Number         4  gd32e23x_rcu.o(.text)
    __arm_cp.23_0                            0x08003774   Number         4  gd32e23x_rcu.o(.text)
    __arm_cp.24_0                            0x0800378c   Number         4  gd32e23x_rcu.o(.text)
    __arm_cp.25_0                            0x080037a4   Number         4  gd32e23x_rcu.o(.text)
    __arm_cp.26_0                            0x080037bc   Number         4  gd32e23x_rcu.o(.text)
    __arm_cp.27_0                            0x08003890   Number         4  gd32e23x_rcu.o(.text)
    __arm_cp.27_1                            0x08003894   Number         4  gd32e23x_rcu.o(.text)
    __arm_cp.27_2                            0x08003898   Number         4  gd32e23x_rcu.o(.text)
    __arm_cp.27_3                            0x0800389c   Number         4  gd32e23x_rcu.o(.text)
    __arm_cp.27_4                            0x080038a0   Number         4  gd32e23x_rcu.o(.text)
    __arm_cp.28_0                            0x080038b8   Number         4  gd32e23x_rcu.o(.text)
    __arm_cp.29_0                            0x080038d0   Number         4  gd32e23x_rcu.o(.text)
    __arm_cp.30_0                            0x0800390c   Number         4  gd32e23x_rcu.o(.text)
    __arm_cp.31_0                            0x08003948   Number         4  gd32e23x_rcu.o(.text)
    __arm_cp.32_0                            0x0800395c   Number         4  gd32e23x_rcu.o(.text)
    __arm_cp.33_0                            0x08003970   Number         4  gd32e23x_rcu.o(.text)
    __arm_cp.34_0                            0x08003984   Number         4  gd32e23x_rcu.o(.text)
    __arm_cp.35_0                            0x08003998   Number         4  gd32e23x_rcu.o(.text)
    __arm_cp.36_0                            0x080039b0   Number         4  gd32e23x_rcu.o(.text)
    __arm_cp.36_1                            0x080039b4   Number         4  gd32e23x_rcu.o(.text)
    __arm_cp.37_0                            0x080039cc   Number         4  gd32e23x_rcu.o(.text)
    __arm_cp.38_0                            0x08003acc   Number         4  gd32e23x_rcu.o(.text)
    __arm_cp.38_1                            0x08003ad0   Number         4  gd32e23x_rcu.o(.text)
    __arm_cp.38_2                            0x08003ad4   Number         4  gd32e23x_rcu.o(.text)
    __arm_cp.38_4                            0x08003ae8   Number         4  gd32e23x_rcu.o(.text)
    __arm_cp.38_5                            0x08003aec   Number         4  gd32e23x_rcu.o(.text)
    __arm_cp.38_6                            0x08003af0   Number         4  gd32e23x_rcu.o(.text)
    [Anonymous Symbol]                       0x08003af4   Section        0  gd32e23x_syscfg.o(.text)
    __arm_cp.1_0                             0x08003b18   Number         4  gd32e23x_syscfg.o(.text)
    __arm_cp.2_0                             0x08003b28   Number         4  gd32e23x_syscfg.o(.text)
    __arm_cp.3_0                             0x08003b3c   Number         4  gd32e23x_syscfg.o(.text)
    __arm_cp.4_0                             0x08003b50   Number         4  gd32e23x_syscfg.o(.text)
    __arm_cp.5_0                             0x08003bc0   Number         4  gd32e23x_syscfg.o(.text)
    __arm_cp.6_0                             0x08003bd0   Number         4  gd32e23x_syscfg.o(.text)
    __arm_cp.7_0                             0x08003be4   Number         4  gd32e23x_syscfg.o(.text)
    __arm_cp.8_0                             0x08003bf4   Number         4  gd32e23x_syscfg.o(.text)
    __arm_cp.9_0                             0x08003c04   Number         4  gd32e23x_syscfg.o(.text)
    [Anonymous Symbol]                       0x08003c08   Section        0  gd32e23x_timer.o(.text)
    __arm_cp.0_0                             0x08003c6c   Number         4  gd32e23x_timer.o(.text)
    __arm_cp.0_1                             0x08003c70   Number         4  gd32e23x_timer.o(.text)
    __arm_cp.0_2                             0x08003c74   Number         4  gd32e23x_timer.o(.text)
    __arm_cp.0_3                             0x08003c78   Number         4  gd32e23x_timer.o(.text)
    __arm_cp.0_4                             0x08003c7c   Number         4  gd32e23x_timer.o(.text)
    __arm_cp.0_5                             0x08003c80   Number         4  gd32e23x_timer.o(.text)
    __arm_cp.0_6                             0x08003c84   Number         4  gd32e23x_timer.o(.text)
    __arm_cp.0_7                             0x08003c88   Number         4  gd32e23x_timer.o(.text)
    __arm_cp.0_8                             0x08003c8c   Number         4  gd32e23x_timer.o(.text)
    __arm_cp.0_9                             0x08003c90   Number         4  gd32e23x_timer.o(.text)
    __arm_cp.1_0                             0x08003ca4   Number         4  gd32e23x_timer.o(.text)
    __arm_cp.2_0                             0x08003d3c   Number         4  gd32e23x_timer.o(.text)
    __arm_cp.2_1                             0x08003d40   Number         4  gd32e23x_timer.o(.text)
    __arm_cp.2_2                             0x08003d44   Number         4  gd32e23x_timer.o(.text)
    __arm_cp.2_3                             0x08003d48   Number         4  gd32e23x_timer.o(.text)
    __arm_cp.2_4                             0x08003d4c   Number         4  gd32e23x_timer.o(.text)
    __arm_cp.2_5                             0x08003d50   Number         4  gd32e23x_timer.o(.text)
    __arm_cp.2_6                             0x08003d54   Number         4  gd32e23x_timer.o(.text)
    __arm_cp.2_7                             0x08003d58   Number         4  gd32e23x_timer.o(.text)
    __arm_cp.30_0                            0x08003eac   Number         4  gd32e23x_timer.o(.text)
    __arm_cp.42_0                            0x08004184   Number         4  gd32e23x_timer.o(.text)
    __arm_cp.42_1                            0x08004188   Number         4  gd32e23x_timer.o(.text)
    __arm_cp.42_2                            0x0800418c   Number         4  gd32e23x_timer.o(.text)
    __arm_cp.42_3                            0x08004190   Number         4  gd32e23x_timer.o(.text)
    __arm_cp.42_4                            0x08004194   Number         4  gd32e23x_timer.o(.text)
    __arm_cp.53_0                            0x080045fc   Number         4  gd32e23x_timer.o(.text)
    __arm_cp.56_0                            0x080047c4   Number         4  gd32e23x_timer.o(.text)
    __arm_cp.56_1                            0x080047c8   Number         4  gd32e23x_timer.o(.text)
    __arm_cp.56_2                            0x080047cc   Number         4  gd32e23x_timer.o(.text)
    __arm_cp.63_0                            0x08004894   Number         4  gd32e23x_timer.o(.text)
    .text                                    0x080049f4   Section       56  startup_gd32e23x.o(.text)
    [Anonymous Symbol]                       0x08004a2c   Section        0  system_gd32e23x.o(.text)
    __arm_cp.0_0                             0x08004b00   Number         4  system_gd32e23x.o(.text)
    __arm_cp.0_1                             0x08004b04   Number         4  system_gd32e23x.o(.text)
    __arm_cp.0_2                             0x08004b08   Number         4  system_gd32e23x.o(.text)
    __arm_cp.0_3                             0x08004b0c   Number         4  system_gd32e23x.o(.text)
    __arm_cp.0_4                             0x08004b10   Number         4  system_gd32e23x.o(.text)
    __arm_cp.0_5                             0x08004b14   Number         4  system_gd32e23x.o(.text)
    __arm_cp.1_0                             0x08004b74   Number         4  system_gd32e23x.o(.text)
    __arm_cp.1_1                             0x08004b78   Number         4  system_gd32e23x.o(.text)
    __arm_cp.1_2                             0x08004b7c   Number         4  system_gd32e23x.o(.text)
    __arm_cp.1_3                             0x08004b80   Number         4  system_gd32e23x.o(.text)
    .text                                    0x08004b94   Section        0  llmul.o(.text)
    .text                                    0x08004bc4   Section        0  heapauxi.o(.text)
    .text                                    0x08004bcc   Section        0  d2f.o(.text)
    _dadd1                                   0x08004c49   Thumb Code   290  daddsub.o(.text)
    .text                                    0x08004c48   Section        0  daddsub.o(.text)
    _dsub1                                   0x08004d6b   Thumb Code   470  daddsub.o(.text)
    .text                                    0x08004fa0   Section        0  ddiv.o(.text)
    .text                                    0x080053e8   Section        0  dfixi.o(.text)
    .text                                    0x08005454   Section        0  dflti.o(.text)
    .text                                    0x080054ac   Section        0  dmul.o(.text)
    .text                                    0x080056f4   Section        0  f2d.o(.text)
    .text                                    0x08005748   Section        0  fdiv.o(.text)
    .text                                    0x080058a8   Section        0  ffixi.o(.text)
    .text                                    0x080058f4   Section        0  ffixl.o(.text)
    .text                                    0x08005976   Section        0  fflti.o(.text)
    .text                                    0x080059d4   Section        0  dcmpin.o(.text)
    .text                                    0x08005a74   Section        0  fcmpin.o(.text)
    .text                                    0x08005ad8   Section       62  sys_stackheap_outer.o(.text)
    .text                                    0x08005b16   Section        0  exit.o(.text)
    .text                                    0x08005b26   Section        0  cmpret.o(.text)
    .text                                    0x08005b54   Section        0  dnan2.o(.text)
    .text                                    0x08005b68   Section        0  fnan2.o(.text)
    .text                                    0x08005b78   Section        8  libspace.o(.text)
    .text                                    0x08005b80   Section        0  retnan.o(.text)
    .text                                    0x08005be0   Section        0  sys_exit.o(.text)
    .text                                    0x08005bec   Section        2  use_no_semi.o(.text)
    .text                                    0x08005bee   Section        0  indicate_semi.o(.text)
    i._dleq                                  0x08005bee   Section        0  dcmp.o(i._dleq)
    i._fgr                                   0x08005c08   Section        0  fcmp.o(i._fgr)
    i._fleq                                  0x08005c1e   Section        0  fcmp.o(i._fleq)
    i._fls                                   0x08005c38   Section        0  fcmp.o(i._fls)
    x$fpl$dleqf                              0x08005c50   Section      100  dlef.o(x$fpl$dleqf)
    x$fpl$fadd                               0x08005cb4   Section      140  faddsub.o(x$fpl$fadd)
    _fadd1                                   0x08005cc1   Thumb Code     0  faddsub.o(x$fpl$fadd)
    x$fpl$fgeqf                              0x08005d40   Section       84  fgef.o(x$fpl$fgeqf)
    x$fpl$fleqf                              0x08005d94   Section       84  flef.o(x$fpl$fleqf)
    x$fpl$fmul                               0x08005de8   Section      176  fmul.o(x$fpl$fmul)
    x$fpl$fsub                               0x08005e98   Section      208  faddsub.o(x$fpl$fsub)
    _fsub1                                   0x08005ea5   Thumb Code     0  faddsub.o(x$fpl$fsub)
    ddiv_reciptbl                            0x08005f68   Data         128  ddiv.o(.constdata)
    .constdata                               0x08005f68   Section      128  ddiv.o(.constdata)
    x$fpl$usenofp                            0x08005f68   Section        0  usenofp.o(x$fpl$usenofp)
    fdiv_tab                                 0x08005fe8   Data          64  fdiv.o(.constdata)
    .constdata                               0x08005fe8   Section       64  fdiv.o(.constdata)
    [Anonymous Symbol]                       0x08006028   Section        0  bldc.o(.rodata..L__const.up_or_down.up_down)
    [Anonymous Symbol]                       0x08006034   Section        0  gd32e23x_gpio.o(.rodata..Lswitch.table.gpio_deinit.1)
    hall_to_sector                           0x08006040   Data           8  bldcsine.o(.rodata.cst8)
    [Anonymous Symbol]                       0x08006040   Section        0  bldcsine.o(.rodata.cst8)
    [Anonymous Symbol]                       0x08006048   Section        0  gd32e23x_rcu.o(.rodata.cst8)
    sine_table                               0x0800632c   Data         720  bldcsine.o(.rodata.sine_table)
    [Anonymous Symbol]                       0x0800632c   Section        0  bldcsine.o(.rodata.sine_table)
    .bss                                     0x20000020   Section       96  libspace.o(.bss)
    TIMER0_BRK_UP_TRG_COM_IRQHandler.interrupt_toggle 0x20000080   Data           1  it.o(.bss.TIMER0_BRK_UP_TRG_COM_IRQHandler.interrupt_toggle)
    [Anonymous Symbol]                       0x20000080   Section        0  it.o(.bss.TIMER0_BRK_UP_TRG_COM_IRQHandler.interrupt_toggle)
    Heap_Mem                                 0x20000208   Data        1024  startup_gd32e23x.o(HEAP)
    HEAP                                     0x20000208   Section     1024  startup_gd32e23x.o(HEAP)
    Stack_Mem                                0x20000608   Data        1024  startup_gd32e23x.o(STACK)
    STACK                                    0x20000608   Section     1024  startup_gd32e23x.o(STACK)
    __initial_sp                             0x20000a08   Data           0  startup_gd32e23x.o(STACK)

    Global Symbols

    Symbol Name                              Value     Ov Type        Size  Object(Section)

    BuildAttributes$$THM_ISAv3M$S$8M$PE$A:L22$X:L11$S22$IEEE1$IW$~IW$USESV6$~STKCKD$USESV7$~SHL$OTIME$ROPI$EBA8$UX$STANDARDLIB$REQ8$PRES8$EABIv2 0x00000000   Number         0  anon$$obj.o ABSOLUTE
    __ARM_exceptions_init                     - Undefined Weak Reference
    __alloca_initialize                       - Undefined Weak Reference
    __arm_preinit_                            - Undefined Weak Reference
    __arm_relocate_pie_                       - Undefined Weak Reference
    __cpp_initialize__aeabi_                  - Undefined Weak Reference
    __cxa_finalize                            - Undefined Weak Reference
    __rt_locale                               - Undefined Weak Reference
    __sigvec_lookup                           - Undefined Weak Reference
    _atexit_init                              - Undefined Weak Reference
    _call_atexit_fns                          - Undefined Weak Reference
    _clock_init                               - Undefined Weak Reference
    _fp_trap_init                             - Undefined Weak Reference
    _fp_trap_shutdown                         - Undefined Weak Reference
    _get_lc_collate                           - Undefined Weak Reference
    _get_lc_ctype                             - Undefined Weak Reference
    _get_lc_monetary                          - Undefined Weak Reference
    _get_lc_numeric                           - Undefined Weak Reference
    _get_lc_time                              - Undefined Weak Reference
    _getenv_init                              - Undefined Weak Reference
    _handle_redirection                       - Undefined Weak Reference
    _init_alloc                               - Undefined Weak Reference
    _init_user_alloc                          - Undefined Weak Reference
    _initio                                   - Undefined Weak Reference
    _rand_init                                - Undefined Weak Reference
    _signal_finish                            - Undefined Weak Reference
    _signal_init                              - Undefined Weak Reference
    _terminate_alloc                          - Undefined Weak Reference
    _terminate_user_alloc                     - Undefined Weak Reference
    _terminateio                              - Undefined Weak Reference
    __Vectors_Size                           0x000000cc   Number         0  startup_gd32e23x.o ABSOLUTE
    __Vectors                                0x08000000   Data           4  startup_gd32e23x.o(RESET)
    __Vectors_End                            0x080000cc   Data           0  startup_gd32e23x.o(RESET)
    __main                                   0x080000cd   Thumb Code     8  __main.o(!!!main)
    __scatterload                            0x080000d5   Thumb Code     0  __scatter.o(!!!scatter)
    __scatterload_rt2                        0x080000d5   Thumb Code    74  __scatter.o(!!!scatter)
    __scatterload_rt2_thumb_only             0x080000d5   Thumb Code     0  __scatter.o(!!!scatter)
    __scatterload_loop                       0x080000df   Thumb Code     0  __scatter.o(!!!scatter)
    __scatterload_copy                       0x08000129   Thumb Code    26  __scatter_copy.o(!!handler_copy)
    __scatterload_null                       0x08000145   Thumb Code     2  __scatter.o(!!handler_null)
    __scatterload_zeroinit                   0x08000149   Thumb Code    28  __scatter_zi.o(!!handler_zi)
    __rt_lib_init                            0x08000165   Thumb Code     0  libinit.o(.ARM.Collect$$libinit$$00000000)
    __rt_lib_init_alloca_1                   0x08000167   Thumb Code     0  libinit2.o(.ARM.Collect$$libinit$$00000030)
    __rt_lib_init_argv_1                     0x08000167   Thumb Code     0  libinit2.o(.ARM.Collect$$libinit$$0000002E)
    __rt_lib_init_atexit_1                   0x08000167   Thumb Code     0  libinit2.o(.ARM.Collect$$libinit$$0000001D)
    __rt_lib_init_clock_1                    0x08000167   Thumb Code     0  libinit2.o(.ARM.Collect$$libinit$$00000023)
    __rt_lib_init_cpp_1                      0x08000167   Thumb Code     0  libinit2.o(.ARM.Collect$$libinit$$00000034)
    __rt_lib_init_exceptions_1               0x08000167   Thumb Code     0  libinit2.o(.ARM.Collect$$libinit$$00000032)
    __rt_lib_init_fp_1                       0x08000167   Thumb Code     0  libinit2.o(.ARM.Collect$$libinit$$00000002)
    __rt_lib_init_fp_trap_1                  0x08000167   Thumb Code     0  libinit2.o(.ARM.Collect$$libinit$$00000021)
    __rt_lib_init_getenv_1                   0x08000167   Thumb Code     0  libinit2.o(.ARM.Collect$$libinit$$00000025)
    __rt_lib_init_heap_1                     0x08000167   Thumb Code     0  libinit2.o(.ARM.Collect$$libinit$$0000000C)
    __rt_lib_init_lc_collate_1               0x08000167   Thumb Code     0  libinit2.o(.ARM.Collect$$libinit$$00000013)
    __rt_lib_init_lc_ctype_1                 0x08000167   Thumb Code     0  libinit2.o(.ARM.Collect$$libinit$$00000015)
    __rt_lib_init_lc_monetary_1              0x08000167   Thumb Code     0  libinit2.o(.ARM.Collect$$libinit$$00000017)
    __rt_lib_init_lc_numeric_1               0x08000167   Thumb Code     0  libinit2.o(.ARM.Collect$$libinit$$00000019)
    __rt_lib_init_lc_time_1                  0x08000167   Thumb Code     0  libinit2.o(.ARM.Collect$$libinit$$0000001B)
    __rt_lib_init_preinit_1                  0x08000167   Thumb Code     0  libinit2.o(.ARM.Collect$$libinit$$00000006)
    __rt_lib_init_rand_1                     0x08000167   Thumb Code     0  libinit2.o(.ARM.Collect$$libinit$$00000010)
    __rt_lib_init_relocate_pie_1             0x08000167   Thumb Code     0  libinit2.o(.ARM.Collect$$libinit$$00000004)
    __rt_lib_init_return                     0x08000167   Thumb Code     0  libinit2.o(.ARM.Collect$$libinit$$00000035)
    __rt_lib_init_signal_1                   0x08000167   Thumb Code     0  libinit2.o(.ARM.Collect$$libinit$$0000001F)
    __rt_lib_init_stdio_1                    0x08000167   Thumb Code     0  libinit2.o(.ARM.Collect$$libinit$$00000027)
    __rt_lib_init_user_alloc_1               0x08000167   Thumb Code     0  libinit2.o(.ARM.Collect$$libinit$$0000000E)
    __rt_lib_shutdown                        0x08000169   Thumb Code     0  libshutdown.o(.ARM.Collect$$libshutdown$$00000000)
    __rt_lib_shutdown_cpp_1                  0x0800016b   Thumb Code     0  libshutdown2.o(.ARM.Collect$$libshutdown$$00000002)
    __rt_lib_shutdown_fp_trap_1              0x0800016b   Thumb Code     0  libshutdown2.o(.ARM.Collect$$libshutdown$$00000007)
    __rt_lib_shutdown_heap_1                 0x0800016b   Thumb Code     0  libshutdown2.o(.ARM.Collect$$libshutdown$$0000000F)
    __rt_lib_shutdown_return                 0x0800016b   Thumb Code     0  libshutdown2.o(.ARM.Collect$$libshutdown$$00000010)
    __rt_lib_shutdown_signal_1               0x0800016b   Thumb Code     0  libshutdown2.o(.ARM.Collect$$libshutdown$$0000000A)
    __rt_lib_shutdown_stdio_1                0x0800016b   Thumb Code     0  libshutdown2.o(.ARM.Collect$$libshutdown$$00000004)
    __rt_lib_shutdown_user_alloc_1           0x0800016b   Thumb Code     0  libshutdown2.o(.ARM.Collect$$libshutdown$$0000000C)
    __rt_entry                               0x0800016d   Thumb Code     0  __rtentry.o(.ARM.Collect$$rtentry$$00000000)
    __rt_entry_presh_1                       0x0800016d   Thumb Code     0  __rtentry2.o(.ARM.Collect$$rtentry$$00000002)
    __rt_entry_sh                            0x0800016d   Thumb Code     0  __rtentry4.o(.ARM.Collect$$rtentry$$00000004)
    __rt_entry_li                            0x08000173   Thumb Code     0  __rtentry2.o(.ARM.Collect$$rtentry$$0000000A)
    __rt_entry_postsh_1                      0x08000173   Thumb Code     0  __rtentry2.o(.ARM.Collect$$rtentry$$00000009)
    __rt_entry_main                          0x08000177   Thumb Code     0  __rtentry2.o(.ARM.Collect$$rtentry$$0000000D)
    __rt_entry_postli_1                      0x08000177   Thumb Code     0  __rtentry2.o(.ARM.Collect$$rtentry$$0000000C)
    __rt_exit                                0x0800017f   Thumb Code     0  rtexit.o(.ARM.Collect$$rtexit$$00000000)
    __rt_exit_ls                             0x08000181   Thumb Code     0  rtexit2.o(.ARM.Collect$$rtexit$$00000003)
    __rt_exit_prels_1                        0x08000181   Thumb Code     0  rtexit2.o(.ARM.Collect$$rtexit$$00000002)
    __rt_exit_exit                           0x08000185   Thumb Code     0  rtexit2.o(.ARM.Collect$$rtexit$$00000004)
    main                                     0x0800018d   Thumb Code  1500  main.o(.text)
    ShutOff                                  0x080007dd   Thumb Code   108  main.o(.text)
    ShowBatteryState                         0x08000859   Thumb Code   128  main.o(.text)
    modulo                                   0x080008e9   Thumb Code    22  bldc.o(.text)
    up_or_down                               0x08000901   Thumb Code    32  bldc.o(.text)
    SetEnable                                0x08000925   Thumb Code     8  bldc.o(.text)
    SetBldcInput                             0x08000931   Thumb Code   100  bldc.o(.text)
    SetFilter                                0x080009a5   Thumb Code    24  bldc.o(.text)
    CalculateBLDC                            0x080009c9   Thumb Code  1148  bldc.o(.text)
    PID_Init                                 0x08000f29   Thumb Code   108  driver.o(.text)
    PID_Update                               0x08000f99   Thumb Code   150  driver.o(.text)
    DriverInit                               0x08001031   Thumb Code    84  driver.o(.text)
    Driver                                   0x080010a9   Thumb Code   252  driver.o(.text)
    InitEXTI                                 0x080011b5   Thumb Code    66  bldcsine.o(.text)
    InitBldc                                 0x080011f9   Thumb Code   148  bldcsine.o(.text)
    _HandleEXTI                              0x08001291   Thumb Code   116  bldcsine.o(.text)
    EXTI0_1_IRQHandler                       0x08001329   Thumb Code     4  bldcsine.o(.text)
    EXTI2_3_IRQHandler                       0x0800132d   Thumb Code     4  bldcsine.o(.text)
    EXTI4_15_IRQHandler                      0x08001331   Thumb Code     4  bldcsine.o(.text)
    bldc_get_pwm                             0x08001335   Thumb Code   364  bldcsine.o(.text)
    pinMode                                  0x08001501   Thumb Code    54  setup.o(.text)
    pinModePull                              0x08001537   Thumb Code    46  setup.o(.text)
    Interrupt_init                           0x08001565   Thumb Code     2  setup.o(.text)
    Watchdog_init                            0x08001569   Thumb Code    52  setup.o(.text)
    TimeoutTimer_init                        0x080015a5   Thumb Code    80  setup.o(.text)
    GPIO_init                                0x08001601   Thumb Code   628  setup.o(.text)
    PWM_init                                 0x08001885   Thumb Code   376  setup.o(.text)
    ADC_init                                 0x08001a15   Thumb Code   212  setup.o(.text)
    USART0_Init                              0x08001af9   Thumb Code     2  setup.o(.text)
    USART1_Init                              0x08001afb   Thumb Code     2  setup.o(.text)
    USART2_Init                              0x08001afd   Thumb Code     2  setup.o(.text)
    flashErase                               0x08001aff   Thumb Code    30  setup.o(.text)
    flashRead                                0x08001b1d   Thumb Code     4  setup.o(.text)
    flashWrite                               0x08001b21   Thumb Code    38  setup.o(.text)
    flashWriteBuffer                         0x08001b47   Thumb Code    56  setup.o(.text)
    flashReadBuffer                          0x08001b7f   Thumb Code    20  setup.o(.text)
    ConfigReset                              0x08001b95   Thumb Code    28  setup.o(.text)
    ConfigWrite                              0x08001bb9   Thumb Code    96  setup.o(.text)
    ConfigRead                               0x08001c29   Thumb Code    88  setup.o(.text)
    SysTick_Handler                          0x08001c95   Thumb Code    12  it.o(.text)
    ResetTimeout                             0x08001ca5   Thumb Code     8  it.o(.text)
    TIMER13_IRQHandler                       0x08001cb1   Thumb Code    48  it.o(.text)
    TIMER0_BRK_UP_TRG_COM_IRQHandler         0x08001cf5   Thumb Code    92  it.o(.text)
    DMA_Channel0_IRQHandler                  0x08001d69   Thumb Code    76  it.o(.text)
    millis                                   0x08001dc5   Thumb Code     8  it.o(.text)
    Delay                                    0x08001dd1   Thumb Code    20  it.o(.text)
    NMI_Handler                              0x08001de9   Thumb Code     2  it.o(.text)
    HardFault_Handler                        0x08001deb   Thumb Code     2  it.o(.text)
    MemManage_Handler                        0x08001ded   Thumb Code     2  it.o(.text)
    BusFault_Handler                         0x08001def   Thumb Code     2  it.o(.text)
    UsageFault_Handler                       0x08001df1   Thumb Code     2  it.o(.text)
    SVC_Handler                              0x08001df3   Thumb Code     2  it.o(.text)
    DebugMon_Handler                         0x08001df5   Thumb Code     2  it.o(.text)
    PendSV_Handler                           0x08001df7   Thumb Code     2  it.o(.text)
    RemoteUpdate                             0x08001df9   Thumb Code    96  remotedummy.o(.text)
    RemoteCallback                           0x08001e79   Thumb Code     2  remotedummy.o(.text)
    RemoteCalculate                          0x08001e7b   Thumb Code     2  remotedummy.o(.text)
    adc_deinit                               0x08001e7d   Thumb Code    24  gd32e23x_adc.o(.text)
    adc_enable                               0x08001e99   Thumb Code    20  gd32e23x_adc.o(.text)
    adc_disable                              0x08001eb1   Thumb Code    12  gd32e23x_adc.o(.text)
    adc_calibration_enable                   0x08001ec1   Thumb Code    32  gd32e23x_adc.o(.text)
    adc_dma_mode_enable                      0x08001ee5   Thumb Code    16  gd32e23x_adc.o(.text)
    adc_dma_mode_disable                     0x08001ef9   Thumb Code    16  gd32e23x_adc.o(.text)
    adc_tempsensor_vrefint_enable            0x08001f0d   Thumb Code    16  gd32e23x_adc.o(.text)
    adc_tempsensor_vrefint_disable           0x08001f21   Thumb Code    16  gd32e23x_adc.o(.text)
    adc_discontinuous_mode_config            0x08001f35   Thumb Code    64  gd32e23x_adc.o(.text)
    adc_special_function_config              0x08001f79   Thumb Code   104  gd32e23x_adc.o(.text)
    adc_data_alignment_config                0x08001fe5   Thumb Code    24  gd32e23x_adc.o(.text)
    adc_channel_length_config                0x08002001   Thumb Code    60  gd32e23x_adc.o(.text)
    adc_regular_channel_config               0x08002041   Thumb Code   136  gd32e23x_adc.o(.text)
    adc_inserted_channel_config              0x080020cd   Thumb Code    84  gd32e23x_adc.o(.text)
    adc_inserted_channel_offset_config       0x08002125   Thumb Code    28  gd32e23x_adc.o(.text)
    adc_external_trigger_config              0x08002149   Thumb Code    64  gd32e23x_adc.o(.text)
    adc_external_trigger_source_config       0x0800218d   Thumb Code    32  gd32e23x_adc.o(.text)
    adc_software_trigger_enable              0x080021b9   Thumb Code    40  gd32e23x_adc.o(.text)
    adc_regular_data_read                    0x080021e5   Thumb Code     8  gd32e23x_adc.o(.text)
    adc_inserted_data_read                   0x080021f1   Thumb Code    68  gd32e23x_adc.o(.text)
    adc_flag_get                             0x08002239   Thumb Code    12  gd32e23x_adc.o(.text)
    adc_flag_clear                           0x08002249   Thumb Code    12  gd32e23x_adc.o(.text)
    adc_interrupt_flag_get                   0x08002259   Thumb Code    48  gd32e23x_adc.o(.text)
    adc_interrupt_flag_clear                 0x0800228d   Thumb Code    12  gd32e23x_adc.o(.text)
    adc_interrupt_enable                     0x0800229d   Thumb Code    52  gd32e23x_adc.o(.text)
    adc_interrupt_disable                    0x080022d5   Thumb Code    52  gd32e23x_adc.o(.text)
    adc_watchdog_single_channel_enable       0x0800230d   Thumb Code    28  gd32e23x_adc.o(.text)
    adc_watchdog_group_channel_enable        0x08002335   Thumb Code    32  gd32e23x_adc.o(.text)
    adc_watchdog_disable                     0x08002369   Thumb Code    12  gd32e23x_adc.o(.text)
    adc_watchdog_threshold_config            0x0800237d   Thumb Code    16  gd32e23x_adc.o(.text)
    adc_resolution_config                    0x08002395   Thumb Code    20  gd32e23x_adc.o(.text)
    adc_oversample_mode_config               0x080023ad   Thumb Code    40  gd32e23x_adc.o(.text)
    adc_oversample_mode_enable               0x080023dd   Thumb Code    12  gd32e23x_adc.o(.text)
    adc_oversample_mode_disable              0x080023ed   Thumb Code    12  gd32e23x_adc.o(.text)
    dma_deinit                               0x080023fd   Thumb Code    44  gd32e23x_dma.o(.text)
    dma_struct_para_init                     0x0800242d   Thumb Code    20  gd32e23x_dma.o(.text)
    dma_init                                 0x08002441   Thumb Code   112  gd32e23x_dma.o(.text)
    dma_channel_disable                      0x080024b5   Thumb Code    16  gd32e23x_dma.o(.text)
    dma_circulation_enable                   0x080024c9   Thumb Code    16  gd32e23x_dma.o(.text)
    dma_circulation_disable                  0x080024dd   Thumb Code    16  gd32e23x_dma.o(.text)
    dma_memory_to_memory_enable              0x080024f1   Thumb Code    20  gd32e23x_dma.o(.text)
    dma_memory_to_memory_disable             0x08002509   Thumb Code    20  gd32e23x_dma.o(.text)
    dma_channel_enable                       0x08002521   Thumb Code    16  gd32e23x_dma.o(.text)
    dma_periph_address_config                0x08002535   Thumb Code    12  gd32e23x_dma.o(.text)
    dma_memory_address_config                0x08002545   Thumb Code    12  gd32e23x_dma.o(.text)
    dma_transfer_number_config               0x08002555   Thumb Code    12  gd32e23x_dma.o(.text)
    dma_transfer_number_get                  0x08002565   Thumb Code    12  gd32e23x_dma.o(.text)
    dma_priority_config                      0x08002575   Thumb Code    24  gd32e23x_dma.o(.text)
    dma_memory_width_config                  0x08002591   Thumb Code    24  gd32e23x_dma.o(.text)
    dma_periph_width_config                  0x080025ad   Thumb Code    24  gd32e23x_dma.o(.text)
    dma_memory_increase_enable               0x080025c9   Thumb Code    16  gd32e23x_dma.o(.text)
    dma_memory_increase_disable              0x080025dd   Thumb Code    16  gd32e23x_dma.o(.text)
    dma_periph_increase_enable               0x080025f1   Thumb Code    16  gd32e23x_dma.o(.text)
    dma_periph_increase_disable              0x08002605   Thumb Code    16  gd32e23x_dma.o(.text)
    dma_transfer_direction_config            0x08002619   Thumb Code    28  gd32e23x_dma.o(.text)
    dma_flag_get                             0x08002639   Thumb Code    16  gd32e23x_dma.o(.text)
    dma_flag_clear                           0x0800264d   Thumb Code    16  gd32e23x_dma.o(.text)
    dma_interrupt_flag_get                   0x08002661   Thumb Code    56  gd32e23x_dma.o(.text)
    dma_interrupt_flag_clear                 0x0800269d   Thumb Code    16  gd32e23x_dma.o(.text)
    dma_interrupt_enable                     0x080026b1   Thumb Code    16  gd32e23x_dma.o(.text)
    dma_interrupt_disable                    0x080026c5   Thumb Code    16  gd32e23x_dma.o(.text)
    exti_deinit                              0x080026d9   Thumb Code    20  gd32e23x_exti.o(.text)
    exti_init                                0x080026f5   Thumb Code   104  gd32e23x_exti.o(.text)
    exti_interrupt_enable                    0x08002761   Thumb Code    12  gd32e23x_exti.o(.text)
    exti_event_enable                        0x08002771   Thumb Code    12  gd32e23x_exti.o(.text)
    exti_interrupt_disable                   0x08002781   Thumb Code    12  gd32e23x_exti.o(.text)
    exti_event_disable                       0x08002791   Thumb Code    12  gd32e23x_exti.o(.text)
    exti_flag_get                            0x080027a1   Thumb Code    12  gd32e23x_exti.o(.text)
    exti_flag_clear                          0x080027b1   Thumb Code     8  gd32e23x_exti.o(.text)
    exti_interrupt_flag_get                  0x080027bd   Thumb Code    24  gd32e23x_exti.o(.text)
    exti_interrupt_flag_clear                0x080027d9   Thumb Code     8  gd32e23x_exti.o(.text)
    exti_software_interrupt_enable           0x080027e5   Thumb Code    12  gd32e23x_exti.o(.text)
    exti_software_interrupt_disable          0x080027f5   Thumb Code    12  gd32e23x_exti.o(.text)
    fmc_unlock                               0x08002805   Thumb Code    20  gd32e23x_fmc.o(.text)
    fmc_lock                                 0x08002825   Thumb Code    12  gd32e23x_fmc.o(.text)
    fmc_wscnt_set                            0x08002835   Thumb Code    16  gd32e23x_fmc.o(.text)
    fmc_prefetch_enable                      0x08002849   Thumb Code    12  gd32e23x_fmc.o(.text)
    fmc_prefetch_disable                     0x08002859   Thumb Code    12  gd32e23x_fmc.o(.text)
    fmc_page_erase                           0x08002869   Thumb Code   136  gd32e23x_fmc.o(.text)
    fmc_ready_wait                           0x080028f9   Thumb Code    60  gd32e23x_fmc.o(.text)
    fmc_mass_erase                           0x08002939   Thumb Code   128  gd32e23x_fmc.o(.text)
    fmc_doubleword_program                   0x080029c1   Thumb Code   160  gd32e23x_fmc.o(.text)
    fmc_word_program                         0x08002a69   Thumb Code   136  gd32e23x_fmc.o(.text)
    ob_unlock                                0x08002af9   Thumb Code    28  gd32e23x_fmc.o(.text)
    ob_lock                                  0x08002b21   Thumb Code    16  gd32e23x_fmc.o(.text)
    ob_reset                                 0x08002b35   Thumb Code    16  gd32e23x_fmc.o(.text)
    option_byte_value_get                    0x08002b49   Thumb Code     4  gd32e23x_fmc.o(.text)
    ob_erase                                 0x08002b4d   Thumb Code   264  gd32e23x_fmc.o(.text)
    ob_obstat_plevel_get                     0x08002c69   Thumb Code    12  gd32e23x_fmc.o(.text)
    ob_write_protection_enable               0x08002c79   Thumb Code   156  gd32e23x_fmc.o(.text)
    ob_security_protection_config            0x08002d29   Thumb Code   252  gd32e23x_fmc.o(.text)
    ob_user_write                            0x08002e35   Thumb Code   248  gd32e23x_fmc.o(.text)
    ob_data_program                          0x08002f39   Thumb Code   152  gd32e23x_fmc.o(.text)
    ob_user_get                              0x08002fe1   Thumb Code    12  gd32e23x_fmc.o(.text)
    ob_data_get                              0x08002ff1   Thumb Code     8  gd32e23x_fmc.o(.text)
    ob_write_protection_get                  0x08002ffd   Thumb Code     8  gd32e23x_fmc.o(.text)
    fmc_interrupt_enable                     0x08003009   Thumb Code    12  gd32e23x_fmc.o(.text)
    fmc_interrupt_disable                    0x08003019   Thumb Code    12  gd32e23x_fmc.o(.text)
    fmc_flag_get                             0x08003029   Thumb Code    12  gd32e23x_fmc.o(.text)
    fmc_flag_clear                           0x08003039   Thumb Code     8  gd32e23x_fmc.o(.text)
    fmc_interrupt_flag_get                   0x08003045   Thumb Code    36  gd32e23x_fmc.o(.text)
    fmc_interrupt_flag_clear                 0x0800306d   Thumb Code     8  gd32e23x_fmc.o(.text)
    fmc_state_get                            0x08003079   Thumb Code    32  gd32e23x_fmc.o(.text)
    fwdgt_write_enable                       0x0800309d   Thumb Code     8  gd32e23x_fwdgt.o(.text)
    fwdgt_write_disable                      0x080030ad   Thumb Code     8  gd32e23x_fwdgt.o(.text)
    fwdgt_enable                             0x080030b9   Thumb Code     8  gd32e23x_fwdgt.o(.text)
    fwdgt_prescaler_value_config             0x080030c9   Thumb Code    36  gd32e23x_fwdgt.o(.text)
    fwdgt_reload_value_config                0x080030f9   Thumb Code    40  gd32e23x_fwdgt.o(.text)
    fwdgt_window_value_config                0x08003131   Thumb Code    40  gd32e23x_fwdgt.o(.text)
    fwdgt_counter_reload                     0x08003169   Thumb Code     8  gd32e23x_fwdgt.o(.text)
    fwdgt_config                             0x08003179   Thumb Code    64  gd32e23x_fwdgt.o(.text)
    fwdgt_flag_get                           0x080031cd   Thumb Code    12  gd32e23x_fwdgt.o(.text)
    gpio_deinit                              0x080031dd   Thumb Code    52  gd32e23x_gpio.o(.text)
    gpio_mode_set                            0x08003215   Thumb Code    66  gd32e23x_gpio.o(.text)
    gpio_output_options_set                  0x08003257   Thumb Code    70  gd32e23x_gpio.o(.text)
    gpio_bit_set                             0x0800329d   Thumb Code     4  gd32e23x_gpio.o(.text)
    gpio_bit_reset                           0x080032a1   Thumb Code     4  gd32e23x_gpio.o(.text)
    gpio_bit_write                           0x080032a5   Thumb Code    14  gd32e23x_gpio.o(.text)
    gpio_port_write                          0x080032b3   Thumb Code     4  gd32e23x_gpio.o(.text)
    gpio_input_bit_get                       0x080032b7   Thumb Code    10  gd32e23x_gpio.o(.text)
    gpio_input_port_get                      0x080032c1   Thumb Code     6  gd32e23x_gpio.o(.text)
    gpio_output_bit_get                      0x080032c7   Thumb Code    10  gd32e23x_gpio.o(.text)
    gpio_output_port_get                     0x080032d1   Thumb Code     6  gd32e23x_gpio.o(.text)
    gpio_af_set                              0x080032d7   Thumb Code    94  gd32e23x_gpio.o(.text)
    gpio_pin_lock                            0x08003335   Thumb Code    18  gd32e23x_gpio.o(.text)
    gpio_bit_toggle                          0x08003347   Thumb Code     4  gd32e23x_gpio.o(.text)
    gpio_port_toggle                         0x0800334d   Thumb Code     8  gd32e23x_gpio.o(.text)
    nvic_irq_enable                          0x08003359   Thumb Code    76  gd32e23x_misc.o(.text)
    nvic_irq_disable                         0x080033b1   Thumb Code    36  gd32e23x_misc.o(.text)
    nvic_system_reset                        0x080033d9   Thumb Code    20  gd32e23x_misc.o(.text)
    nvic_vector_table_set                    0x080033f5   Thumb Code    12  gd32e23x_misc.o(.text)
    system_lowpower_set                      0x08003409   Thumb Code    12  gd32e23x_misc.o(.text)
    system_lowpower_reset                    0x08003419   Thumb Code    12  gd32e23x_misc.o(.text)
    systick_clksource_set                    0x08003429   Thumb Code    24  gd32e23x_misc.o(.text)
    rcu_deinit                               0x08003445   Thumb Code   100  gd32e23x_rcu.o(.text)
    rcu_periph_clock_enable                  0x080034b9   Thumb Code    20  gd32e23x_rcu.o(.text)
    rcu_periph_clock_disable                 0x080034d1   Thumb Code    20  gd32e23x_rcu.o(.text)
    rcu_periph_clock_sleep_enable            0x080034e9   Thumb Code    20  gd32e23x_rcu.o(.text)
    rcu_periph_clock_sleep_disable           0x08003501   Thumb Code    20  gd32e23x_rcu.o(.text)
    rcu_periph_reset_enable                  0x08003519   Thumb Code    20  gd32e23x_rcu.o(.text)
    rcu_periph_reset_disable                 0x08003531   Thumb Code    20  gd32e23x_rcu.o(.text)
    rcu_bkp_reset_enable                     0x08003549   Thumb Code    16  gd32e23x_rcu.o(.text)
    rcu_bkp_reset_disable                    0x0800355d   Thumb Code    16  gd32e23x_rcu.o(.text)
    rcu_system_clock_source_config           0x08003571   Thumb Code    16  gd32e23x_rcu.o(.text)
    rcu_system_clock_source_get              0x08003585   Thumb Code    12  gd32e23x_rcu.o(.text)
    rcu_ahb_clock_config                     0x08003595   Thumb Code    16  gd32e23x_rcu.o(.text)
    rcu_apb1_clock_config                    0x080035a9   Thumb Code    16  gd32e23x_rcu.o(.text)
    rcu_apb2_clock_config                    0x080035bd   Thumb Code    16  gd32e23x_rcu.o(.text)
    rcu_adc_clock_config                     0x080035d1   Thumb Code   200  gd32e23x_rcu.o(.text)
    rcu_ckout_config                         0x080036a1   Thumb Code    20  gd32e23x_rcu.o(.text)
    rcu_pll_config                           0x080036b9   Thumb Code    24  gd32e23x_rcu.o(.text)
    rcu_usart_clock_config                   0x080036d9   Thumb Code    20  gd32e23x_rcu.o(.text)
    rcu_rtc_clock_config                     0x080036f1   Thumb Code    20  gd32e23x_rcu.o(.text)
    rcu_hxtal_prediv_config                  0x08003709   Thumb Code    16  gd32e23x_rcu.o(.text)
    rcu_lxtal_drive_capability_config        0x0800371d   Thumb Code    20  gd32e23x_rcu.o(.text)
    rcu_flag_get                             0x08003735   Thumb Code    20  gd32e23x_rcu.o(.text)
    rcu_all_reset_flag_clear                 0x0800374d   Thumb Code    16  gd32e23x_rcu.o(.text)
    rcu_interrupt_flag_get                   0x08003761   Thumb Code    20  gd32e23x_rcu.o(.text)
    rcu_interrupt_flag_clear                 0x08003779   Thumb Code    20  gd32e23x_rcu.o(.text)
    rcu_interrupt_enable                     0x08003791   Thumb Code    20  gd32e23x_rcu.o(.text)
    rcu_interrupt_disable                    0x080037a9   Thumb Code    20  gd32e23x_rcu.o(.text)
    rcu_osci_stab_wait                       0x080037c1   Thumb Code   208  gd32e23x_rcu.o(.text)
    rcu_osci_on                              0x080038a5   Thumb Code    20  gd32e23x_rcu.o(.text)
    rcu_osci_off                             0x080038bd   Thumb Code    20  gd32e23x_rcu.o(.text)
    rcu_osci_bypass_mode_enable              0x080038d5   Thumb Code    56  gd32e23x_rcu.o(.text)
    rcu_osci_bypass_mode_disable             0x08003911   Thumb Code    56  gd32e23x_rcu.o(.text)
    rcu_hxtal_clock_monitor_enable           0x0800394d   Thumb Code    16  gd32e23x_rcu.o(.text)
    rcu_hxtal_clock_monitor_disable          0x08003961   Thumb Code    16  gd32e23x_rcu.o(.text)
    rcu_irc8m_adjust_value_set               0x08003975   Thumb Code    16  gd32e23x_rcu.o(.text)
    rcu_irc28m_adjust_value_set              0x08003989   Thumb Code    16  gd32e23x_rcu.o(.text)
    rcu_voltage_key_unlock                   0x0800399d   Thumb Code    20  gd32e23x_rcu.o(.text)
    rcu_deepsleep_voltage_set                0x080039b9   Thumb Code    20  gd32e23x_rcu.o(.text)
    rcu_clock_freq_get                       0x080039d1   Thumb Code   252  gd32e23x_rcu.o(.text)
    syscfg_deinit                            0x08003af5   Thumb Code    24  gd32e23x_syscfg.o(.text)
    syscfg_dma_remap_enable                  0x08003b0d   Thumb Code    12  gd32e23x_syscfg.o(.text)
    syscfg_dma_remap_disable                 0x08003b1d   Thumb Code    12  gd32e23x_syscfg.o(.text)
    syscfg_high_current_enable               0x08003b2d   Thumb Code    16  gd32e23x_syscfg.o(.text)
    syscfg_high_current_disable              0x08003b41   Thumb Code    16  gd32e23x_syscfg.o(.text)
    syscfg_exti_line_config                  0x08003b55   Thumb Code   108  gd32e23x_syscfg.o(.text)
    syscfg_lock_config                       0x08003bc5   Thumb Code    12  gd32e23x_syscfg.o(.text)
    irq_latency_set                          0x08003bd5   Thumb Code    16  gd32e23x_syscfg.o(.text)
    syscfg_flag_get                          0x08003be9   Thumb Code    12  gd32e23x_syscfg.o(.text)
    syscfg_flag_clear                        0x08003bf9   Thumb Code    12  gd32e23x_syscfg.o(.text)
    timer_deinit                             0x08003c09   Thumb Code   100  gd32e23x_timer.o(.text)
    timer_struct_para_init                   0x08003c95   Thumb Code    16  gd32e23x_timer.o(.text)
    timer_init                               0x08003ca9   Thumb Code   148  gd32e23x_timer.o(.text)
    timer_enable                             0x08003d5d   Thumb Code    10  gd32e23x_timer.o(.text)
    timer_disable                            0x08003d67   Thumb Code    10  gd32e23x_timer.o(.text)
    timer_auto_reload_shadow_enable          0x08003d71   Thumb Code    10  gd32e23x_timer.o(.text)
    timer_auto_reload_shadow_disable         0x08003d7b   Thumb Code    10  gd32e23x_timer.o(.text)
    timer_update_event_enable                0x08003d85   Thumb Code    10  gd32e23x_timer.o(.text)
    timer_update_event_disable               0x08003d8f   Thumb Code    10  gd32e23x_timer.o(.text)
    timer_counter_alignment                  0x08003d99   Thumb Code    16  gd32e23x_timer.o(.text)
    timer_counter_up_direction               0x08003da9   Thumb Code    10  gd32e23x_timer.o(.text)
    timer_counter_down_direction             0x08003db3   Thumb Code    10  gd32e23x_timer.o(.text)
    timer_prescaler_config                   0x08003dbd   Thumb Code    16  gd32e23x_timer.o(.text)
    timer_repetition_value_config            0x08003dcd   Thumb Code     4  gd32e23x_timer.o(.text)
    timer_autoreload_value_config            0x08003dd1   Thumb Code     4  gd32e23x_timer.o(.text)
    timer_counter_value_config               0x08003dd5   Thumb Code     4  gd32e23x_timer.o(.text)
    timer_counter_read                       0x08003dd9   Thumb Code     4  gd32e23x_timer.o(.text)
    timer_prescaler_read                     0x08003ddd   Thumb Code     6  gd32e23x_timer.o(.text)
    timer_single_pulse_mode_config           0x08003de3   Thumb Code    26  gd32e23x_timer.o(.text)
    timer_update_source_config               0x08003dfd   Thumb Code    26  gd32e23x_timer.o(.text)
    timer_ocpre_clear_source_config          0x08003e17   Thumb Code    26  gd32e23x_timer.o(.text)
    timer_interrupt_enable                   0x08003e31   Thumb Code     8  gd32e23x_timer.o(.text)
    timer_interrupt_disable                  0x08003e39   Thumb Code     8  gd32e23x_timer.o(.text)
    timer_interrupt_flag_get                 0x08003e41   Thumb Code    20  gd32e23x_timer.o(.text)
    timer_interrupt_flag_clear               0x08003e55   Thumb Code     8  gd32e23x_timer.o(.text)
    timer_flag_get                           0x08003e5d   Thumb Code    10  gd32e23x_timer.o(.text)
    timer_flag_clear                         0x08003e67   Thumb Code     8  gd32e23x_timer.o(.text)
    timer_dma_enable                         0x08003e6f   Thumb Code     8  gd32e23x_timer.o(.text)
    timer_dma_disable                        0x08003e77   Thumb Code     8  gd32e23x_timer.o(.text)
    timer_channel_dma_request_source_select  0x08003e7f   Thumb Code    26  gd32e23x_timer.o(.text)
    timer_dma_transfer_config                0x08003e99   Thumb Code    20  gd32e23x_timer.o(.text)
    timer_event_software_generate            0x08003eb1   Thumb Code     8  gd32e23x_timer.o(.text)
    timer_break_struct_para_init             0x08003eb9   Thumb Code    18  gd32e23x_timer.o(.text)
    timer_break_config                       0x08003ecb   Thumb Code    30  gd32e23x_timer.o(.text)
    timer_break_enable                       0x08003ee9   Thumb Code    12  gd32e23x_timer.o(.text)
    timer_break_disable                      0x08003ef5   Thumb Code    12  gd32e23x_timer.o(.text)
    timer_automatic_output_enable            0x08003f01   Thumb Code    12  gd32e23x_timer.o(.text)
    timer_automatic_output_disable           0x08003f0d   Thumb Code    12  gd32e23x_timer.o(.text)
    timer_primary_output_config              0x08003f19   Thumb Code    22  gd32e23x_timer.o(.text)
    timer_channel_control_shadow_config      0x08003f2f   Thumb Code    18  gd32e23x_timer.o(.text)
    timer_channel_control_shadow_update_config 0x08003f41   Thumb Code    26  gd32e23x_timer.o(.text)
    timer_channel_output_struct_para_init    0x08003f5b   Thumb Code    16  gd32e23x_timer.o(.text)
    timer_channel_output_config              0x08003f6d   Thumb Code   536  gd32e23x_timer.o(.text)
    timer_channel_output_mode_config         0x08004199   Thumb Code    90  gd32e23x_timer.o(.text)
    timer_channel_output_pulse_value_config  0x080041f3   Thumb Code    14  gd32e23x_timer.o(.text)
    timer_channel_output_shadow_config       0x08004201   Thumb Code    90  gd32e23x_timer.o(.text)
    timer_channel_output_fast_config         0x0800425d   Thumb Code    90  gd32e23x_timer.o(.text)
    timer_channel_output_clear_config        0x080042b9   Thumb Code    90  gd32e23x_timer.o(.text)
    timer_channel_output_polarity_config     0x08004315   Thumb Code    90  gd32e23x_timer.o(.text)
    timer_channel_complementary_output_polarity_config 0x08004371   Thumb Code    90  gd32e23x_timer.o(.text)
    timer_channel_output_state_config        0x080043cd   Thumb Code    90  gd32e23x_timer.o(.text)
    timer_channel_complementary_output_state_config 0x08004427   Thumb Code    54  gd32e23x_timer.o(.text)
    timer_channel_input_struct_para_init     0x0800445d   Thumb Code    14  gd32e23x_timer.o(.text)
    timer_input_capture_config               0x0800446d   Thumb Code   400  gd32e23x_timer.o(.text)
    timer_channel_input_capture_prescaler_config 0x08004601   Thumb Code    90  gd32e23x_timer.o(.text)
    timer_channel_capture_value_register_read 0x0800465b   Thumb Code    18  gd32e23x_timer.o(.text)
    timer_input_pwm_capture_config           0x0800466d   Thumb Code   344  gd32e23x_timer.o(.text)
    timer_hall_mode_config                   0x080047d1   Thumb Code    26  gd32e23x_timer.o(.text)
    timer_input_trigger_source_select        0x080047eb   Thumb Code    16  gd32e23x_timer.o(.text)
    timer_master_output_trigger_source_select 0x080047fb   Thumb Code    16  gd32e23x_timer.o(.text)
    timer_slave_mode_select                  0x0800480b   Thumb Code    16  gd32e23x_timer.o(.text)
    timer_master_slave_mode_config           0x0800481b   Thumb Code    26  gd32e23x_timer.o(.text)
    timer_external_trigger_config            0x08004835   Thumb Code    30  gd32e23x_timer.o(.text)
    timer_quadrature_decoder_mode_config     0x08004855   Thumb Code    64  gd32e23x_timer.o(.text)
    timer_internal_clock_config              0x08004899   Thumb Code    10  gd32e23x_timer.o(.text)
    timer_internal_trigger_as_external_clock_config 0x080048a3   Thumb Code    30  gd32e23x_timer.o(.text)
    timer_external_trigger_as_external_clock_config 0x080048c1   Thumb Code   148  gd32e23x_timer.o(.text)
    timer_external_clock_mode0_config        0x08004955   Thumb Code    44  gd32e23x_timer.o(.text)
    timer_external_clock_mode1_config        0x08004981   Thumb Code    40  gd32e23x_timer.o(.text)
    timer_external_clock_mode1_disable       0x080049a9   Thumb Code    12  gd32e23x_timer.o(.text)
    timer_channel_remap_config               0x080049b5   Thumb Code     4  gd32e23x_timer.o(.text)
    timer_write_chxval_register_config       0x080049b9   Thumb Code    30  gd32e23x_timer.o(.text)
    timer_output_value_selection_config      0x080049d7   Thumb Code    30  gd32e23x_timer.o(.text)
    Reset_Handler                            0x080049f5   Thumb Code     8  startup_gd32e23x.o(.text)
    ADC_CMP_IRQHandler                       0x08004a07   Thumb Code     0  startup_gd32e23x.o(.text)
    DMA_Channel1_2_IRQHandler                0x08004a07   Thumb Code     0  startup_gd32e23x.o(.text)
    DMA_Channel3_4_IRQHandler                0x08004a07   Thumb Code     0  startup_gd32e23x.o(.text)
    FMC_IRQHandler                           0x08004a07   Thumb Code     0  startup_gd32e23x.o(.text)
    I2C0_ER_IRQHandler                       0x08004a07   Thumb Code     0  startup_gd32e23x.o(.text)
    I2C0_EV_IRQHandler                       0x08004a07   Thumb Code     0  startup_gd32e23x.o(.text)
    I2C1_ER_IRQHandler                       0x08004a07   Thumb Code     0  startup_gd32e23x.o(.text)
    I2C1_EV_IRQHandler                       0x08004a07   Thumb Code     0  startup_gd32e23x.o(.text)
    LVD_IRQHandler                           0x08004a07   Thumb Code     0  startup_gd32e23x.o(.text)
    RCU_IRQHandler                           0x08004a07   Thumb Code     0  startup_gd32e23x.o(.text)
    RTC_IRQHandler                           0x08004a07   Thumb Code     0  startup_gd32e23x.o(.text)
    SPI0_IRQHandler                          0x08004a07   Thumb Code     0  startup_gd32e23x.o(.text)
    SPI1_IRQHandler                          0x08004a07   Thumb Code     0  startup_gd32e23x.o(.text)
    TIMER0_Channel_IRQHandler                0x08004a07   Thumb Code     0  startup_gd32e23x.o(.text)
    TIMER14_IRQHandler                       0x08004a07   Thumb Code     0  startup_gd32e23x.o(.text)
    TIMER15_IRQHandler                       0x08004a07   Thumb Code     0  startup_gd32e23x.o(.text)
    TIMER16_IRQHandler                       0x08004a07   Thumb Code     0  startup_gd32e23x.o(.text)
    TIMER2_IRQHandler                        0x08004a07   Thumb Code     0  startup_gd32e23x.o(.text)
    TIMER5_IRQHandler                        0x08004a07   Thumb Code     0  startup_gd32e23x.o(.text)
    USART0_IRQHandler                        0x08004a07   Thumb Code     0  startup_gd32e23x.o(.text)
    USART1_IRQHandler                        0x08004a07   Thumb Code     0  startup_gd32e23x.o(.text)
    WWDGT_IRQHandler                         0x08004a07   Thumb Code     0  startup_gd32e23x.o(.text)
    __user_initial_stackheap                 0x08004a09   Thumb Code    10  startup_gd32e23x.o(.text)
    SystemInit                               0x08004a2d   Thumb Code   212  system_gd32e23x.o(.text)
    SystemCoreClockUpdate                    0x08004b19   Thumb Code    92  system_gd32e23x.o(.text)
    __aeabi_lmul                             0x08004b95   Thumb Code    48  llmul.o(.text)
    _ll_mul                                  0x08004b95   Thumb Code     0  llmul.o(.text)
    __use_two_region_memory                  0x08004bc5   Thumb Code     2  heapauxi.o(.text)
    __rt_heap_escrow$2region                 0x08004bc7   Thumb Code     2  heapauxi.o(.text)
    __rt_heap_expand$2region                 0x08004bc9   Thumb Code     2  heapauxi.o(.text)
    __aeabi_d2f                              0x08004bcd   Thumb Code     0  d2f.o(.text)
    __truncdfsf2                             0x08004bcd   Thumb Code     0  d2f.o(.text)
    _d2f                                     0x08004bcd   Thumb Code   120  d2f.o(.text)
    __adddf3                                 0x08004f41   Thumb Code     0  daddsub.o(.text)
    __aeabi_dadd                             0x08004f41   Thumb Code     0  daddsub.o(.text)
    _dadd                                    0x08004f41   Thumb Code    26  daddsub.o(.text)
    __aeabi_dsub                             0x08004f5b   Thumb Code     0  daddsub.o(.text)
    __subdf3                                 0x08004f5b   Thumb Code     0  daddsub.o(.text)
    _dsub                                    0x08004f5b   Thumb Code    22  daddsub.o(.text)
    __aeabi_drsub                            0x08004f71   Thumb Code     0  daddsub.o(.text)
    _drsb                                    0x08004f71   Thumb Code    28  daddsub.o(.text)
    __aeabi_ddiv                             0x08004fa1   Thumb Code     0  ddiv.o(.text)
    __divdf3                                 0x08004fa1   Thumb Code     0  ddiv.o(.text)
    _ddiv                                    0x08004fa1   Thumb Code  1072  ddiv.o(.text)
    _drdiv                                   0x080053d1   Thumb Code    20  ddiv.o(.text)
    __aeabi_d2iz                             0x080053e9   Thumb Code     0  dfixi.o(.text)
    _dfix                                    0x080053e9   Thumb Code    98  dfixi.o(.text)
    __aeabi_i2d_normalise                    0x08005455   Thumb Code    66  dflti.o(.text)
    __aeabi_i2d                              0x08005497   Thumb Code    16  dflti.o(.text)
    _dflt                                    0x08005497   Thumb Code     0  dflti.o(.text)
    __aeabi_ui2d                             0x080054a7   Thumb Code     6  dflti.o(.text)
    _dfltu                                   0x080054a7   Thumb Code     0  dflti.o(.text)
    __aeabi_dmul                             0x080054ad   Thumb Code     0  dmul.o(.text)
    __muldf3                                 0x080054ad   Thumb Code     0  dmul.o(.text)
    _dmul                                    0x080054ad   Thumb Code   558  dmul.o(.text)
    __aeabi_f2d                              0x080056f5   Thumb Code     0  f2d.o(.text)
    __extendsfdf2                            0x080056f5   Thumb Code     0  f2d.o(.text)
    _f2d                                     0x080056f5   Thumb Code    80  f2d.o(.text)
    __aeabi_fdiv                             0x08005749   Thumb Code     0  fdiv.o(.text)
    __divsf3                                 0x08005749   Thumb Code     0  fdiv.o(.text)
    _fdiv                                    0x08005749   Thumb Code   334  fdiv.o(.text)
    _frdiv                                   0x08005897   Thumb Code     8  fdiv.o(.text)
    __aeabi_f2iz                             0x080058a9   Thumb Code     0  ffixi.o(.text)
    _ffix                                    0x080058a9   Thumb Code    76  ffixi.o(.text)
    __aeabi_f2lz                             0x080058f5   Thumb Code     0  ffixl.o(.text)
    _ll_sfrom_f                              0x080058f5   Thumb Code   130  ffixl.o(.text)
    __aeabi_i2f_normalise                    0x08005977   Thumb Code    72  fflti.o(.text)
    __aeabi_i2f                              0x080059bf   Thumb Code    16  fflti.o(.text)
    _fflt                                    0x080059bf   Thumb Code     0  fflti.o(.text)
    __aeabi_ui2f                             0x080059cf   Thumb Code     6  fflti.o(.text)
    _ffltu                                   0x080059cf   Thumb Code     0  fflti.o(.text)
    __fpl_dcmp_InfNaN                        0x080059d5   Thumb Code   154  dcmpin.o(.text)
    __fpl_fcmp_InfNaN                        0x08005a75   Thumb Code    96  fcmpin.o(.text)
    __user_setup_stackheap                   0x08005ad9   Thumb Code    62  sys_stackheap_outer.o(.text)
    exit                                     0x08005b17   Thumb Code    16  exit.o(.text)
    __fpl_cmpreturn                          0x08005b27   Thumb Code    46  cmpret.o(.text)
    __fpl_dcheck_NaN2                        0x08005b55   Thumb Code    14  dnan2.o(.text)
    __fpl_fcheck_NaN2                        0x08005b69   Thumb Code    10  fnan2.o(.text)
    __user_libspace                          0x08005b79   Thumb Code     8  libspace.o(.text)
    __user_perproc_libspace                  0x08005b79   Thumb Code     0  libspace.o(.text)
    __user_perthread_libspace                0x08005b79   Thumb Code     0  libspace.o(.text)
    __fpl_return_NaN                         0x08005b81   Thumb Code    94  retnan.o(.text)
    _sys_exit                                0x08005be1   Thumb Code     8  sys_exit.o(.text)
    __I$use$semihosting                      0x08005bed   Thumb Code     0  use_no_semi.o(.text)
    __use_no_semihosting_swi                 0x08005bed   Thumb Code     2  use_no_semi.o(.text)
    __aeabi_dcmple                           0x08005bef   Thumb Code     0  dcmp.o(i._dleq)
    __semihosting_library_function           0x08005bef   Thumb Code     0  indicate_semi.o(.text)
    _dleq                                    0x08005bef   Thumb Code    26  dcmp.o(i._dleq)
    __aeabi_fcmpgt                           0x08005c09   Thumb Code     0  fcmp.o(i._fgr)
    _fgr                                     0x08005c09   Thumb Code    22  fcmp.o(i._fgr)
    __aeabi_fcmple                           0x08005c1f   Thumb Code     0  fcmp.o(i._fleq)
    _fleq                                    0x08005c1f   Thumb Code    26  fcmp.o(i._fleq)
    __aeabi_fcmplt                           0x08005c39   Thumb Code     0  fcmp.o(i._fls)
    _fls                                     0x08005c39   Thumb Code    22  fcmp.o(i._fls)
    __aeabi_cdcmple                          0x08005c51   Thumb Code     0  dlef.o(x$fpl$dleqf)
    _dcmple                                  0x08005c51   Thumb Code    94  dlef.o(x$fpl$dleqf)
    __aeabi_fadd                             0x08005cb5   Thumb Code     0  faddsub.o(x$fpl$fadd)
    _fadd                                    0x08005cb5   Thumb Code   134  faddsub.o(x$fpl$fadd)
    _fcmpge                                  0x08005d41   Thumb Code    78  fgef.o(x$fpl$fgeqf)
    __aeabi_cfcmple                          0x08005d95   Thumb Code     0  flef.o(x$fpl$fleqf)
    _fcmple                                  0x08005d95   Thumb Code    78  flef.o(x$fpl$fleqf)
    __aeabi_fmul                             0x08005de9   Thumb Code     0  fmul.o(x$fpl$fmul)
    _fmul                                    0x08005de9   Thumb Code   172  fmul.o(x$fpl$fmul)
    __aeabi_fsub                             0x08005e99   Thumb Code     0  faddsub.o(x$fpl$fsub)
    _fsub                                    0x08005e99   Thumb Code   204  faddsub.o(x$fpl$fsub)
    __I$use$fp                               0x08005f68   Number         0  usenofp.o(x$fpl$usenofp)
    hall_to_pos                              0x08006050   Data           8  bldc.o(.rodata.hall_to_pos)
    lookUpTableAngle                         0x08006058   Data         724  main.o(.rodata.lookUpTableAngle)
    Region$$Table$$Base                      0x080065fc   Number         0  anon$$obj.o(Region$$Table)
    Region$$Table$$Limit                     0x0800661c   Number         0  anon$$obj.o(Region$$Table)
    SystemCoreClock                          0x20000000   Data           4  system_gd32e23x.o(.data.SystemCoreClock)
    batteryVoltage                           0x20000004   Data           4  bldc.o(.data.batteryVoltage)
    beepsBackwards                           0x20000008   Data           1  main.o(.data.beepsBackwards)
    currentDC                                0x2000000c   Data           4  bldc.o(.data.currentDC)
    iDrivingMode                             0x20000010   Data           1  main.o(.data.iDrivingMode)
    iFILTER_SHIFT                            0x20000011   Data           1  bldc.o(.data.iFILTER_SHIFT)
    offsetdc                                 0x20000012   Data           2  bldc.o(.data.offsetdc)
    revs32Scale                              0x20000014   Data           4  bldc.o(.data.revs32Scale)
    revs32ScaleSlow                          0x20000018   Data           4  bldc.o(.data.revs32ScaleSlow)
    speedLimit                               0x2000001c   Data           2  main.o(.data.speedLimit)
    wState                                   0x2000001e   Data           1  main.o(.data.wState)
    __libspace_start                         0x20000020   Data          96  libspace.o(.bss)
    __temporary_stack_top$libspace           0x20000080   Data           0  libspace.o(.bss)
    aHallEXTI                                0x20000084   Data          12  bldcsine.o(.bss.aHallEXTI)
    adc_buffer                               0x20000090   Data           4  bldc.o(.bss.adc_buffer)
    angle_deg                                0x20000094   Data           2  bldcsine.o(.bss.angle_deg)
    angle_deg_add                            0x20000096   Data           2  bldcsine.o(.bss.angle_deg_add)
    angle_deg_final                          0x20000098   Data           2  bldcsine.o(.bss.angle_deg_final)
    angle_idx                                0x2000009a   Data           2  bldcsine.o(.bss.angle_idx)
    bInterrupt                               0x2000009c   Data           1  bldcsine.o(.bss.bInterrupt)
    bPilotTimeout                            0x2000009d   Data           1  main.o(.bss.bPilotTimeout)
    bRemoteTimeout                           0x2000009e   Data           1  main.o(.bss.bRemoteTimeout)
    bldc_enable                              0x2000009f   Data           1  bldc.o(.bss.bldc_enable)
    bldc_inputFilterPwm                      0x200000a0   Data           4  bldc.o(.bss.bldc_inputFilterPwm)
    bldc_outputFilterPwm                     0x200000a4   Data           4  bldc.o(.bss.bldc_outputFilterPwm)
    buzzerFreq                               0x200000a8   Data           1  bldc.o(.bss.buzzerFreq)
    buzzerPattern                            0x200000a9   Data           1  bldc.o(.bss.buzzerPattern)
    buzzerTimer                              0x200000aa   Data           2  bldc.o(.bss.buzzerTimer)
    buzzerToggle                             0x200000ac   Data           1  bldc.o(.bss.buzzerToggle)
    dma_init_struct_adc                      0x200000b0   Data          28  setup.o(.bss.dma_init_struct_adc)
    enable                                   0x200000cc   Data           1  main.o(.bss.enable)
    filter_reg                               0x200000d0   Data           4  bldc.o(.bss.filter_reg)
    hall                                     0x200000d4   Data           1  bldc.o(.bss.hall)
    hall_a                                   0x200000d5   Data           1  bldc.o(.bss.hall_a)
    hall_b                                   0x200000d6   Data           1  bldc.o(.bss.hall_b)
    hall_c                                   0x200000d7   Data           1  bldc.o(.bss.hall_c)
    hall_last                                0x200000d8   Data           1  bldcsine.o(.bss.hall_last)
    hall_time_last                           0x200000da   Data           2  bldcsine.o(.bss.hall_time_last)
    hall_time_step                           0x200000dc   Data           2  bldcsine.o(.bss.hall_time_step)
    hall_time_step_LP                        0x200000e0   Data           4  bldcsine.o(.bss.hall_time_step_LP)
    hall_time_step_LPR                       0x200000e4   Data           4  bldcsine.o(.bss.hall_time_step_LPR)
    iAdcCounter                              0x200000e8   Data           4  it.o(.bss.iAdcCounter)
    iAdcRate                                 0x200000ec   Data           4  it.o(.bss.iAdcRate)
    iAdcTime                                 0x200000f0   Data           4  it.o(.bss.iAdcTime)
    iAdd                                     0x200000f4   Data           2  bldcsine.o(.bss.iAdd)
    iBldcInput                               0x200000f8   Data           4  bldc.o(.bss.iBldcInput)
    iBug                                     0x200000fc   Data           4  main.o(.bss.iBug)
    iBuzzCounter                             0x20000100   Data           4  bldc.o(.bss.iBuzzCounter)
    iBuzzRate                                0x20000104   Data           4  bldc.o(.bss.iBuzzRate)
    iBuzzTime                                0x20000108   Data           4  bldc.o(.bss.iBuzzTime)
    iDT                                      0x2000010c   Data           2  bldcsine.o(.bss.iDT)
    iDrivingModeOverride                     0x2000010e   Data           1  bldc.o(.bss.iDrivingModeOverride)
    iOdom                                    0x20000110   Data           4  bldc.o(.bss.iOdom)
    iOdomLast                                0x20000114   Data           4  bldc.o(.bss.iOdomLast)
    iPwmCounter                              0x20000118   Data           4  it.o(.bss.iPwmCounter)
    iPwmRate                                 0x2000011c   Data           4  it.o(.bss.iPwmRate)
    iPwmTime                                 0x20000120   Data           4  it.o(.bss.iPwmTime)
    iTimeNextLoop                            0x20000124   Data           4  main.o(.bss.iTimeNextLoop)
    inactivity_timeout_counter               0x20000128   Data           4  main.o(.bss.inactivity_timeout_counter)
    lastPos                                  0x2000012c   Data           1  bldc.o(.bss.lastPos)
    msTicks                                  0x20000130   Data           4  it.o(.bss.msTicks)
    oConfig                                  0x20000134   Data          20  setup.o(.bss.oConfig)
    offsetcount                              0x20000148   Data           2  bldc.o(.bss.offsetcount)
    pid                                      0x20000150   Data          40  driver.o(.bss.pid)
    pos                                      0x20000178   Data           1  bldc.o(.bss.pos)
    pwmGo                                    0x2000017c   Data           4  bldcsine.o(.bss.pwmGo)
    pwmSlave                                 0x20000180   Data           2  main.o(.bss.pwmSlave)
    realSpeed                                0x20000184   Data           4  bldc.o(.bss.realSpeed)
    revs32                                   0x20000188   Data           4  bldc.o(.bss.revs32)
    revs32_reg                               0x2000018c   Data           4  bldc.o(.bss.revs32_reg)
    revs32x                                  0x20000190   Data           4  bldc.o(.bss.revs32x)
    sector                                   0x20000194   Data           1  bldcsine.o(.bss.sector)
    sector10x                                0x20000195   Data           1  bldcsine.o(.bss.sector10x)
    sectorChange                             0x20000196   Data           1  bldcsine.o(.bss.sectorChange)
    speed                                    0x20000198   Data           4  main.o(.bss.speed)
    speedCounter                             0x2000019c   Data           4  bldc.o(.bss.speedCounter)
    speedCounterLog                          0x200001a0   Data           4  bldc.o(.bss.speedCounterLog)
    speedCounterSlow                         0x200001a4   Data           4  bldc.o(.bss.speedCounterSlow)
    speedCounterSlowLog                      0x200001a8   Data           4  bldc.o(.bss.speedCounterSlowLog)
    speedShutoff                             0x200001ac   Data           4  main.o(.bss.speedShutoff)
    steer                                    0x200001b0   Data           4  main.o(.bss.steer)
    steerCounter                             0x200001b4   Data           4  main.o(.bss.steerCounter)
    timedOut                                 0x200001b8   Data           1  it.o(.bss.timedOut)
    timeoutCounter_ms                        0x200001bc   Data           4  it.o(.bss.timeoutCounter_ms)
    timeoutTimer_paramter_struct             0x200001c0   Data          16  setup.o(.bss.timeoutTimer_paramter_struct)
    timerBldc_break_parameter_struct         0x200001d0   Data          14  setup.o(.bss.timerBldc_break_parameter_struct)
    timerBldc_oc_parameter_struct            0x200001de   Data          12  setup.o(.bss.timerBldc_oc_parameter_struct)
    timerBldc_paramter_struct                0x200001ec   Data          16  setup.o(.bss.timerBldc_paramter_struct)
    torque32                                 0x200001fc   Data           4  bldc.o(.bss.torque32)
    torque32_reg                             0x20000200   Data           4  bldc.o(.bss.torque32_reg)



==============================================================================

Memory Map of the image

  Image Entry point : 0x080000cd

  Load Region LR_IROM1 (Base: 0x08000000, Size: 0x00006640, Max: 0x00010000, ABSOLUTE)

    Execution Region ER_IROM1 (Exec base: 0x08000000, Load base: 0x08000000, Size: 0x0000661c, Max: 0x00010000, ABSOLUTE)

    Exec Addr    Load Addr    Size         Type   Attr      Idx    E Section Name        Object

    0x08000000   0x08000000   0x000000cc   Data   RO          346    RESET               startup_gd32e23x.o
    0x080000cc   0x080000cc   0x00000008   Code   RO          376  * !!!main             c_p.l(__main.o)
    0x080000d4   0x080000d4   0x00000054   Code   RO          648    !!!scatter          c_p.l(__scatter.o)
    0x08000128   0x08000128   0x0000001a   Code   RO          652    !!handler_copy      c_p.l(__scatter_copy.o)
    0x08000142   0x08000142   0x00000002   PAD
    0x08000144   0x08000144   0x00000002   Code   RO          649    !!handler_null      c_p.l(__scatter.o)
    0x08000146   0x08000146   0x00000002   PAD
    0x08000148   0x08000148   0x0000001c   Code   RO          654    !!handler_zi        c_p.l(__scatter_zi.o)
    0x08000164   0x08000164   0x00000002   Code   RO          501    .ARM.Collect$$libinit$$00000000  c_p.l(libinit.o)
    0x08000166   0x08000166   0x00000000   Code   RO          515    .ARM.Collect$$libinit$$00000002  c_p.l(libinit2.o)
    0x08000166   0x08000166   0x00000000   Code   RO          517    .ARM.Collect$$libinit$$00000004  c_p.l(libinit2.o)
    0x08000166   0x08000166   0x00000000   Code   RO          519    .ARM.Collect$$libinit$$00000006  c_p.l(libinit2.o)
    0x08000166   0x08000166   0x00000000   Code   RO          522    .ARM.Collect$$libinit$$0000000C  c_p.l(libinit2.o)
    0x08000166   0x08000166   0x00000000   Code   RO          524    .ARM.Collect$$libinit$$0000000E  c_p.l(libinit2.o)
    0x08000166   0x08000166   0x00000000   Code   RO          526    .ARM.Collect$$libinit$$00000010  c_p.l(libinit2.o)
    0x08000166   0x08000166   0x00000000   Code   RO          529    .ARM.Collect$$libinit$$00000013  c_p.l(libinit2.o)
    0x08000166   0x08000166   0x00000000   Code   RO          531    .ARM.Collect$$libinit$$00000015  c_p.l(libinit2.o)
    0x08000166   0x08000166   0x00000000   Code   RO          533    .ARM.Collect$$libinit$$00000017  c_p.l(libinit2.o)
    0x08000166   0x08000166   0x00000000   Code   RO          535    .ARM.Collect$$libinit$$00000019  c_p.l(libinit2.o)
    0x08000166   0x08000166   0x00000000   Code   RO          537    .ARM.Collect$$libinit$$0000001B  c_p.l(libinit2.o)
    0x08000166   0x08000166   0x00000000   Code   RO          539    .ARM.Collect$$libinit$$0000001D  c_p.l(libinit2.o)
    0x08000166   0x08000166   0x00000000   Code   RO          541    .ARM.Collect$$libinit$$0000001F  c_p.l(libinit2.o)
    0x08000166   0x08000166   0x00000000   Code   RO          543    .ARM.Collect$$libinit$$00000021  c_p.l(libinit2.o)
    0x08000166   0x08000166   0x00000000   Code   RO          545    .ARM.Collect$$libinit$$00000023  c_p.l(libinit2.o)
    0x08000166   0x08000166   0x00000000   Code   RO          547    .ARM.Collect$$libinit$$00000025  c_p.l(libinit2.o)
    0x08000166   0x08000166   0x00000000   Code   RO          549    .ARM.Collect$$libinit$$00000027  c_p.l(libinit2.o)
    0x08000166   0x08000166   0x00000000   Code   RO          553    .ARM.Collect$$libinit$$0000002E  c_p.l(libinit2.o)
    0x08000166   0x08000166   0x00000000   Code   RO          555    .ARM.Collect$$libinit$$00000030  c_p.l(libinit2.o)
    0x08000166   0x08000166   0x00000000   Code   RO          557    .ARM.Collect$$libinit$$00000032  c_p.l(libinit2.o)
    0x08000166   0x08000166   0x00000000   Code   RO          559    .ARM.Collect$$libinit$$00000034  c_p.l(libinit2.o)
    0x08000166   0x08000166   0x00000002   Code   RO          560    .ARM.Collect$$libinit$$00000035  c_p.l(libinit2.o)
    0x08000168   0x08000168   0x00000002   Code   RO          584    .ARM.Collect$$libshutdown$$00000000  c_p.l(libshutdown.o)
    0x0800016a   0x0800016a   0x00000000   Code   RO          599    .ARM.Collect$$libshutdown$$00000002  c_p.l(libshutdown2.o)
    0x0800016a   0x0800016a   0x00000000   Code   RO          601    .ARM.Collect$$libshutdown$$00000004  c_p.l(libshutdown2.o)
    0x0800016a   0x0800016a   0x00000000   Code   RO          604    .ARM.Collect$$libshutdown$$00000007  c_p.l(libshutdown2.o)
    0x0800016a   0x0800016a   0x00000000   Code   RO          607    .ARM.Collect$$libshutdown$$0000000A  c_p.l(libshutdown2.o)
    0x0800016a   0x0800016a   0x00000000   Code   RO          609    .ARM.Collect$$libshutdown$$0000000C  c_p.l(libshutdown2.o)
    0x0800016a   0x0800016a   0x00000000   Code   RO          612    .ARM.Collect$$libshutdown$$0000000F  c_p.l(libshutdown2.o)
    0x0800016a   0x0800016a   0x00000002   Code   RO          613    .ARM.Collect$$libshutdown$$00000010  c_p.l(libshutdown2.o)
    0x0800016c   0x0800016c   0x00000000   Code   RO          458    .ARM.Collect$$rtentry$$00000000  c_p.l(__rtentry.o)
    0x0800016c   0x0800016c   0x00000000   Code   RO          473    .ARM.Collect$$rtentry$$00000002  c_p.l(__rtentry2.o)
    0x0800016c   0x0800016c   0x00000006   Code   RO          485    .ARM.Collect$$rtentry$$00000004  c_p.l(__rtentry4.o)
    0x08000172   0x08000172   0x00000000   Code   RO          475    .ARM.Collect$$rtentry$$00000009  c_p.l(__rtentry2.o)
    0x08000172   0x08000172   0x00000004   Code   RO          476    .ARM.Collect$$rtentry$$0000000A  c_p.l(__rtentry2.o)
    0x08000176   0x08000176   0x00000000   Code   RO          478    .ARM.Collect$$rtentry$$0000000C  c_p.l(__rtentry2.o)
    0x08000176   0x08000176   0x00000008   Code   RO          479    .ARM.Collect$$rtentry$$0000000D  c_p.l(__rtentry2.o)
    0x0800017e   0x0800017e   0x00000002   Code   RO          512    .ARM.Collect$$rtexit$$00000000  c_p.l(rtexit.o)
    0x08000180   0x08000180   0x00000000   Code   RO          564    .ARM.Collect$$rtexit$$00000002  c_p.l(rtexit2.o)
    0x08000180   0x08000180   0x00000004   Code   RO          565    .ARM.Collect$$rtexit$$00000003  c_p.l(rtexit2.o)
    0x08000184   0x08000184   0x00000006   Code   RO          566    .ARM.Collect$$rtexit$$00000004  c_p.l(rtexit2.o)
    0x0800018a   0x0800018a   0x00000002   PAD
    0x0800018c   0x0800018c   0x0000075c   Code   RO            1    .text               main.o
    0x080008e8   0x080008e8   0x00000640   Code   RO           31    .text               bldc.o
    0x08000f28   0x08000f28   0x0000028c   Code   RO           82    .text               driver.o
    0x080011b4   0x080011b4   0x0000034c   Code   RO           93    .text               bldcsine.o
    0x08001500   0x08001500   0x00000794   Code   RO          122    .text               setup.o
    0x08001c94   0x08001c94   0x00000164   Code   RO          141    .text               it.o
    0x08001df8   0x08001df8   0x00000084   Code   RO          180    .text               remotedummy.o
    0x08001e7c   0x08001e7c   0x00000580   Code   RO          225    .text               gd32e23x_adc.o
    0x080023fc   0x080023fc   0x000002dc   Code   RO          233    .text               gd32e23x_dma.o
    0x080026d8   0x080026d8   0x0000012c   Code   RO          241    .text               gd32e23x_exti.o
    0x08002804   0x08002804   0x00000898   Code   RO          249    .text               gd32e23x_fmc.o
    0x0800309c   0x0800309c   0x00000140   Code   RO          258    .text               gd32e23x_fwdgt.o
    0x080031dc   0x080031dc   0x0000017c   Code   RO          266    .text               gd32e23x_gpio.o
    0x08003358   0x08003358   0x000000ec   Code   RO          283    .text               gd32e23x_misc.o
    0x08003444   0x08003444   0x000006b0   Code   RO          302    .text               gd32e23x_rcu.o
    0x08003af4   0x08003af4   0x00000114   Code   RO          311    .text               gd32e23x_syscfg.o
    0x08003c08   0x08003c08   0x00000dec   Code   RO          319    .text               gd32e23x_timer.o
    0x080049f4   0x080049f4   0x00000038   Code   RO          347    .text               startup_gd32e23x.o
    0x08004a2c   0x08004a2c   0x00000168   Code   RO          353    .text               system_gd32e23x.o
    0x08004b94   0x08004b94   0x00000030   Code   RO          364    .text               c_p.l(llmul.o)
    0x08004bc4   0x08004bc4   0x00000006   Code   RO          374    .text               c_p.l(heapauxi.o)
    0x08004bca   0x08004bca   0x00000002   PAD
    0x08004bcc   0x08004bcc   0x0000007c   Code   RO          378    .text               fz_ps.l(d2f.o)
    0x08004c48   0x08004c48   0x00000358   Code   RO          380    .text               fz_ps.l(daddsub.o)
    0x08004fa0   0x08004fa0   0x00000448   Code   RO          406    .text               fz_ps.l(ddiv.o)
    0x080053e8   0x080053e8   0x0000006c   Code   RO          409    .text               fz_ps.l(dfixi.o)
    0x08005454   0x08005454   0x00000058   Code   RO          411    .text               fz_ps.l(dflti.o)
    0x080054ac   0x080054ac   0x00000248   Code   RO          413    .text               fz_ps.l(dmul.o)
    0x080056f4   0x080056f4   0x00000054   Code   RO          415    .text               fz_ps.l(f2d.o)
    0x08005748   0x08005748   0x00000160   Code   RO          447    .text               fz_ps.l(fdiv.o)
    0x080058a8   0x080058a8   0x0000004c   Code   RO          450    .text               fz_ps.l(ffixi.o)
    0x080058f4   0x080058f4   0x00000082   Code   RO          452    .text               fz_ps.l(ffixl.o)
    0x08005976   0x08005976   0x0000005e   Code   RO          454    .text               fz_ps.l(fflti.o)
    0x080059d4   0x080059d4   0x000000a0   Code   RO          487    .text               fz_ps.l(dcmpin.o)
    0x08005a74   0x08005a74   0x00000064   Code   RO          489    .text               fz_ps.l(fcmpin.o)
    0x08005ad8   0x08005ad8   0x0000003e   Code   RO          491    .text               c_p.l(sys_stackheap_outer.o)
    0x08005b16   0x08005b16   0x00000010   Code   RO          494    .text               c_p.l(exit.o)
    0x08005b26   0x08005b26   0x0000002e   Code   RO          502    .text               fz_ps.l(cmpret.o)
    0x08005b54   0x08005b54   0x00000014   Code   RO          504    .text               fz_ps.l(dnan2.o)
    0x08005b68   0x08005b68   0x00000010   Code   RO          506    .text               fz_ps.l(fnan2.o)
    0x08005b78   0x08005b78   0x00000008   Code   RO          508    .text               c_p.l(libspace.o)
    0x08005b80   0x08005b80   0x0000005e   Code   RO          561    .text               fz_ps.l(retnan.o)
    0x08005bde   0x08005bde   0x00000002   PAD
    0x08005be0   0x08005be0   0x0000000c   Code   RO          574    .text               c_p.l(sys_exit.o)
    0x08005bec   0x08005bec   0x00000002   Code   RO          589    .text               c_p.l(use_no_semi.o)
    0x08005bee   0x08005bee   0x00000000   Code   RO          591    .text               c_p.l(indicate_semi.o)
    0x08005bee   0x08005bee   0x0000001a   Code   RO          391    i._dleq             fz_ps.l(dcmp.o)
    0x08005c08   0x08005c08   0x00000016   Code   RO          431    i._fgr              fz_ps.l(fcmp.o)
    0x08005c1e   0x08005c1e   0x0000001a   Code   RO          432    i._fleq             fz_ps.l(fcmp.o)
    0x08005c38   0x08005c38   0x00000016   Code   RO          433    i._fls              fz_ps.l(fcmp.o)
    0x08005c4e   0x08005c4e   0x00000002   PAD
    0x08005c50   0x08005c50   0x00000064   Code   RO          463    x$fpl$dleqf         fz_ps.l(dlef.o)
    0x08005cb4   0x08005cb4   0x0000008c   Code   RO          417    x$fpl$fadd          fz_ps.l(faddsub.o)
    0x08005d40   0x08005d40   0x00000054   Code   RO          467    x$fpl$fgeqf         fz_ps.l(fgef.o)
    0x08005d94   0x08005d94   0x00000054   Code   RO          469    x$fpl$fleqf         fz_ps.l(flef.o)
    0x08005de8   0x08005de8   0x000000b0   Code   RO          456    x$fpl$fmul          fz_ps.l(fmul.o)
    0x08005e98   0x08005e98   0x000000d0   Code   RO          419    x$fpl$fsub          fz_ps.l(faddsub.o)
    0x08005f68   0x08005f68   0x00000000   Code   RO          471    x$fpl$usenofp       fz_ps.l(usenofp.o)
    0x08005f68   0x08005f68   0x00000080   Data   RO          407    .constdata          fz_ps.l(ddiv.o)
    0x08005fe8   0x08005fe8   0x00000040   Data   RO          448    .constdata          fz_ps.l(fdiv.o)
    0x08006028   0x08006028   0x0000000c   Data   RO           63    .rodata..L__const.up_or_down.up_down  bldc.o
    0x08006034   0x08006034   0x0000000c   Data   RO          268    .rodata..Lswitch.table.gpio_deinit.1  gd32e23x_gpio.o
    0x08006040   0x08006040   0x00000008   Data   RO          112    .rodata.cst8        bldcsine.o
    0x08006048   0x08006048   0x00000008   Data   RO          304    .rodata.cst8        gd32e23x_rcu.o
    0x08006050   0x08006050   0x00000008   Data   RO           64    .rodata.hall_to_pos  bldc.o
    0x08006058   0x08006058   0x000002d4   Data   RO           19    .rodata.lookUpTableAngle  main.o
    0x0800632c   0x0800632c   0x000002d0   Data   RO          115    .rodata.sine_table  bldcsine.o
    0x080065fc   0x080065fc   0x00000020   Data   RO          647    Region$$Table       anon$$obj.o


    Execution Region RW_IRAM1 (Exec base: 0x20000000, Load base: 0x08006620, Size: 0x00000a08, Max: 0x00002000, ABSOLUTE)

    Exec Addr    Load Addr    Size         Type   Attr      Idx    E Section Name        Object

    0x20000000   0x08006620   0x00000004   Data   RW          355    .data.SystemCoreClock  system_gd32e23x.o
    0x20000004   0x08006624   0x00000004   Data   RW           33    .data.batteryVoltage  bldc.o
    0x20000008   0x08006628   0x00000001   Data   RW           16    .data.beepsBackwards  main.o
    0x20000009   0x08006629   0x00000003   PAD
    0x2000000c   0x0800662c   0x00000004   Data   RW           34    .data.currentDC     bldc.o
    0x20000010   0x08006630   0x00000001   Data   RW            3    .data.iDrivingMode  main.o
    0x20000011   0x08006631   0x00000001   Data   RW           50    .data.iFILTER_SHIFT  bldc.o
    0x20000012   0x08006632   0x00000002   Data   RW           53    .data.offsetdc      bldc.o
    0x20000014   0x08006634   0x00000004   Data   RW           42    .data.revs32Scale   bldc.o
    0x20000018   0x08006638   0x00000004   Data   RW           43    .data.revs32ScaleSlow  bldc.o
    0x2000001c   0x0800663c   0x00000002   Data   RW           11    .data.speedLimit    main.o
    0x2000001e   0x0800663e   0x00000001   Data   RW           12    .data.wState        main.o
    0x2000001f   0x0800663f   0x00000001   PAD
    0x20000020        -       0x00000060   Zero   RW          509    .bss                c_p.l(libspace.o)
    0x20000080        -       0x00000001   Zero   RW          156    .bss.TIMER0_BRK_UP_TRG_COM_IRQHandler.interrupt_toggle  it.o
    0x20000081   0x0800663f   0x00000003   PAD
    0x20000084        -       0x0000000c   Zero   RW          103    .bss.aHallEXTI      bldcsine.o
    0x20000090        -       0x00000004   Zero   RW           69    .bss.adc_buffer     bldc.o
    0x20000094        -       0x00000002   Zero   RW           98    .bss.angle_deg      bldcsine.o
    0x20000096        -       0x00000002   Zero   RW           99    .bss.angle_deg_add  bldcsine.o
    0x20000098        -       0x00000002   Zero   RW          100    .bss.angle_deg_final  bldcsine.o
    0x2000009a        -       0x00000002   Zero   RW          101    .bss.angle_idx      bldcsine.o
    0x2000009c        -       0x00000001   Zero   RW          104    .bss.bInterrupt     bldcsine.o
    0x2000009d        -       0x00000001   Zero   RW            5    .bss.bPilotTimeout  main.o
    0x2000009e        -       0x00000001   Zero   RW            4    .bss.bRemoteTimeout  main.o
    0x2000009f        -       0x00000001   Zero   RW           45    .bss.bldc_enable    bldc.o
    0x200000a0        -       0x00000004   Zero   RW           47    .bss.bldc_inputFilterPwm  bldc.o
    0x200000a4        -       0x00000004   Zero   RW           48    .bss.bldc_outputFilterPwm  bldc.o
    0x200000a8        -       0x00000001   Zero   RW           59    .bss.buzzerFreq     bldc.o
    0x200000a9        -       0x00000001   Zero   RW           60    .bss.buzzerPattern  bldc.o
    0x200000aa        -       0x00000002   Zero   RW           51    .bss.buzzerTimer    bldc.o
    0x200000ac        -       0x00000001   Zero   RW           58    .bss.buzzerToggle   bldc.o
    0x200000ad   0x0800663f   0x00000003   PAD
    0x200000b0        -       0x0000001c   Zero   RW          128    .bss.dma_init_struct_adc  setup.o
    0x200000cc        -       0x00000001   Zero   RW           20    .bss.enable         main.o
    0x200000cd   0x0800663f   0x00000003   PAD
    0x200000d0        -       0x00000004   Zero   RW           65    .bss.filter_reg     bldc.o
    0x200000d4        -       0x00000001   Zero   RW           46    .bss.hall           bldc.o
    0x200000d5        -       0x00000001   Zero   RW           70    .bss.hall_a         bldc.o
    0x200000d6        -       0x00000001   Zero   RW           71    .bss.hall_b         bldc.o
    0x200000d7        -       0x00000001   Zero   RW           72    .bss.hall_c         bldc.o
    0x200000d8        -       0x00000001   Zero   RW          107    .bss.hall_last      bldcsine.o
    0x200000d9   0x0800663f   0x00000001   PAD
    0x200000da        -       0x00000002   Zero   RW          105    .bss.hall_time_last  bldcsine.o
    0x200000dc        -       0x00000002   Zero   RW          106    .bss.hall_time_step  bldcsine.o
    0x200000de   0x0800663f   0x00000002   PAD
    0x200000e0        -       0x00000004   Zero   RW          114    .bss.hall_time_step_LP  bldcsine.o
    0x200000e4        -       0x00000004   Zero   RW          113    .bss.hall_time_step_LPR  bldcsine.o
    0x200000e8        -       0x00000004   Zero   RW          153    .bss.iAdcCounter    it.o
    0x200000ec        -       0x00000004   Zero   RW          155    .bss.iAdcRate       it.o
    0x200000f0        -       0x00000004   Zero   RW          154    .bss.iAdcTime       it.o
    0x200000f4        -       0x00000002   Zero   RW          111    .bss.iAdd           bldcsine.o
    0x200000f6   0x0800663f   0x00000002   PAD
    0x200000f8        -       0x00000004   Zero   RW           44    .bss.iBldcInput     bldc.o
    0x200000fc        -       0x00000004   Zero   RW            6    .bss.iBug           main.o
    0x20000100        -       0x00000004   Zero   RW           66    .bss.iBuzzCounter   bldc.o
    0x20000104        -       0x00000004   Zero   RW           68    .bss.iBuzzRate      bldc.o
    0x20000108        -       0x00000004   Zero   RW           67    .bss.iBuzzTime      bldc.o
    0x2000010c        -       0x00000002   Zero   RW          110    .bss.iDT            bldcsine.o
    0x2000010e        -       0x00000001   Zero   RW           49    .bss.iDrivingModeOverride  bldc.o
    0x2000010f   0x0800663f   0x00000001   PAD
    0x20000110        -       0x00000004   Zero   RW           61    .bss.iOdom          bldc.o
    0x20000114        -       0x00000004   Zero   RW           62    .bss.iOdomLast      bldc.o
    0x20000118        -       0x00000004   Zero   RW          148    .bss.iPwmCounter    it.o
    0x2000011c        -       0x00000004   Zero   RW          150    .bss.iPwmRate       it.o
    0x20000120        -       0x00000004   Zero   RW          149    .bss.iPwmTime       it.o
    0x20000124        -       0x00000004   Zero   RW           22    .bss.iTimeNextLoop  main.o
    0x20000128        -       0x00000004   Zero   RW           18    .bss.inactivity_timeout_counter  main.o
    0x2000012c        -       0x00000001   Zero   RW           74    .bss.lastPos        bldc.o
    0x2000012d   0x0800663f   0x00000003   PAD
    0x20000130        -       0x00000004   Zero   RW          145    .bss.msTicks        it.o
    0x20000134        -       0x00000014   Zero   RW          129    .bss.oConfig        setup.o
    0x20000148        -       0x00000002   Zero   RW           52    .bss.offsetcount    bldc.o
    0x2000014a   0x0800663f   0x00000006   PAD
    0x20000150        -       0x00000028   Zero   RW           84    .bss.pid            driver.o
    0x20000178        -       0x00000001   Zero   RW           73    .bss.pos            bldc.o
    0x20000179   0x0800663f   0x00000003   PAD
    0x2000017c        -       0x00000004   Zero   RW          102    .bss.pwmGo          bldcsine.o
    0x20000180        -       0x00000002   Zero   RW           21    .bss.pwmSlave       main.o
    0x20000182   0x0800663f   0x00000002   PAD
    0x20000184        -       0x00000004   Zero   RW           35    .bss.realSpeed      bldc.o
    0x20000188        -       0x00000004   Zero   RW           36    .bss.revs32         bldc.o
    0x2000018c        -       0x00000004   Zero   RW           38    .bss.revs32_reg     bldc.o
    0x20000190        -       0x00000004   Zero   RW           41    .bss.revs32x        bldc.o
    0x20000194        -       0x00000001   Zero   RW           96    .bss.sector         bldcsine.o
    0x20000195        -       0x00000001   Zero   RW           97    .bss.sector10x      bldcsine.o
    0x20000196        -       0x00000001   Zero   RW           95    .bss.sectorChange   bldcsine.o
    0x20000197   0x0800663f   0x00000001   PAD
    0x20000198        -       0x00000004   Zero   RW            9    .bss.speed          main.o
    0x2000019c        -       0x00000004   Zero   RW           54    .bss.speedCounter   bldc.o
    0x200001a0        -       0x00000004   Zero   RW           56    .bss.speedCounterLog  bldc.o
    0x200001a4        -       0x00000004   Zero   RW           55    .bss.speedCounterSlow  bldc.o
    0x200001a8        -       0x00000004   Zero   RW           57    .bss.speedCounterSlowLog  bldc.o
    0x200001ac        -       0x00000004   Zero   RW           10    .bss.speedShutoff   main.o
    0x200001b0        -       0x00000004   Zero   RW           14    .bss.steer          main.o
    0x200001b4        -       0x00000004   Zero   RW            8    .bss.steerCounter   main.o
    0x200001b8        -       0x00000001   Zero   RW          144    .bss.timedOut       it.o
    0x200001b9   0x0800663f   0x00000003   PAD
    0x200001bc        -       0x00000004   Zero   RW          143    .bss.timeoutCounter_ms  it.o
    0x200001c0        -       0x00000010   Zero   RW          124    .bss.timeoutTimer_paramter_struct  setup.o
    0x200001d0        -       0x0000000e   Zero   RW          127    .bss.timerBldc_break_parameter_struct  setup.o
    0x200001de        -       0x0000000c   Zero   RW          126    .bss.timerBldc_oc_parameter_struct  setup.o
    0x200001ea   0x0800663f   0x00000002   PAD
    0x200001ec        -       0x00000010   Zero   RW          125    .bss.timerBldc_paramter_struct  setup.o
    0x200001fc        -       0x00000004   Zero   RW           37    .bss.torque32       bldc.o
    0x20000200        -       0x00000004   Zero   RW           39    .bss.torque32_reg   bldc.o
    0x20000204   0x0800663f   0x00000004   PAD
    0x20000208        -       0x00000400   Zero   RW          345    HEAP                startup_gd32e23x.o
    0x20000608        -       0x00000400   Zero   RW          344    STACK               startup_gd32e23x.o


==============================================================================

Image component sizes


      Code (inc. data)   RO Data    RW Data    ZI Data      Debug   Object Name

      1600        312         20         19         95       4693   bldc.o
       844        136        728          0         45       5785   bldcsine.o
       652         56          0          0         40       3448   driver.o
      1408        184          0          0          0       8237   gd32e23x_adc.o
       732        104          0          0          0       6045   gd32e23x_dma.o
       300         52          0          0          0       2993   gd32e23x_exti.o
      2200        212          0          0          0      10972   gd32e23x_fmc.o
       320         96          0          0          0       2827   gd32e23x_fwdgt.o
       380          8         12          0          0       4587   gd32e23x_gpio.o
       236         44          0          0          0       3747   gd32e23x_misc.o
      1712        232          8          0          0      12869   gd32e23x_rcu.o
       276         36          0          0          0       2986   gd32e23x_syscfg.o
      3564        120          0          0          0      19001   gd32e23x_timer.o
       356         76          0          0         34       3025   it.o
      1884        224        724          5         33       7159   main.o
       132         32          0          0          0       1003   remotedummy.o
      1940        120          0          0        106      10013   setup.o
        56         26        204          0       2048        728   startup_gd32e23x.o
       360         56          0          4          0       2070   system_gd32e23x.o

    ----------------------------------------------------------------------
     18952       2126       1728         32       2440     112188   Object Totals
         0          0         32          0          0          0   (incl. Generated)
         0          0          0          4         39          0   (incl. Padding)

    ----------------------------------------------------------------------

      Code (inc. data)   RO Data    RW Data    ZI Data      Debug   Library Member Name

         8          0          0          0          0         68   __main.o
         0          0          0          0          0          0   __rtentry.o
        12          0          0          0          0          0   __rtentry2.o
         6          0          0          0          0          0   __rtentry4.o
        86         10          0          0          0          0   __scatter.o
        26          0          0          0          0          0   __scatter_copy.o
        28          0          0          0          0          0   __scatter_zi.o
        16          0          0          0          0         68   exit.o
         6          0          0          0          0        136   heapauxi.o
         0          0          0          0          0          0   indicate_semi.o
         2          0          0          0          0          0   libinit.o
         2          0          0          0          0          0   libinit2.o
         2          0          0          0          0          0   libshutdown.o
         2          0          0          0          0          0   libshutdown2.o
         8          4          0          0         96         68   libspace.o
        48          0          0          0          0         72   llmul.o
         2          0          0          0          0          0   rtexit.o
        10          0          0          0          0          0   rtexit2.o
        12          4          0          0          0         60   sys_exit.o
        62          0          0          0          0         80   sys_stackheap_outer.o
         2          0          0          0          0         68   use_no_semi.o
        46          0          0          0          0         60   cmpret.o
       124          4          0          0          0         72   d2f.o
       856         20          0          0          0        208   daddsub.o
        26          0          0          0          0         68   dcmp.o
       160          6          0          0          0         76   dcmpin.o
      1096         26        128          0          0        112   ddiv.o
       108         10          0          0          0         72   dfixi.o
        88          0          0          0          0         92   dflti.o
       100          4          0          0          0         92   dlef.o
       584         26          0          0          0         84   dmul.o
        20          6          0          0          0         68   dnan2.o
        84          4          0          0          0         60   f2d.o
       348          8          0          0          0        160   faddsub.o
        70          0          0          0          0        204   fcmp.o
       100          4          0          0          0         68   fcmpin.o
       352         10         64          0          0         92   fdiv.o
        76          0          0          0          0         68   ffixi.o
       130          0          0          0          0         72   ffixl.o
        94          0          0          0          0         92   fflti.o
        84          4          0          0          0         76   fgef.o
        84          4          0          0          0         76   flef.o
       176          4          0          0          0         80   fmul.o
        16          6          0          0          0         68   fnan2.o
        94          0          0          0          0         68   retnan.o
         0          0          0          0          0          0   usenofp.o

    ----------------------------------------------------------------------
      5268        164        192          0         96       2808   Library Totals
        12          0          0          0          0          0   (incl. Padding)

    ----------------------------------------------------------------------

      Code (inc. data)   RO Data    RW Data    ZI Data      Debug   Library Name

       340         18          0          0         96        620   c_p.l
      4916        146        192          0          0       2188   fz_ps.l

    ----------------------------------------------------------------------
      5268        164        192          0         96       2808   Library Totals

    ----------------------------------------------------------------------

==============================================================================


      Code (inc. data)   RO Data    RW Data    ZI Data      Debug   

     24220       2290       1920         32       2536     113352   Grand Totals
     24220       2290       1920         32       2536     113352   ELF Image Totals
     24220       2290       1920         32          0          0   ROM Totals

==============================================================================

    Total RO  Size (Code + RO Data)                26140 (  25.53kB)
    Total RW  Size (RW Data + ZI Data)              2568 (   2.51kB)
    Total ROM Size (Code + RO Data + RW Data)      26172 (  25.56kB)

==============================================================================

