Component: Arm Compiler for Embedded 6.23 Tool: armlink [5f102400]

==============================================================================

Section Cross References

    main.o(.text) refers to main.o(.bss.iBug) for iBug
    main.o(.text) refers to setup.o(.text) for ConfigRead
    main.o(.text) refers to system_gd32f1x0.o(.data.SystemCoreClock) for SystemCoreClock
    main.o(.text) refers to gd32f1x0_gpio.o(.text) for gpio_bit_write
    main.o(.text) refers to bldcsine.o(.text) for InitBldc
    main.o(.text) refers to main.o(.data.iDrivingMode) for iDrivingMode
    main.o(.text) refers to driver.o(.text) for DriverInit
    main.o(.text) refers to gd32f1x0_fwdgt.o(.text) for fwdgt_counter_reload
    main.o(.text) refers to bldc.o(.bss.buzzerFreq) for buzzerFreq
    main.o(.text) refers to it.o(.text) for Delay
    main.o(.text) refers to main.o(.bss.iTimeNextLoop) for iTimeNextLoop
    main.o(.text) refers to main.o(.bss.speedShutoff) for speedShutoff
    main.o(.text) refers to main.o(.bss.speed) for speed
    main.o(.text) refers to main.o(.bss.steerCounter) for steerCounter
    main.o(.text) refers to remotedummy.o(.text) for RemoteUpdate
    main.o(.text) refers to dflti.o(.text) for __aeabi_i2d
    main.o(.text) refers to main.o(.bss.steer) for steer
    main.o(.text) refers to ddiv.o(.text) for __aeabi_ddiv
    main.o(.text) refers to dadd.o(.text) for __aeabi_dadd
    main.o(.text) refers to dmul.o(.text) for __aeabi_dmul
    main.o(.text) refers to dfixi.o(.text) for __aeabi_d2iz
    main.o(.text) refers to main.o(.bss.pwmSlave) for pwmSlave
    main.o(.text) refers to ffltui.o(.text) for __aeabi_ui2f
    main.o(.text) refers to f2d.o(.text) for __aeabi_f2d
    main.o(.text) refers to d2f.o(.text) for __aeabi_d2f
    main.o(.text) refers to main.o(.data.speedLimit) for speedLimit
    main.o(.text) refers to fflti.o(.text) for __aeabi_i2f
    main.o(.text) refers to fmul.o(.text) for __aeabi_fmul
    main.o(.text) refers to ffixi.o(.text) for __aeabi_f2iz
    main.o(.text) refers to fadd.o(.text) for __aeabi_fsub
    main.o(.text) refers to fdiv.o(.text) for __aeabi_fdiv
    main.o(.text) refers to main.o(.rodata.lookUpTableAngle) for lookUpTableAngle
    main.o(.text) refers to fcmplt.o(.text) for __aeabi_fcmplt
    main.o(.text) refers to bldc.o(.text) for SetBldcInput
    main.o(.text) refers to bldc.o(.data.batteryVoltage) for batteryVoltage
    main.o(.text) refers to fcmple.o(.text) for __aeabi_fcmple
    main.o(.text) refers to main.o(.data.wState) for wState
    main.o(.text) refers to main.o(.data.beepsBackwards) for beepsBackwards
    main.o(.text) refers to dcmple.o(.text) for __aeabi_dcmple
    main.o(.text) refers to bldc.o(.bss.buzzerPattern) for buzzerPattern
    main.o(.text) refers to main.o(.bss.enable) for enable
    main.o(.text) refers to main.o(.bss.inactivity_timeout_counter) for inactivity_timeout_counter
    main.o(.text) refers to main.o(.bss.bRemoteTimeout) for bRemoteTimeout
    main.o(.text) refers to main.o(.bss.bPilotTimeout) for bPilotTimeout
    main.o(.ARM.exidx) refers to main.o(.text) for [Anonymous Symbol]
    bldc.o(.text) refers to bldc.o(.rodata..L__const.up_or_down.up_down) for .L__const.up_or_down.up_down
    bldc.o(.text) refers to bldc.o(.bss.bldc_enable) for bldc_enable
    bldc.o(.text) refers to main.o(.data.iDrivingMode) for iDrivingMode
    bldc.o(.text) refers to system_gd32f1x0.o(.data.SystemCoreClock) for SystemCoreClock
    bldc.o(.text) refers to dflti.o(.text) for __aeabi_i2d
    bldc.o(.text) refers to ddiv.o(.text) for __aeabi_ddiv
    bldc.o(.text) refers to dmul.o(.text) for __aeabi_dmul
    bldc.o(.text) refers to dfixi.o(.text) for __aeabi_d2iz
    bldc.o(.text) refers to bldc.o(.bss.iBldcInput) for iBldcInput
    bldc.o(.text) refers to bldc.o(.data.iFILTER_SHIFT) for iFILTER_SHIFT
    bldc.o(.text) refers to bldc.o(.bss.bldc_outputFilterPwm) for bldc_outputFilterPwm
    bldc.o(.text) refers to bldc.o(.bss.filter_reg) for filter_reg
    bldc.o(.text) refers to bldc.o(.bss.offsetcount) for offsetcount
    bldc.o(.text) refers to bldc.o(.bss.adc_buffer) for adc_buffer
    bldc.o(.text) refers to bldc.o(.data.offsetdc) for offsetdc
    bldc.o(.text) refers to bldc.o(.bss.buzzerTimer) for buzzerTimer
    bldc.o(.text) refers to bldc.o(.data.batteryVoltage) for batteryVoltage
    bldc.o(.text) refers to f2d.o(.text) for __aeabi_f2d
    bldc.o(.text) refers to dfltui.o(.text) for __aeabi_ui2d
    bldc.o(.text) refers to dadd.o(.text) for __aeabi_dadd
    bldc.o(.text) refers to d2f.o(.text) for __aeabi_d2f
    bldc.o(.text) refers to main.o(.bss.iBug) for iBug
    bldc.o(.text) refers to it.o(.bss.msTicks) for msTicks
    bldc.o(.text) refers to bldc.o(.bss.iBuzzTime) for iBuzzTime
    bldc.o(.text) refers to bldc.o(.bss.iBuzzCounter) for iBuzzCounter
    bldc.o(.text) refers to bldc.o(.bss.iBuzzRate) for iBuzzRate
    bldc.o(.text) refers to bldc.o(.bss.buzzerFreq) for buzzerFreq
    bldc.o(.text) refers to bldc.o(.bss.buzzerPattern) for buzzerPattern
    bldc.o(.text) refers to gd32f1x0_gpio.o(.text) for gpio_bit_write
    bldc.o(.text) refers to bldc.o(.data.currentDC) for currentDC
    bldc.o(.text) refers to fcmpgt.o(.text) for __aeabi_fcmpgt
    bldc.o(.text) refers to it.o(.bss.timedOut) for timedOut
    bldc.o(.text) refers to gd32f1x0_timer.o(.text) for timer_automatic_output_enable
    bldc.o(.text) refers to bldc.o(.bss.iDrivingModeOverride) for iDrivingModeOverride
    bldc.o(.text) refers to bldc.o(.bss.bldc_inputFilterPwm) for bldc_inputFilterPwm
    bldc.o(.text) refers to bldc.o(.bss.hall_a) for hall_a
    bldc.o(.text) refers to bldc.o(.bss.hall_b) for hall_b
    bldc.o(.text) refers to bldc.o(.bss.hall_c) for hall_c
    bldc.o(.text) refers to bldc.o(.bss.hall) for hall
    bldc.o(.text) refers to bldc.o(.rodata.hall_to_pos) for hall_to_pos
    bldc.o(.text) refers to bldc.o(.bss.pos) for pos
    bldc.o(.text) refers to driver.o(.text) for Driver
    bldc.o(.text) refers to bldcsine.o(.text) for bldc_get_pwm
    bldc.o(.text) refers to bldc.o(.bss.lastPos) for lastPos
    bldc.o(.text) refers to bldc.o(.bss.iOdom) for iOdom
    bldc.o(.text) refers to bldc.o(.bss.speedCounterSlow) for speedCounterSlow
    bldc.o(.text) refers to bldc.o(.bss.iOdomLast) for iOdomLast
    bldc.o(.text) refers to bldc.o(.bss.revs32) for revs32
    bldc.o(.text) refers to bldc.o(.bss.torque32) for torque32
    bldc.o(.text) refers to bldc.o(.bss.buzzerToggle) for buzzerToggle
    bldc.o(.text) refers to bldc.o(.data.revs32ScaleSlow) for revs32ScaleSlow
    bldc.o(.text) refers to bldc.o(.bss.revs32_reg) for revs32_reg
    bldc.o(.text) refers to bldc.o(.bss.torque32_reg) for torque32_reg
    bldc.o(.text) refers to bldc.o(.bss.speedCounterSlowLog) for speedCounterSlowLog
    bldc.o(.text) refers to bldc.o(.bss.speedCounter) for speedCounter
    bldc.o(.text) refers to bldc.o(.bss.realSpeed32_reg) for realSpeed32_reg
    bldc.o(.text) refers to bldc.o(.bss.realSpeed) for realSpeed
    bldc.o(.ARM.exidx) refers to bldc.o(.text) for [Anonymous Symbol]
    driver.o(.text) refers to fmul.o(.text) for __aeabi_fmul
    driver.o(.text) refers to ffixi.o(.text) for __aeabi_f2iz
    driver.o(.text) refers to fdiv.o(.text) for __aeabi_fdiv
    driver.o(.text) refers to ffixl.o(.text) for __aeabi_f2lz
    driver.o(.text) refers to main.o(.data.iDrivingMode) for iDrivingMode
    driver.o(.text) refers to system_gd32f1x0.o(.data.SystemCoreClock) for SystemCoreClock
    driver.o(.text) refers to fflti.o(.text) for __aeabi_i2f
    driver.o(.text) refers to driver.o(.bss.pid) for pid
    driver.o(.text) refers to bldc.o(.bss.revs32) for revs32
    driver.o(.text) refers to bldc.o(.bss.torque32) for torque32
    driver.o(.text) refers to bldc.o(.bss.iOdom) for iOdom
    driver.o(.ARM.exidx) refers to driver.o(.text) for [Anonymous Symbol]
    bldcsine.o(.text) refers to gd32f1x0_syscfg.o(.text) for syscfg_exti_line_config
    bldcsine.o(.text) refers to gd32f1x0_exti.o(.text) for exti_init
    bldcsine.o(.text) refers to gd32f1x0_misc.o(.text) for nvic_irq_enable
    bldcsine.o(.text) refers to gd32f1x0_rcu.o(.text) for rcu_periph_clock_enable
    bldcsine.o(.text) refers to bldcsine.o(.bss.aHallEXTI) for aHallEXTI
    bldcsine.o(.text) refers to bldc.o(.bss.buzzerTimer) for buzzerTimer
    bldcsine.o(.text) refers to bldcsine.o(.bss.hall_time_last) for hall_time_last
    bldcsine.o(.text) refers to bldcsine.o(.bss.hall_time_step) for hall_time_step
    bldcsine.o(.text) refers to bldc.o(.bss.hall) for hall
    bldcsine.o(.text) refers to bldcsine.o(.bss.hall_last) for hall_last
    bldcsine.o(.text) refers to bldcsine.o(.bss.bInterrupt) for bInterrupt
    bldcsine.o(.text) refers to gd32f1x0_gpio.o(.text) for gpio_input_bit_get
    bldcsine.o(.text) refers to bldcsine.o(.bss.pwmGo) for pwmGo
    bldcsine.o(.text) refers to bldcsine.o(.rodata.cst8) for hall_to_sector
    bldcsine.o(.text) refers to bldcsine.o(.bss.sector) for sector
    bldcsine.o(.text) refers to bldcsine.o(.bss.sector10x) for sector10x
    bldcsine.o(.text) refers to bldcsine.o(.bss.angle_deg) for angle_deg
    bldcsine.o(.text) refers to bldcsine.o(.bss.hall_time_step_LPR) for hall_time_step_LPR
    bldcsine.o(.text) refers to bldcsine.o(.bss.angle_deg_add) for angle_deg_add
    bldcsine.o(.text) refers to bldcsine.o(.bss.sectorChange) for sectorChange
    bldcsine.o(.text) refers to bldcsine.o(.bss.hall_time_step_LP) for hall_time_step_LP
    bldcsine.o(.text) refers to bldcsine.o(.bss.iDT) for iDT
    bldcsine.o(.text) refers to bldcsine.o(.bss.iAdd) for iAdd
    bldcsine.o(.text) refers to bldcsine.o(.bss.angle_deg_final) for angle_deg_final
    bldcsine.o(.text) refers to bldcsine.o(.rodata.sine_table) for sine_table
    bldcsine.o(.text) refers to bldcsine.o(.bss.angle_idx) for angle_idx
    bldcsine.o(.ARM.exidx) refers to bldcsine.o(.text) for [Anonymous Symbol]
    setup.o(.text) refers to gd32f1x0_gpio.o(.text) for gpio_mode_set
    setup.o(.text) refers to gd32f1x0_misc.o(.text) for nvic_priority_group_set
    setup.o(.text) refers to gd32f1x0_rcu.o(.text) for rcu_flag_get
    setup.o(.text) refers to gd32f1x0_fwdgt.o(.text) for fwdgt_config
    setup.o(.text) refers to gd32f1x0_timer.o(.text) for timer_deinit
    setup.o(.text) refers to setup.o(.bss.timeoutTimer_paramter_struct) for timeoutTimer_paramter_struct
    setup.o(.text) refers to system_gd32f1x0.o(.data.SystemCoreClock) for SystemCoreClock
    setup.o(.text) refers to setup.o(.bss.timerBldc_paramter_struct) for timerBldc_paramter_struct
    setup.o(.text) refers to setup.o(.bss.timerBldc_oc_parameter_struct) for timerBldc_oc_parameter_struct
    setup.o(.text) refers to setup.o(.bss.timerBldc_break_parameter_struct) for timerBldc_break_parameter_struct
    setup.o(.text) refers to gd32f1x0_dma.o(.text) for dma_deinit
    setup.o(.text) refers to setup.o(.bss.dma_init_struct_adc) for dma_init_struct_adc
    setup.o(.text) refers to bldc.o(.bss.adc_buffer) for adc_buffer
    setup.o(.text) refers to gd32f1x0_adc.o(.text) for adc_channel_length_config
    setup.o(.text) refers to gd32f1x0_fmc.o(.text) for fmc_unlock
    setup.o(.text) refers to setup.o(.bss.oConfig) for oConfig
    setup.o(.text) refers to setup.o(.bss.dev_id) for dev_id
    setup.o(.text) refers to system_gd32f1x0.o(.text) for SystemCoreClockUpdate
    setup.o(.text) refers to setup.o(.bss.pll_mul) for pll_mul
    setup.o(.text) refers to it.o(.text) for millis
    setup.o(.text) refers to setup.o(.bss.iTestClock) for iTestClock
    setup.o(.ARM.exidx) refers to setup.o(.text) for [Anonymous Symbol]
    it.o(.text) refers to it.o(.bss.msTicks) for msTicks
    it.o(.text) refers to it.o(.bss.timeoutCounter_ms) for timeoutCounter_ms
    it.o(.text) refers to it.o(.bss.timedOut) for timedOut
    it.o(.text) refers to main.o(.bss.speed) for speed
    it.o(.text) refers to gd32f1x0_timer.o(.text) for timer_interrupt_flag_clear
    it.o(.text) refers to it.o(.bss.TIMER0_BRK_UP_TRG_COM_IRQHandler.interrupt_toggle) for TIMER0_BRK_UP_TRG_COM_IRQHandler.interrupt_toggle
    it.o(.text) refers to it.o(.bss.iPwmTime) for iPwmTime
    it.o(.text) refers to it.o(.bss.iPwmCounter) for iPwmCounter
    it.o(.text) refers to it.o(.bss.iPwmRate) for iPwmRate
    it.o(.text) refers to gd32f1x0_adc.o(.text) for adc_software_trigger_enable
    it.o(.text) refers to gd32f1x0_dma.o(.text) for dma_interrupt_flag_get
    it.o(.text) refers to it.o(.bss.iAdcTime) for iAdcTime
    it.o(.text) refers to it.o(.bss.iAdcCounter) for iAdcCounter
    it.o(.text) refers to it.o(.bss.iAdcRate) for iAdcRate
    it.o(.text) refers to bldc.o(.text) for CalculateBLDC
    it.o(.ARM.exidx) refers to it.o(.text) for [Anonymous Symbol]
    comms.o(.text) refers to gd32f1x0_usart.o(.text) for usart_data_transmit
    comms.o(.ARM.exidx) refers to comms.o(.text) for [Anonymous Symbol]
    remotedummy.o(.text) refers to main.o(.data.iDrivingMode) for iDrivingMode
    remotedummy.o(.text) refers to it.o(.bss.msTicks) for msTicks
    remotedummy.o(.text) refers to main.o(.bss.steer) for steer
    remotedummy.o(.text) refers to main.o(.bss.speed) for speed
    remotedummy.o(.text) refers to it.o(.text) for ResetTimeout
    remotedummy.o(.ARM.exidx) refers to remotedummy.o(.text) for [Anonymous Symbol]
    segger_rtt.o(.text) refers to segger_rtt.o(.bss._SEGGER_RTT) for _SEGGER_RTT
    segger_rtt.o(.text) refers to memseta.o(.text) for __aeabi_memclr4
    segger_rtt.o(.text) refers to segger_rtt.o(.rodata.str1.1) for .L.str
    segger_rtt.o(.text) refers to segger_rtt.o(.bss._acUpBuffer) for _acUpBuffer
    segger_rtt.o(.text) refers to segger_rtt.o(.bss._acDownBuffer) for _acDownBuffer
    segger_rtt.o(.text) refers to segger_rtt.o(.rodata._DoInit._aInitStr) for _DoInit._aInitStr
    segger_rtt.o(.text) refers to memcpya.o(.text) for __aeabi_memcpy
    segger_rtt.o(.text) refers to strlen.o(.text) for strlen
    segger_rtt.o(.text) refers to segger_rtt.o(.rodata.cst16) for _aTerminalId
    segger_rtt.o(.text) refers to segger_rtt.o(.bss._ActiveTerminal) for _ActiveTerminal
    segger_rtt.o(.ARM.exidx) refers to segger_rtt.o(.text) for [Anonymous Symbol]
    gd32f1x0_adc.o(.text) refers to gd32f1x0_rcu.o(.text) for rcu_periph_reset_enable
    gd32f1x0_adc.o(.ARM.exidx) refers to gd32f1x0_adc.o(.text) for [Anonymous Symbol]
    gd32f1x0_dbg.o(.ARM.exidx) refers to gd32f1x0_dbg.o(.text) for [Anonymous Symbol]
    gd32f1x0_dma.o(.ARM.exidx) refers to gd32f1x0_dma.o(.text) for [Anonymous Symbol]
    gd32f1x0_exti.o(.ARM.exidx) refers to gd32f1x0_exti.o(.text) for [Anonymous Symbol]
    gd32f1x0_fmc.o(.ARM.exidx) refers to gd32f1x0_fmc.o(.text) for [Anonymous Symbol]
    gd32f1x0_fwdgt.o(.ARM.exidx) refers to gd32f1x0_fwdgt.o(.text) for [Anonymous Symbol]
    gd32f1x0_gpio.o(.text) refers to gd32f1x0_gpio.o(.rodata..Lswitch.table.gpio_deinit.1) for .Lswitch.table.gpio_deinit.1
    gd32f1x0_gpio.o(.text) refers to gd32f1x0_rcu.o(.text) for rcu_periph_reset_enable
    gd32f1x0_gpio.o(.ARM.exidx) refers to gd32f1x0_gpio.o(.text) for [Anonymous Symbol]
    gd32f1x0_i2c.o(.text) refers to gd32f1x0_rcu.o(.text) for rcu_periph_reset_enable
    gd32f1x0_i2c.o(.ARM.exidx) refers to gd32f1x0_i2c.o(.text) for [Anonymous Symbol]
    gd32f1x0_misc.o(.ARM.exidx) refers to gd32f1x0_misc.o(.text) for [Anonymous Symbol]
    gd32f1x0_pmu.o(.text) refers to gd32f1x0_rcu.o(.text) for rcu_periph_reset_enable
    gd32f1x0_pmu.o(.text) refers to gd32f1x0_pmu.o(.bss.pmu_to_deepsleepmode.reg_snap.1) for pmu_to_deepsleepmode.reg_snap.1
    gd32f1x0_pmu.o(.text) refers to gd32f1x0_pmu.o(.bss.pmu_to_deepsleepmode.reg_snap.0) for pmu_to_deepsleepmode.reg_snap.0
    gd32f1x0_pmu.o(.text) refers to gd32f1x0_pmu.o(.bss.pmu_to_deepsleepmode.reg_snap.2) for pmu_to_deepsleepmode.reg_snap.2
    gd32f1x0_pmu.o(.text) refers to gd32f1x0_pmu.o(.bss.pmu_to_deepsleepmode.reg_snap.3) for pmu_to_deepsleepmode.reg_snap.3
    gd32f1x0_pmu.o(.ARM.exidx) refers to gd32f1x0_pmu.o(.text) for [Anonymous Symbol]
    gd32f1x0_rcu.o(.text) refers to gd32f1x0_rcu.o(.rodata.cst8) for .L__const.rcu_clock_freq_get.apb2_exp
    gd32f1x0_rcu.o(.ARM.exidx) refers to gd32f1x0_rcu.o(.text) for [Anonymous Symbol]
    gd32f1x0_syscfg.o(.text) refers to gd32f1x0_rcu.o(.text) for rcu_periph_reset_enable
    gd32f1x0_syscfg.o(.ARM.exidx) refers to gd32f1x0_syscfg.o(.text) for [Anonymous Symbol]
    gd32f1x0_timer.o(.text) refers to gd32f1x0_rcu.o(.text) for rcu_periph_reset_enable
    gd32f1x0_timer.o(.ARM.exidx) refers to gd32f1x0_timer.o(.text) for [Anonymous Symbol]
    gd32f1x0_usart.o(.text) refers to gd32f1x0_rcu.o(.text) for rcu_periph_reset_enable
    gd32f1x0_usart.o(.ARM.exidx) refers to gd32f1x0_usart.o(.text) for [Anonymous Symbol]
    gd32f1x0_wwdgt.o(.text) refers to gd32f1x0_rcu.o(.text) for rcu_periph_reset_enable
    gd32f1x0_wwdgt.o(.ARM.exidx) refers to gd32f1x0_wwdgt.o(.text) for [Anonymous Symbol]
    startup_gd32f1x0.o(RESET) refers to startup_gd32f1x0.o(STACK) for __initial_sp
    startup_gd32f1x0.o(RESET) refers to startup_gd32f1x0.o(.text) for Reset_Handler
    startup_gd32f1x0.o(RESET) refers to it.o(.text) for NMI_Handler
    startup_gd32f1x0.o(RESET) refers to bldcsine.o(.text) for EXTI0_1_IRQHandler
    startup_gd32f1x0.o(.text) refers to system_gd32f1x0.o(.text) for SystemInit
    startup_gd32f1x0.o(.text) refers to entry.o(.ARM.Collect$$$$00000000) for __main
    system_gd32f1x0.o(.text) refers to system_gd32f1x0.o(.data.SystemCoreClock) for SystemCoreClock
    system_gd32f1x0.o(.ARM.exidx) refers to system_gd32f1x0.o(.text) for [Anonymous Symbol]
    entry.o(.ARM.Collect$$$$00000000) refers (Special) to entry10a.o(.ARM.Collect$$$$0000000D) for __rt_final_cpp
    entry.o(.ARM.Collect$$$$00000000) refers (Special) to entry11a.o(.ARM.Collect$$$$0000000F) for __rt_final_exit
    entry.o(.ARM.Collect$$$$00000000) refers (Special) to entry7b.o(.ARM.Collect$$$$00000008) for _main_clock
    entry.o(.ARM.Collect$$$$00000000) refers (Special) to entry8b.o(.ARM.Collect$$$$0000000A) for _main_cpp_init
    entry.o(.ARM.Collect$$$$00000000) refers (Special) to entry9a.o(.ARM.Collect$$$$0000000B) for _main_init
    entry.o(.ARM.Collect$$$$00000000) refers (Special) to entry5.o(.ARM.Collect$$$$00000004) for _main_scatterload
    entry.o(.ARM.Collect$$$$00000000) refers (Special) to entry2.o(.ARM.Collect$$$$00000001) for _main_stk
    fadd.o(.text) refers (Special) to iusefp.o(.text) for __I$use$fp
    fadd.o(.text) refers to fepilogue.o(.text) for _float_epilogue
    fmul.o(.text) refers (Special) to iusefp.o(.text) for __I$use$fp
    fdiv.o(.text) refers (Special) to iusefp.o(.text) for __I$use$fp
    fdiv.o(.text) refers to fepilogue.o(.text) for _float_round
    dadd.o(.text) refers (Special) to iusefp.o(.text) for __I$use$fp
    dadd.o(.text) refers to llshl.o(.text) for __aeabi_llsl
    dadd.o(.text) refers to llsshr.o(.text) for __aeabi_lasr
    dadd.o(.text) refers to depilogue.o(.text) for _double_epilogue
    dmul.o(.text) refers (Special) to iusefp.o(.text) for __I$use$fp
    dmul.o(.text) refers to depilogue.o(.text) for _double_epilogue
    ddiv.o(.text) refers (Special) to iusefp.o(.text) for __I$use$fp
    ddiv.o(.text) refers to depilogue.o(.text) for _double_round
    fcmple.o(.text) refers (Special) to iusefp.o(.text) for __I$use$fp
    fcmplt.o(.text) refers (Special) to iusefp.o(.text) for __I$use$fp
    fcmpgt.o(.text) refers (Special) to iusefp.o(.text) for __I$use$fp
    dcmple.o(.text) refers (Special) to iusefp.o(.text) for __I$use$fp
    fflti.o(.text) refers (Special) to iusefp.o(.text) for __I$use$fp
    fflti.o(.text) refers to fepilogue.o(.text) for _float_epilogue
    ffltui.o(.text) refers (Special) to iusefp.o(.text) for __I$use$fp
    ffltui.o(.text) refers to fepilogue.o(.text) for _float_epilogue
    dflti.o(.text) refers (Special) to iusefp.o(.text) for __I$use$fp
    dflti.o(.text) refers to depilogue.o(.text) for _double_epilogue
    dfltui.o(.text) refers (Special) to iusefp.o(.text) for __I$use$fp
    dfltui.o(.text) refers to depilogue.o(.text) for _double_epilogue
    ffixi.o(.text) refers (Special) to iusefp.o(.text) for __I$use$fp
    ffixl.o(.text) refers (Special) to iusefp.o(.text) for __I$use$fp
    ffixl.o(.text) refers to llshl.o(.text) for __aeabi_llsl
    dfixi.o(.text) refers (Special) to iusefp.o(.text) for __I$use$fp
    dfixi.o(.text) refers to llushr.o(.text) for __aeabi_llsr
    f2d.o(.text) refers (Special) to iusefp.o(.text) for __I$use$fp
    d2f.o(.text) refers (Special) to iusefp.o(.text) for __I$use$fp
    d2f.o(.text) refers to fepilogue.o(.text) for _float_round
    entry2.o(.ARM.Collect$$$$00000001) refers to entry2.o(.ARM.Collect$$$$00002712) for __lit__00000000
    entry2.o(.ARM.Collect$$$$00002712) refers to startup_gd32f1x0.o(STACK) for __initial_sp
    entry2.o(__vectab_stack_and_reset_area) refers to startup_gd32f1x0.o(STACK) for __initial_sp
    entry2.o(__vectab_stack_and_reset_area) refers to entry.o(.ARM.Collect$$$$00000000) for __main
    entry5.o(.ARM.Collect$$$$00000004) refers to init.o(.text) for __scatterload
    entry9a.o(.ARM.Collect$$$$0000000B) refers to main.o(.text) for main
    entry9b.o(.ARM.Collect$$$$0000000C) refers to main.o(.text) for main
    fepilogue.o(.text) refers (Special) to iusefp.o(.text) for __I$use$fp
    depilogue.o(.text) refers (Special) to iusefp.o(.text) for __I$use$fp
    depilogue.o(.text) refers to llshl.o(.text) for __aeabi_llsl
    depilogue.o(.text) refers to llushr.o(.text) for __aeabi_llsr
    init.o(.text) refers to entry5.o(.ARM.Collect$$$$00000004) for __main_after_scatterload


==============================================================================

Removing Unused input sections from the image.

    Removing main.o(.ARM.exidx), (24 bytes).
    Removing main.o(.data.iBug8), (1 bytes).
    Removing main.o(.data.wStateSlave), (1 bytes).
    Removing main.o(.bss.activateWeakening), (1 bytes).
    Removing main.o(.bss.slaveError), (1 bytes).
    Removing main.o(.ARM.use_no_argv), (4 bytes).
    Removing bldc.o(.ARM.exidx), (48 bytes).
    Removing bldc.o(.bss.revs32x), (4 bytes).
    Removing bldc.o(.data.revs32Scale), (4 bytes).
    Removing bldc.o(.bss.speedCounterLog), (4 bytes).
    Removing driver.o(.ARM.exidx), (32 bytes).
    Removing bldcbc.o(.text), (0 bytes).
    Removing bldcsine.o(.ARM.exidx), (56 bytes).
    Removing bldcsine.o(.bss.fGradient), (4 bytes).
    Removing bldcsine.o(.bss.fGradientX), (4 bytes).
    Removing setup.o(.ARM.exidx), (168 bytes).
    Removing setup.o(.bss.dma_init_struct_usart), (36 bytes).
    Removing setup.o(.bss.usart0_rx_buf), (1 bytes).
    Removing setup.o(.bss.usart1_rx_buf), (1 bytes).
    Removing setup.o(.bss.usart2_rx_buf), (1 bytes).
    Removing it.o(.ARM.exidx), (120 bytes).
    Removing it.o(.bss.iPwmTicks), (4 bytes).
    Removing it.o(.bss.iPwmTicks0), (4 bytes).
    Removing it.o(.bss.iAdcTicks), (4 bytes).
    Removing it.o(.bss.iAdcTicks0), (4 bytes).
    Removing it.o(.bss.iCounterUsart0), (4 bytes).
    Removing it.o(.bss.iCounter2Usart0), (4 bytes).
    Removing it.o(.bss.iCounterUsart1), (4 bytes).
    Removing it.o(.bss.iCounter2Usart1), (4 bytes).
    Removing it.o(.bss.iCounterUsart2), (4 bytes).
    Removing it.o(.bss.iCounter2Usart2), (4 bytes).
    Removing led.o(.text), (0 bytes).
    Removing comms.o(.text), (124 bytes).
    Removing comms.o(.ARM.exidx), (16 bytes).
    Removing remoteuart.o(.text), (0 bytes).
    Removing remotecrsf.o(.text), (0 bytes).
    Removing remotedummy.o(.ARM.exidx), (24 bytes).
    Removing remotedummy.o(.bss.iTimeRTT), (4 bytes).
    Removing remoteuartbus.o(.text), (0 bytes).
    Removing commsmasterslave.o(.text), (0 bytes).
    Removing commsmasterslave.o(.bss.mosfetOutMaster), (1 bytes).
    Removing commsmasterslave.o(.bss.beepsBackwardsMaster), (1 bytes).
    Removing remoteadc.o(.text), (0 bytes).
    Removing remoteautodetect.o(.text), (0 bytes).
    Removing remoteautodetect.o(.bss.i), (2 bytes).
    Removing remoteros2.o(.text), (0 bytes).
    Removing i2c.o(.text), (0 bytes).
    Removing mpu6050.o(.text), (0 bytes).
    Removing pilothoverbike.o(.text), (0 bytes).
    Removing pilotuser.o(.text), (0 bytes).
    Removing segger_rtt.o(.text), (6050 bytes).
    Removing segger_rtt.o(.ARM.exidx), (248 bytes).
    Removing segger_rtt.o(.bss._SEGGER_RTT), (168 bytes).
    Removing segger_rtt.o(.rodata.cst16), (16 bytes).
    Removing segger_rtt.o(.bss._ActiveTerminal), (1 bytes).
    Removing segger_rtt.o(.rodata._DoInit._aInitStr), (17 bytes).
    Removing segger_rtt.o(.rodata.str1.1), (9 bytes).
    Removing segger_rtt.o(.bss._acUpBuffer), (1024 bytes).
    Removing segger_rtt.o(.bss._acDownBuffer), (16 bytes).
    Removing gd32f1x0_adc.o(.ARM.exidx), (256 bytes).
    Removing gd32f1x0_dbg.o(.text), (128 bytes).
    Removing gd32f1x0_dbg.o(.ARM.exidx), (48 bytes).
    Removing gd32f1x0_dma.o(.ARM.exidx), (216 bytes).
    Removing gd32f1x0_exti.o(.ARM.exidx), (96 bytes).
    Removing gd32f1x0_fmc.o(.ARM.exidx), (216 bytes).
    Removing gd32f1x0_fwdgt.o(.ARM.exidx), (48 bytes).
    Removing gd32f1x0_gpio.o(.ARM.exidx), (104 bytes).
    Removing gd32f1x0_i2c.o(.text), (802 bytes).
    Removing gd32f1x0_i2c.o(.ARM.exidx), (248 bytes).
    Removing gd32f1x0_misc.o(.ARM.exidx), (56 bytes).
    Removing gd32f1x0_opa.o(.text), (0 bytes).
    Removing gd32f1x0_pmu.o(.text), (490 bytes).
    Removing gd32f1x0_pmu.o(.ARM.exidx), (96 bytes).
    Removing gd32f1x0_pmu.o(.bss.pmu_to_deepsleepmode.reg_snap.0), (4 bytes).
    Removing gd32f1x0_pmu.o(.bss.pmu_to_deepsleepmode.reg_snap.1), (4 bytes).
    Removing gd32f1x0_pmu.o(.bss.pmu_to_deepsleepmode.reg_snap.2), (4 bytes).
    Removing gd32f1x0_pmu.o(.bss.pmu_to_deepsleepmode.reg_snap.3), (4 bytes).
    Removing gd32f1x0_rcu.o(.ARM.exidx), (336 bytes).
    Removing gd32f1x0_syscfg.o(.ARM.exidx), (72 bytes).
    Removing gd32f1x0_timer.o(.ARM.exidx), (568 bytes).
    Removing gd32f1x0_usart.o(.text), (1602 bytes).
    Removing gd32f1x0_usart.o(.ARM.exidx), (544 bytes).
    Removing gd32f1x0_wwdgt.o(.text), (170 bytes).
    Removing gd32f1x0_wwdgt.o(.ARM.exidx), (56 bytes).
    Removing startup_gd32f1x0.o(HEAP), (1024 bytes).
    Removing system_gd32f1x0.o(.ARM.exidx), (16 bytes).

86 unused section(s) (total 15484 bytes) removed from the image.

==============================================================================

Image Symbol Table

    Local Symbols

    Symbol Name                              Value     Ov Type        Size  Object(Section)

    ../clib/microlib/init/entry.s            0x00000000   Number         0  entry.o ABSOLUTE
    ../clib/microlib/init/entry.s            0x00000000   Number         0  entry2.o ABSOLUTE
    ../clib/microlib/init/entry.s            0x00000000   Number         0  entry5.o ABSOLUTE
    ../clib/microlib/init/entry.s            0x00000000   Number         0  entry7a.o ABSOLUTE
    ../clib/microlib/init/entry.s            0x00000000   Number         0  entry7b.o ABSOLUTE
    ../clib/microlib/init/entry.s            0x00000000   Number         0  entry8a.o ABSOLUTE
    ../clib/microlib/init/entry.s            0x00000000   Number         0  entry8b.o ABSOLUTE
    ../clib/microlib/init/entry.s            0x00000000   Number         0  entry9a.o ABSOLUTE
    ../clib/microlib/init/entry.s            0x00000000   Number         0  entry9b.o ABSOLUTE
    ../clib/microlib/init/entry.s            0x00000000   Number         0  entry10a.o ABSOLUTE
    ../clib/microlib/init/entry.s            0x00000000   Number         0  entry10b.o ABSOLUTE
    ../clib/microlib/init/entry.s            0x00000000   Number         0  entry11a.o ABSOLUTE
    ../clib/microlib/init/entry.s            0x00000000   Number         0  entry11b.o ABSOLUTE
    ../clib/microlib/longlong.c              0x00000000   Number         0  llshl.o ABSOLUTE
    ../clib/microlib/longlong.c              0x00000000   Number         0  llushr.o ABSOLUTE
    ../clib/microlib/longlong.c              0x00000000   Number         0  llsshr.o ABSOLUTE
    ../clib/microlib/string/memcpy.c         0x00000000   Number         0  memcpya.o ABSOLUTE
    ../clib/microlib/string/memcpy.c         0x00000000   Number         0  memcpyb.o ABSOLUTE
    ../clib/microlib/string/memset.c         0x00000000   Number         0  memseta.o ABSOLUTE
    ../clib/microlib/string/strlen.c         0x00000000   Number         0  strlen.o ABSOLUTE
    ../clib/microlib/stubs.s                 0x00000000   Number         0  iusefp.o ABSOLUTE
    ../fplib/microlib/d2f.c                  0x00000000   Number         0  d2f.o ABSOLUTE
    ../fplib/microlib/f2d.c                  0x00000000   Number         0  f2d.o ABSOLUTE
    ../fplib/microlib/fpadd.c                0x00000000   Number         0  fadd.o ABSOLUTE
    ../fplib/microlib/fpadd.c                0x00000000   Number         0  dadd.o ABSOLUTE
    ../fplib/microlib/fpcmp.c                0x00000000   Number         0  fcmple.o ABSOLUTE
    ../fplib/microlib/fpcmp.c                0x00000000   Number         0  fcmplt.o ABSOLUTE
    ../fplib/microlib/fpcmp.c                0x00000000   Number         0  fcmpgt.o ABSOLUTE
    ../fplib/microlib/fpcmp.c                0x00000000   Number         0  dcmple.o ABSOLUTE
    ../fplib/microlib/fpdiv.c                0x00000000   Number         0  fdiv.o ABSOLUTE
    ../fplib/microlib/fpdiv.c                0x00000000   Number         0  ddiv.o ABSOLUTE
    ../fplib/microlib/fpepilogue.c           0x00000000   Number         0  fepilogue.o ABSOLUTE
    ../fplib/microlib/fpepilogue.c           0x00000000   Number         0  depilogue.o ABSOLUTE
    ../fplib/microlib/fpfix.c                0x00000000   Number         0  ffixi.o ABSOLUTE
    ../fplib/microlib/fpfix.c                0x00000000   Number         0  ffixl.o ABSOLUTE
    ../fplib/microlib/fpfix.c                0x00000000   Number         0  dfixi.o ABSOLUTE
    ../fplib/microlib/fpflt.c                0x00000000   Number         0  fflti.o ABSOLUTE
    ../fplib/microlib/fpflt.c                0x00000000   Number         0  ffltui.o ABSOLUTE
    ../fplib/microlib/fpflt.c                0x00000000   Number         0  dflti.o ABSOLUTE
    ../fplib/microlib/fpflt.c                0x00000000   Number         0  dfltui.o ABSOLUTE
    ../fplib/microlib/fpmul.c                0x00000000   Number         0  fmul.o ABSOLUTE
    ../fplib/microlib/fpmul.c                0x00000000   Number         0  dmul.o ABSOLUTE
    PilotHoverbike.c                         0x00000000   Number         0  pilothoverbike.o ABSOLUTE
    PilotUser.c                              0x00000000   Number         0  pilotuser.o ABSOLUTE
    RTE/Device/GD32F130C8/startup_gd32f1x0.s 0x00000000   Number         0  startup_gd32f1x0.o ABSOLUTE
    RemoteAdc.c                              0x00000000   Number         0  remoteadc.o ABSOLUTE
    RemoteAutodetect.c                       0x00000000   Number         0  remoteautodetect.o ABSOLUTE
    RemoteROS2.c                             0x00000000   Number         0  remoteros2.o ABSOLUTE
    SEGGER_RTT.c                             0x00000000   Number         0  segger_rtt.o ABSOLUTE
    bldc.c                                   0x00000000   Number         0  bldc.o ABSOLUTE
    bldcBC.c                                 0x00000000   Number         0  bldcbc.o ABSOLUTE
    bldcSINE.c                               0x00000000   Number         0  bldcsine.o ABSOLUTE
    comms.c                                  0x00000000   Number         0  comms.o ABSOLUTE
    commsMasterSlave.c                       0x00000000   Number         0  commsmasterslave.o ABSOLUTE
    dc.s                                     0x00000000   Number         0  dc.o ABSOLUTE
    driver.c                                 0x00000000   Number         0  driver.o ABSOLUTE
    gd32f1x0_adc.c                           0x00000000   Number         0  gd32f1x0_adc.o ABSOLUTE
    gd32f1x0_dbg.c                           0x00000000   Number         0  gd32f1x0_dbg.o ABSOLUTE
    gd32f1x0_dma.c                           0x00000000   Number         0  gd32f1x0_dma.o ABSOLUTE
    gd32f1x0_exti.c                          0x00000000   Number         0  gd32f1x0_exti.o ABSOLUTE
    gd32f1x0_fmc.c                           0x00000000   Number         0  gd32f1x0_fmc.o ABSOLUTE
    gd32f1x0_fwdgt.c                         0x00000000   Number         0  gd32f1x0_fwdgt.o ABSOLUTE
    gd32f1x0_gpio.c                          0x00000000   Number         0  gd32f1x0_gpio.o ABSOLUTE
    gd32f1x0_i2c.c                           0x00000000   Number         0  gd32f1x0_i2c.o ABSOLUTE
    gd32f1x0_misc.c                          0x00000000   Number         0  gd32f1x0_misc.o ABSOLUTE
    gd32f1x0_opa.c                           0x00000000   Number         0  gd32f1x0_opa.o ABSOLUTE
    gd32f1x0_pmu.c                           0x00000000   Number         0  gd32f1x0_pmu.o ABSOLUTE
    gd32f1x0_rcu.c                           0x00000000   Number         0  gd32f1x0_rcu.o ABSOLUTE
    gd32f1x0_syscfg.c                        0x00000000   Number         0  gd32f1x0_syscfg.o ABSOLUTE
    gd32f1x0_timer.c                         0x00000000   Number         0  gd32f1x0_timer.o ABSOLUTE
    gd32f1x0_usart.c                         0x00000000   Number         0  gd32f1x0_usart.o ABSOLUTE
    gd32f1x0_wwdgt.c                         0x00000000   Number         0  gd32f1x0_wwdgt.o ABSOLUTE
    handlers.s                               0x00000000   Number         0  handlers.o ABSOLUTE
    i2c.c                                    0x00000000   Number         0  i2c.o ABSOLUTE
    init.s                                   0x00000000   Number         0  init.o ABSOLUTE
    it.c                                     0x00000000   Number         0  it.o ABSOLUTE
    led.c                                    0x00000000   Number         0  led.o ABSOLUTE
    main.c                                   0x00000000   Number         0  main.o ABSOLUTE
    mpu6050.c                                0x00000000   Number         0  mpu6050.o ABSOLUTE
    remoteCrsf.c                             0x00000000   Number         0  remotecrsf.o ABSOLUTE
    remoteDummy.c                            0x00000000   Number         0  remotedummy.o ABSOLUTE
    remoteUart.c                             0x00000000   Number         0  remoteuart.o ABSOLUTE
    remoteUartBus.c                          0x00000000   Number         0  remoteuartbus.o ABSOLUTE
    setup.c                                  0x00000000   Number         0  setup.o ABSOLUTE
    system_gd32f1x0.c                        0x00000000   Number         0  system_gd32f1x0.o ABSOLUTE
    RESET                                    0x08000000   Section      360  startup_gd32f1x0.o(RESET)
    .ARM.Collect$$$$00000000                 0x08000168   Section        0  entry.o(.ARM.Collect$$$$00000000)
    .ARM.Collect$$$$00000001                 0x08000168   Section        4  entry2.o(.ARM.Collect$$$$00000001)
    .ARM.Collect$$$$00000004                 0x0800016c   Section        4  entry5.o(.ARM.Collect$$$$00000004)
    .ARM.Collect$$$$00000008                 0x08000170   Section        0  entry7b.o(.ARM.Collect$$$$00000008)
    .ARM.Collect$$$$0000000A                 0x08000170   Section        0  entry8b.o(.ARM.Collect$$$$0000000A)
    .ARM.Collect$$$$0000000B                 0x08000170   Section        8  entry9a.o(.ARM.Collect$$$$0000000B)
    __lit__00000000                          0x08000178   Data           4  entry2.o(.ARM.Collect$$$$00002712)
    .ARM.Collect$$$$0000000D                 0x08000178   Section        0  entry10a.o(.ARM.Collect$$$$0000000D)
    .ARM.Collect$$$$0000000F                 0x08000178   Section        0  entry11a.o(.ARM.Collect$$$$0000000F)
    .ARM.Collect$$$$00002712                 0x08000178   Section        4  entry2.o(.ARM.Collect$$$$00002712)
    [Anonymous Symbol]                       0x0800017c   Section        0  main.o(.text)
    [Anonymous Symbol]                       0x08000a28   Section        0  bldc.o(.text)
    [Anonymous Symbol]                       0x0800113c   Section        0  driver.o(.text)
    [Anonymous Symbol]                       0x08001380   Section        0  bldcsine.o(.text)
    [Anonymous Symbol]                       0x08001724   Section        0  setup.o(.text)
    [Anonymous Symbol]                       0x08001f40   Section        0  it.o(.text)
    [Anonymous Symbol]                       0x080020cc   Section        0  remotedummy.o(.text)
    [Anonymous Symbol]                       0x0800218c   Section        0  gd32f1x0_adc.o(.text)
    [Anonymous Symbol]                       0x08002734   Section        0  gd32f1x0_dma.o(.text)
    [Anonymous Symbol]                       0x08002aa4   Section        0  gd32f1x0_exti.o(.text)
    [Anonymous Symbol]                       0x08002c14   Section        0  gd32f1x0_fmc.o(.text)
    [Anonymous Symbol]                       0x080035e4   Section        0  gd32f1x0_fwdgt.o(.text)
    [Anonymous Symbol]                       0x080036c8   Section        0  gd32f1x0_gpio.o(.text)
    [Anonymous Symbol]                       0x08003860   Section        0  gd32f1x0_misc.o(.text)
    [Anonymous Symbol]                       0x0800398c   Section        0  gd32f1x0_rcu.o(.text)
    [Anonymous Symbol]                       0x080040b0   Section        0  gd32f1x0_syscfg.o(.text)
    [Anonymous Symbol]                       0x080041b4   Section        0  gd32f1x0_timer.o(.text)
    .text                                    0x08004f04   Section       36  startup_gd32f1x0.o(.text)
    [Anonymous Symbol]                       0x08004f28   Section        0  system_gd32f1x0.o(.text)
    .text                                    0x08005064   Section        0  fadd.o(.text)
    .text                                    0x08005114   Section        0  fmul.o(.text)
    .text                                    0x08005178   Section        0  fdiv.o(.text)
    .text                                    0x080051f4   Section        0  dadd.o(.text)
    .text                                    0x08005342   Section        0  dmul.o(.text)
    .text                                    0x08005426   Section        0  ddiv.o(.text)
    .text                                    0x08005504   Section        0  fcmple.o(.text)
    .text                                    0x08005520   Section        0  fcmplt.o(.text)
    .text                                    0x0800553c   Section        0  fcmpgt.o(.text)
    .text                                    0x08005558   Section        0  dcmple.o(.text)
    .text                                    0x0800558e   Section        0  fflti.o(.text)
    .text                                    0x080055a0   Section        0  ffltui.o(.text)
    .text                                    0x080055aa   Section        0  dflti.o(.text)
    .text                                    0x080055cc   Section        0  dfltui.o(.text)
    .text                                    0x080055e6   Section        0  ffixi.o(.text)
    .text                                    0x08005618   Section        0  ffixl.o(.text)
    .text                                    0x0800565a   Section        0  dfixi.o(.text)
    .text                                    0x08005698   Section        0  f2d.o(.text)
    .text                                    0x080056be   Section        0  d2f.o(.text)
    .text                                    0x080056f6   Section        0  llshl.o(.text)
    .text                                    0x08005714   Section        0  llushr.o(.text)
    .text                                    0x08005734   Section        0  llsshr.o(.text)
    .text                                    0x08005758   Section        0  iusefp.o(.text)
    .text                                    0x08005758   Section        0  fepilogue.o(.text)
    .text                                    0x080057c6   Section        0  depilogue.o(.text)
    .text                                    0x08005880   Section       48  init.o(.text)
    i.__scatterload_copy                     0x080058b0   Section       14  handlers.o(i.__scatterload_copy)
    i.__scatterload_null                     0x080058be   Section        2  handlers.o(i.__scatterload_null)
    i.__scatterload_zeroinit                 0x080058c0   Section       14  handlers.o(i.__scatterload_zeroinit)
    .L__const.up_or_down.up_down             0x080058ce   Data          12  bldc.o(.rodata..L__const.up_or_down.up_down)
    .Lswitch.table.gpio_deinit.1             0x080058da   Data          12  gd32f1x0_gpio.o(.rodata..Lswitch.table.gpio_deinit.1)
    hall_to_sector                           0x080058e6   Data           8  bldcsine.o(.rodata.cst8)
    [Anonymous Symbol]                       0x080058e6   Section        0  bldcsine.o(.rodata.cst8)
    .L__const.rcu_clock_freq_get.apb2_exp    0x080058ee   Data           8  gd32f1x0_rcu.o(.rodata.cst8)
    sine_table                               0x08005bd4   Data         720  bldcsine.o(.rodata.sine_table)
    [Anonymous Symbol]                       0x08005bd4   Section        0  bldcsine.o(.rodata.sine_table)
    TIMER0_BRK_UP_TRG_COM_IRQHandler.interrupt_toggle 0x20000020   Data           1  it.o(.bss.TIMER0_BRK_UP_TRG_COM_IRQHandler.interrupt_toggle)
    [Anonymous Symbol]                       0x20000020   Section        0  it.o(.bss.TIMER0_BRK_UP_TRG_COM_IRQHandler.interrupt_toggle)
    STACK                                    0x200001c0   Section     1024  startup_gd32f1x0.o(STACK)

    Global Symbols

    Symbol Name                              Value     Ov Type        Size  Object(Section)

    BuildAttributes$$THM_ISAv4$P$D$K$B$S$PE$A:L22UL41UL21$X:L11$S22US41US21$IEEE1$IW$~IW$USESV6$~STKCKD$USESV7$~SHL$OTIME$ROPI$EBA8$MICROLIB$REQ8$PRES8$EABIv2 0x00000000   Number         0  anon$$obj.o ABSOLUTE
    __cpp_initialize__aeabi_                  - Undefined Weak Reference
    __cxa_finalize                            - Undefined Weak Reference
    __decompress                              - Undefined Weak Reference
    _clock_init                               - Undefined Weak Reference
    _microlib_exit                            - Undefined Weak Reference
    __Vectors_Size                           0x00000168   Number         0  startup_gd32f1x0.o ABSOLUTE
    __Vectors                                0x08000000   Data           4  startup_gd32f1x0.o(RESET)
    __Vectors_End                            0x08000168   Data           0  startup_gd32f1x0.o(RESET)
    __main                                   0x08000169   Thumb Code     0  entry.o(.ARM.Collect$$$$00000000)
    _main_stk                                0x08000169   Thumb Code     0  entry2.o(.ARM.Collect$$$$00000001)
    _main_scatterload                        0x0800016d   Thumb Code     0  entry5.o(.ARM.Collect$$$$00000004)
    __main_after_scatterload                 0x08000171   Thumb Code     0  entry5.o(.ARM.Collect$$$$00000004)
    _main_clock                              0x08000171   Thumb Code     0  entry7b.o(.ARM.Collect$$$$00000008)
    _main_cpp_init                           0x08000171   Thumb Code     0  entry8b.o(.ARM.Collect$$$$0000000A)
    _main_init                               0x08000171   Thumb Code     0  entry9a.o(.ARM.Collect$$$$0000000B)
    __rt_final_cpp                           0x08000179   Thumb Code     0  entry10a.o(.ARM.Collect$$$$0000000D)
    __rt_final_exit                          0x08000179   Thumb Code     0  entry11a.o(.ARM.Collect$$$$0000000F)
    main                                     0x0800017d   Thumb Code  1934  main.o(.text)
    ShutOff                                  0x0800090d   Thumb Code   128  main.o(.text)
    ShowBatteryState                         0x0800098d   Thumb Code   156  main.o(.text)
    modulo                                   0x08000a29   Thumb Code    22  bldc.o(.text)
    up_or_down                               0x08000a41   Thumb Code    66  bldc.o(.text)
    SetEnable                                0x08000a85   Thumb Code    12  bldc.o(.text)
    SetBldcInput                             0x08000a91   Thumb Code   128  bldc.o(.text)
    SetFilter                                0x08000b11   Thumb Code    44  bldc.o(.text)
    CalculateBLDC                            0x08000b3d   Thumb Code  1534  bldc.o(.text)
    PID_Init                                 0x0800113d   Thumb Code   124  driver.o(.text)
    PID_Update                               0x080011b9   Thumb Code   120  driver.o(.text)
    DriverInit                               0x08001231   Thumb Code   136  driver.o(.text)
    Driver                                   0x080012d1   Thumb Code   174  driver.o(.text)
    InitEXTI                                 0x08001381   Thumb Code    62  bldcsine.o(.text)
    InitBldc                                 0x080013c1   Thumb Code   134  bldcsine.o(.text)
    _HandleEXTI                              0x08001449   Thumb Code   174  bldcsine.o(.text)
    EXTI0_1_IRQHandler                       0x080014f9   Thumb Code     4  bldcsine.o(.text)
    EXTI2_3_IRQHandler                       0x080014fd   Thumb Code     4  bldcsine.o(.text)
    EXTI4_15_IRQHandler                      0x08001501   Thumb Code     4  bldcsine.o(.text)
    bldc_get_pwm                             0x08001505   Thumb Code   544  bldcsine.o(.text)
    pinMode                                  0x08001725   Thumb Code    42  setup.o(.text)
    pinModePull                              0x08001751   Thumb Code    40  setup.o(.text)
    Interrupt_init                           0x08001779   Thumb Code     8  setup.o(.text)
    Watchdog_init                            0x08001781   Thumb Code    56  setup.o(.text)
    TimeoutTimer_init                        0x080017b9   Thumb Code    92  setup.o(.text)
    GPIO_init                                0x08001815   Thumb Code   640  setup.o(.text)
    PWM_init                                 0x08001a95   Thumb Code   388  setup.o(.text)
    ADC_init                                 0x08001c19   Thumb Code   234  setup.o(.text)
    USART0_Init                              0x08001d05   Thumb Code     2  setup.o(.text)
    USART1_Init                              0x08001d09   Thumb Code     2  setup.o(.text)
    USART2_Init                              0x08001d0d   Thumb Code     2  setup.o(.text)
    flashErase                               0x08001d11   Thumb Code    28  setup.o(.text)
    flashRead                                0x08001d2d   Thumb Code     4  setup.o(.text)
    flashWrite                               0x08001d31   Thumb Code    38  setup.o(.text)
    flashWriteBuffer                         0x08001d59   Thumb Code    64  setup.o(.text)
    flashReadBuffer                          0x08001d99   Thumb Code    34  setup.o(.text)
    ConfigReset                              0x08001dbd   Thumb Code    38  setup.o(.text)
    ConfigWrite                              0x08001de5   Thumb Code   112  setup.o(.text)
    ConfigRead                               0x08001e55   Thumb Code   120  setup.o(.text)
    Clock_init                               0x08001ecd   Thumb Code    60  setup.o(.text)
    Clock_test                               0x08001f09   Thumb Code    56  setup.o(.text)
    SysTick_Handler                          0x08001f41   Thumb Code    16  it.o(.text)
    ResetTimeout                             0x08001f51   Thumb Code    14  it.o(.text)
    TIMER13_IRQHandler                       0x08001f61   Thumb Code    76  it.o(.text)
    TIMER0_BRK_UP_TRG_COM_IRQHandler         0x08001fad   Thumb Code   122  it.o(.text)
    DMA_Channel0_IRQHandler                  0x08002029   Thumb Code    92  it.o(.text)
    millis                                   0x08002085   Thumb Code    12  it.o(.text)
    Delay                                    0x08002091   Thumb Code    28  it.o(.text)
    NMI_Handler                              0x080020ad   Thumb Code     2  it.o(.text)
    HardFault_Handler                        0x080020b1   Thumb Code     2  it.o(.text)
    MemManage_Handler                        0x080020b5   Thumb Code     2  it.o(.text)
    BusFault_Handler                         0x080020b9   Thumb Code     2  it.o(.text)
    UsageFault_Handler                       0x080020bd   Thumb Code     2  it.o(.text)
    SVC_Handler                              0x080020c1   Thumb Code     2  it.o(.text)
    DebugMon_Handler                         0x080020c5   Thumb Code     2  it.o(.text)
    PendSV_Handler                           0x080020c9   Thumb Code     2  it.o(.text)
    RemoteUpdate                             0x080020cd   Thumb Code   168  remotedummy.o(.text)
    RemoteCallback                           0x08002185   Thumb Code     2  remotedummy.o(.text)
    RemoteCalculate                          0x08002189   Thumb Code     2  remotedummy.o(.text)
    adc_deinit                               0x0800218d   Thumb Code    22  gd32f1x0_adc.o(.text)
    adc_enable                               0x080021a5   Thumb Code    26  gd32f1x0_adc.o(.text)
    adc_disable                              0x080021c1   Thumb Code    18  gd32f1x0_adc.o(.text)
    adc_calibration_enable                   0x080021d5   Thumb Code    40  gd32f1x0_adc.o(.text)
    adc_dma_mode_enable                      0x080021fd   Thumb Code    18  gd32f1x0_adc.o(.text)
    adc_dma_mode_disable                     0x08002211   Thumb Code    18  gd32f1x0_adc.o(.text)
    adc_tempsensor_vrefint_enable            0x08002225   Thumb Code    18  gd32f1x0_adc.o(.text)
    adc_tempsensor_vrefint_disable           0x08002239   Thumb Code    18  gd32f1x0_adc.o(.text)
    adc_vbat_enable                          0x0800224d   Thumb Code    18  gd32f1x0_adc.o(.text)
    adc_vbat_disable                         0x08002261   Thumb Code    18  gd32f1x0_adc.o(.text)
    adc_discontinuous_mode_config            0x08002275   Thumb Code    68  gd32f1x0_adc.o(.text)
    adc_special_function_config              0x080022b9   Thumb Code   100  gd32f1x0_adc.o(.text)
    adc_data_alignment_config                0x0800231d   Thumb Code    26  gd32f1x0_adc.o(.text)
    adc_channel_length_config                0x08002339   Thumb Code    82  gd32f1x0_adc.o(.text)
    adc_regular_channel_config               0x0800238d   Thumb Code   180  gd32f1x0_adc.o(.text)
    adc_inserted_channel_config              0x08002441   Thumb Code   114  gd32f1x0_adc.o(.text)
    adc_inserted_channel_offset_config       0x080024b5   Thumb Code    32  gd32f1x0_adc.o(.text)
    adc_external_trigger_config              0x080024d5   Thumb Code    72  gd32f1x0_adc.o(.text)
    adc_external_trigger_source_config       0x0800251d   Thumb Code    42  gd32f1x0_adc.o(.text)
    adc_software_trigger_enable              0x08002549   Thumb Code    36  gd32f1x0_adc.o(.text)
    adc_regular_data_read                    0x0800256d   Thumb Code    14  gd32f1x0_adc.o(.text)
    adc_inserted_data_read                   0x0800257d   Thumb Code    74  gd32f1x0_adc.o(.text)
    adc_flag_get                             0x080025c9   Thumb Code    18  gd32f1x0_adc.o(.text)
    adc_flag_clear                           0x080025dd   Thumb Code    18  gd32f1x0_adc.o(.text)
    adc_interrupt_flag_get                   0x080025f1   Thumb Code    56  gd32f1x0_adc.o(.text)
    adc_interrupt_flag_clear                 0x08002629   Thumb Code    18  gd32f1x0_adc.o(.text)
    adc_interrupt_enable                     0x0800263d   Thumb Code    48  gd32f1x0_adc.o(.text)
    adc_interrupt_disable                    0x0800266d   Thumb Code    48  gd32f1x0_adc.o(.text)
    adc_watchdog_single_channel_enable       0x0800269d   Thumb Code    42  gd32f1x0_adc.o(.text)
    adc_watchdog_group_channel_enable        0x080026c9   Thumb Code    48  gd32f1x0_adc.o(.text)
    adc_watchdog_disable                     0x08002705   Thumb Code    24  gd32f1x0_adc.o(.text)
    adc_watchdog_threshold_config            0x0800271d   Thumb Code    22  gd32f1x0_adc.o(.text)
    dma_deinit                               0x08002735   Thumb Code    48  gd32f1x0_dma.o(.text)
    dma_struct_para_init                     0x08002765   Thumb Code    24  gd32f1x0_dma.o(.text)
    dma_init                                 0x0800277d   Thumb Code   122  gd32f1x0_dma.o(.text)
    dma_circulation_enable                   0x080027f9   Thumb Code    24  gd32f1x0_dma.o(.text)
    dma_circulation_disable                  0x08002811   Thumb Code    24  gd32f1x0_dma.o(.text)
    dma_memory_to_memory_enable              0x08002829   Thumb Code    24  gd32f1x0_dma.o(.text)
    dma_memory_to_memory_disable             0x08002841   Thumb Code    24  gd32f1x0_dma.o(.text)
    dma_channel_enable                       0x08002859   Thumb Code    24  gd32f1x0_dma.o(.text)
    dma_channel_disable                      0x08002871   Thumb Code    24  gd32f1x0_dma.o(.text)
    dma_periph_address_config                0x08002889   Thumb Code    16  gd32f1x0_dma.o(.text)
    dma_memory_address_config                0x08002899   Thumb Code    16  gd32f1x0_dma.o(.text)
    dma_transfer_number_config               0x080028a9   Thumb Code    16  gd32f1x0_dma.o(.text)
    dma_transfer_number_get                  0x080028b9   Thumb Code    16  gd32f1x0_dma.o(.text)
    dma_priority_config                      0x080028c9   Thumb Code    26  gd32f1x0_dma.o(.text)
    dma_memory_width_config                  0x080028e5   Thumb Code    26  gd32f1x0_dma.o(.text)
    dma_periph_width_config                  0x08002901   Thumb Code    26  gd32f1x0_dma.o(.text)
    dma_memory_increase_enable               0x0800291d   Thumb Code    24  gd32f1x0_dma.o(.text)
    dma_memory_increase_disable              0x08002935   Thumb Code    24  gd32f1x0_dma.o(.text)
    dma_periph_increase_enable               0x0800294d   Thumb Code    24  gd32f1x0_dma.o(.text)
    dma_periph_increase_disable              0x08002965   Thumb Code    24  gd32f1x0_dma.o(.text)
    dma_transfer_direction_config            0x0800297d   Thumb Code    30  gd32f1x0_dma.o(.text)
    dma_interrupt_flag_get                   0x0800299d   Thumb Code    88  gd32f1x0_dma.o(.text)
    dma_interrupt_flag_clear                 0x08002a35   Thumb Code    20  gd32f1x0_dma.o(.text)
    dma_interrupt_enable                     0x08002a49   Thumb Code    22  gd32f1x0_dma.o(.text)
    dma_interrupt_disable                    0x08002a61   Thumb Code    24  gd32f1x0_dma.o(.text)
    dma_flag_get                             0x08002a79   Thumb Code    22  gd32f1x0_dma.o(.text)
    dma_flag_clear                           0x08002a91   Thumb Code    20  gd32f1x0_dma.o(.text)
    exti_deinit                              0x08002aa5   Thumb Code    26  gd32f1x0_exti.o(.text)
    exti_init                                0x08002ac1   Thumb Code   156  gd32f1x0_exti.o(.text)
    exti_interrupt_enable                    0x08002b5d   Thumb Code    16  gd32f1x0_exti.o(.text)
    exti_event_enable                        0x08002b6d   Thumb Code    16  gd32f1x0_exti.o(.text)
    exti_interrupt_disable                   0x08002b7d   Thumb Code    18  gd32f1x0_exti.o(.text)
    exti_event_disable                       0x08002b91   Thumb Code    18  gd32f1x0_exti.o(.text)
    exti_flag_get                            0x08002ba5   Thumb Code    18  gd32f1x0_exti.o(.text)
    exti_flag_clear                          0x08002bb9   Thumb Code    12  gd32f1x0_exti.o(.text)
    exti_interrupt_flag_get                  0x08002bc5   Thumb Code    32  gd32f1x0_exti.o(.text)
    exti_interrupt_flag_clear                0x08002be5   Thumb Code    12  gd32f1x0_exti.o(.text)
    exti_software_interrupt_enable           0x08002bf1   Thumb Code    16  gd32f1x0_exti.o(.text)
    exti_software_interrupt_disable          0x08002c01   Thumb Code    18  gd32f1x0_exti.o(.text)
    fmc_unlock                               0x08002c15   Thumb Code    38  gd32f1x0_fmc.o(.text)
    fmc_lock                                 0x08002c3d   Thumb Code    18  gd32f1x0_fmc.o(.text)
    fmc_wscnt_set                            0x08002c51   Thumb Code    20  gd32f1x0_fmc.o(.text)
    fmc_wait_state_enable                    0x08002c65   Thumb Code    18  gd32f1x0_fmc.o(.text)
    fmc_wait_state_disable                   0x08002c79   Thumb Code    18  gd32f1x0_fmc.o(.text)
    fmc_page_erase                           0x08002c8d   Thumb Code   158  gd32f1x0_fmc.o(.text)
    fmc_mass_erase                           0x08002d2d   Thumb Code   150  gd32f1x0_fmc.o(.text)
    fmc_word_program                         0x08002dc5   Thumb Code   150  gd32f1x0_fmc.o(.text)
    fmc_halfword_program                     0x08002e5d   Thumb Code   150  gd32f1x0_fmc.o(.text)
    ob_unlock                                0x08002ef5   Thumb Code    38  gd32f1x0_fmc.o(.text)
    ob_lock                                  0x08002f1d   Thumb Code    18  gd32f1x0_fmc.o(.text)
    ob_reset                                 0x08002f31   Thumb Code    18  gd32f1x0_fmc.o(.text)
    ob_erase                                 0x08002f45   Thumb Code   294  gd32f1x0_fmc.o(.text)
    ob_obstat_plevel_get                     0x0800306d   Thumb Code    16  gd32f1x0_fmc.o(.text)
    ob_write_protection_enable               0x0800307d   Thumb Code   312  gd32f1x0_fmc.o(.text)
    ob_security_protection_config            0x080031b5   Thumb Code   304  gd32f1x0_fmc.o(.text)
    ob_user_write                            0x080032e5   Thumb Code   308  gd32f1x0_fmc.o(.text)
    ob_data_program                          0x08003419   Thumb Code   304  gd32f1x0_fmc.o(.text)
    ob_user_get                              0x08003549   Thumb Code    16  gd32f1x0_fmc.o(.text)
    ob_data_get                              0x08003559   Thumb Code    14  gd32f1x0_fmc.o(.text)
    ob_write_protection_get                  0x08003569   Thumb Code    14  gd32f1x0_fmc.o(.text)
    fmc_interrupt_enable                     0x08003579   Thumb Code    16  gd32f1x0_fmc.o(.text)
    fmc_interrupt_disable                    0x08003589   Thumb Code    18  gd32f1x0_fmc.o(.text)
    fmc_flag_get                             0x0800359d   Thumb Code    18  gd32f1x0_fmc.o(.text)
    fmc_flag_clear                           0x080035b1   Thumb Code    16  gd32f1x0_fmc.o(.text)
    fmc_interrupt_flag_get                   0x080035c1   Thumb Code    18  gd32f1x0_fmc.o(.text)
    fmc_interrupt_flag_clear                 0x080035d5   Thumb Code    16  gd32f1x0_fmc.o(.text)
    fwdgt_write_disable                      0x080035e5   Thumb Code    14  gd32f1x0_fwdgt.o(.text)
    fwdgt_counter_reload                     0x080035f5   Thumb Code    16  gd32f1x0_fwdgt.o(.text)
    fwdgt_enable                             0x08003605   Thumb Code    16  gd32f1x0_fwdgt.o(.text)
    fwdgt_window_value_config                0x08003615   Thumb Code    58  gd32f1x0_fwdgt.o(.text)
    fwdgt_config                             0x08003651   Thumb Code   100  gd32f1x0_fwdgt.o(.text)
    fwdgt_flag_get                           0x080036b5   Thumb Code    18  gd32f1x0_fwdgt.o(.text)
    gpio_deinit                              0x080036c9   Thumb Code    58  gd32f1x0_gpio.o(.text)
    gpio_mode_set                            0x08003705   Thumb Code    84  gd32f1x0_gpio.o(.text)
    gpio_output_options_set                  0x08003759   Thumb Code    70  gd32f1x0_gpio.o(.text)
    gpio_bit_set                             0x080037a1   Thumb Code     4  gd32f1x0_gpio.o(.text)
    gpio_bit_reset                           0x080037a5   Thumb Code     4  gd32f1x0_gpio.o(.text)
    gpio_bit_write                           0x080037a9   Thumb Code    12  gd32f1x0_gpio.o(.text)
    gpio_port_write                          0x080037b5   Thumb Code     4  gd32f1x0_gpio.o(.text)
    gpio_input_bit_get                       0x080037b9   Thumb Code    10  gd32f1x0_gpio.o(.text)
    gpio_input_port_get                      0x080037c5   Thumb Code     6  gd32f1x0_gpio.o(.text)
    gpio_output_bit_get                      0x080037cd   Thumb Code    10  gd32f1x0_gpio.o(.text)
    gpio_output_port_get                     0x080037d9   Thumb Code     6  gd32f1x0_gpio.o(.text)
    gpio_af_set                              0x080037e1   Thumb Code   110  gd32f1x0_gpio.o(.text)
    gpio_pin_lock                            0x08003851   Thumb Code    16  gd32f1x0_gpio.o(.text)
    nvic_priority_group_set                  0x08003861   Thumb Code    20  gd32f1x0_misc.o(.text)
    nvic_irq_enable                          0x08003875   Thumb Code   168  gd32f1x0_misc.o(.text)
    nvic_irq_disable                         0x0800391d   Thumb Code    28  gd32f1x0_misc.o(.text)
    nvic_vector_table_set                    0x08003939   Thumb Code    24  gd32f1x0_misc.o(.text)
    system_lowpower_set                      0x08003951   Thumb Code    16  gd32f1x0_misc.o(.text)
    system_lowpower_reset                    0x08003961   Thumb Code    18  gd32f1x0_misc.o(.text)
    systick_clksource_set                    0x08003975   Thumb Code    24  gd32f1x0_misc.o(.text)
    rcu_deinit                               0x0800398d   Thumb Code   112  gd32f1x0_rcu.o(.text)
    rcu_periph_clock_enable                  0x080039fd   Thumb Code    30  gd32f1x0_rcu.o(.text)
    rcu_periph_clock_disable                 0x08003a1d   Thumb Code    32  gd32f1x0_rcu.o(.text)
    rcu_periph_clock_sleep_enable            0x08003a3d   Thumb Code    30  gd32f1x0_rcu.o(.text)
    rcu_periph_clock_sleep_disable           0x08003a5d   Thumb Code    32  gd32f1x0_rcu.o(.text)
    rcu_periph_reset_enable                  0x08003a7d   Thumb Code    30  gd32f1x0_rcu.o(.text)
    rcu_periph_reset_disable                 0x08003a9d   Thumb Code    32  gd32f1x0_rcu.o(.text)
    rcu_bkp_reset_enable                     0x08003abd   Thumb Code    18  gd32f1x0_rcu.o(.text)
    rcu_bkp_reset_disable                    0x08003ad1   Thumb Code    18  gd32f1x0_rcu.o(.text)
    rcu_system_clock_source_config           0x08003ae5   Thumb Code    20  gd32f1x0_rcu.o(.text)
    rcu_system_clock_source_get              0x08003af9   Thumb Code    16  gd32f1x0_rcu.o(.text)
    rcu_ahb_clock_config                     0x08003b09   Thumb Code    20  gd32f1x0_rcu.o(.text)
    rcu_apb1_clock_config                    0x08003b1d   Thumb Code    20  gd32f1x0_rcu.o(.text)
    rcu_apb2_clock_config                    0x08003b31   Thumb Code    20  gd32f1x0_rcu.o(.text)
    rcu_adc_clock_config                     0x08003b45   Thumb Code    88  gd32f1x0_rcu.o(.text)
    rcu_usbd_clock_config                    0x08003b9d   Thumb Code    24  gd32f1x0_rcu.o(.text)
    rcu_ckout_config                         0x08003bb5   Thumb Code    22  gd32f1x0_rcu.o(.text)
    rcu_pll_config                           0x08003bcd   Thumb Code    40  gd32f1x0_rcu.o(.text)
    rcu_usart_clock_config                   0x08003bf5   Thumb Code    24  gd32f1x0_rcu.o(.text)
    rcu_cec_clock_config                     0x08003c0d   Thumb Code    24  gd32f1x0_rcu.o(.text)
    rcu_rtc_clock_config                     0x08003c25   Thumb Code    24  gd32f1x0_rcu.o(.text)
    rcu_hxtal_prediv_config                  0x08003c3d   Thumb Code    20  gd32f1x0_rcu.o(.text)
    rcu_lxtal_drive_capability_config        0x08003c51   Thumb Code    24  gd32f1x0_rcu.o(.text)
    rcu_flag_get                             0x08003c69   Thumb Code    26  gd32f1x0_rcu.o(.text)
    rcu_all_reset_flag_clear                 0x08003c85   Thumb Code    18  gd32f1x0_rcu.o(.text)
    rcu_interrupt_flag_get                   0x08003c99   Thumb Code    18  gd32f1x0_rcu.o(.text)
    rcu_interrupt_flag_clear                 0x08003cad   Thumb Code    16  gd32f1x0_rcu.o(.text)
    rcu_interrupt_enable                     0x08003cbd   Thumb Code    16  gd32f1x0_rcu.o(.text)
    rcu_interrupt_disable                    0x08003ccd   Thumb Code    18  gd32f1x0_rcu.o(.text)
    rcu_osci_stab_wait                       0x08003ce1   Thumb Code   312  gd32f1x0_rcu.o(.text)
    rcu_osci_on                              0x08003e19   Thumb Code    30  gd32f1x0_rcu.o(.text)
    rcu_osci_off                             0x08003e39   Thumb Code    32  gd32f1x0_rcu.o(.text)
    rcu_osci_bypass_mode_enable              0x08003e59   Thumb Code    64  gd32f1x0_rcu.o(.text)
    rcu_osci_bypass_mode_disable             0x08003e99   Thumb Code    64  gd32f1x0_rcu.o(.text)
    rcu_hxtal_clock_monitor_enable           0x08003ed9   Thumb Code    18  gd32f1x0_rcu.o(.text)
    rcu_hxtal_clock_monitor_disable          0x08003eed   Thumb Code    18  gd32f1x0_rcu.o(.text)
    rcu_irc8m_adjust_value_set               0x08003f01   Thumb Code    22  gd32f1x0_rcu.o(.text)
    rcu_irc14m_adjust_value_set              0x08003f19   Thumb Code    22  gd32f1x0_rcu.o(.text)
    rcu_voltage_key_unlock                   0x08003f31   Thumb Code    30  gd32f1x0_rcu.o(.text)
    rcu_deepsleep_voltage_set                0x08003f51   Thumb Code    24  gd32f1x0_rcu.o(.text)
    rcu_power_down_voltage_set               0x08003f69   Thumb Code    24  gd32f1x0_rcu.o(.text)
    rcu_clock_freq_get                       0x08003f81   Thumb Code   288  gd32f1x0_rcu.o(.text)
    syscfg_deinit                            0x080040b1   Thumb Code    22  gd32f1x0_syscfg.o(.text)
    syscfg_dma_remap_enable                  0x080040c9   Thumb Code    14  gd32f1x0_syscfg.o(.text)
    syscfg_dma_remap_disable                 0x080040d9   Thumb Code    16  gd32f1x0_syscfg.o(.text)
    syscfg_high_current_enable               0x080040e9   Thumb Code    16  gd32f1x0_syscfg.o(.text)
    syscfg_high_current_disable              0x080040f9   Thumb Code    16  gd32f1x0_syscfg.o(.text)
    syscfg_exti_line_config                  0x08004109   Thumb Code   124  gd32f1x0_syscfg.o(.text)
    syscfg_lock_config                       0x08004185   Thumb Code    14  gd32f1x0_syscfg.o(.text)
    syscfg_flag_get                          0x08004195   Thumb Code    16  gd32f1x0_syscfg.o(.text)
    syscfg_flag_clear                        0x080041a5   Thumb Code    14  gd32f1x0_syscfg.o(.text)
    timer_deinit                             0x080041b5   Thumb Code   194  gd32f1x0_timer.o(.text)
    timer_struct_para_init                   0x08004279   Thumb Code    16  gd32f1x0_timer.o(.text)
    timer_init                               0x08004289   Thumb Code   216  gd32f1x0_timer.o(.text)
    timer_enable                             0x08004361   Thumb Code    10  gd32f1x0_timer.o(.text)
    timer_disable                            0x0800436d   Thumb Code    10  gd32f1x0_timer.o(.text)
    timer_auto_reload_shadow_enable          0x08004379   Thumb Code    10  gd32f1x0_timer.o(.text)
    timer_auto_reload_shadow_disable         0x08004385   Thumb Code    10  gd32f1x0_timer.o(.text)
    timer_update_event_enable                0x08004391   Thumb Code    10  gd32f1x0_timer.o(.text)
    timer_update_event_disable               0x0800439d   Thumb Code    10  gd32f1x0_timer.o(.text)
    timer_counter_alignment                  0x080043a9   Thumb Code    16  gd32f1x0_timer.o(.text)
    timer_counter_up_direction               0x080043b9   Thumb Code    10  gd32f1x0_timer.o(.text)
    timer_counter_down_direction             0x080043c5   Thumb Code    10  gd32f1x0_timer.o(.text)
    timer_prescaler_config                   0x080043d1   Thumb Code    18  gd32f1x0_timer.o(.text)
    timer_repetition_value_config            0x080043e5   Thumb Code     4  gd32f1x0_timer.o(.text)
    timer_autoreload_value_config            0x080043e9   Thumb Code     4  gd32f1x0_timer.o(.text)
    timer_counter_value_config               0x080043ed   Thumb Code     4  gd32f1x0_timer.o(.text)
    timer_counter_read                       0x080043f1   Thumb Code     4  gd32f1x0_timer.o(.text)
    timer_prescaler_read                     0x080043f5   Thumb Code     6  gd32f1x0_timer.o(.text)
    timer_single_pulse_mode_config           0x080043fd   Thumb Code    30  gd32f1x0_timer.o(.text)
    timer_update_source_config               0x0800441d   Thumb Code    30  gd32f1x0_timer.o(.text)
    timer_ocpre_clear_source_config          0x0800443d   Thumb Code    28  gd32f1x0_timer.o(.text)
    timer_interrupt_enable                   0x08004459   Thumb Code     8  gd32f1x0_timer.o(.text)
    timer_interrupt_disable                  0x08004461   Thumb Code    10  gd32f1x0_timer.o(.text)
    timer_interrupt_flag_get                 0x0800446d   Thumb Code    22  gd32f1x0_timer.o(.text)
    timer_interrupt_flag_clear               0x08004485   Thumb Code     6  gd32f1x0_timer.o(.text)
    timer_flag_get                           0x0800448d   Thumb Code    10  gd32f1x0_timer.o(.text)
    timer_flag_clear                         0x08004499   Thumb Code     6  gd32f1x0_timer.o(.text)
    timer_dma_enable                         0x080044a1   Thumb Code     8  gd32f1x0_timer.o(.text)
    timer_dma_disable                        0x080044a9   Thumb Code    10  gd32f1x0_timer.o(.text)
    timer_channel_dma_request_source_select  0x080044b5   Thumb Code    30  gd32f1x0_timer.o(.text)
    timer_dma_transfer_config                0x080044d5   Thumb Code    24  gd32f1x0_timer.o(.text)
    timer_event_software_generate            0x080044ed   Thumb Code     8  gd32f1x0_timer.o(.text)
    timer_break_struct_para_init             0x080044f5   Thumb Code    16  gd32f1x0_timer.o(.text)
    timer_break_config                       0x08004505   Thumb Code    36  gd32f1x0_timer.o(.text)
    timer_break_enable                       0x08004529   Thumb Code    10  gd32f1x0_timer.o(.text)
    timer_break_disable                      0x08004535   Thumb Code    10  gd32f1x0_timer.o(.text)
    timer_automatic_output_enable            0x08004541   Thumb Code    10  gd32f1x0_timer.o(.text)
    timer_automatic_output_disable           0x0800454d   Thumb Code    10  gd32f1x0_timer.o(.text)
    timer_primary_output_config              0x08004559   Thumb Code    18  gd32f1x0_timer.o(.text)
    timer_channel_control_shadow_config      0x0800456d   Thumb Code    16  gd32f1x0_timer.o(.text)
    timer_channel_control_shadow_update_config 0x0800457d   Thumb Code    30  gd32f1x0_timer.o(.text)
    timer_channel_output_struct_para_init    0x0800459d   Thumb Code    12  gd32f1x0_timer.o(.text)
    timer_channel_output_config              0x080045a9   Thumb Code   562  gd32f1x0_timer.o(.text)
    timer_channel_output_mode_config         0x080047dd   Thumb Code    56  gd32f1x0_timer.o(.text)
    timer_channel_output_pulse_value_config  0x08004815   Thumb Code    16  gd32f1x0_timer.o(.text)
    timer_channel_output_shadow_config       0x08004825   Thumb Code    56  gd32f1x0_timer.o(.text)
    timer_channel_output_fast_config         0x0800485d   Thumb Code    56  gd32f1x0_timer.o(.text)
    timer_channel_output_clear_config        0x08004895   Thumb Code    56  gd32f1x0_timer.o(.text)
    timer_channel_output_polarity_config     0x080048cd   Thumb Code    68  gd32f1x0_timer.o(.text)
    timer_channel_complementary_output_polarity_config 0x08004911   Thumb Code    68  gd32f1x0_timer.o(.text)
    timer_channel_output_state_config        0x08004955   Thumb Code    68  gd32f1x0_timer.o(.text)
    timer_channel_complementary_output_state_config 0x08004999   Thumb Code    56  gd32f1x0_timer.o(.text)
    timer_channel_input_struct_para_init     0x080049d1   Thumb Code    12  gd32f1x0_timer.o(.text)
    timer_input_capture_config               0x080049dd   Thumb Code   350  gd32f1x0_timer.o(.text)
    timer_channel_input_capture_prescaler_config 0x08004b3d   Thumb Code    56  gd32f1x0_timer.o(.text)
    timer_channel_capture_value_register_read 0x08004b75   Thumb Code    18  gd32f1x0_timer.o(.text)
    timer_input_pwm_capture_config           0x08004b89   Thumb Code   354  gd32f1x0_timer.o(.text)
    timer_hall_mode_config                   0x08004ced   Thumb Code    30  gd32f1x0_timer.o(.text)
    timer_input_trigger_source_select        0x08004d0d   Thumb Code    16  gd32f1x0_timer.o(.text)
    timer_master_output_trigger_source_select 0x08004d1d   Thumb Code    16  gd32f1x0_timer.o(.text)
    timer_slave_mode_select                  0x08004d2d   Thumb Code    16  gd32f1x0_timer.o(.text)
    timer_master_slave_mode_config           0x08004d3d   Thumb Code    30  gd32f1x0_timer.o(.text)
    timer_external_trigger_config            0x08004d5d   Thumb Code    34  gd32f1x0_timer.o(.text)
    timer_quadrature_decoder_mode_config     0x08004d81   Thumb Code    78  gd32f1x0_timer.o(.text)
    timer_internal_clock_config              0x08004dd1   Thumb Code    10  gd32f1x0_timer.o(.text)
    timer_internal_trigger_as_external_clock_config 0x08004ddd   Thumb Code    32  gd32f1x0_timer.o(.text)
    timer_external_trigger_as_external_clock_config 0x08004dfd   Thumb Code   152  gd32f1x0_timer.o(.text)
    timer_external_clock_mode0_config        0x08004e95   Thumb Code    50  gd32f1x0_timer.o(.text)
    timer_external_clock_mode1_config        0x08004ec9   Thumb Code    42  gd32f1x0_timer.o(.text)
    timer_external_clock_mode1_disable       0x08004ef5   Thumb Code    10  gd32f1x0_timer.o(.text)
    timer_channel_remap_config               0x08004f01   Thumb Code     4  gd32f1x0_timer.o(.text)
    Reset_Handler                            0x08004f05   Thumb Code     8  startup_gd32f1x0.o(.text)
    ADC_CMP_IRQHandler                       0x08004f1f   Thumb Code     0  startup_gd32f1x0.o(.text)
    CAN0_RX0_IRQHandler                      0x08004f1f   Thumb Code     0  startup_gd32f1x0.o(.text)
    CAN0_RX1_IRQHandler                      0x08004f1f   Thumb Code     0  startup_gd32f1x0.o(.text)
    CAN0_SCE_IRQHandler                      0x08004f1f   Thumb Code     0  startup_gd32f1x0.o(.text)
    CAN0_TX_IRQHandler                       0x08004f1f   Thumb Code     0  startup_gd32f1x0.o(.text)
    CAN1_RX0_IRQHandler                      0x08004f1f   Thumb Code     0  startup_gd32f1x0.o(.text)
    CAN1_RX1_IRQHandler                      0x08004f1f   Thumb Code     0  startup_gd32f1x0.o(.text)
    CAN1_SCE_IRQHandler                      0x08004f1f   Thumb Code     0  startup_gd32f1x0.o(.text)
    CAN1_TX_IRQHandler                       0x08004f1f   Thumb Code     0  startup_gd32f1x0.o(.text)
    CEC_IRQHandler                           0x08004f1f   Thumb Code     0  startup_gd32f1x0.o(.text)
    DMA_Channel1_2_IRQHandler                0x08004f1f   Thumb Code     0  startup_gd32f1x0.o(.text)
    DMA_Channel3_4_IRQHandler                0x08004f1f   Thumb Code     0  startup_gd32f1x0.o(.text)
    DMA_Channel5_6_IRQHandler                0x08004f1f   Thumb Code     0  startup_gd32f1x0.o(.text)
    FMC_IRQHandler                           0x08004f1f   Thumb Code     0  startup_gd32f1x0.o(.text)
    I2C0_ER_IRQHandler                       0x08004f1f   Thumb Code     0  startup_gd32f1x0.o(.text)
    I2C0_EV_IRQHandler                       0x08004f1f   Thumb Code     0  startup_gd32f1x0.o(.text)
    I2C1_ER_IRQHandler                       0x08004f1f   Thumb Code     0  startup_gd32f1x0.o(.text)
    I2C1_EV_IRQHandler                       0x08004f1f   Thumb Code     0  startup_gd32f1x0.o(.text)
    I2C2_ER_IRQHandler                       0x08004f1f   Thumb Code     0  startup_gd32f1x0.o(.text)
    I2C2_EV_IRQHandler                       0x08004f1f   Thumb Code     0  startup_gd32f1x0.o(.text)
    LVD_IRQHandler                           0x08004f1f   Thumb Code     0  startup_gd32f1x0.o(.text)
    RCU_IRQHandler                           0x08004f1f   Thumb Code     0  startup_gd32f1x0.o(.text)
    RTC_IRQHandler                           0x08004f1f   Thumb Code     0  startup_gd32f1x0.o(.text)
    SLCD_IRQHandler                          0x08004f1f   Thumb Code     0  startup_gd32f1x0.o(.text)
    SPI0_IRQHandler                          0x08004f1f   Thumb Code     0  startup_gd32f1x0.o(.text)
    SPI1_IRQHandler                          0x08004f1f   Thumb Code     0  startup_gd32f1x0.o(.text)
    SPI2_IRQHandler                          0x08004f1f   Thumb Code     0  startup_gd32f1x0.o(.text)
    TIMER0_Channel_IRQHandler                0x08004f1f   Thumb Code     0  startup_gd32f1x0.o(.text)
    TIMER14_IRQHandler                       0x08004f1f   Thumb Code     0  startup_gd32f1x0.o(.text)
    TIMER15_IRQHandler                       0x08004f1f   Thumb Code     0  startup_gd32f1x0.o(.text)
    TIMER16_IRQHandler                       0x08004f1f   Thumb Code     0  startup_gd32f1x0.o(.text)
    TIMER1_IRQHandler                        0x08004f1f   Thumb Code     0  startup_gd32f1x0.o(.text)
    TIMER2_IRQHandler                        0x08004f1f   Thumb Code     0  startup_gd32f1x0.o(.text)
    TIMER5_DAC_IRQHandler                    0x08004f1f   Thumb Code     0  startup_gd32f1x0.o(.text)
    TSI_IRQHandler                           0x08004f1f   Thumb Code     0  startup_gd32f1x0.o(.text)
    USART0_IRQHandler                        0x08004f1f   Thumb Code     0  startup_gd32f1x0.o(.text)
    USART1_IRQHandler                        0x08004f1f   Thumb Code     0  startup_gd32f1x0.o(.text)
    USBDWakeUp_IRQHandler                    0x08004f1f   Thumb Code     0  startup_gd32f1x0.o(.text)
    USBD_HP_IRQHandler                       0x08004f1f   Thumb Code     0  startup_gd32f1x0.o(.text)
    USBD_LP_IRQHandler                       0x08004f1f   Thumb Code     0  startup_gd32f1x0.o(.text)
    WWDGT_IRQHandler                         0x08004f1f   Thumb Code     0  startup_gd32f1x0.o(.text)
    SystemInit                               0x08004f29   Thumb Code   188  system_gd32f1x0.o(.text)
    SystemCoreClockUpdate                    0x08004fe5   Thumb Code   112  system_gd32f1x0.o(.text)
    __aeabi_fadd                             0x08005065   Thumb Code   164  fadd.o(.text)
    __aeabi_fsub                             0x08005109   Thumb Code     6  fadd.o(.text)
    __aeabi_frsub                            0x0800510f   Thumb Code     6  fadd.o(.text)
    __aeabi_fmul                             0x08005115   Thumb Code   100  fmul.o(.text)
    __aeabi_fdiv                             0x08005179   Thumb Code   124  fdiv.o(.text)
    __aeabi_dadd                             0x080051f5   Thumb Code   322  dadd.o(.text)
    __aeabi_dsub                             0x08005337   Thumb Code     6  dadd.o(.text)
    __aeabi_drsub                            0x0800533d   Thumb Code     6  dadd.o(.text)
    __aeabi_dmul                             0x08005343   Thumb Code   228  dmul.o(.text)
    __aeabi_ddiv                             0x08005427   Thumb Code   222  ddiv.o(.text)
    __aeabi_fcmple                           0x08005505   Thumb Code    28  fcmple.o(.text)
    __aeabi_fcmplt                           0x08005521   Thumb Code    28  fcmplt.o(.text)
    __aeabi_fcmpgt                           0x0800553d   Thumb Code    28  fcmpgt.o(.text)
    __aeabi_dcmple                           0x08005559   Thumb Code    54  dcmple.o(.text)
    __aeabi_i2f                              0x0800558f   Thumb Code    18  fflti.o(.text)
    __aeabi_ui2f                             0x080055a1   Thumb Code    10  ffltui.o(.text)
    __aeabi_i2d                              0x080055ab   Thumb Code    34  dflti.o(.text)
    __aeabi_ui2d                             0x080055cd   Thumb Code    26  dfltui.o(.text)
    __aeabi_f2iz                             0x080055e7   Thumb Code    50  ffixi.o(.text)
    __aeabi_f2lz                             0x08005619   Thumb Code    66  ffixl.o(.text)
    __aeabi_d2iz                             0x0800565b   Thumb Code    62  dfixi.o(.text)
    __aeabi_f2d                              0x08005699   Thumb Code    38  f2d.o(.text)
    __aeabi_d2f                              0x080056bf   Thumb Code    56  d2f.o(.text)
    __aeabi_llsl                             0x080056f7   Thumb Code    30  llshl.o(.text)
    _ll_shift_l                              0x080056f7   Thumb Code     0  llshl.o(.text)
    __aeabi_llsr                             0x08005715   Thumb Code    32  llushr.o(.text)
    _ll_ushift_r                             0x08005715   Thumb Code     0  llushr.o(.text)
    __aeabi_lasr                             0x08005735   Thumb Code    36  llsshr.o(.text)
    _ll_sshift_r                             0x08005735   Thumb Code     0  llsshr.o(.text)
    __I$use$fp                               0x08005759   Thumb Code     0  iusefp.o(.text)
    _float_round                             0x08005759   Thumb Code    18  fepilogue.o(.text)
    _float_epilogue                          0x0800576b   Thumb Code    92  fepilogue.o(.text)
    _double_round                            0x080057c7   Thumb Code    30  depilogue.o(.text)
    _double_epilogue                         0x080057e5   Thumb Code   156  depilogue.o(.text)
    __scatterload                            0x08005881   Thumb Code    38  init.o(.text)
    __scatterload_rt2                        0x08005881   Thumb Code     0  init.o(.text)
    __scatterload_copy                       0x080058b1   Thumb Code    14  handlers.o(i.__scatterload_copy)
    __scatterload_null                       0x080058bf   Thumb Code     2  handlers.o(i.__scatterload_null)
    __scatterload_zeroinit                   0x080058c1   Thumb Code    14  handlers.o(i.__scatterload_zeroinit)
    hall_to_pos                              0x080058f6   Data           8  bldc.o(.rodata.hall_to_pos)
    lookUpTableAngle                         0x08005900   Data         724  main.o(.rodata.lookUpTableAngle)
    Region$$Table$$Base                      0x08005ea4   Number         0  anon$$obj.o(Region$$Table)
    Region$$Table$$Limit                     0x08005ec4   Number         0  anon$$obj.o(Region$$Table)
    SystemCoreClock                          0x20000000   Data           4  system_gd32f1x0.o(.data.SystemCoreClock)
    batteryVoltage                           0x20000004   Data           4  bldc.o(.data.batteryVoltage)
    beepsBackwards                           0x20000008   Data           1  main.o(.data.beepsBackwards)
    currentDC                                0x2000000c   Data           4  bldc.o(.data.currentDC)
    iDrivingMode                             0x20000010   Data           1  main.o(.data.iDrivingMode)
    iFILTER_SHIFT                            0x20000011   Data           1  bldc.o(.data.iFILTER_SHIFT)
    offsetdc                                 0x20000012   Data           2  bldc.o(.data.offsetdc)
    revs32ScaleSlow                          0x20000014   Data           4  bldc.o(.data.revs32ScaleSlow)
    speedLimit                               0x20000018   Data           2  main.o(.data.speedLimit)
    wState                                   0x2000001a   Data           1  main.o(.data.wState)
    aHallEXTI                                0x20000024   Data          12  bldcsine.o(.bss.aHallEXTI)
    adc_buffer                               0x20000030   Data           4  bldc.o(.bss.adc_buffer)
    angle_deg                                0x20000034   Data           2  bldcsine.o(.bss.angle_deg)
    angle_deg_add                            0x20000036   Data           2  bldcsine.o(.bss.angle_deg_add)
    angle_deg_final                          0x20000038   Data           2  bldcsine.o(.bss.angle_deg_final)
    angle_idx                                0x2000003a   Data           2  bldcsine.o(.bss.angle_idx)
    bInterrupt                               0x2000003c   Data           1  bldcsine.o(.bss.bInterrupt)
    bPilotTimeout                            0x2000003d   Data           1  main.o(.bss.bPilotTimeout)
    bRemoteTimeout                           0x2000003e   Data           1  main.o(.bss.bRemoteTimeout)
    bldc_enable                              0x2000003f   Data           1  bldc.o(.bss.bldc_enable)
    bldc_inputFilterPwm                      0x20000040   Data           4  bldc.o(.bss.bldc_inputFilterPwm)
    bldc_outputFilterPwm                     0x20000044   Data           4  bldc.o(.bss.bldc_outputFilterPwm)
    buzzerFreq                               0x20000048   Data           1  bldc.o(.bss.buzzerFreq)
    buzzerPattern                            0x20000049   Data           1  bldc.o(.bss.buzzerPattern)
    buzzerTimer                              0x2000004a   Data           2  bldc.o(.bss.buzzerTimer)
    buzzerToggle                             0x2000004c   Data           1  bldc.o(.bss.buzzerToggle)
    dev_id                                   0x20000050   Data           4  setup.o(.bss.dev_id)
    dma_init_struct_adc                      0x20000054   Data          36  setup.o(.bss.dma_init_struct_adc)
    enable                                   0x20000078   Data           1  main.o(.bss.enable)
    filter_reg                               0x2000007c   Data           4  bldc.o(.bss.filter_reg)
    hall                                     0x20000080   Data           1  bldc.o(.bss.hall)
    hall_a                                   0x20000081   Data           1  bldc.o(.bss.hall_a)
    hall_b                                   0x20000082   Data           1  bldc.o(.bss.hall_b)
    hall_c                                   0x20000083   Data           1  bldc.o(.bss.hall_c)
    hall_last                                0x20000084   Data           1  bldcsine.o(.bss.hall_last)
    hall_time_last                           0x20000086   Data           2  bldcsine.o(.bss.hall_time_last)
    hall_time_step                           0x20000088   Data           2  bldcsine.o(.bss.hall_time_step)
    hall_time_step_LP                        0x2000008c   Data           4  bldcsine.o(.bss.hall_time_step_LP)
    hall_time_step_LPR                       0x20000090   Data           4  bldcsine.o(.bss.hall_time_step_LPR)
    iAdcCounter                              0x20000094   Data           4  it.o(.bss.iAdcCounter)
    iAdcRate                                 0x20000098   Data           4  it.o(.bss.iAdcRate)
    iAdcTime                                 0x2000009c   Data           4  it.o(.bss.iAdcTime)
    iAdd                                     0x200000a0   Data           2  bldcsine.o(.bss.iAdd)
    iBldcInput                               0x200000a4   Data           4  bldc.o(.bss.iBldcInput)
    iBug                                     0x200000a8   Data           4  main.o(.bss.iBug)
    iBuzzCounter                             0x200000ac   Data           4  bldc.o(.bss.iBuzzCounter)
    iBuzzRate                                0x200000b0   Data           4  bldc.o(.bss.iBuzzRate)
    iBuzzTime                                0x200000b4   Data           4  bldc.o(.bss.iBuzzTime)
    iDT                                      0x200000b8   Data           2  bldcsine.o(.bss.iDT)
    iDrivingModeOverride                     0x200000ba   Data           1  bldc.o(.bss.iDrivingModeOverride)
    iOdom                                    0x200000bc   Data           4  bldc.o(.bss.iOdom)
    iOdomLast                                0x200000c0   Data           4  bldc.o(.bss.iOdomLast)
    iPwmCounter                              0x200000c4   Data           4  it.o(.bss.iPwmCounter)
    iPwmRate                                 0x200000c8   Data           4  it.o(.bss.iPwmRate)
    iPwmTime                                 0x200000cc   Data           4  it.o(.bss.iPwmTime)
    iTestClock                               0x200000d0   Data           4  setup.o(.bss.iTestClock)
    iTimeNextLoop                            0x200000d4   Data           4  main.o(.bss.iTimeNextLoop)
    inactivity_timeout_counter               0x200000d8   Data           4  main.o(.bss.inactivity_timeout_counter)
    lastPos                                  0x200000dc   Data           1  bldc.o(.bss.lastPos)
    msTicks                                  0x200000e0   Data           4  it.o(.bss.msTicks)
    oConfig                                  0x200000e4   Data          20  setup.o(.bss.oConfig)
    offsetcount                              0x200000f8   Data           2  bldc.o(.bss.offsetcount)
    pid                                      0x20000100   Data          40  driver.o(.bss.pid)
    pll_mul                                  0x20000128   Data           4  setup.o(.bss.pll_mul)
    pos                                      0x2000012c   Data           1  bldc.o(.bss.pos)
    pwmGo                                    0x20000130   Data           4  bldcsine.o(.bss.pwmGo)
    pwmSlave                                 0x20000134   Data           2  main.o(.bss.pwmSlave)
    realSpeed                                0x20000138   Data           4  bldc.o(.bss.realSpeed)
    realSpeed32_reg                          0x2000013c   Data           4  bldc.o(.bss.realSpeed32_reg)
    revs32                                   0x20000140   Data           4  bldc.o(.bss.revs32)
    revs32_reg                               0x20000144   Data           4  bldc.o(.bss.revs32_reg)
    sector                                   0x20000148   Data           1  bldcsine.o(.bss.sector)
    sector10x                                0x20000149   Data           1  bldcsine.o(.bss.sector10x)
    sectorChange                             0x2000014a   Data           1  bldcsine.o(.bss.sectorChange)
    speed                                    0x2000014c   Data           4  main.o(.bss.speed)
    speedCounter                             0x20000150   Data           4  bldc.o(.bss.speedCounter)
    speedCounterSlow                         0x20000154   Data           4  bldc.o(.bss.speedCounterSlow)
    speedCounterSlowLog                      0x20000158   Data           4  bldc.o(.bss.speedCounterSlowLog)
    speedShutoff                             0x2000015c   Data           4  main.o(.bss.speedShutoff)
    steer                                    0x20000160   Data           4  main.o(.bss.steer)
    steerCounter                             0x20000164   Data           4  main.o(.bss.steerCounter)
    timedOut                                 0x20000168   Data           1  it.o(.bss.timedOut)
    timeoutCounter_ms                        0x2000016c   Data           4  it.o(.bss.timeoutCounter_ms)
    timeoutTimer_paramter_struct             0x20000170   Data          16  setup.o(.bss.timeoutTimer_paramter_struct)
    timerBldc_break_parameter_struct         0x20000180   Data          24  setup.o(.bss.timerBldc_break_parameter_struct)
    timerBldc_oc_parameter_struct            0x20000198   Data          16  setup.o(.bss.timerBldc_oc_parameter_struct)
    timerBldc_paramter_struct                0x200001a8   Data          16  setup.o(.bss.timerBldc_paramter_struct)
    torque32                                 0x200001b8   Data           4  bldc.o(.bss.torque32)
    torque32_reg                             0x200001bc   Data           4  bldc.o(.bss.torque32_reg)
    __initial_sp                             0x200005c0   Data           0  startup_gd32f1x0.o(STACK)



==============================================================================

Memory Map of the image

  Image Entry point : 0x08000169

  Load Region LR_IROM1 (Base: 0x08000000, Size: 0x00005ee8, Max: 0x00010000, ABSOLUTE)

    Execution Region ER_IROM1 (Exec base: 0x08000000, Load base: 0x08000000, Size: 0x00005ec4, Max: 0x00010000, ABSOLUTE)

    Exec Addr    Load Addr    Size         Type   Attr      Idx    E Section Name        Object

    0x08000000   0x08000000   0x00000168   Data   RO          359    RESET               startup_gd32f1x0.o
    0x08000168   0x08000168   0x00000000   Code   RO          376  * .ARM.Collect$$$$00000000  mc_w.l(entry.o)
    0x08000168   0x08000168   0x00000004   Code   RO          425    .ARM.Collect$$$$00000001  mc_w.l(entry2.o)
    0x0800016c   0x0800016c   0x00000004   Code   RO          428    .ARM.Collect$$$$00000004  mc_w.l(entry5.o)
    0x08000170   0x08000170   0x00000000   Code   RO          430    .ARM.Collect$$$$00000008  mc_w.l(entry7b.o)
    0x08000170   0x08000170   0x00000000   Code   RO          432    .ARM.Collect$$$$0000000A  mc_w.l(entry8b.o)
    0x08000170   0x08000170   0x00000008   Code   RO          433    .ARM.Collect$$$$0000000B  mc_w.l(entry9a.o)
    0x08000178   0x08000178   0x00000000   Code   RO          435    .ARM.Collect$$$$0000000D  mc_w.l(entry10a.o)
    0x08000178   0x08000178   0x00000000   Code   RO          437    .ARM.Collect$$$$0000000F  mc_w.l(entry11a.o)
    0x08000178   0x08000178   0x00000004   Code   RO          426    .ARM.Collect$$$$00002712  mc_w.l(entry2.o)
    0x0800017c   0x0800017c   0x000008ac   Code   RO            1    .text               main.o
    0x08000a28   0x08000a28   0x00000712   Code   RO           31    .text               bldc.o
    0x0800113a   0x0800113a   0x00000002   PAD
    0x0800113c   0x0800113c   0x00000242   Code   RO           82    .text               driver.o
    0x0800137e   0x0800137e   0x00000002   PAD
    0x08001380   0x08001380   0x000003a4   Code   RO           92    .text               bldcsine.o
    0x08001724   0x08001724   0x0000081c   Code   RO          122    .text               setup.o
    0x08001f40   0x08001f40   0x0000018a   Code   RO          144    .text               it.o
    0x080020ca   0x080020ca   0x00000002   PAD
    0x080020cc   0x080020cc   0x000000be   Code   RO          183    .text               remotedummy.o
    0x0800218a   0x0800218a   0x00000002   PAD
    0x0800218c   0x0800218c   0x000005a6   Code   RO          228    .text               gd32f1x0_adc.o
    0x08002732   0x08002732   0x00000002   PAD
    0x08002734   0x08002734   0x00000370   Code   RO          244    .text               gd32f1x0_dma.o
    0x08002aa4   0x08002aa4   0x0000016e   Code   RO          252    .text               gd32f1x0_exti.o
    0x08002c12   0x08002c12   0x00000002   PAD
    0x08002c14   0x08002c14   0x000009d0   Code   RO          260    .text               gd32f1x0_fmc.o
    0x080035e4   0x080035e4   0x000000e2   Code   RO          269    .text               gd32f1x0_fwdgt.o
    0x080036c6   0x080036c6   0x00000002   PAD
    0x080036c8   0x080036c8   0x00000198   Code   RO          277    .text               gd32f1x0_gpio.o
    0x08003860   0x08003860   0x0000012c   Code   RO          294    .text               gd32f1x0_misc.o
    0x0800398c   0x0800398c   0x00000724   Code   RO          315    .text               gd32f1x0_rcu.o
    0x080040b0   0x080040b0   0x00000102   Code   RO          324    .text               gd32f1x0_syscfg.o
    0x080041b2   0x080041b2   0x00000002   PAD
    0x080041b4   0x080041b4   0x00000d50   Code   RO          332    .text               gd32f1x0_timer.o
    0x08004f04   0x08004f04   0x00000024   Code   RO          360    .text               startup_gd32f1x0.o
    0x08004f28   0x08004f28   0x0000013c   Code   RO          366    .text               system_gd32f1x0.o
    0x08005064   0x08005064   0x000000b0   Code   RO          387    .text               mf_w.l(fadd.o)
    0x08005114   0x08005114   0x00000064   Code   RO          389    .text               mf_w.l(fmul.o)
    0x08005178   0x08005178   0x0000007c   Code   RO          391    .text               mf_w.l(fdiv.o)
    0x080051f4   0x080051f4   0x0000014e   Code   RO          393    .text               mf_w.l(dadd.o)
    0x08005342   0x08005342   0x000000e4   Code   RO          395    .text               mf_w.l(dmul.o)
    0x08005426   0x08005426   0x000000de   Code   RO          397    .text               mf_w.l(ddiv.o)
    0x08005504   0x08005504   0x0000001c   Code   RO          399    .text               mf_w.l(fcmple.o)
    0x08005520   0x08005520   0x0000001c   Code   RO          401    .text               mf_w.l(fcmplt.o)
    0x0800553c   0x0800553c   0x0000001c   Code   RO          403    .text               mf_w.l(fcmpgt.o)
    0x08005558   0x08005558   0x00000036   Code   RO          405    .text               mf_w.l(dcmple.o)
    0x0800558e   0x0800558e   0x00000012   Code   RO          407    .text               mf_w.l(fflti.o)
    0x080055a0   0x080055a0   0x0000000a   Code   RO          409    .text               mf_w.l(ffltui.o)
    0x080055aa   0x080055aa   0x00000022   Code   RO          411    .text               mf_w.l(dflti.o)
    0x080055cc   0x080055cc   0x0000001a   Code   RO          413    .text               mf_w.l(dfltui.o)
    0x080055e6   0x080055e6   0x00000032   Code   RO          415    .text               mf_w.l(ffixi.o)
    0x08005618   0x08005618   0x00000042   Code   RO          417    .text               mf_w.l(ffixl.o)
    0x0800565a   0x0800565a   0x0000003e   Code   RO          419    .text               mf_w.l(dfixi.o)
    0x08005698   0x08005698   0x00000026   Code   RO          421    .text               mf_w.l(f2d.o)
    0x080056be   0x080056be   0x00000038   Code   RO          423    .text               mf_w.l(d2f.o)
    0x080056f6   0x080056f6   0x0000001e   Code   RO          439    .text               mc_w.l(llshl.o)
    0x08005714   0x08005714   0x00000020   Code   RO          441    .text               mc_w.l(llushr.o)
    0x08005734   0x08005734   0x00000024   Code   RO          443    .text               mc_w.l(llsshr.o)
    0x08005758   0x08005758   0x00000000   Code   RO          445    .text               mc_w.l(iusefp.o)
    0x08005758   0x08005758   0x0000006e   Code   RO          446    .text               mf_w.l(fepilogue.o)
    0x080057c6   0x080057c6   0x000000ba   Code   RO          448    .text               mf_w.l(depilogue.o)
    0x08005880   0x08005880   0x00000030   Code   RO          450    .text               mc_w.l(init.o)
    0x080058b0   0x080058b0   0x0000000e   Code   RO          454    i.__scatterload_copy  mc_w.l(handlers.o)
    0x080058be   0x080058be   0x00000002   Code   RO          455    i.__scatterload_null  mc_w.l(handlers.o)
    0x080058c0   0x080058c0   0x0000000e   Code   RO          456    i.__scatterload_zeroinit  mc_w.l(handlers.o)
    0x080058ce   0x080058ce   0x0000000c   Data   RO           63    .rodata..L__const.up_or_down.up_down  bldc.o
    0x080058da   0x080058da   0x0000000c   Data   RO          279    .rodata..Lswitch.table.gpio_deinit.1  gd32f1x0_gpio.o
    0x080058e6   0x080058e6   0x00000008   Data   RO          111    .rodata.cst8        bldcsine.o
    0x080058ee   0x080058ee   0x00000008   Data   RO          317    .rodata.cst8        gd32f1x0_rcu.o
    0x080058f6   0x080058f6   0x00000008   Data   RO           64    .rodata.hall_to_pos  bldc.o
    0x080058fe   0x080058fe   0x00000002   PAD
    0x08005900   0x08005900   0x000002d4   Data   RO           19    .rodata.lookUpTableAngle  main.o
    0x08005bd4   0x08005bd4   0x000002d0   Data   RO          114    .rodata.sine_table  bldcsine.o
    0x08005ea4   0x08005ea4   0x00000020   Data   RO          453    Region$$Table       anon$$obj.o


    Execution Region RW_IRAM1 (Exec base: 0x20000000, Load base: 0x08005ec8, Size: 0x000005c0, Max: 0x00002000, ABSOLUTE)

    Exec Addr    Load Addr    Size         Type   Attr      Idx    E Section Name        Object

    0x20000000   0x08005ec8   0x00000004   Data   RW          368    .data.SystemCoreClock  system_gd32f1x0.o
    0x20000004   0x08005ecc   0x00000004   Data   RW           33    .data.batteryVoltage  bldc.o
    0x20000008   0x08005ed0   0x00000001   Data   RW           16    .data.beepsBackwards  main.o
    0x20000009   0x08005ed1   0x00000003   PAD
    0x2000000c   0x08005ed4   0x00000004   Data   RW           34    .data.currentDC     bldc.o
    0x20000010   0x08005ed8   0x00000001   Data   RW            3    .data.iDrivingMode  main.o
    0x20000011   0x08005ed9   0x00000001   Data   RW           50    .data.iFILTER_SHIFT  bldc.o
    0x20000012   0x08005eda   0x00000002   Data   RW           53    .data.offsetdc      bldc.o
    0x20000014   0x08005edc   0x00000004   Data   RW           43    .data.revs32ScaleSlow  bldc.o
    0x20000018   0x08005ee0   0x00000002   Data   RW           11    .data.speedLimit    main.o
    0x2000001a   0x08005ee2   0x00000001   Data   RW           12    .data.wState        main.o
    0x2000001b   0x08005ee3   0x00000005   PAD
    0x20000020        -       0x00000001   Zero   RW          159    .bss.TIMER0_BRK_UP_TRG_COM_IRQHandler.interrupt_toggle  it.o
    0x20000021   0x08005ee3   0x00000003   PAD
    0x20000024        -       0x0000000c   Zero   RW          102    .bss.aHallEXTI      bldcsine.o
    0x20000030        -       0x00000004   Zero   RW           69    .bss.adc_buffer     bldc.o
    0x20000034        -       0x00000002   Zero   RW           97    .bss.angle_deg      bldcsine.o
    0x20000036        -       0x00000002   Zero   RW           98    .bss.angle_deg_add  bldcsine.o
    0x20000038        -       0x00000002   Zero   RW           99    .bss.angle_deg_final  bldcsine.o
    0x2000003a        -       0x00000002   Zero   RW          100    .bss.angle_idx      bldcsine.o
    0x2000003c        -       0x00000001   Zero   RW          103    .bss.bInterrupt     bldcsine.o
    0x2000003d        -       0x00000001   Zero   RW            5    .bss.bPilotTimeout  main.o
    0x2000003e        -       0x00000001   Zero   RW            4    .bss.bRemoteTimeout  main.o
    0x2000003f        -       0x00000001   Zero   RW           45    .bss.bldc_enable    bldc.o
    0x20000040        -       0x00000004   Zero   RW           47    .bss.bldc_inputFilterPwm  bldc.o
    0x20000044        -       0x00000004   Zero   RW           48    .bss.bldc_outputFilterPwm  bldc.o
    0x20000048        -       0x00000001   Zero   RW           59    .bss.buzzerFreq     bldc.o
    0x20000049        -       0x00000001   Zero   RW           60    .bss.buzzerPattern  bldc.o
    0x2000004a        -       0x00000002   Zero   RW           51    .bss.buzzerTimer    bldc.o
    0x2000004c        -       0x00000001   Zero   RW           58    .bss.buzzerToggle   bldc.o
    0x2000004d   0x08005ee3   0x00000003   PAD
    0x20000050        -       0x00000004   Zero   RW          130    .bss.dev_id         setup.o
    0x20000054        -       0x00000024   Zero   RW          128    .bss.dma_init_struct_adc  setup.o
    0x20000078        -       0x00000001   Zero   RW           20    .bss.enable         main.o
    0x20000079   0x08005ee3   0x00000003   PAD
    0x2000007c        -       0x00000004   Zero   RW           65    .bss.filter_reg     bldc.o
    0x20000080        -       0x00000001   Zero   RW           46    .bss.hall           bldc.o
    0x20000081        -       0x00000001   Zero   RW           70    .bss.hall_a         bldc.o
    0x20000082        -       0x00000001   Zero   RW           71    .bss.hall_b         bldc.o
    0x20000083        -       0x00000001   Zero   RW           72    .bss.hall_c         bldc.o
    0x20000084        -       0x00000001   Zero   RW          106    .bss.hall_last      bldcsine.o
    0x20000085   0x08005ee3   0x00000001   PAD
    0x20000086        -       0x00000002   Zero   RW          104    .bss.hall_time_last  bldcsine.o
    0x20000088        -       0x00000002   Zero   RW          105    .bss.hall_time_step  bldcsine.o
    0x2000008a   0x08005ee3   0x00000002   PAD
    0x2000008c        -       0x00000004   Zero   RW          113    .bss.hall_time_step_LP  bldcsine.o
    0x20000090        -       0x00000004   Zero   RW          112    .bss.hall_time_step_LPR  bldcsine.o
    0x20000094        -       0x00000004   Zero   RW          156    .bss.iAdcCounter    it.o
    0x20000098        -       0x00000004   Zero   RW          158    .bss.iAdcRate       it.o
    0x2000009c        -       0x00000004   Zero   RW          157    .bss.iAdcTime       it.o
    0x200000a0        -       0x00000002   Zero   RW          110    .bss.iAdd           bldcsine.o
    0x200000a2   0x08005ee3   0x00000002   PAD
    0x200000a4        -       0x00000004   Zero   RW           44    .bss.iBldcInput     bldc.o
    0x200000a8        -       0x00000004   Zero   RW            6    .bss.iBug           main.o
    0x200000ac        -       0x00000004   Zero   RW           66    .bss.iBuzzCounter   bldc.o
    0x200000b0        -       0x00000004   Zero   RW           68    .bss.iBuzzRate      bldc.o
    0x200000b4        -       0x00000004   Zero   RW           67    .bss.iBuzzTime      bldc.o
    0x200000b8        -       0x00000002   Zero   RW          109    .bss.iDT            bldcsine.o
    0x200000ba        -       0x00000001   Zero   RW           49    .bss.iDrivingModeOverride  bldc.o
    0x200000bb   0x08005ee3   0x00000001   PAD
    0x200000bc        -       0x00000004   Zero   RW           61    .bss.iOdom          bldc.o
    0x200000c0        -       0x00000004   Zero   RW           62    .bss.iOdomLast      bldc.o
    0x200000c4        -       0x00000004   Zero   RW          151    .bss.iPwmCounter    it.o
    0x200000c8        -       0x00000004   Zero   RW          153    .bss.iPwmRate       it.o
    0x200000cc        -       0x00000004   Zero   RW          152    .bss.iPwmTime       it.o
    0x200000d0        -       0x00000004   Zero   RW          132    .bss.iTestClock     setup.o
    0x200000d4        -       0x00000004   Zero   RW           22    .bss.iTimeNextLoop  main.o
    0x200000d8        -       0x00000004   Zero   RW           18    .bss.inactivity_timeout_counter  main.o
    0x200000dc        -       0x00000001   Zero   RW           74    .bss.lastPos        bldc.o
    0x200000dd   0x08005ee3   0x00000003   PAD
    0x200000e0        -       0x00000004   Zero   RW          148    .bss.msTicks        it.o
    0x200000e4        -       0x00000014   Zero   RW          129    .bss.oConfig        setup.o
    0x200000f8        -       0x00000002   Zero   RW           52    .bss.offsetcount    bldc.o
    0x200000fa   0x08005ee3   0x00000006   PAD
    0x20000100        -       0x00000028   Zero   RW           84    .bss.pid            driver.o
    0x20000128        -       0x00000004   Zero   RW          131    .bss.pll_mul        setup.o
    0x2000012c        -       0x00000001   Zero   RW           73    .bss.pos            bldc.o
    0x2000012d   0x08005ee3   0x00000003   PAD
    0x20000130        -       0x00000004   Zero   RW          101    .bss.pwmGo          bldcsine.o
    0x20000134        -       0x00000002   Zero   RW           21    .bss.pwmSlave       main.o
    0x20000136   0x08005ee3   0x00000002   PAD
    0x20000138        -       0x00000004   Zero   RW           35    .bss.realSpeed      bldc.o
    0x2000013c        -       0x00000004   Zero   RW           40    .bss.realSpeed32_reg  bldc.o
    0x20000140        -       0x00000004   Zero   RW           36    .bss.revs32         bldc.o
    0x20000144        -       0x00000004   Zero   RW           38    .bss.revs32_reg     bldc.o
    0x20000148        -       0x00000001   Zero   RW           95    .bss.sector         bldcsine.o
    0x20000149        -       0x00000001   Zero   RW           96    .bss.sector10x      bldcsine.o
    0x2000014a        -       0x00000001   Zero   RW           94    .bss.sectorChange   bldcsine.o
    0x2000014b   0x08005ee3   0x00000001   PAD
    0x2000014c        -       0x00000004   Zero   RW            9    .bss.speed          main.o
    0x20000150        -       0x00000004   Zero   RW           54    .bss.speedCounter   bldc.o
    0x20000154        -       0x00000004   Zero   RW           55    .bss.speedCounterSlow  bldc.o
    0x20000158        -       0x00000004   Zero   RW           57    .bss.speedCounterSlowLog  bldc.o
    0x2000015c        -       0x00000004   Zero   RW           10    .bss.speedShutoff   main.o
    0x20000160        -       0x00000004   Zero   RW           14    .bss.steer          main.o
    0x20000164        -       0x00000004   Zero   RW            8    .bss.steerCounter   main.o
    0x20000168        -       0x00000001   Zero   RW          147    .bss.timedOut       it.o
    0x20000169   0x08005ee3   0x00000003   PAD
    0x2000016c        -       0x00000004   Zero   RW          146    .bss.timeoutCounter_ms  it.o
    0x20000170        -       0x00000010   Zero   RW          124    .bss.timeoutTimer_paramter_struct  setup.o
    0x20000180        -       0x00000018   Zero   RW          127    .bss.timerBldc_break_parameter_struct  setup.o
    0x20000198        -       0x00000010   Zero   RW          126    .bss.timerBldc_oc_parameter_struct  setup.o
    0x200001a8        -       0x00000010   Zero   RW          125    .bss.timerBldc_paramter_struct  setup.o
    0x200001b8        -       0x00000004   Zero   RW           37    .bss.torque32       bldc.o
    0x200001bc        -       0x00000004   Zero   RW           39    .bss.torque32_reg   bldc.o
    0x200001c0        -       0x00000400   Zero   RW          357    STACK               startup_gd32f1x0.o


==============================================================================

Image component sizes


      Code (inc. data)   RO Data    RW Data    ZI Data      Debug   Object Name

      1810          0         20         15         91       4910   bldc.o
       932          0        728          0         45       6547   bldcsine.o
       578         28          0          0         40       2880   driver.o
      1446         16          0          0          0       7635   gd32f1x0_adc.o
       880         64          0          0          0       5997   gd32f1x0_dma.o
       366          0          0          0          0       3198   gd32f1x0_exti.o
      2512          0          0          0          0      13341   gd32f1x0_fmc.o
       226          0          0          0          0       2007   gd32f1x0_fwdgt.o
       408          0         12          0          0       4183   gd32f1x0_gpio.o
       300          0          0          0          0       3163   gd32f1x0_misc.o
      1828         34          8          0          0      13497   gd32f1x0_rcu.o
       258          4          0          0          0       2988   gd32f1x0_syscfg.o
      3408         44          0          0          0      18497   gd32f1x0_timer.o
       394          0          0          0         34       3050   it.o
      2220          0        724          5         33       7923   main.o
       190         16          0          0          0       1006   remotedummy.o
      2076          0          0          0        140      10476   setup.o
        36          8        360          0       1024        844   startup_gd32f1x0.o
       316         16          0          4          0       1621   system_gd32f1x0.o

    ----------------------------------------------------------------------
     20200        230       1886         28       1444     113763   Object Totals
         0          0         32          0          0          0   (incl. Generated)
        16          0          2          4         37          0   (incl. Padding)

    ----------------------------------------------------------------------

      Code (inc. data)   RO Data    RW Data    ZI Data      Debug   Library Member Name

         0          0          0          0          0          0   entry.o
         0          0          0          0          0          0   entry10a.o
         0          0          0          0          0          0   entry11a.o
         8          4          0          0          0          0   entry2.o
         4          0          0          0          0          0   entry5.o
         0          0          0          0          0          0   entry7b.o
         0          0          0          0          0          0   entry8b.o
         8          4          0          0          0          0   entry9a.o
        30          0          0          0          0          0   handlers.o
        48         10          0          0          0         68   init.o
         0          0          0          0          0          0   iusefp.o
        30          0          0          0          0         68   llshl.o
        36          0          0          0          0         68   llsshr.o
        32          0          0          0          0         68   llushr.o
        56          0          0          0          0         88   d2f.o
       334          0          0          0          0        148   dadd.o
        54          0          0          0          0         80   dcmple.o
       222          0          0          0          0        100   ddiv.o
       186          0          0          0          0        176   depilogue.o
        62          0          0          0          0         80   dfixi.o
        34          0          0          0          0         76   dflti.o
        26          0          0          0          0         76   dfltui.o
       228          0          0          0          0         96   dmul.o
        38          0          0          0          0         68   f2d.o
       176          0          0          0          0        140   fadd.o
        28          0          0          0          0         68   fcmpgt.o
        28          0          0          0          0         68   fcmple.o
        28          0          0          0          0         68   fcmplt.o
       124          0          0          0          0         88   fdiv.o
       110          0          0          0          0        168   fepilogue.o
        50          0          0          0          0         68   ffixi.o
        66          0          0          0          0         76   ffixl.o
        18          0          0          0          0         68   fflti.o
        10          0          0          0          0         68   ffltui.o
       100          0          0          0          0         76   fmul.o

    ----------------------------------------------------------------------
      2174         18          0          0          0       2216   Library Totals
         0          0          0          0          0          0   (incl. Padding)

    ----------------------------------------------------------------------

      Code (inc. data)   RO Data    RW Data    ZI Data      Debug   Library Name

       196         18          0          0          0        272   mc_w.l
      1978          0          0          0          0       1944   mf_w.l

    ----------------------------------------------------------------------
      2174         18          0          0          0       2216   Library Totals

    ----------------------------------------------------------------------

==============================================================================


      Code (inc. data)   RO Data    RW Data    ZI Data      Debug   

     22374        248       1886         28       1444     114647   Grand Totals
     22374        248       1886         28       1444     114647   ELF Image Totals
     22374        248       1886         28          0          0   ROM Totals

==============================================================================

    Total RO  Size (Code + RO Data)                24260 (  23.69kB)
    Total RW  Size (RW Data + ZI Data)              1472 (   1.44kB)
    Total ROM Size (Code + RO Data + RW Data)      24288 (  23.72kB)

==============================================================================

