Component: Arm Compiler for Embedded 6.23 Tool: armlink [5f102400]

==============================================================================

Section Cross References

    main.o(.text) refers to main.o(.bss.iBug) for iBug
    main.o(.text) refers to setup.o(.text) for ConfigRead
    main.o(.text) refers to system_gd32f1x0.o(.text) for SystemCoreClockUpdate
    main.o(.text) refers to system_gd32f1x0.o(.data.SystemCoreClock) for SystemCoreClock
    main.o(.text) refers to it.o(.text) for Delay
    main.o(.text) refers to bldcbc.o(.text) for InitBldc
    main.o(.text) refers to main.o(.bss.iDrivingMode) for iDrivingMode
    main.o(.text) refers to driver.o(.text) for DriverInit
    main.o(.text) refers to main.o(.bss.iTimeNextLoop) for iTimeNextLoop
    main.o(.text) refers to main.o(.bss.steerCounter) for steerCounter
    main.o(.text) refers to gd32f1x0_fwdgt.o(.text) for fwdgt_counter_reload
    main.o(.text) refers to remoteautodetect.o(.text) for RemoteUpdate
    main.o(.text) refers to bldc.o(.text) for SetEnable
    main.o(.ARM.exidx) refers to main.o(.text) for [Anonymous Symbol]
    bldc.o(.text) refers to bldc.o(.rodata..L__const.up_or_down.up_down) for .L__const.up_or_down.up_down
    bldc.o(.text) refers to bldc.o(.bss.bldc_enable) for bldc_enable
    bldc.o(.text) refers to main.o(.bss.iDrivingMode) for iDrivingMode
    bldc.o(.text) refers to system_gd32f1x0.o(.data.SystemCoreClock) for SystemCoreClock
    bldc.o(.text) refers to dflti.o(.text) for __aeabi_i2d
    bldc.o(.text) refers to ddiv.o(.text) for __aeabi_ddiv
    bldc.o(.text) refers to dmul.o(.text) for __aeabi_dmul
    bldc.o(.text) refers to dfixi.o(.text) for __aeabi_d2iz
    bldc.o(.text) refers to bldc.o(.bss.iBldcInput) for iBldcInput
    bldc.o(.text) refers to bldc.o(.data.iFILTER_SHIFT) for iFILTER_SHIFT
    bldc.o(.text) refers to bldc.o(.bss.bldc_outputFilterPwm) for bldc_outputFilterPwm
    bldc.o(.text) refers to bldc.o(.bss.filter_reg) for filter_reg
    bldc.o(.text) refers to bldc.o(.bss.buzzerTimer) for buzzerTimer
    bldc.o(.text) refers to main.o(.bss.iBug) for iBug
    bldc.o(.text) refers to it.o(.bss.msTicks) for msTicks
    bldc.o(.text) refers to bldc.o(.bss.iBuzzTime) for iBuzzTime
    bldc.o(.text) refers to bldc.o(.bss.iBuzzCounter) for iBuzzCounter
    bldc.o(.text) refers to bldc.o(.bss.iBuzzRate) for iBuzzRate
    bldc.o(.text) refers to bldc.o(.data.currentDC) for currentDC
    bldc.o(.text) refers to fcmpgt.o(.text) for __aeabi_fcmpgt
    bldc.o(.text) refers to bldc.o(.bss.iDrivingModeOverride) for iDrivingModeOverride
    bldc.o(.text) refers to bldc.o(.bss.bldc_inputFilterPwm) for bldc_inputFilterPwm
    bldc.o(.text) refers to it.o(.bss.timedOut) for timedOut
    bldc.o(.text) refers to gd32f1x0_timer.o(.text) for timer_automatic_output_enable
    bldc.o(.text) refers to remoteautodetect.o(.data.HALL_A) for HALL_A
    bldc.o(.text) refers to gd32f1x0_gpio.o(.text) for gpio_input_bit_get
    bldc.o(.text) refers to remoteautodetect.o(.data.HALL_B) for HALL_B
    bldc.o(.text) refers to bldc.o(.bss.hall_a) for hall_a
    bldc.o(.text) refers to remoteautodetect.o(.data.HALL_C) for HALL_C
    bldc.o(.text) refers to bldc.o(.bss.hall_b) for hall_b
    bldc.o(.text) refers to bldc.o(.bss.hall_c) for hall_c
    bldc.o(.text) refers to bldc.o(.bss.hall) for hall
    bldc.o(.text) refers to bldc.o(.rodata.hall_to_pos) for hall_to_pos
    bldc.o(.text) refers to remoteautodetect.o(.text) for AutodetectBldc
    bldc.o(.text) refers to bldc.o(.bss.pos) for pos
    bldc.o(.text) refers to driver.o(.text) for Driver
    bldc.o(.text) refers to bldcbc.o(.text) for bldc_get_pwm
    bldc.o(.text) refers to bldc.o(.bss.lastPos) for lastPos
    bldc.o(.text) refers to bldc.o(.bss.iOdom) for iOdom
    bldc.o(.text) refers to bldc.o(.bss.speedCounterSlow) for speedCounterSlow
    bldc.o(.text) refers to bldc.o(.bss.iOdomLast) for iOdomLast
    bldc.o(.text) refers to bldc.o(.bss.torque32) for torque32
    bldc.o(.text) refers to bldc.o(.bss.revs32) for revs32
    bldc.o(.text) refers to bldc.o(.data.revs32ScaleSlow) for revs32ScaleSlow
    bldc.o(.text) refers to bldc.o(.bss.revs32_reg) for revs32_reg
    bldc.o(.text) refers to bldc.o(.data.batteryVoltage) for batteryVoltage
    bldc.o(.text) refers to f2d.o(.text) for __aeabi_f2d
    bldc.o(.text) refers to bldc.o(.bss.torque32_reg) for torque32_reg
    bldc.o(.text) refers to bldc.o(.bss.speedCounterSlowLog) for speedCounterSlowLog
    bldc.o(.text) refers to bldc.o(.bss.speedCounter) for speedCounter
    bldc.o(.text) refers to ffltui.o(.text) for __aeabi_ui2f
    bldc.o(.text) refers to fdiv.o(.text) for __aeabi_fdiv
    bldc.o(.text) refers to bldc.o(.data.revs32Scale) for revs32Scale
    bldc.o(.text) refers to bldc.o(.bss.realSpeed) for realSpeed
    bldc.o(.text) refers to bldc.o(.bss.revs32x) for revs32x
    bldc.o(.text) refers to bldc.o(.bss.speedCounterLog) for speedCounterLog
    bldc.o(.ARM.exidx) refers to bldc.o(.text) for [Anonymous Symbol]
    driver.o(.text) refers to fmul.o(.text) for __aeabi_fmul
    driver.o(.text) refers to ffixi.o(.text) for __aeabi_f2iz
    driver.o(.text) refers to fdiv.o(.text) for __aeabi_fdiv
    driver.o(.text) refers to ffixl.o(.text) for __aeabi_f2lz
    driver.o(.text) refers to main.o(.bss.iDrivingMode) for iDrivingMode
    driver.o(.text) refers to system_gd32f1x0.o(.data.SystemCoreClock) for SystemCoreClock
    driver.o(.text) refers to fflti.o(.text) for __aeabi_i2f
    driver.o(.text) refers to driver.o(.bss.pid) for pid
    driver.o(.text) refers to bldc.o(.bss.revs32) for revs32
    driver.o(.text) refers to bldc.o(.bss.torque32) for torque32
    driver.o(.text) refers to bldc.o(.bss.iOdom) for iOdom
    driver.o(.ARM.exidx) refers to driver.o(.text) for [Anonymous Symbol]
    bldcbc.o(.ARM.exidx) refers to bldcbc.o(.text) for [Anonymous Symbol]
    setup.o(.text) refers to gd32f1x0_gpio.o(.text) for gpio_mode_set
    setup.o(.text) refers to gd32f1x0_misc.o(.text) for nvic_priority_group_set
    setup.o(.text) refers to gd32f1x0_rcu.o(.text) for rcu_flag_get
    setup.o(.text) refers to gd32f1x0_fwdgt.o(.text) for fwdgt_config
    setup.o(.text) refers to gd32f1x0_timer.o(.text) for timer_deinit
    setup.o(.text) refers to setup.o(.bss.timeoutTimer_paramter_struct) for timeoutTimer_paramter_struct
    setup.o(.text) refers to system_gd32f1x0.o(.data.SystemCoreClock) for SystemCoreClock
    setup.o(.text) refers to setup.o(.bss.timerBldc_paramter_struct) for timerBldc_paramter_struct
    setup.o(.text) refers to setup.o(.bss.timerBldc_oc_parameter_struct) for timerBldc_oc_parameter_struct
    setup.o(.text) refers to setup.o(.bss.timerBldc_break_parameter_struct) for timerBldc_break_parameter_struct
    setup.o(.text) refers to gd32f1x0_adc.o(.text) for adc_data_alignment_config
    setup.o(.text) refers to gd32f1x0_fmc.o(.text) for fmc_unlock
    setup.o(.text) refers to setup.o(.bss.oConfig) for oConfig
    setup.o(.ARM.exidx) refers to setup.o(.text) for [Anonymous Symbol]
    it.o(.text) refers to it.o(.bss.msTicks) for msTicks
    it.o(.text) refers to it.o(.bss.timeoutCounter_ms) for timeoutCounter_ms
    it.o(.text) refers to it.o(.bss.timedOut) for timedOut
    it.o(.text) refers to main.o(.bss.speed) for speed
    it.o(.text) refers to gd32f1x0_timer.o(.text) for timer_interrupt_flag_clear
    it.o(.text) refers to it.o(.bss.iAdcTime) for iAdcTime
    it.o(.text) refers to it.o(.bss.iAdcCounter) for iAdcCounter
    it.o(.text) refers to it.o(.bss.iAdcRate) for iAdcRate
    it.o(.text) refers to gd32f1x0_adc.o(.text) for adc_interrupt_flag_get
    it.o(.text) refers to bldc.o(.bss.adc_buffer) for adc_buffer
    it.o(.text) refers to bldc.o(.text) for CalculateBLDC
    it.o(.ARM.exidx) refers to it.o(.text) for [Anonymous Symbol]
    comms.o(.text) refers to gd32f1x0_usart.o(.text) for usart_data_transmit
    comms.o(.ARM.exidx) refers to comms.o(.text) for [Anonymous Symbol]
    remoteautodetect.o(.text) refers to remoteautodetect.o(.bss.aiPinScan) for aiPinScan
    remoteautodetect.o(.text) refers to setup.o(.bss.oConfig) for oConfig
    remoteautodetect.o(.text) refers to remoteautodetect.o(.data.aoPin) for aoPin
    remoteautodetect.o(.text) refers to setup.o(.text) for ConfigWrite
    remoteautodetect.o(.text) refers to remoteautodetect.o(.data.sTodoPin) for sTodoPin
    remoteautodetect.o(.text) refers to remoteautodetect.o(.bss.bMessageWait) for bMessageWait
    remoteautodetect.o(.text) refers to remoteautodetect.o(.bss.sMessage) for sMessage
    remoteautodetect.o(.text) refers to remoteautodetect.o(.data.asScan) for asScan
    remoteautodetect.o(.text) refers to printfa.o(i.__0sprintf) for __2sprintf
    remoteautodetect.o(.text) refers to remoteautodetect.o(.rodata.str1.1) for .L.str.52
    remoteautodetect.o(.text) refers to remoteautodetect.o(.data.cRxLast) for cRxLast
    remoteautodetect.o(.text) refers to remoteautodetect.o(.bss.cCommand) for cCommand
    remoteautodetect.o(.text) refers to it.o(.text) for ResetTimeout
    remoteautodetect.o(.text) refers to segger_rtt.o(.text) for SEGGER_RTT_GetKey
    remoteautodetect.o(.text) refers to main.o(.bss.steer) for steer
    remoteautodetect.o(.text) refers to remoteautodetect.o(.bss.iPhaseCurrent) for iPhaseCurrent
    remoteautodetect.o(.text) refers to remoteautodetect.o(.bss.iRepeat) for iRepeat
    remoteautodetect.o(.text) refers to remoteautodetect.o(.bss.iTest) for iTest
    remoteautodetect.o(.text) refers to remoteautodetect.o(.bss.iTestPin) for iTestPin
    remoteautodetect.o(.text) refers to it.o(.bss.msTicks) for msTicks
    remoteautodetect.o(.text) refers to remoteautodetect.o(.data.wStage) for wStage
    remoteautodetect.o(.text) refers to remoteautodetect.o(.bss.msTicksWait) for msTicksWait
    remoteautodetect.o(.text) refers to remoteautodetect.o(.bss.bReturnToMenu) for bReturnToMenu
    remoteautodetect.o(.text) refers to remoteautodetect.o(.data.iHoldAutofind) for iHoldAutofind
    remoteautodetect.o(.text) refers to remoteautodetect.o(.data.iVBatMinTest) for iVBatMinTest
    remoteautodetect.o(.text) refers to gd32f1x0_adc.o(.text) for adc_regular_channel_config
    remoteautodetect.o(.text) refers to remoteautodetect.o(.bss.msTicksTestNext) for msTicksTestNext
    remoteautodetect.o(.text) refers to remoteautodetect.o(.bss.bLedOutputMode) for bLedOutputMode
    remoteautodetect.o(.text) refers to gd32f1x0_gpio.o(.text) for gpio_deinit
    remoteautodetect.o(.text) refers to remoteautodetect.o(.bss.iAverage) for iAverage
    remoteautodetect.o(.text) refers to remoteautodetect.o(.bss.fVBattOld) for fVBattOld
    remoteautodetect.o(.text) refers to bldc.o(.text) for SetBldcInput
    remoteautodetect.o(.text) refers to remoteautodetect.o(.data.wStageOld) for wStageOld
    remoteautodetect.o(.text) refers to remoteautodetect.o(.bss.msTicksTest) for msTicksTest
    remoteautodetect.o(.text) refers to memseta.o(.text) for __aeabi_memclr4
    remoteautodetect.o(.text) refers to remoteautodetect.o(.data.wMenuStage) for wMenuStage
    remoteautodetect.o(.text) refers to remoteautodetect.o(.bss.bWait4Enter) for bWait4Enter
    remoteautodetect.o(.text) refers to remoteautodetect.o(.bss.bCurrentManualMode) for bCurrentManualMode
    remoteautodetect.o(.text) refers to remoteautodetect.o(.data.iTestStart) for iTestStart
    remoteautodetect.o(.text) refers to remoteautodetect.o(.bss.iOffsetDC) for iOffsetDC
    remoteautodetect.o(.text) refers to remoteautodetect.o(.bss.fVBatt) for fVBatt
    remoteautodetect.o(.text) refers to f2d.o(.text) for __aeabi_f2d
    remoteautodetect.o(.text) refers to bldc.o(.bss.adc_buffer) for adc_buffer
    remoteautodetect.o(.text) refers to dfltui.o(.text) for __aeabi_ui2d
    remoteautodetect.o(.text) refers to dmul.o(.text) for __aeabi_dmul
    remoteautodetect.o(.text) refers to dadd.o(.text) for __aeabi_dadd
    remoteautodetect.o(.text) refers to d2f.o(.text) for __aeabi_d2f
    remoteautodetect.o(.text) refers to fcmpeq.o(.text) for __aeabi_fcmpeq
    remoteautodetect.o(.text) refers to remoteautodetect.o(.rodata.str1.4) for .L.str.60
    remoteautodetect.o(.text) refers to memcpya.o(.text) for __aeabi_memcpy4
    remoteautodetect.o(.text) refers to remoteautodetect.o(.data.asStage) for asStage
    remoteautodetect.o(.text) refers to dflti.o(.text) for __aeabi_i2d
    remoteautodetect.o(.text) refers to remoteautodetect.o(.bss.fCurrentDC) for fCurrentDC
    remoteautodetect.o(.text) refers to fadd.o(.text) for __aeabi_fsub
    remoteautodetect.o(.text) refers to fcmpge.o(.text) for __aeabi_fcmpge
    remoteautodetect.o(.text) refers to remoteautodetect.o(.data.fVBattFound) for fVBattFound
    remoteautodetect.o(.text) refers to fcmple.o(.text) for __aeabi_fcmple
    remoteautodetect.o(.text) refers to remoteautodetect.o(.data.iAverageMax) for iAverageMax
    remoteautodetect.o(.text) refers to remoteautodetect.o(.data.aHallOrder) for aHallOrder
    remoteautodetect.o(.text) refers to remoteautodetect.o(.data.HALL_A) for HALL_A
    remoteautodetect.o(.text) refers to remoteautodetect.o(.data.HALL_B) for HALL_B
    remoteautodetect.o(.text) refers to remoteautodetect.o(.data.HALL_C) for HALL_C
    remoteautodetect.o(.text) refers to remoteautodetect.o(.bss.msTicksOld) for msTicksOld
    remoteautodetect.o(.text) refers to remoteautodetect.o(.bss.msTicksAuto) for msTicksAuto
    remoteautodetect.o(.text) refers to remoteautodetect.o(.data.posAuto) for posAuto
    remoteautodetect.o(.text) refers to ffixi.o(.text) for __aeabi_f2iz
    remoteautodetect.o(.text) refers to remoteautodetect.o(.bss.posOld) for posOld
    remoteautodetect.o(.text) refers to remoteautodetect.o(.data.bHallOld) for bHallOld
    remoteautodetect.o(.ARM.exidx) refers to remoteautodetect.o(.text) for [Anonymous Symbol]
    remoteautodetect.o(.data.aoPin) refers to remoteautodetect.o(.rodata.str1.1) for [Anonymous Symbol]
    remoteautodetect.o(.data.asScan) refers to remoteautodetect.o(.rodata.str1.1) for [Anonymous Symbol]
    remoteautodetect.o(.data.sTodoPin) refers to remoteautodetect.o(.rodata.str1.1) for [Anonymous Symbol]
    segger_rtt.o(.text) refers to segger_rtt.o(.bss._SEGGER_RTT) for _SEGGER_RTT
    segger_rtt.o(.text) refers to memseta.o(.text) for __aeabi_memclr4
    segger_rtt.o(.text) refers to segger_rtt.o(.rodata.str1.1) for .L.str
    segger_rtt.o(.text) refers to segger_rtt.o(.bss._acUpBuffer) for _acUpBuffer
    segger_rtt.o(.text) refers to segger_rtt.o(.bss._acDownBuffer) for _acDownBuffer
    segger_rtt.o(.text) refers to segger_rtt.o(.rodata._DoInit._aInitStr) for _DoInit._aInitStr
    segger_rtt.o(.text) refers to memcpya.o(.text) for __aeabi_memcpy
    segger_rtt.o(.text) refers to strlen.o(.text) for strlen
    segger_rtt.o(.text) refers to segger_rtt.o(.rodata.cst16) for _aTerminalId
    segger_rtt.o(.text) refers to segger_rtt.o(.bss._ActiveTerminal) for _ActiveTerminal
    segger_rtt.o(.ARM.exidx) refers to segger_rtt.o(.text) for [Anonymous Symbol]
    gd32f1x0_adc.o(.text) refers to gd32f1x0_rcu.o(.text) for rcu_periph_reset_enable
    gd32f1x0_adc.o(.ARM.exidx) refers to gd32f1x0_adc.o(.text) for [Anonymous Symbol]
    gd32f1x0_dbg.o(.ARM.exidx) refers to gd32f1x0_dbg.o(.text) for [Anonymous Symbol]
    gd32f1x0_dma.o(.ARM.exidx) refers to gd32f1x0_dma.o(.text) for [Anonymous Symbol]
    gd32f1x0_exti.o(.ARM.exidx) refers to gd32f1x0_exti.o(.text) for [Anonymous Symbol]
    gd32f1x0_fmc.o(.ARM.exidx) refers to gd32f1x0_fmc.o(.text) for [Anonymous Symbol]
    gd32f1x0_fwdgt.o(.ARM.exidx) refers to gd32f1x0_fwdgt.o(.text) for [Anonymous Symbol]
    gd32f1x0_gpio.o(.text) refers to gd32f1x0_gpio.o(.rodata..Lswitch.table.gpio_deinit.1) for .Lswitch.table.gpio_deinit.1
    gd32f1x0_gpio.o(.text) refers to gd32f1x0_rcu.o(.text) for rcu_periph_reset_enable
    gd32f1x0_gpio.o(.ARM.exidx) refers to gd32f1x0_gpio.o(.text) for [Anonymous Symbol]
    gd32f1x0_i2c.o(.text) refers to gd32f1x0_rcu.o(.text) for rcu_periph_reset_enable
    gd32f1x0_i2c.o(.ARM.exidx) refers to gd32f1x0_i2c.o(.text) for [Anonymous Symbol]
    gd32f1x0_misc.o(.ARM.exidx) refers to gd32f1x0_misc.o(.text) for [Anonymous Symbol]
    gd32f1x0_pmu.o(.text) refers to gd32f1x0_rcu.o(.text) for rcu_periph_reset_enable
    gd32f1x0_pmu.o(.text) refers to gd32f1x0_pmu.o(.bss.pmu_to_deepsleepmode.reg_snap.1) for pmu_to_deepsleepmode.reg_snap.1
    gd32f1x0_pmu.o(.text) refers to gd32f1x0_pmu.o(.bss.pmu_to_deepsleepmode.reg_snap.0) for pmu_to_deepsleepmode.reg_snap.0
    gd32f1x0_pmu.o(.text) refers to gd32f1x0_pmu.o(.bss.pmu_to_deepsleepmode.reg_snap.2) for pmu_to_deepsleepmode.reg_snap.2
    gd32f1x0_pmu.o(.text) refers to gd32f1x0_pmu.o(.bss.pmu_to_deepsleepmode.reg_snap.3) for pmu_to_deepsleepmode.reg_snap.3
    gd32f1x0_pmu.o(.ARM.exidx) refers to gd32f1x0_pmu.o(.text) for [Anonymous Symbol]
    gd32f1x0_rcu.o(.text) refers to gd32f1x0_rcu.o(.rodata.cst8) for .L__const.rcu_clock_freq_get.apb2_exp
    gd32f1x0_rcu.o(.ARM.exidx) refers to gd32f1x0_rcu.o(.text) for [Anonymous Symbol]
    gd32f1x0_syscfg.o(.text) refers to gd32f1x0_rcu.o(.text) for rcu_periph_reset_enable
    gd32f1x0_syscfg.o(.ARM.exidx) refers to gd32f1x0_syscfg.o(.text) for [Anonymous Symbol]
    gd32f1x0_timer.o(.text) refers to gd32f1x0_rcu.o(.text) for rcu_periph_reset_enable
    gd32f1x0_timer.o(.ARM.exidx) refers to gd32f1x0_timer.o(.text) for [Anonymous Symbol]
    gd32f1x0_usart.o(.text) refers to gd32f1x0_rcu.o(.text) for rcu_periph_reset_enable
    gd32f1x0_usart.o(.ARM.exidx) refers to gd32f1x0_usart.o(.text) for [Anonymous Symbol]
    gd32f1x0_wwdgt.o(.text) refers to gd32f1x0_rcu.o(.text) for rcu_periph_reset_enable
    gd32f1x0_wwdgt.o(.ARM.exidx) refers to gd32f1x0_wwdgt.o(.text) for [Anonymous Symbol]
    startup_gd32f1x0.o(RESET) refers to startup_gd32f1x0.o(STACK) for __initial_sp
    startup_gd32f1x0.o(RESET) refers to startup_gd32f1x0.o(.text) for Reset_Handler
    startup_gd32f1x0.o(RESET) refers to it.o(.text) for NMI_Handler
    startup_gd32f1x0.o(.text) refers to system_gd32f1x0.o(.text) for SystemInit
    startup_gd32f1x0.o(.text) refers to entry.o(.ARM.Collect$$$$00000000) for __main
    system_gd32f1x0.o(.text) refers to system_gd32f1x0.o(.data.SystemCoreClock) for SystemCoreClock
    system_gd32f1x0.o(.ARM.exidx) refers to system_gd32f1x0.o(.text) for [Anonymous Symbol]
    entry.o(.ARM.Collect$$$$00000000) refers (Special) to entry10a.o(.ARM.Collect$$$$0000000D) for __rt_final_cpp
    entry.o(.ARM.Collect$$$$00000000) refers (Special) to entry11a.o(.ARM.Collect$$$$0000000F) for __rt_final_exit
    entry.o(.ARM.Collect$$$$00000000) refers (Special) to entry7b.o(.ARM.Collect$$$$00000008) for _main_clock
    entry.o(.ARM.Collect$$$$00000000) refers (Special) to entry8b.o(.ARM.Collect$$$$0000000A) for _main_cpp_init
    entry.o(.ARM.Collect$$$$00000000) refers (Special) to entry9a.o(.ARM.Collect$$$$0000000B) for _main_init
    entry.o(.ARM.Collect$$$$00000000) refers (Special) to entry5.o(.ARM.Collect$$$$00000004) for _main_scatterload
    entry.o(.ARM.Collect$$$$00000000) refers (Special) to entry2.o(.ARM.Collect$$$$00000001) for _main_stk
    printfb.o(i.__0fprintf$bare) refers to printfb.o(i._printf_core) for _printf_core
    printfb.o(i.__0fprintf$bare) refers to fputc.o(i.fputc) for fputc
    printfb.o(i.__0printf$bare) refers to printfb.o(i._printf_core) for _printf_core
    printfb.o(i.__0printf$bare) refers to fputc.o(i.fputc) for fputc
    printfb.o(i.__0printf$bare) refers to stdout.o(.data) for __stdout
    printfb.o(i.__0snprintf$bare) refers to printfb.o(i._printf_core) for _printf_core
    printfb.o(i.__0snprintf$bare) refers to printfb.o(i._snputc) for _snputc
    printfb.o(i.__0sprintf$bare) refers to printfb.o(i._printf_core) for _printf_core
    printfb.o(i.__0sprintf$bare) refers to printfb.o(i._sputc) for _sputc
    printfb.o(i.__0vfprintf$bare) refers to printfb.o(i._printf_core) for _printf_core
    printfb.o(i.__0vfprintf$bare) refers to fputc.o(i.fputc) for fputc
    printfb.o(i.__0vprintf$bare) refers to printfb.o(i._printf_core) for _printf_core
    printfb.o(i.__0vprintf$bare) refers to fputc.o(i.fputc) for fputc
    printfb.o(i.__0vprintf$bare) refers to stdout.o(.data) for __stdout
    printfb.o(i.__0vsnprintf$bare) refers to printfb.o(i._printf_core) for _printf_core
    printfb.o(i.__0vsnprintf$bare) refers to printfb.o(i._snputc) for _snputc
    printfb.o(i.__0vsprintf$bare) refers to printfb.o(i._printf_core) for _printf_core
    printfb.o(i.__0vsprintf$bare) refers to printfb.o(i._sputc) for _sputc
    printf0.o(i.__0fprintf$0) refers to printf0.o(i._printf_core) for _printf_core
    printf0.o(i.__0fprintf$0) refers to fputc.o(i.fputc) for fputc
    printf0.o(i.__0printf$0) refers to printf0.o(i._printf_core) for _printf_core
    printf0.o(i.__0printf$0) refers to fputc.o(i.fputc) for fputc
    printf0.o(i.__0printf$0) refers to stdout.o(.data) for __stdout
    printf0.o(i.__0snprintf$0) refers to printf0.o(i._printf_core) for _printf_core
    printf0.o(i.__0snprintf$0) refers to printf0.o(i._snputc) for _snputc
    printf0.o(i.__0sprintf$0) refers to printf0.o(i._printf_core) for _printf_core
    printf0.o(i.__0sprintf$0) refers to printf0.o(i._sputc) for _sputc
    printf0.o(i.__0vfprintf$0) refers to printf0.o(i._printf_core) for _printf_core
    printf0.o(i.__0vfprintf$0) refers to fputc.o(i.fputc) for fputc
    printf0.o(i.__0vprintf$0) refers to printf0.o(i._printf_core) for _printf_core
    printf0.o(i.__0vprintf$0) refers to fputc.o(i.fputc) for fputc
    printf0.o(i.__0vprintf$0) refers to stdout.o(.data) for __stdout
    printf0.o(i.__0vsnprintf$0) refers to printf0.o(i._printf_core) for _printf_core
    printf0.o(i.__0vsnprintf$0) refers to printf0.o(i._snputc) for _snputc
    printf0.o(i.__0vsprintf$0) refers to printf0.o(i._printf_core) for _printf_core
    printf0.o(i.__0vsprintf$0) refers to printf0.o(i._sputc) for _sputc
    printf1.o(i.__0fprintf$1) refers to printf1.o(i._printf_core) for _printf_core
    printf1.o(i.__0fprintf$1) refers to fputc.o(i.fputc) for fputc
    printf1.o(i.__0printf$1) refers to printf1.o(i._printf_core) for _printf_core
    printf1.o(i.__0printf$1) refers to fputc.o(i.fputc) for fputc
    printf1.o(i.__0printf$1) refers to stdout.o(.data) for __stdout
    printf1.o(i.__0snprintf$1) refers to printf1.o(i._printf_core) for _printf_core
    printf1.o(i.__0snprintf$1) refers to printf1.o(i._snputc) for _snputc
    printf1.o(i.__0sprintf$1) refers to printf1.o(i._printf_core) for _printf_core
    printf1.o(i.__0sprintf$1) refers to printf1.o(i._sputc) for _sputc
    printf1.o(i.__0vfprintf$1) refers to printf1.o(i._printf_core) for _printf_core
    printf1.o(i.__0vfprintf$1) refers to fputc.o(i.fputc) for fputc
    printf1.o(i.__0vprintf$1) refers to printf1.o(i._printf_core) for _printf_core
    printf1.o(i.__0vprintf$1) refers to fputc.o(i.fputc) for fputc
    printf1.o(i.__0vprintf$1) refers to stdout.o(.data) for __stdout
    printf1.o(i.__0vsnprintf$1) refers to printf1.o(i._printf_core) for _printf_core
    printf1.o(i.__0vsnprintf$1) refers to printf1.o(i._snputc) for _snputc
    printf1.o(i.__0vsprintf$1) refers to printf1.o(i._printf_core) for _printf_core
    printf1.o(i.__0vsprintf$1) refers to printf1.o(i._sputc) for _sputc
    printf1.o(i._printf_core) refers to uidiv.o(.text) for __aeabi_uidivmod
    printf2.o(i.__0fprintf$2) refers to printf2.o(i._printf_core) for _printf_core
    printf2.o(i.__0fprintf$2) refers to fputc.o(i.fputc) for fputc
    printf2.o(i.__0printf$2) refers to printf2.o(i._printf_core) for _printf_core
    printf2.o(i.__0printf$2) refers to fputc.o(i.fputc) for fputc
    printf2.o(i.__0printf$2) refers to stdout.o(.data) for __stdout
    printf2.o(i.__0snprintf$2) refers to printf2.o(i._printf_core) for _printf_core
    printf2.o(i.__0snprintf$2) refers to printf2.o(i._snputc) for _snputc
    printf2.o(i.__0sprintf$2) refers to printf2.o(i._printf_core) for _printf_core
    printf2.o(i.__0sprintf$2) refers to printf2.o(i._sputc) for _sputc
    printf2.o(i.__0vfprintf$2) refers to printf2.o(i._printf_core) for _printf_core
    printf2.o(i.__0vfprintf$2) refers to fputc.o(i.fputc) for fputc
    printf2.o(i.__0vprintf$2) refers to printf2.o(i._printf_core) for _printf_core
    printf2.o(i.__0vprintf$2) refers to fputc.o(i.fputc) for fputc
    printf2.o(i.__0vprintf$2) refers to stdout.o(.data) for __stdout
    printf2.o(i.__0vsnprintf$2) refers to printf2.o(i._printf_core) for _printf_core
    printf2.o(i.__0vsnprintf$2) refers to printf2.o(i._snputc) for _snputc
    printf2.o(i.__0vsprintf$2) refers to printf2.o(i._printf_core) for _printf_core
    printf2.o(i.__0vsprintf$2) refers to printf2.o(i._sputc) for _sputc
    printf3.o(i.__0fprintf$3) refers to printf3.o(i._printf_core) for _printf_core
    printf3.o(i.__0fprintf$3) refers to fputc.o(i.fputc) for fputc
    printf3.o(i.__0printf$3) refers to printf3.o(i._printf_core) for _printf_core
    printf3.o(i.__0printf$3) refers to fputc.o(i.fputc) for fputc
    printf3.o(i.__0printf$3) refers to stdout.o(.data) for __stdout
    printf3.o(i.__0snprintf$3) refers to printf3.o(i._printf_core) for _printf_core
    printf3.o(i.__0snprintf$3) refers to printf3.o(i._snputc) for _snputc
    printf3.o(i.__0sprintf$3) refers to printf3.o(i._printf_core) for _printf_core
    printf3.o(i.__0sprintf$3) refers to printf3.o(i._sputc) for _sputc
    printf3.o(i.__0vfprintf$3) refers to printf3.o(i._printf_core) for _printf_core
    printf3.o(i.__0vfprintf$3) refers to fputc.o(i.fputc) for fputc
    printf3.o(i.__0vprintf$3) refers to printf3.o(i._printf_core) for _printf_core
    printf3.o(i.__0vprintf$3) refers to fputc.o(i.fputc) for fputc
    printf3.o(i.__0vprintf$3) refers to stdout.o(.data) for __stdout
    printf3.o(i.__0vsnprintf$3) refers to printf3.o(i._printf_core) for _printf_core
    printf3.o(i.__0vsnprintf$3) refers to printf3.o(i._snputc) for _snputc
    printf3.o(i.__0vsprintf$3) refers to printf3.o(i._printf_core) for _printf_core
    printf3.o(i.__0vsprintf$3) refers to printf3.o(i._sputc) for _sputc
    printf3.o(i._printf_core) refers to uidiv.o(.text) for __aeabi_uidivmod
    printf4.o(i.__0fprintf$4) refers to printf4.o(i._printf_core) for _printf_core
    printf4.o(i.__0fprintf$4) refers to fputc.o(i.fputc) for fputc
    printf4.o(i.__0printf$4) refers to printf4.o(i._printf_core) for _printf_core
    printf4.o(i.__0printf$4) refers to fputc.o(i.fputc) for fputc
    printf4.o(i.__0printf$4) refers to stdout.o(.data) for __stdout
    printf4.o(i.__0snprintf$4) refers to printf4.o(i._printf_core) for _printf_core
    printf4.o(i.__0snprintf$4) refers to printf4.o(i._snputc) for _snputc
    printf4.o(i.__0sprintf$4) refers to printf4.o(i._printf_core) for _printf_core
    printf4.o(i.__0sprintf$4) refers to printf4.o(i._sputc) for _sputc
    printf4.o(i.__0vfprintf$4) refers to printf4.o(i._printf_core) for _printf_core
    printf4.o(i.__0vfprintf$4) refers to fputc.o(i.fputc) for fputc
    printf4.o(i.__0vprintf$4) refers to printf4.o(i._printf_core) for _printf_core
    printf4.o(i.__0vprintf$4) refers to fputc.o(i.fputc) for fputc
    printf4.o(i.__0vprintf$4) refers to stdout.o(.data) for __stdout
    printf4.o(i.__0vsnprintf$4) refers to printf4.o(i._printf_core) for _printf_core
    printf4.o(i.__0vsnprintf$4) refers to printf4.o(i._snputc) for _snputc
    printf4.o(i.__0vsprintf$4) refers to printf4.o(i._printf_core) for _printf_core
    printf4.o(i.__0vsprintf$4) refers to printf4.o(i._sputc) for _sputc
    printf4.o(i._printf_core) refers to uldiv.o(.text) for __aeabi_uldivmod
    printf5.o(i.__0fprintf$5) refers to printf5.o(i._printf_core) for _printf_core
    printf5.o(i.__0fprintf$5) refers to fputc.o(i.fputc) for fputc
    printf5.o(i.__0printf$5) refers to printf5.o(i._printf_core) for _printf_core
    printf5.o(i.__0printf$5) refers to fputc.o(i.fputc) for fputc
    printf5.o(i.__0printf$5) refers to stdout.o(.data) for __stdout
    printf5.o(i.__0snprintf$5) refers to printf5.o(i._printf_core) for _printf_core
    printf5.o(i.__0snprintf$5) refers to printf5.o(i._snputc) for _snputc
    printf5.o(i.__0sprintf$5) refers to printf5.o(i._printf_core) for _printf_core
    printf5.o(i.__0sprintf$5) refers to printf5.o(i._sputc) for _sputc
    printf5.o(i.__0vfprintf$5) refers to printf5.o(i._printf_core) for _printf_core
    printf5.o(i.__0vfprintf$5) refers to fputc.o(i.fputc) for fputc
    printf5.o(i.__0vprintf$5) refers to printf5.o(i._printf_core) for _printf_core
    printf5.o(i.__0vprintf$5) refers to fputc.o(i.fputc) for fputc
    printf5.o(i.__0vprintf$5) refers to stdout.o(.data) for __stdout
    printf5.o(i.__0vsnprintf$5) refers to printf5.o(i._printf_core) for _printf_core
    printf5.o(i.__0vsnprintf$5) refers to printf5.o(i._snputc) for _snputc
    printf5.o(i.__0vsprintf$5) refers to printf5.o(i._printf_core) for _printf_core
    printf5.o(i.__0vsprintf$5) refers to printf5.o(i._sputc) for _sputc
    printf5.o(i._printf_core) refers to uldiv.o(.text) for __aeabi_uldivmod
    printf6.o(i.__0fprintf$6) refers to printf6.o(i._printf_core) for _printf_core
    printf6.o(i.__0fprintf$6) refers to fputc.o(i.fputc) for fputc
    printf6.o(i.__0printf$6) refers to printf6.o(i._printf_core) for _printf_core
    printf6.o(i.__0printf$6) refers to fputc.o(i.fputc) for fputc
    printf6.o(i.__0printf$6) refers to stdout.o(.data) for __stdout
    printf6.o(i.__0snprintf$6) refers to printf6.o(i._printf_core) for _printf_core
    printf6.o(i.__0snprintf$6) refers to printf6.o(i._snputc) for _snputc
    printf6.o(i.__0sprintf$6) refers to printf6.o(i._printf_core) for _printf_core
    printf6.o(i.__0sprintf$6) refers to printf6.o(i._sputc) for _sputc
    printf6.o(i.__0vfprintf$6) refers to printf6.o(i._printf_core) for _printf_core
    printf6.o(i.__0vfprintf$6) refers to fputc.o(i.fputc) for fputc
    printf6.o(i.__0vprintf$6) refers to printf6.o(i._printf_core) for _printf_core
    printf6.o(i.__0vprintf$6) refers to fputc.o(i.fputc) for fputc
    printf6.o(i.__0vprintf$6) refers to stdout.o(.data) for __stdout
    printf6.o(i.__0vsnprintf$6) refers to printf6.o(i._printf_core) for _printf_core
    printf6.o(i.__0vsnprintf$6) refers to printf6.o(i._snputc) for _snputc
    printf6.o(i.__0vsprintf$6) refers to printf6.o(i._printf_core) for _printf_core
    printf6.o(i.__0vsprintf$6) refers to printf6.o(i._sputc) for _sputc
    printf6.o(i._printf_core) refers to printf6.o(i._printf_pre_padding) for _printf_pre_padding
    printf6.o(i._printf_core) refers to uidiv.o(.text) for __aeabi_uidivmod
    printf6.o(i._printf_core) refers to printf6.o(i._printf_post_padding) for _printf_post_padding
    printf7.o(i.__0fprintf$7) refers to printf7.o(i._printf_core) for _printf_core
    printf7.o(i.__0fprintf$7) refers to fputc.o(i.fputc) for fputc
    printf7.o(i.__0printf$7) refers to printf7.o(i._printf_core) for _printf_core
    printf7.o(i.__0printf$7) refers to fputc.o(i.fputc) for fputc
    printf7.o(i.__0printf$7) refers to stdout.o(.data) for __stdout
    printf7.o(i.__0snprintf$7) refers to printf7.o(i._printf_core) for _printf_core
    printf7.o(i.__0snprintf$7) refers to printf7.o(i._snputc) for _snputc
    printf7.o(i.__0sprintf$7) refers to printf7.o(i._printf_core) for _printf_core
    printf7.o(i.__0sprintf$7) refers to printf7.o(i._sputc) for _sputc
    printf7.o(i.__0vfprintf$7) refers to printf7.o(i._printf_core) for _printf_core
    printf7.o(i.__0vfprintf$7) refers to fputc.o(i.fputc) for fputc
    printf7.o(i.__0vprintf$7) refers to printf7.o(i._printf_core) for _printf_core
    printf7.o(i.__0vprintf$7) refers to fputc.o(i.fputc) for fputc
    printf7.o(i.__0vprintf$7) refers to stdout.o(.data) for __stdout
    printf7.o(i.__0vsnprintf$7) refers to printf7.o(i._printf_core) for _printf_core
    printf7.o(i.__0vsnprintf$7) refers to printf7.o(i._snputc) for _snputc
    printf7.o(i.__0vsprintf$7) refers to printf7.o(i._printf_core) for _printf_core
    printf7.o(i.__0vsprintf$7) refers to printf7.o(i._sputc) for _sputc
    printf7.o(i._printf_core) refers to printf7.o(i._printf_pre_padding) for _printf_pre_padding
    printf7.o(i._printf_core) refers to uldiv.o(.text) for __aeabi_uldivmod
    printf7.o(i._printf_core) refers to printf7.o(i._printf_post_padding) for _printf_post_padding
    printf8.o(i.__0fprintf$8) refers to printf8.o(i._printf_core) for _printf_core
    printf8.o(i.__0fprintf$8) refers to fputc.o(i.fputc) for fputc
    printf8.o(i.__0printf$8) refers to printf8.o(i._printf_core) for _printf_core
    printf8.o(i.__0printf$8) refers to fputc.o(i.fputc) for fputc
    printf8.o(i.__0printf$8) refers to stdout.o(.data) for __stdout
    printf8.o(i.__0snprintf$8) refers to printf8.o(i._printf_core) for _printf_core
    printf8.o(i.__0snprintf$8) refers to printf8.o(i._snputc) for _snputc
    printf8.o(i.__0sprintf$8) refers to printf8.o(i._printf_core) for _printf_core
    printf8.o(i.__0sprintf$8) refers to printf8.o(i._sputc) for _sputc
    printf8.o(i.__0vfprintf$8) refers to printf8.o(i._printf_core) for _printf_core
    printf8.o(i.__0vfprintf$8) refers to fputc.o(i.fputc) for fputc
    printf8.o(i.__0vprintf$8) refers to printf8.o(i._printf_core) for _printf_core
    printf8.o(i.__0vprintf$8) refers to fputc.o(i.fputc) for fputc
    printf8.o(i.__0vprintf$8) refers to stdout.o(.data) for __stdout
    printf8.o(i.__0vsnprintf$8) refers to printf8.o(i._printf_core) for _printf_core
    printf8.o(i.__0vsnprintf$8) refers to printf8.o(i._snputc) for _snputc
    printf8.o(i.__0vsprintf$8) refers to printf8.o(i._printf_core) for _printf_core
    printf8.o(i.__0vsprintf$8) refers to printf8.o(i._sputc) for _sputc
    printf8.o(i._printf_core) refers to printf8.o(i._printf_pre_padding) for _printf_pre_padding
    printf8.o(i._printf_core) refers to uldiv.o(.text) for __aeabi_uldivmod
    printf8.o(i._printf_core) refers to printf8.o(i._printf_post_padding) for _printf_post_padding
    printfa.o(i.__0fprintf) refers (Special) to iusefp.o(.text) for __I$use$fp
    printfa.o(i.__0fprintf) refers to printfa.o(i._printf_core) for _printf_core
    printfa.o(i.__0fprintf) refers to fputc.o(i.fputc) for fputc
    printfa.o(i.__0printf) refers (Special) to iusefp.o(.text) for __I$use$fp
    printfa.o(i.__0printf) refers to printfa.o(i._printf_core) for _printf_core
    printfa.o(i.__0printf) refers to fputc.o(i.fputc) for fputc
    printfa.o(i.__0printf) refers to stdout.o(.data) for __stdout
    printfa.o(i.__0snprintf) refers (Special) to iusefp.o(.text) for __I$use$fp
    printfa.o(i.__0snprintf) refers to printfa.o(i._printf_core) for _printf_core
    printfa.o(i.__0snprintf) refers to printfa.o(i._snputc) for _snputc
    printfa.o(i.__0sprintf) refers (Special) to iusefp.o(.text) for __I$use$fp
    printfa.o(i.__0sprintf) refers to printfa.o(i._printf_core) for _printf_core
    printfa.o(i.__0sprintf) refers to printfa.o(i._sputc) for _sputc
    printfa.o(i.__0vfprintf) refers (Special) to iusefp.o(.text) for __I$use$fp
    printfa.o(i.__0vfprintf) refers to printfa.o(i._printf_core) for _printf_core
    printfa.o(i.__0vfprintf) refers to fputc.o(i.fputc) for fputc
    printfa.o(i.__0vprintf) refers (Special) to iusefp.o(.text) for __I$use$fp
    printfa.o(i.__0vprintf) refers to printfa.o(i._printf_core) for _printf_core
    printfa.o(i.__0vprintf) refers to fputc.o(i.fputc) for fputc
    printfa.o(i.__0vprintf) refers to stdout.o(.data) for __stdout
    printfa.o(i.__0vsnprintf) refers (Special) to iusefp.o(.text) for __I$use$fp
    printfa.o(i.__0vsnprintf) refers to printfa.o(i._printf_core) for _printf_core
    printfa.o(i.__0vsnprintf) refers to printfa.o(i._snputc) for _snputc
    printfa.o(i.__0vsprintf) refers (Special) to iusefp.o(.text) for __I$use$fp
    printfa.o(i.__0vsprintf) refers to printfa.o(i._printf_core) for _printf_core
    printfa.o(i.__0vsprintf) refers to printfa.o(i._sputc) for _sputc
    printfa.o(i._fp_digits) refers (Special) to iusefp.o(.text) for __I$use$fp
    printfa.o(i._fp_digits) refers to dmul.o(.text) for __aeabi_dmul
    printfa.o(i._fp_digits) refers to ddiv.o(.text) for __aeabi_ddiv
    printfa.o(i._fp_digits) refers to cdrcmple.o(.text) for __aeabi_cdrcmple
    printfa.o(i._fp_digits) refers to dadd.o(.text) for __aeabi_dadd
    printfa.o(i._fp_digits) refers to dfixul.o(.text) for __aeabi_d2ulz
    printfa.o(i._fp_digits) refers to uldiv.o(.text) for __aeabi_uldivmod
    printfa.o(i._printf_core) refers (Special) to iusefp.o(.text) for __I$use$fp
    printfa.o(i._printf_core) refers to printfa.o(i._printf_pre_padding) for _printf_pre_padding
    printfa.o(i._printf_core) refers to uldiv.o(.text) for __aeabi_uldivmod
    printfa.o(i._printf_core) refers to printfa.o(i._printf_post_padding) for _printf_post_padding
    printfa.o(i._printf_core) refers to printfa.o(i._fp_digits) for _fp_digits
    printfa.o(i._printf_core) refers to uidiv.o(.text) for __aeabi_uidivmod
    printfa.o(i._printf_post_padding) refers (Special) to iusefp.o(.text) for __I$use$fp
    printfa.o(i._printf_pre_padding) refers (Special) to iusefp.o(.text) for __I$use$fp
    printfa.o(i._snputc) refers (Special) to iusefp.o(.text) for __I$use$fp
    printfa.o(i._sputc) refers (Special) to iusefp.o(.text) for __I$use$fp
    fadd.o(.text) refers (Special) to iusefp.o(.text) for __I$use$fp
    fadd.o(.text) refers to fepilogue.o(.text) for _float_epilogue
    fmul.o(.text) refers (Special) to iusefp.o(.text) for __I$use$fp
    fdiv.o(.text) refers (Special) to iusefp.o(.text) for __I$use$fp
    fdiv.o(.text) refers to fepilogue.o(.text) for _float_round
    dadd.o(.text) refers (Special) to iusefp.o(.text) for __I$use$fp
    dadd.o(.text) refers to llshl.o(.text) for __aeabi_llsl
    dadd.o(.text) refers to llsshr.o(.text) for __aeabi_lasr
    dadd.o(.text) refers to depilogue.o(.text) for _double_epilogue
    dmul.o(.text) refers (Special) to iusefp.o(.text) for __I$use$fp
    dmul.o(.text) refers to depilogue.o(.text) for _double_epilogue
    ddiv.o(.text) refers (Special) to iusefp.o(.text) for __I$use$fp
    ddiv.o(.text) refers to depilogue.o(.text) for _double_round
    fcmple.o(.text) refers (Special) to iusefp.o(.text) for __I$use$fp
    fcmpge.o(.text) refers (Special) to iusefp.o(.text) for __I$use$fp
    fcmpgt.o(.text) refers (Special) to iusefp.o(.text) for __I$use$fp
    fcmpeq.o(.text) refers (Special) to iusefp.o(.text) for __I$use$fp
    fflti.o(.text) refers (Special) to iusefp.o(.text) for __I$use$fp
    fflti.o(.text) refers to fepilogue.o(.text) for _float_epilogue
    ffltui.o(.text) refers (Special) to iusefp.o(.text) for __I$use$fp
    ffltui.o(.text) refers to fepilogue.o(.text) for _float_epilogue
    dflti.o(.text) refers (Special) to iusefp.o(.text) for __I$use$fp
    dflti.o(.text) refers to depilogue.o(.text) for _double_epilogue
    dfltui.o(.text) refers (Special) to iusefp.o(.text) for __I$use$fp
    dfltui.o(.text) refers to depilogue.o(.text) for _double_epilogue
    ffixi.o(.text) refers (Special) to iusefp.o(.text) for __I$use$fp
    ffixl.o(.text) refers (Special) to iusefp.o(.text) for __I$use$fp
    ffixl.o(.text) refers to llshl.o(.text) for __aeabi_llsl
    dfixi.o(.text) refers (Special) to iusefp.o(.text) for __I$use$fp
    dfixi.o(.text) refers to llushr.o(.text) for __aeabi_llsr
    f2d.o(.text) refers (Special) to iusefp.o(.text) for __I$use$fp
    d2f.o(.text) refers (Special) to iusefp.o(.text) for __I$use$fp
    d2f.o(.text) refers to fepilogue.o(.text) for _float_round
    entry2.o(.ARM.Collect$$$$00000001) refers to entry2.o(.ARM.Collect$$$$00002712) for __lit__00000000
    entry2.o(.ARM.Collect$$$$00002712) refers to startup_gd32f1x0.o(STACK) for __initial_sp
    entry2.o(__vectab_stack_and_reset_area) refers to startup_gd32f1x0.o(STACK) for __initial_sp
    entry2.o(__vectab_stack_and_reset_area) refers to entry.o(.ARM.Collect$$$$00000000) for __main
    entry5.o(.ARM.Collect$$$$00000004) refers to init.o(.text) for __scatterload
    entry9a.o(.ARM.Collect$$$$0000000B) refers to main.o(.text) for main
    entry9b.o(.ARM.Collect$$$$0000000C) refers to main.o(.text) for main
    fputc.o(i.fputc) refers (Special) to iusesemip.o(.text) for __I$use$semihosting$fputc
    fputc.o(i.fputc) refers (Special) to semi.o(.text) for __semihosting_library_function
    fputc_h.o(i._fputc$hlt) refers (Special) to iusesemip.o(.text) for __I$use$semihosting$fputc
    fputc_h.o(i._fputc$hlt) refers (Special) to semi.o(.text) for __semihosting_library_function
    uldiv.o(.text) refers to llushr.o(.text) for __aeabi_llsr
    uldiv.o(.text) refers to llshl.o(.text) for __aeabi_llsl
    fepilogue.o(.text) refers (Special) to iusefp.o(.text) for __I$use$fp
    depilogue.o(.text) refers (Special) to iusefp.o(.text) for __I$use$fp
    depilogue.o(.text) refers to llshl.o(.text) for __aeabi_llsl
    depilogue.o(.text) refers to llushr.o(.text) for __aeabi_llsr
    dfixul.o(.text) refers (Special) to iusefp.o(.text) for __I$use$fp
    dfixul.o(.text) refers to llushr.o(.text) for __aeabi_llsr
    dfixul.o(.text) refers to llshl.o(.text) for __aeabi_llsl
    cdrcmple.o(.text) refers (Special) to iusefp.o(.text) for __I$use$fp
    init.o(.text) refers to entry5.o(.ARM.Collect$$$$00000004) for __main_after_scatterload


==============================================================================

Removing Unused input sections from the image.

    Removing main.o(.ARM.exidx), (8 bytes).
    Removing main.o(.bss.bRemoteTimeout), (1 bytes).
    Removing main.o(.bss.bPilotTimeout), (1 bytes).
    Removing main.o(.data.iBug8), (1 bytes).
    Removing main.o(.bss.speedShutoff), (4 bytes).
    Removing main.o(.data.speedLimit), (2 bytes).
    Removing main.o(.data.wState), (1 bytes).
    Removing main.o(.data.wStateSlave), (1 bytes).
    Removing main.o(.bss.activateWeakening), (1 bytes).
    Removing main.o(.data.beepsBackwards), (1 bytes).
    Removing main.o(.bss.slaveError), (1 bytes).
    Removing main.o(.bss.enable), (1 bytes).
    Removing main.o(.bss.pwmSlave), (2 bytes).
    Removing main.o(.ARM.use_no_argv), (4 bytes).
    Removing bldc.o(.ARM.exidx), (48 bytes).
    Removing bldc.o(.bss.realSpeed32_reg), (4 bytes).
    Removing bldc.o(.bss.offsetcount), (2 bytes).
    Removing bldc.o(.data.offsetdc), (2 bytes).
    Removing driver.o(.ARM.exidx), (32 bytes).
    Removing bldcbc.o(.ARM.exidx), (16 bytes).
    Removing bldcsine.o(.text), (0 bytes).
    Removing setup.o(.ARM.exidx), (152 bytes).
    Removing setup.o(.bss.dma_init_struct_usart), (36 bytes).
    Removing setup.o(.bss.usart0_rx_buf), (1 bytes).
    Removing setup.o(.bss.usart1_rx_buf), (1 bytes).
    Removing setup.o(.bss.usart2_rx_buf), (1 bytes).
    Removing setup.o(.bss.dma_init_struct_adc), (36 bytes).
    Removing it.o(.ARM.exidx), (112 bytes).
    Removing it.o(.bss.iPwmTicks), (4 bytes).
    Removing it.o(.bss.iPwmTicks0), (4 bytes).
    Removing it.o(.bss.iPwmCounter), (4 bytes).
    Removing it.o(.bss.iPwmTime), (4 bytes).
    Removing it.o(.bss.iPwmRate), (4 bytes).
    Removing it.o(.bss.iAdcTicks), (4 bytes).
    Removing it.o(.bss.iAdcTicks0), (4 bytes).
    Removing it.o(.bss.iCounterUsart0), (4 bytes).
    Removing it.o(.bss.iCounter2Usart0), (4 bytes).
    Removing it.o(.bss.iCounterUsart1), (4 bytes).
    Removing it.o(.bss.iCounter2Usart1), (4 bytes).
    Removing it.o(.bss.iCounterUsart2), (4 bytes).
    Removing it.o(.bss.iCounter2Usart2), (4 bytes).
    Removing led.o(.text), (0 bytes).
    Removing comms.o(.text), (124 bytes).
    Removing comms.o(.ARM.exidx), (16 bytes).
    Removing remoteuart.o(.text), (0 bytes).
    Removing remotecrsf.o(.text), (0 bytes).
    Removing remotedummy.o(.text), (0 bytes).
    Removing remoteuartbus.o(.text), (0 bytes).
    Removing commsmasterslave.o(.text), (0 bytes).
    Removing commsmasterslave.o(.bss.mosfetOutMaster), (1 bytes).
    Removing commsmasterslave.o(.bss.beepsBackwardsMaster), (1 bytes).
    Removing remoteadc.o(.text), (0 bytes).
    Removing remoteautodetect.o(.ARM.exidx), (136 bytes).
    Removing remoteautodetect.o(.bss.iBug2), (4 bytes).
    Removing remoteautodetect.o(.bss.iTimeNextTx), (4 bytes).
    Removing remoteautodetect.o(.bss.i), (2 bytes).
    Removing remoteros2.o(.text), (0 bytes).
    Removing i2c.o(.text), (0 bytes).
    Removing mpu6050.o(.text), (0 bytes).
    Removing pilothoverbike.o(.text), (0 bytes).
    Removing pilotuser.o(.text), (0 bytes).
    Removing segger_rtt.o(.ARM.exidx), (248 bytes).
    Removing gd32f1x0_adc.o(.ARM.exidx), (256 bytes).
    Removing gd32f1x0_dbg.o(.text), (128 bytes).
    Removing gd32f1x0_dbg.o(.ARM.exidx), (48 bytes).
    Removing gd32f1x0_dma.o(.text), (880 bytes).
    Removing gd32f1x0_dma.o(.ARM.exidx), (216 bytes).
    Removing gd32f1x0_exti.o(.text), (366 bytes).
    Removing gd32f1x0_exti.o(.ARM.exidx), (96 bytes).
    Removing gd32f1x0_fmc.o(.ARM.exidx), (216 bytes).
    Removing gd32f1x0_fwdgt.o(.ARM.exidx), (48 bytes).
    Removing gd32f1x0_gpio.o(.ARM.exidx), (104 bytes).
    Removing gd32f1x0_i2c.o(.text), (802 bytes).
    Removing gd32f1x0_i2c.o(.ARM.exidx), (248 bytes).
    Removing gd32f1x0_misc.o(.ARM.exidx), (56 bytes).
    Removing gd32f1x0_opa.o(.text), (0 bytes).
    Removing gd32f1x0_pmu.o(.text), (490 bytes).
    Removing gd32f1x0_pmu.o(.ARM.exidx), (96 bytes).
    Removing gd32f1x0_pmu.o(.bss.pmu_to_deepsleepmode.reg_snap.0), (4 bytes).
    Removing gd32f1x0_pmu.o(.bss.pmu_to_deepsleepmode.reg_snap.1), (4 bytes).
    Removing gd32f1x0_pmu.o(.bss.pmu_to_deepsleepmode.reg_snap.2), (4 bytes).
    Removing gd32f1x0_pmu.o(.bss.pmu_to_deepsleepmode.reg_snap.3), (4 bytes).
    Removing gd32f1x0_rcu.o(.ARM.exidx), (336 bytes).
    Removing gd32f1x0_syscfg.o(.text), (258 bytes).
    Removing gd32f1x0_syscfg.o(.ARM.exidx), (72 bytes).
    Removing gd32f1x0_timer.o(.ARM.exidx), (568 bytes).
    Removing gd32f1x0_usart.o(.text), (1602 bytes).
    Removing gd32f1x0_usart.o(.ARM.exidx), (544 bytes).
    Removing gd32f1x0_wwdgt.o(.text), (170 bytes).
    Removing gd32f1x0_wwdgt.o(.ARM.exidx), (56 bytes).
    Removing startup_gd32f1x0.o(HEAP), (1024 bytes).
    Removing system_gd32f1x0.o(.ARM.exidx), (16 bytes).

92 unused section(s) (total 9772 bytes) removed from the image.

==============================================================================

Image Symbol Table

    Local Symbols

    Symbol Name                              Value     Ov Type        Size  Object(Section)

    ../clib/../cmprslib/zerorunl2.c          0x00000000   Number         0  __dczerorl2.o ABSOLUTE
    ../clib/division.s                       0x00000000   Number         0  aeabi_sdiv.o ABSOLUTE
    ../clib/microlib/division.c              0x00000000   Number         0  uidiv.o ABSOLUTE
    ../clib/microlib/division.c              0x00000000   Number         0  uldiv.o ABSOLUTE
    ../clib/microlib/init/entry.s            0x00000000   Number         0  entry.o ABSOLUTE
    ../clib/microlib/init/entry.s            0x00000000   Number         0  entry2.o ABSOLUTE
    ../clib/microlib/init/entry.s            0x00000000   Number         0  entry5.o ABSOLUTE
    ../clib/microlib/init/entry.s            0x00000000   Number         0  entry7a.o ABSOLUTE
    ../clib/microlib/init/entry.s            0x00000000   Number         0  entry7b.o ABSOLUTE
    ../clib/microlib/init/entry.s            0x00000000   Number         0  entry8a.o ABSOLUTE
    ../clib/microlib/init/entry.s            0x00000000   Number         0  entry8b.o ABSOLUTE
    ../clib/microlib/init/entry.s            0x00000000   Number         0  entry9a.o ABSOLUTE
    ../clib/microlib/init/entry.s            0x00000000   Number         0  entry9b.o ABSOLUTE
    ../clib/microlib/init/entry.s            0x00000000   Number         0  entry10a.o ABSOLUTE
    ../clib/microlib/init/entry.s            0x00000000   Number         0  entry10b.o ABSOLUTE
    ../clib/microlib/init/entry.s            0x00000000   Number         0  entry11a.o ABSOLUTE
    ../clib/microlib/init/entry.s            0x00000000   Number         0  entry11b.o ABSOLUTE
    ../clib/microlib/longlong.c              0x00000000   Number         0  llshl.o ABSOLUTE
    ../clib/microlib/longlong.c              0x00000000   Number         0  llushr.o ABSOLUTE
    ../clib/microlib/longlong.c              0x00000000   Number         0  llsshr.o ABSOLUTE
    ../clib/microlib/printf/printf.c         0x00000000   Number         0  printfb.o ABSOLUTE
    ../clib/microlib/printf/printf.c         0x00000000   Number         0  printf0.o ABSOLUTE
    ../clib/microlib/printf/printf.c         0x00000000   Number         0  printf1.o ABSOLUTE
    ../clib/microlib/printf/printf.c         0x00000000   Number         0  printf2.o ABSOLUTE
    ../clib/microlib/printf/printf.c         0x00000000   Number         0  printf3.o ABSOLUTE
    ../clib/microlib/printf/printf.c         0x00000000   Number         0  printf4.o ABSOLUTE
    ../clib/microlib/printf/printf.c         0x00000000   Number         0  printf5.o ABSOLUTE
    ../clib/microlib/printf/printf.c         0x00000000   Number         0  printf6.o ABSOLUTE
    ../clib/microlib/printf/printf.c         0x00000000   Number         0  printf7.o ABSOLUTE
    ../clib/microlib/printf/printf.c         0x00000000   Number         0  printf8.o ABSOLUTE
    ../clib/microlib/printf/printf.c         0x00000000   Number         0  printfa.o ABSOLUTE
    ../clib/microlib/printf/stubs.s          0x00000000   Number         0  printfstubs.o ABSOLUTE
    ../clib/microlib/stdio/fputc.c           0x00000000   Number         0  fputc.o ABSOLUTE
    ../clib/microlib/stdio/fputc.c           0x00000000   Number         0  fputc_h.o ABSOLUTE
    ../clib/microlib/stdio/semi.s            0x00000000   Number         0  semi.o ABSOLUTE
    ../clib/microlib/stdio/streams.c         0x00000000   Number         0  stdout.o ABSOLUTE
    ../clib/microlib/string/memcpy.c         0x00000000   Number         0  memcpya.o ABSOLUTE
    ../clib/microlib/string/memcpy.c         0x00000000   Number         0  memcpyb.o ABSOLUTE
    ../clib/microlib/string/memset.c         0x00000000   Number         0  memseta.o ABSOLUTE
    ../clib/microlib/string/strlen.c         0x00000000   Number         0  strlen.o ABSOLUTE
    ../clib/microlib/stubs.s                 0x00000000   Number         0  iusefp.o ABSOLUTE
    ../clib/microlib/stubs.s                 0x00000000   Number         0  iusesemip.o ABSOLUTE
    ../fplib/microlib/d2f.c                  0x00000000   Number         0  d2f.o ABSOLUTE
    ../fplib/microlib/f2d.c                  0x00000000   Number         0  f2d.o ABSOLUTE
    ../fplib/microlib/fpadd.c                0x00000000   Number         0  fadd.o ABSOLUTE
    ../fplib/microlib/fpadd.c                0x00000000   Number         0  dadd.o ABSOLUTE
    ../fplib/microlib/fpcmp.c                0x00000000   Number         0  fcmple.o ABSOLUTE
    ../fplib/microlib/fpcmp.c                0x00000000   Number         0  fcmpge.o ABSOLUTE
    ../fplib/microlib/fpcmp.c                0x00000000   Number         0  fcmpgt.o ABSOLUTE
    ../fplib/microlib/fpcmp.c                0x00000000   Number         0  fcmpeq.o ABSOLUTE
    ../fplib/microlib/fpdiv.c                0x00000000   Number         0  fdiv.o ABSOLUTE
    ../fplib/microlib/fpdiv.c                0x00000000   Number         0  ddiv.o ABSOLUTE
    ../fplib/microlib/fpepilogue.c           0x00000000   Number         0  fepilogue.o ABSOLUTE
    ../fplib/microlib/fpepilogue.c           0x00000000   Number         0  depilogue.o ABSOLUTE
    ../fplib/microlib/fpfix.c                0x00000000   Number         0  ffixi.o ABSOLUTE
    ../fplib/microlib/fpfix.c                0x00000000   Number         0  ffixl.o ABSOLUTE
    ../fplib/microlib/fpfix.c                0x00000000   Number         0  dfixi.o ABSOLUTE
    ../fplib/microlib/fpfix.c                0x00000000   Number         0  dfixul.o ABSOLUTE
    ../fplib/microlib/fpflt.c                0x00000000   Number         0  fflti.o ABSOLUTE
    ../fplib/microlib/fpflt.c                0x00000000   Number         0  ffltui.o ABSOLUTE
    ../fplib/microlib/fpflt.c                0x00000000   Number         0  dflti.o ABSOLUTE
    ../fplib/microlib/fpflt.c                0x00000000   Number         0  dfltui.o ABSOLUTE
    ../fplib/microlib/fpmul.c                0x00000000   Number         0  fmul.o ABSOLUTE
    ../fplib/microlib/fpmul.c                0x00000000   Number         0  dmul.o ABSOLUTE
    PilotHoverbike.c                         0x00000000   Number         0  pilothoverbike.o ABSOLUTE
    PilotUser.c                              0x00000000   Number         0  pilotuser.o ABSOLUTE
    RTE/Device/GD32F130C8/startup_gd32f1x0.s 0x00000000   Number         0  startup_gd32f1x0.o ABSOLUTE
    RemoteAdc.c                              0x00000000   Number         0  remoteadc.o ABSOLUTE
    RemoteAutodetect.c                       0x00000000   Number         0  remoteautodetect.o ABSOLUTE
    RemoteROS2.c                             0x00000000   Number         0  remoteros2.o ABSOLUTE
    SEGGER_RTT.c                             0x00000000   Number         0  segger_rtt.o ABSOLUTE
    bldc.c                                   0x00000000   Number         0  bldc.o ABSOLUTE
    bldcBC.c                                 0x00000000   Number         0  bldcbc.o ABSOLUTE
    bldcSINE.c                               0x00000000   Number         0  bldcsine.o ABSOLUTE
    cdrcmple.s                               0x00000000   Number         0  cdrcmple.o ABSOLUTE
    comms.c                                  0x00000000   Number         0  comms.o ABSOLUTE
    commsMasterSlave.c                       0x00000000   Number         0  commsmasterslave.o ABSOLUTE
    dc.s                                     0x00000000   Number         0  dc.o ABSOLUTE
    driver.c                                 0x00000000   Number         0  driver.o ABSOLUTE
    gd32f1x0_adc.c                           0x00000000   Number         0  gd32f1x0_adc.o ABSOLUTE
    gd32f1x0_dbg.c                           0x00000000   Number         0  gd32f1x0_dbg.o ABSOLUTE
    gd32f1x0_dma.c                           0x00000000   Number         0  gd32f1x0_dma.o ABSOLUTE
    gd32f1x0_exti.c                          0x00000000   Number         0  gd32f1x0_exti.o ABSOLUTE
    gd32f1x0_fmc.c                           0x00000000   Number         0  gd32f1x0_fmc.o ABSOLUTE
    gd32f1x0_fwdgt.c                         0x00000000   Number         0  gd32f1x0_fwdgt.o ABSOLUTE
    gd32f1x0_gpio.c                          0x00000000   Number         0  gd32f1x0_gpio.o ABSOLUTE
    gd32f1x0_i2c.c                           0x00000000   Number         0  gd32f1x0_i2c.o ABSOLUTE
    gd32f1x0_misc.c                          0x00000000   Number         0  gd32f1x0_misc.o ABSOLUTE
    gd32f1x0_opa.c                           0x00000000   Number         0  gd32f1x0_opa.o ABSOLUTE
    gd32f1x0_pmu.c                           0x00000000   Number         0  gd32f1x0_pmu.o ABSOLUTE
    gd32f1x0_rcu.c                           0x00000000   Number         0  gd32f1x0_rcu.o ABSOLUTE
    gd32f1x0_syscfg.c                        0x00000000   Number         0  gd32f1x0_syscfg.o ABSOLUTE
    gd32f1x0_timer.c                         0x00000000   Number         0  gd32f1x0_timer.o ABSOLUTE
    gd32f1x0_usart.c                         0x00000000   Number         0  gd32f1x0_usart.o ABSOLUTE
    gd32f1x0_wwdgt.c                         0x00000000   Number         0  gd32f1x0_wwdgt.o ABSOLUTE
    handlers.s                               0x00000000   Number         0  handlers.o ABSOLUTE
    i2c.c                                    0x00000000   Number         0  i2c.o ABSOLUTE
    init.s                                   0x00000000   Number         0  init.o ABSOLUTE
    it.c                                     0x00000000   Number         0  it.o ABSOLUTE
    led.c                                    0x00000000   Number         0  led.o ABSOLUTE
    main.c                                   0x00000000   Number         0  main.o ABSOLUTE
    mpu6050.c                                0x00000000   Number         0  mpu6050.o ABSOLUTE
    remoteCrsf.c                             0x00000000   Number         0  remotecrsf.o ABSOLUTE
    remoteDummy.c                            0x00000000   Number         0  remotedummy.o ABSOLUTE
    remoteUart.c                             0x00000000   Number         0  remoteuart.o ABSOLUTE
    remoteUartBus.c                          0x00000000   Number         0  remoteuartbus.o ABSOLUTE
    setup.c                                  0x00000000   Number         0  setup.o ABSOLUTE
    system_gd32f1x0.c                        0x00000000   Number         0  system_gd32f1x0.o ABSOLUTE
    RESET                                    0x08000000   Section      360  startup_gd32f1x0.o(RESET)
    .ARM.Collect$$$$00000000                 0x08000168   Section        0  entry.o(.ARM.Collect$$$$00000000)
    .ARM.Collect$$$$00000001                 0x08000168   Section        4  entry2.o(.ARM.Collect$$$$00000001)
    .ARM.Collect$$$$00000004                 0x0800016c   Section        4  entry5.o(.ARM.Collect$$$$00000004)
    .ARM.Collect$$$$00000008                 0x08000170   Section        0  entry7b.o(.ARM.Collect$$$$00000008)
    .ARM.Collect$$$$0000000A                 0x08000170   Section        0  entry8b.o(.ARM.Collect$$$$0000000A)
    .ARM.Collect$$$$0000000B                 0x08000170   Section        8  entry9a.o(.ARM.Collect$$$$0000000B)
    __lit__00000000                          0x08000178   Data           4  entry2.o(.ARM.Collect$$$$00002712)
    .ARM.Collect$$$$0000000D                 0x08000178   Section        0  entry10a.o(.ARM.Collect$$$$0000000D)
    .ARM.Collect$$$$0000000F                 0x08000178   Section        0  entry11a.o(.ARM.Collect$$$$0000000F)
    .ARM.Collect$$$$00002712                 0x08000178   Section        4  entry2.o(.ARM.Collect$$$$00002712)
    [Anonymous Symbol]                       0x0800017c   Section        0  main.o(.text)
    [Anonymous Symbol]                       0x08000248   Section        0  bldc.o(.text)
    [Anonymous Symbol]                       0x0800086c   Section        0  driver.o(.text)
    [Anonymous Symbol]                       0x08000ab0   Section        0  bldcbc.o(.text)
    [Anonymous Symbol]                       0x08000b20   Section        0  setup.o(.text)
    [Anonymous Symbol]                       0x0800113c   Section        0  it.o(.text)
    [Anonymous Symbol]                       0x08001260   Section        0  remoteautodetect.o(.text)
    [Anonymous Symbol]                       0x0800363c   Section        0  segger_rtt.o(.text)
    [Anonymous Symbol]                       0x08004de0   Section        0  gd32f1x0_adc.o(.text)
    [Anonymous Symbol]                       0x08005388   Section        0  gd32f1x0_fmc.o(.text)
    [Anonymous Symbol]                       0x08005d58   Section        0  gd32f1x0_fwdgt.o(.text)
    [Anonymous Symbol]                       0x08005e3c   Section        0  gd32f1x0_gpio.o(.text)
    [Anonymous Symbol]                       0x08005fd4   Section        0  gd32f1x0_misc.o(.text)
    [Anonymous Symbol]                       0x08006100   Section        0  gd32f1x0_rcu.o(.text)
    [Anonymous Symbol]                       0x08006824   Section        0  gd32f1x0_timer.o(.text)
    .text                                    0x08007574   Section       36  startup_gd32f1x0.o(.text)
    [Anonymous Symbol]                       0x08007598   Section        0  system_gd32f1x0.o(.text)
    .text                                    0x080076d4   Section        0  memcpya.o(.text)
    .text                                    0x080076f8   Section        0  memseta.o(.text)
    .text                                    0x0800771c   Section        0  strlen.o(.text)
    .text                                    0x0800772a   Section        0  fadd.o(.text)
    .text                                    0x080077da   Section        0  fmul.o(.text)
    .text                                    0x0800783e   Section        0  fdiv.o(.text)
    .text                                    0x080078ba   Section        0  dadd.o(.text)
    .text                                    0x08007a08   Section        0  dmul.o(.text)
    .text                                    0x08007aec   Section        0  ddiv.o(.text)
    .text                                    0x08007bca   Section        0  fcmple.o(.text)
    .text                                    0x08007be6   Section        0  fcmpge.o(.text)
    .text                                    0x08007c02   Section        0  fcmpgt.o(.text)
    .text                                    0x08007c1e   Section        0  fcmpeq.o(.text)
    .text                                    0x08007c3a   Section        0  fflti.o(.text)
    .text                                    0x08007c4c   Section        0  ffltui.o(.text)
    .text                                    0x08007c56   Section        0  dflti.o(.text)
    .text                                    0x08007c78   Section        0  dfltui.o(.text)
    .text                                    0x08007c92   Section        0  ffixi.o(.text)
    .text                                    0x08007cc4   Section        0  ffixl.o(.text)
    .text                                    0x08007d06   Section        0  dfixi.o(.text)
    .text                                    0x08007d44   Section        0  f2d.o(.text)
    .text                                    0x08007d6a   Section        0  d2f.o(.text)
    .text                                    0x08007da2   Section        0  uidiv.o(.text)
    .text                                    0x08007dce   Section        0  uldiv.o(.text)
    .text                                    0x08007e30   Section        0  llshl.o(.text)
    .text                                    0x08007e4e   Section        0  llushr.o(.text)
    .text                                    0x08007e6e   Section        0  llsshr.o(.text)
    .text                                    0x08007e92   Section        0  iusefp.o(.text)
    .text                                    0x08007e92   Section        0  fepilogue.o(.text)
    .text                                    0x08007f00   Section        0  depilogue.o(.text)
    .text                                    0x08007fba   Section        0  dfixul.o(.text)
    .text                                    0x08007fec   Section       48  cdrcmple.o(.text)
    .text                                    0x0800801c   Section       48  init.o(.text)
    .text                                    0x0800804c   Section        0  __dczerorl2.o(.text)
    i.__0sprintf                             0x080080a4   Section        0  printfa.o(i.__0sprintf)
    i.__scatterload_copy                     0x080080cc   Section       14  handlers.o(i.__scatterload_copy)
    i.__scatterload_null                     0x080080da   Section        2  handlers.o(i.__scatterload_null)
    i.__scatterload_zeroinit                 0x080080dc   Section       14  handlers.o(i.__scatterload_zeroinit)
    _fp_digits                               0x080080ed   Thumb Code   366  printfa.o(i._fp_digits)
    i._fp_digits                             0x080080ec   Section        0  printfa.o(i._fp_digits)
    _printf_core                             0x08008271   Thumb Code  1744  printfa.o(i._printf_core)
    i._printf_core                           0x08008270   Section        0  printfa.o(i._printf_core)
    _printf_post_padding                     0x0800894d   Thumb Code    36  printfa.o(i._printf_post_padding)
    i._printf_post_padding                   0x0800894c   Section        0  printfa.o(i._printf_post_padding)
    _printf_pre_padding                      0x08008971   Thumb Code    46  printfa.o(i._printf_pre_padding)
    i._printf_pre_padding                    0x08008970   Section        0  printfa.o(i._printf_pre_padding)
    _sputc                                   0x0800899f   Thumb Code    10  printfa.o(i._sputc)
    i._sputc                                 0x0800899e   Section        0  printfa.o(i._sputc)
    .L__const.up_or_down.up_down             0x080089a8   Data          12  bldc.o(.rodata..L__const.up_or_down.up_down)
    .Lswitch.table.gpio_deinit.1             0x080089b4   Data          12  gd32f1x0_gpio.o(.rodata..Lswitch.table.gpio_deinit.1)
    _DoInit._aInitStr                        0x080089c0   Data          17  segger_rtt.o(.rodata._DoInit._aInitStr)
    [Anonymous Symbol]                       0x080089c0   Section        0  segger_rtt.o(.rodata._DoInit._aInitStr)
    _aTerminalId                             0x080089d1   Data          16  segger_rtt.o(.rodata.cst16)
    [Anonymous Symbol]                       0x080089d1   Section        0  segger_rtt.o(.rodata.cst16)
    .L__const.rcu_clock_freq_get.apb2_exp    0x080089e1   Data           8  gd32f1x0_rcu.o(.rodata.cst8)
    [Anonymous Symbol]                       0x080089f1   Section        0  remoteautodetect.o(.rodata.str1.1)
    .L.str.71                                0x080089f6   Data          21  remoteautodetect.o(.rodata.str1.1)
    .L.str.72                                0x08008a0b   Data          24  remoteautodetect.o(.rodata.str1.1)
    .L.str.88                                0x08008a23   Data          34  remoteautodetect.o(.rodata.str1.1)
    .L.str.64                                0x08008a45   Data          10  remoteautodetect.o(.rodata.str1.1)
    .L.str.73                                0x08008a4f   Data           9  remoteautodetect.o(.rodata.str1.1)
    .L.str.68                                0x08008a58   Data          98  remoteautodetect.o(.rodata.str1.1)
    .L.str.87                                0x08008aba   Data          10  remoteautodetect.o(.rodata.str1.1)
    .L.str.79                                0x08008ac4   Data          16  remoteautodetect.o(.rodata.str1.1)
    .L.str.77                                0x08008ad9   Data          68  remoteautodetect.o(.rodata.str1.1)
    .L.str.74                                0x08008c23   Data           9  remoteautodetect.o(.rodata.str1.1)
    .L.str.76                                0x08008c2c   Data          42  remoteautodetect.o(.rodata.str1.1)
    .L.str.78                                0x08008c56   Data          24  remoteautodetect.o(.rodata.str1.1)
    .L.str.83                                0x08008c6e   Data          39  remoteautodetect.o(.rodata.str1.1)
    .L.str.82                                0x08008c95   Data           9  remoteautodetect.o(.rodata.str1.1)
    .L.str.81                                0x08008c9e   Data          13  remoteautodetect.o(.rodata.str1.1)
    .L.str.80                                0x08008cab   Data          34  remoteautodetect.o(.rodata.str1.1)
    .L.str.52                                0x08008ccc   Data           1  remoteautodetect.o(.rodata.str1.1)
    .L.str                                   0x08008ccd   Data           9  segger_rtt.o(.rodata.str1.1)
    [Anonymous Symbol]                       0x08008ccd   Section        0  segger_rtt.o(.rodata.str1.1)
    .L.str.93                                0x08008cd8   Data          24  remoteautodetect.o(.rodata.str1.4)
    [Anonymous Symbol]                       0x08008cd8   Section        0  remoteautodetect.o(.rodata.str1.4)
    .L.str.63                                0x08008cf0   Data          30  remoteautodetect.o(.rodata.str1.4)
    .L.str.67                                0x08008d1c   Data          98  remoteautodetect.o(.rodata.str1.4)
    .L.str.65                                0x08008d80   Data          80  remoteautodetect.o(.rodata.str1.4)
    .L.str.60                                0x08008dd0   Data          97  remoteautodetect.o(.rodata.str1.4)
    .L.str.84                                0x08008e34   Data          21  remoteautodetect.o(.rodata.str1.4)
    .L.str.66                                0x08008e4c   Data          47  remoteautodetect.o(.rodata.str1.4)
    _ActiveTerminal                          0x20000250   Data           1  segger_rtt.o(.bss._ActiveTerminal)
    [Anonymous Symbol]                       0x20000250   Section        0  segger_rtt.o(.bss._ActiveTerminal)
    _acDownBuffer                            0x200002fc   Data          16  segger_rtt.o(.bss._acDownBuffer)
    [Anonymous Symbol]                       0x200002fc   Section        0  segger_rtt.o(.bss._acDownBuffer)
    _acUpBuffer                              0x2000030c   Data        1024  segger_rtt.o(.bss._acUpBuffer)
    [Anonymous Symbol]                       0x2000030c   Section        0  segger_rtt.o(.bss._acUpBuffer)
    STACK                                    0x20000aa8   Section     1024  startup_gd32f1x0.o(STACK)

    Global Symbols

    Symbol Name                              Value     Ov Type        Size  Object(Section)

    BuildAttributes$$THM_ISAv4$P$D$K$B$S$PE$A:L22UL41UL21$X:L11$S22US41US21$IEEE1$IW$~IW$USESV6$~STKCKD$USESV7$~SHL$OTIME$ROPI$EBA8$MICROLIB$REQ8$PRES8$EABIv2 0x00000000   Number         0  anon$$obj.o ABSOLUTE
    _printf_a                                0x00000000   Number         0  printfstubs.o ABSOLUTE
    _printf_c                                0x00000000   Number         0  printfstubs.o ABSOLUTE
    _printf_charcount                        0x00000000   Number         0  printfstubs.o ABSOLUTE
    _printf_d                                0x00000000   Number         0  printfstubs.o ABSOLUTE
    _printf_e                                0x00000000   Number         0  printfstubs.o ABSOLUTE
    _printf_f                                0x00000000   Number         0  printfstubs.o ABSOLUTE
    _printf_flags                            0x00000000   Number         0  printfstubs.o ABSOLUTE
    _printf_fp_dec                           0x00000000   Number         0  printfstubs.o ABSOLUTE
    _printf_fp_hex                           0x00000000   Number         0  printfstubs.o ABSOLUTE
    _printf_g                                0x00000000   Number         0  printfstubs.o ABSOLUTE
    _printf_i                                0x00000000   Number         0  printfstubs.o ABSOLUTE
    _printf_int_dec                          0x00000000   Number         0  printfstubs.o ABSOLUTE
    _printf_l                                0x00000000   Number         0  printfstubs.o ABSOLUTE
    _printf_lc                               0x00000000   Number         0  printfstubs.o ABSOLUTE
    _printf_ll                               0x00000000   Number         0  printfstubs.o ABSOLUTE
    _printf_lld                              0x00000000   Number         0  printfstubs.o ABSOLUTE
    _printf_lli                              0x00000000   Number         0  printfstubs.o ABSOLUTE
    _printf_llo                              0x00000000   Number         0  printfstubs.o ABSOLUTE
    _printf_llu                              0x00000000   Number         0  printfstubs.o ABSOLUTE
    _printf_llx                              0x00000000   Number         0  printfstubs.o ABSOLUTE
    _printf_longlong_dec                     0x00000000   Number         0  printfstubs.o ABSOLUTE
    _printf_longlong_hex                     0x00000000   Number         0  printfstubs.o ABSOLUTE
    _printf_longlong_oct                     0x00000000   Number         0  printfstubs.o ABSOLUTE
    _printf_ls                               0x00000000   Number         0  printfstubs.o ABSOLUTE
    _printf_mbtowc                           0x00000000   Number         0  printfstubs.o ABSOLUTE
    _printf_n                                0x00000000   Number         0  printfstubs.o ABSOLUTE
    _printf_o                                0x00000000   Number         0  printfstubs.o ABSOLUTE
    _printf_p                                0x00000000   Number         0  printfstubs.o ABSOLUTE
    _printf_percent                          0x00000000   Number         0  printfstubs.o ABSOLUTE
    _printf_pre_padding                      0x00000000   Number         0  printfstubs.o ABSOLUTE
    _printf_return_value                     0x00000000   Number         0  printfstubs.o ABSOLUTE
    _printf_s                                0x00000000   Number         0  printfstubs.o ABSOLUTE
    _printf_sizespec                         0x00000000   Number         0  printfstubs.o ABSOLUTE
    _printf_str                              0x00000000   Number         0  printfstubs.o ABSOLUTE
    _printf_truncate_signed                  0x00000000   Number         0  printfstubs.o ABSOLUTE
    _printf_truncate_unsigned                0x00000000   Number         0  printfstubs.o ABSOLUTE
    _printf_u                                0x00000000   Number         0  printfstubs.o ABSOLUTE
    _printf_wc                               0x00000000   Number         0  printfstubs.o ABSOLUTE
    _printf_wctomb                           0x00000000   Number         0  printfstubs.o ABSOLUTE
    _printf_widthprec                        0x00000000   Number         0  printfstubs.o ABSOLUTE
    _printf_x                                0x00000000   Number         0  printfstubs.o ABSOLUTE
    __cpp_initialize__aeabi_                  - Undefined Weak Reference
    __cxa_finalize                            - Undefined Weak Reference
    _clock_init                               - Undefined Weak Reference
    _microlib_exit                            - Undefined Weak Reference
    __Vectors_Size                           0x00000168   Number         0  startup_gd32f1x0.o ABSOLUTE
    __Vectors                                0x08000000   Data           4  startup_gd32f1x0.o(RESET)
    __Vectors_End                            0x08000168   Data           0  startup_gd32f1x0.o(RESET)
    __main                                   0x08000169   Thumb Code     0  entry.o(.ARM.Collect$$$$00000000)
    _main_stk                                0x08000169   Thumb Code     0  entry2.o(.ARM.Collect$$$$00000001)
    _main_scatterload                        0x0800016d   Thumb Code     0  entry5.o(.ARM.Collect$$$$00000004)
    __main_after_scatterload                 0x08000171   Thumb Code     0  entry5.o(.ARM.Collect$$$$00000004)
    _main_clock                              0x08000171   Thumb Code     0  entry7b.o(.ARM.Collect$$$$00000008)
    _main_cpp_init                           0x08000171   Thumb Code     0  entry8b.o(.ARM.Collect$$$$0000000A)
    _main_init                               0x08000171   Thumb Code     0  entry9a.o(.ARM.Collect$$$$0000000B)
    __rt_final_cpp                           0x08000179   Thumb Code     0  entry10a.o(.ARM.Collect$$$$0000000D)
    __rt_final_exit                          0x08000179   Thumb Code     0  entry11a.o(.ARM.Collect$$$$0000000F)
    main                                     0x0800017d   Thumb Code   202  main.o(.text)
    modulo                                   0x08000249   Thumb Code    22  bldc.o(.text)
    up_or_down                               0x08000261   Thumb Code    66  bldc.o(.text)
    SetEnable                                0x080002a5   Thumb Code    12  bldc.o(.text)
    SetBldcInput                             0x080002b1   Thumb Code   128  bldc.o(.text)
    SetFilter                                0x08000331   Thumb Code    44  bldc.o(.text)
    CalculateBLDC                            0x0800035d   Thumb Code  1296  bldc.o(.text)
    PID_Init                                 0x0800086d   Thumb Code   124  driver.o(.text)
    PID_Update                               0x080008e9   Thumb Code   120  driver.o(.text)
    DriverInit                               0x08000961   Thumb Code   136  driver.o(.text)
    Driver                                   0x08000a01   Thumb Code   174  driver.o(.text)
    bldc_get_pwm                             0x08000ab1   Thumb Code   106  bldcbc.o(.text)
    InitBldc                                 0x08000b1d   Thumb Code     2  bldcbc.o(.text)
    pinMode                                  0x08000b21   Thumb Code    42  setup.o(.text)
    pinModePull                              0x08000b4d   Thumb Code    40  setup.o(.text)
    Interrupt_init                           0x08000b75   Thumb Code     8  setup.o(.text)
    Watchdog_init                            0x08000b7d   Thumb Code    56  setup.o(.text)
    TimeoutTimer_init                        0x08000bb5   Thumb Code    92  setup.o(.text)
    GPIO_init                                0x08000c11   Thumb Code   304  setup.o(.text)
    PWM_init                                 0x08000d41   Thumb Code   430  setup.o(.text)
    ADC_init                                 0x08000ef1   Thumb Code   116  setup.o(.text)
    USART0_Init                              0x08000f65   Thumb Code     2  setup.o(.text)
    USART1_Init                              0x08000f69   Thumb Code     2  setup.o(.text)
    USART2_Init                              0x08000f6d   Thumb Code     2  setup.o(.text)
    flashErase                               0x08000f71   Thumb Code    28  setup.o(.text)
    flashRead                                0x08000f8d   Thumb Code     4  setup.o(.text)
    flashWrite                               0x08000f91   Thumb Code    38  setup.o(.text)
    flashWriteBuffer                         0x08000fb9   Thumb Code    64  setup.o(.text)
    flashReadBuffer                          0x08000ff9   Thumb Code    34  setup.o(.text)
    ConfigReset                              0x0800101d   Thumb Code    44  setup.o(.text)
    ConfigWrite                              0x08001049   Thumb Code   112  setup.o(.text)
    ConfigRead                               0x080010b9   Thumb Code   130  setup.o(.text)
    SysTick_Handler                          0x0800113d   Thumb Code    16  it.o(.text)
    ResetTimeout                             0x0800114d   Thumb Code    14  it.o(.text)
    TIMER13_IRQHandler                       0x0800115d   Thumb Code    76  it.o(.text)
    ADC_CMP_IRQHandler                       0x080011a9   Thumb Code   112  it.o(.text)
    millis                                   0x08001219   Thumb Code    12  it.o(.text)
    Delay                                    0x08001225   Thumb Code    28  it.o(.text)
    NMI_Handler                              0x08001241   Thumb Code     2  it.o(.text)
    HardFault_Handler                        0x08001245   Thumb Code     2  it.o(.text)
    MemManage_Handler                        0x08001249   Thumb Code     2  it.o(.text)
    BusFault_Handler                         0x0800124d   Thumb Code     2  it.o(.text)
    UsageFault_Handler                       0x08001251   Thumb Code     2  it.o(.text)
    SVC_Handler                              0x08001255   Thumb Code     2  it.o(.text)
    DebugMon_Handler                         0x08001259   Thumb Code     2  it.o(.text)
    PendSV_Handler                           0x0800125d   Thumb Code     2  it.o(.text)
    ConfigWriteAD                            0x08001261   Thumb Code    92  remoteautodetect.o(.text)
    ConfigReadAD                             0x080012bd   Thumb Code   112  remoteautodetect.o(.text)
    HidePinDigital                           0x0800132d   Thumb Code    58  remoteautodetect.o(.text)
    GetPinName                               0x08001369   Thumb Code    42  remoteautodetect.o(.text)
    ListFound                                0x08001395   Thumb Code   176  remoteautodetect.o(.text)
    _RemoteReceived                          0x08001461   Thumb Code    42  remoteautodetect.o(.text)
    add_cr_before_lf_inplace                 0x0800148d   Thumb Code   130  remoteautodetect.o(.text)
    RemoteUpdate                             0x08001511   Thumb Code   218  remoteautodetect.o(.text)
    AutodetectInit                           0x080015ed   Thumb Code     2  remoteautodetect.o(.text)
    AutoDetectSetStage                       0x080015f1   Thumb Code    78  remoteautodetect.o(.text)
    AutoDetectNextStage                      0x08001641   Thumb Code   108  remoteautodetect.o(.text)
    SetNextTestPin                           0x080016ad   Thumb Code   130  remoteautodetect.o(.text)
    ScanInit                                 0x08001731   Thumb Code   572  remoteautodetect.o(.text)
    AutodetectScan                           0x0800196d   Thumb Code  5212  remoteautodetect.o(.text)
    AutoDetectHallOrderInit                  0x08002de9   Thumb Code   128  remoteautodetect.o(.text)
    AutoDetectHallInit                       0x08002e69   Thumb Code    94  remoteautodetect.o(.text)
    AutodetectBldc                           0x08002ec9   Thumb Code  1756  remoteautodetect.o(.text)
    SEGGER_RTT_ReadUpBufferNoLock            0x0800363d   Thumb Code   226  segger_rtt.o(.text)
    SEGGER_RTT_ReadNoLock                    0x08003721   Thumb Code   226  segger_rtt.o(.text)
    SEGGER_RTT_ReadUpBuffer                  0x08003805   Thumb Code   240  segger_rtt.o(.text)
    SEGGER_RTT_Read                          0x080038f5   Thumb Code   240  segger_rtt.o(.text)
    SEGGER_RTT_WriteWithOverwriteNoLock      0x080039e5   Thumb Code   164  segger_rtt.o(.text)
    SEGGER_RTT_WriteDownBufferNoLock         0x08003a89   Thumb Code   288  segger_rtt.o(.text)
    SEGGER_RTT_WriteNoLock                   0x08003ba9   Thumb Code   288  segger_rtt.o(.text)
    SEGGER_RTT_WriteDownBuffer               0x08003cc9   Thumb Code   150  segger_rtt.o(.text)
    SEGGER_RTT_Write                         0x08003d61   Thumb Code   150  segger_rtt.o(.text)
    SEGGER_RTT_WriteString                   0x08003df9   Thumb Code   154  segger_rtt.o(.text)
    SEGGER_RTT_PutCharSkipNoLock             0x08003e95   Thumb Code    60  segger_rtt.o(.text)
    SEGGER_RTT_PutCharSkip                   0x08003ed1   Thumb Code   176  segger_rtt.o(.text)
    SEGGER_RTT_PutChar                       0x08003f81   Thumb Code   192  segger_rtt.o(.text)
    SEGGER_RTT_GetKey                        0x08004041   Thumb Code    34  segger_rtt.o(.text)
    SEGGER_RTT_WaitKey                       0x08004065   Thumb Code    30  segger_rtt.o(.text)
    SEGGER_RTT_HasKey                        0x08004085   Thumb Code   124  segger_rtt.o(.text)
    SEGGER_RTT_HasData                       0x08004101   Thumb Code    24  segger_rtt.o(.text)
    SEGGER_RTT_HasDataUp                     0x08004119   Thumb Code    24  segger_rtt.o(.text)
    SEGGER_RTT_AllocDownBuffer               0x08004131   Thumb Code   208  segger_rtt.o(.text)
    SEGGER_RTT_AllocUpBuffer                 0x08004201   Thumb Code   208  segger_rtt.o(.text)
    SEGGER_RTT_ConfigUpBuffer                0x080042d1   Thumb Code   196  segger_rtt.o(.text)
    SEGGER_RTT_ConfigDownBuffer              0x08004395   Thumb Code   196  segger_rtt.o(.text)
    SEGGER_RTT_SetNameUpBuffer               0x08004459   Thumb Code   160  segger_rtt.o(.text)
    SEGGER_RTT_SetNameDownBuffer             0x080044f9   Thumb Code   160  segger_rtt.o(.text)
    SEGGER_RTT_SetFlagsUpBuffer              0x08004599   Thumb Code   160  segger_rtt.o(.text)
    SEGGER_RTT_SetFlagsDownBuffer            0x08004639   Thumb Code   160  segger_rtt.o(.text)
    SEGGER_RTT_Init                          0x080046d9   Thumb Code   106  segger_rtt.o(.text)
    SEGGER_RTT_SetTerminal                   0x08004745   Thumb Code   420  segger_rtt.o(.text)
    SEGGER_RTT_TerminalOut                   0x080048e9   Thumb Code  1186  segger_rtt.o(.text)
    SEGGER_RTT_GetAvailWriteSpace            0x08004d8d   Thumb Code    42  segger_rtt.o(.text)
    SEGGER_RTT_GetBytesInBuffer              0x08004db9   Thumb Code    38  segger_rtt.o(.text)
    adc_deinit                               0x08004de1   Thumb Code    22  gd32f1x0_adc.o(.text)
    adc_enable                               0x08004df9   Thumb Code    26  gd32f1x0_adc.o(.text)
    adc_disable                              0x08004e15   Thumb Code    18  gd32f1x0_adc.o(.text)
    adc_calibration_enable                   0x08004e29   Thumb Code    40  gd32f1x0_adc.o(.text)
    adc_dma_mode_enable                      0x08004e51   Thumb Code    18  gd32f1x0_adc.o(.text)
    adc_dma_mode_disable                     0x08004e65   Thumb Code    18  gd32f1x0_adc.o(.text)
    adc_tempsensor_vrefint_enable            0x08004e79   Thumb Code    18  gd32f1x0_adc.o(.text)
    adc_tempsensor_vrefint_disable           0x08004e8d   Thumb Code    18  gd32f1x0_adc.o(.text)
    adc_vbat_enable                          0x08004ea1   Thumb Code    18  gd32f1x0_adc.o(.text)
    adc_vbat_disable                         0x08004eb5   Thumb Code    18  gd32f1x0_adc.o(.text)
    adc_discontinuous_mode_config            0x08004ec9   Thumb Code    68  gd32f1x0_adc.o(.text)
    adc_special_function_config              0x08004f0d   Thumb Code   100  gd32f1x0_adc.o(.text)
    adc_data_alignment_config                0x08004f71   Thumb Code    26  gd32f1x0_adc.o(.text)
    adc_channel_length_config                0x08004f8d   Thumb Code    82  gd32f1x0_adc.o(.text)
    adc_regular_channel_config               0x08004fe1   Thumb Code   180  gd32f1x0_adc.o(.text)
    adc_inserted_channel_config              0x08005095   Thumb Code   114  gd32f1x0_adc.o(.text)
    adc_inserted_channel_offset_config       0x08005109   Thumb Code    32  gd32f1x0_adc.o(.text)
    adc_external_trigger_config              0x08005129   Thumb Code    72  gd32f1x0_adc.o(.text)
    adc_external_trigger_source_config       0x08005171   Thumb Code    42  gd32f1x0_adc.o(.text)
    adc_software_trigger_enable              0x0800519d   Thumb Code    36  gd32f1x0_adc.o(.text)
    adc_regular_data_read                    0x080051c1   Thumb Code    14  gd32f1x0_adc.o(.text)
    adc_inserted_data_read                   0x080051d1   Thumb Code    74  gd32f1x0_adc.o(.text)
    adc_flag_get                             0x0800521d   Thumb Code    18  gd32f1x0_adc.o(.text)
    adc_flag_clear                           0x08005231   Thumb Code    18  gd32f1x0_adc.o(.text)
    adc_interrupt_flag_get                   0x08005245   Thumb Code    56  gd32f1x0_adc.o(.text)
    adc_interrupt_flag_clear                 0x0800527d   Thumb Code    18  gd32f1x0_adc.o(.text)
    adc_interrupt_enable                     0x08005291   Thumb Code    48  gd32f1x0_adc.o(.text)
    adc_interrupt_disable                    0x080052c1   Thumb Code    48  gd32f1x0_adc.o(.text)
    adc_watchdog_single_channel_enable       0x080052f1   Thumb Code    42  gd32f1x0_adc.o(.text)
    adc_watchdog_group_channel_enable        0x0800531d   Thumb Code    48  gd32f1x0_adc.o(.text)
    adc_watchdog_disable                     0x08005359   Thumb Code    24  gd32f1x0_adc.o(.text)
    adc_watchdog_threshold_config            0x08005371   Thumb Code    22  gd32f1x0_adc.o(.text)
    fmc_unlock                               0x08005389   Thumb Code    38  gd32f1x0_fmc.o(.text)
    fmc_lock                                 0x080053b1   Thumb Code    18  gd32f1x0_fmc.o(.text)
    fmc_wscnt_set                            0x080053c5   Thumb Code    20  gd32f1x0_fmc.o(.text)
    fmc_wait_state_enable                    0x080053d9   Thumb Code    18  gd32f1x0_fmc.o(.text)
    fmc_wait_state_disable                   0x080053ed   Thumb Code    18  gd32f1x0_fmc.o(.text)
    fmc_page_erase                           0x08005401   Thumb Code   158  gd32f1x0_fmc.o(.text)
    fmc_mass_erase                           0x080054a1   Thumb Code   150  gd32f1x0_fmc.o(.text)
    fmc_word_program                         0x08005539   Thumb Code   150  gd32f1x0_fmc.o(.text)
    fmc_halfword_program                     0x080055d1   Thumb Code   150  gd32f1x0_fmc.o(.text)
    ob_unlock                                0x08005669   Thumb Code    38  gd32f1x0_fmc.o(.text)
    ob_lock                                  0x08005691   Thumb Code    18  gd32f1x0_fmc.o(.text)
    ob_reset                                 0x080056a5   Thumb Code    18  gd32f1x0_fmc.o(.text)
    ob_erase                                 0x080056b9   Thumb Code   294  gd32f1x0_fmc.o(.text)
    ob_obstat_plevel_get                     0x080057e1   Thumb Code    16  gd32f1x0_fmc.o(.text)
    ob_write_protection_enable               0x080057f1   Thumb Code   312  gd32f1x0_fmc.o(.text)
    ob_security_protection_config            0x08005929   Thumb Code   304  gd32f1x0_fmc.o(.text)
    ob_user_write                            0x08005a59   Thumb Code   308  gd32f1x0_fmc.o(.text)
    ob_data_program                          0x08005b8d   Thumb Code   304  gd32f1x0_fmc.o(.text)
    ob_user_get                              0x08005cbd   Thumb Code    16  gd32f1x0_fmc.o(.text)
    ob_data_get                              0x08005ccd   Thumb Code    14  gd32f1x0_fmc.o(.text)
    ob_write_protection_get                  0x08005cdd   Thumb Code    14  gd32f1x0_fmc.o(.text)
    fmc_interrupt_enable                     0x08005ced   Thumb Code    16  gd32f1x0_fmc.o(.text)
    fmc_interrupt_disable                    0x08005cfd   Thumb Code    18  gd32f1x0_fmc.o(.text)
    fmc_flag_get                             0x08005d11   Thumb Code    18  gd32f1x0_fmc.o(.text)
    fmc_flag_clear                           0x08005d25   Thumb Code    16  gd32f1x0_fmc.o(.text)
    fmc_interrupt_flag_get                   0x08005d35   Thumb Code    18  gd32f1x0_fmc.o(.text)
    fmc_interrupt_flag_clear                 0x08005d49   Thumb Code    16  gd32f1x0_fmc.o(.text)
    fwdgt_write_disable                      0x08005d59   Thumb Code    14  gd32f1x0_fwdgt.o(.text)
    fwdgt_counter_reload                     0x08005d69   Thumb Code    16  gd32f1x0_fwdgt.o(.text)
    fwdgt_enable                             0x08005d79   Thumb Code    16  gd32f1x0_fwdgt.o(.text)
    fwdgt_window_value_config                0x08005d89   Thumb Code    58  gd32f1x0_fwdgt.o(.text)
    fwdgt_config                             0x08005dc5   Thumb Code   100  gd32f1x0_fwdgt.o(.text)
    fwdgt_flag_get                           0x08005e29   Thumb Code    18  gd32f1x0_fwdgt.o(.text)
    gpio_deinit                              0x08005e3d   Thumb Code    58  gd32f1x0_gpio.o(.text)
    gpio_mode_set                            0x08005e79   Thumb Code    84  gd32f1x0_gpio.o(.text)
    gpio_output_options_set                  0x08005ecd   Thumb Code    70  gd32f1x0_gpio.o(.text)
    gpio_bit_set                             0x08005f15   Thumb Code     4  gd32f1x0_gpio.o(.text)
    gpio_bit_reset                           0x08005f19   Thumb Code     4  gd32f1x0_gpio.o(.text)
    gpio_bit_write                           0x08005f1d   Thumb Code    12  gd32f1x0_gpio.o(.text)
    gpio_port_write                          0x08005f29   Thumb Code     4  gd32f1x0_gpio.o(.text)
    gpio_input_bit_get                       0x08005f2d   Thumb Code    10  gd32f1x0_gpio.o(.text)
    gpio_input_port_get                      0x08005f39   Thumb Code     6  gd32f1x0_gpio.o(.text)
    gpio_output_bit_get                      0x08005f41   Thumb Code    10  gd32f1x0_gpio.o(.text)
    gpio_output_port_get                     0x08005f4d   Thumb Code     6  gd32f1x0_gpio.o(.text)
    gpio_af_set                              0x08005f55   Thumb Code   110  gd32f1x0_gpio.o(.text)
    gpio_pin_lock                            0x08005fc5   Thumb Code    16  gd32f1x0_gpio.o(.text)
    nvic_priority_group_set                  0x08005fd5   Thumb Code    20  gd32f1x0_misc.o(.text)
    nvic_irq_enable                          0x08005fe9   Thumb Code   168  gd32f1x0_misc.o(.text)
    nvic_irq_disable                         0x08006091   Thumb Code    28  gd32f1x0_misc.o(.text)
    nvic_vector_table_set                    0x080060ad   Thumb Code    24  gd32f1x0_misc.o(.text)
    system_lowpower_set                      0x080060c5   Thumb Code    16  gd32f1x0_misc.o(.text)
    system_lowpower_reset                    0x080060d5   Thumb Code    18  gd32f1x0_misc.o(.text)
    systick_clksource_set                    0x080060e9   Thumb Code    24  gd32f1x0_misc.o(.text)
    rcu_deinit                               0x08006101   Thumb Code   112  gd32f1x0_rcu.o(.text)
    rcu_periph_clock_enable                  0x08006171   Thumb Code    30  gd32f1x0_rcu.o(.text)
    rcu_periph_clock_disable                 0x08006191   Thumb Code    32  gd32f1x0_rcu.o(.text)
    rcu_periph_clock_sleep_enable            0x080061b1   Thumb Code    30  gd32f1x0_rcu.o(.text)
    rcu_periph_clock_sleep_disable           0x080061d1   Thumb Code    32  gd32f1x0_rcu.o(.text)
    rcu_periph_reset_enable                  0x080061f1   Thumb Code    30  gd32f1x0_rcu.o(.text)
    rcu_periph_reset_disable                 0x08006211   Thumb Code    32  gd32f1x0_rcu.o(.text)
    rcu_bkp_reset_enable                     0x08006231   Thumb Code    18  gd32f1x0_rcu.o(.text)
    rcu_bkp_reset_disable                    0x08006245   Thumb Code    18  gd32f1x0_rcu.o(.text)
    rcu_system_clock_source_config           0x08006259   Thumb Code    20  gd32f1x0_rcu.o(.text)
    rcu_system_clock_source_get              0x0800626d   Thumb Code    16  gd32f1x0_rcu.o(.text)
    rcu_ahb_clock_config                     0x0800627d   Thumb Code    20  gd32f1x0_rcu.o(.text)
    rcu_apb1_clock_config                    0x08006291   Thumb Code    20  gd32f1x0_rcu.o(.text)
    rcu_apb2_clock_config                    0x080062a5   Thumb Code    20  gd32f1x0_rcu.o(.text)
    rcu_adc_clock_config                     0x080062b9   Thumb Code    88  gd32f1x0_rcu.o(.text)
    rcu_usbd_clock_config                    0x08006311   Thumb Code    24  gd32f1x0_rcu.o(.text)
    rcu_ckout_config                         0x08006329   Thumb Code    22  gd32f1x0_rcu.o(.text)
    rcu_pll_config                           0x08006341   Thumb Code    40  gd32f1x0_rcu.o(.text)
    rcu_usart_clock_config                   0x08006369   Thumb Code    24  gd32f1x0_rcu.o(.text)
    rcu_cec_clock_config                     0x08006381   Thumb Code    24  gd32f1x0_rcu.o(.text)
    rcu_rtc_clock_config                     0x08006399   Thumb Code    24  gd32f1x0_rcu.o(.text)
    rcu_hxtal_prediv_config                  0x080063b1   Thumb Code    20  gd32f1x0_rcu.o(.text)
    rcu_lxtal_drive_capability_config        0x080063c5   Thumb Code    24  gd32f1x0_rcu.o(.text)
    rcu_flag_get                             0x080063dd   Thumb Code    26  gd32f1x0_rcu.o(.text)
    rcu_all_reset_flag_clear                 0x080063f9   Thumb Code    18  gd32f1x0_rcu.o(.text)
    rcu_interrupt_flag_get                   0x0800640d   Thumb Code    18  gd32f1x0_rcu.o(.text)
    rcu_interrupt_flag_clear                 0x08006421   Thumb Code    16  gd32f1x0_rcu.o(.text)
    rcu_interrupt_enable                     0x08006431   Thumb Code    16  gd32f1x0_rcu.o(.text)
    rcu_interrupt_disable                    0x08006441   Thumb Code    18  gd32f1x0_rcu.o(.text)
    rcu_osci_stab_wait                       0x08006455   Thumb Code   312  gd32f1x0_rcu.o(.text)
    rcu_osci_on                              0x0800658d   Thumb Code    30  gd32f1x0_rcu.o(.text)
    rcu_osci_off                             0x080065ad   Thumb Code    32  gd32f1x0_rcu.o(.text)
    rcu_osci_bypass_mode_enable              0x080065cd   Thumb Code    64  gd32f1x0_rcu.o(.text)
    rcu_osci_bypass_mode_disable             0x0800660d   Thumb Code    64  gd32f1x0_rcu.o(.text)
    rcu_hxtal_clock_monitor_enable           0x0800664d   Thumb Code    18  gd32f1x0_rcu.o(.text)
    rcu_hxtal_clock_monitor_disable          0x08006661   Thumb Code    18  gd32f1x0_rcu.o(.text)
    rcu_irc8m_adjust_value_set               0x08006675   Thumb Code    22  gd32f1x0_rcu.o(.text)
    rcu_irc14m_adjust_value_set              0x0800668d   Thumb Code    22  gd32f1x0_rcu.o(.text)
    rcu_voltage_key_unlock                   0x080066a5   Thumb Code    30  gd32f1x0_rcu.o(.text)
    rcu_deepsleep_voltage_set                0x080066c5   Thumb Code    24  gd32f1x0_rcu.o(.text)
    rcu_power_down_voltage_set               0x080066dd   Thumb Code    24  gd32f1x0_rcu.o(.text)
    rcu_clock_freq_get                       0x080066f5   Thumb Code   288  gd32f1x0_rcu.o(.text)
    timer_deinit                             0x08006825   Thumb Code   194  gd32f1x0_timer.o(.text)
    timer_struct_para_init                   0x080068e9   Thumb Code    16  gd32f1x0_timer.o(.text)
    timer_init                               0x080068f9   Thumb Code   216  gd32f1x0_timer.o(.text)
    timer_enable                             0x080069d1   Thumb Code    10  gd32f1x0_timer.o(.text)
    timer_disable                            0x080069dd   Thumb Code    10  gd32f1x0_timer.o(.text)
    timer_auto_reload_shadow_enable          0x080069e9   Thumb Code    10  gd32f1x0_timer.o(.text)
    timer_auto_reload_shadow_disable         0x080069f5   Thumb Code    10  gd32f1x0_timer.o(.text)
    timer_update_event_enable                0x08006a01   Thumb Code    10  gd32f1x0_timer.o(.text)
    timer_update_event_disable               0x08006a0d   Thumb Code    10  gd32f1x0_timer.o(.text)
    timer_counter_alignment                  0x08006a19   Thumb Code    16  gd32f1x0_timer.o(.text)
    timer_counter_up_direction               0x08006a29   Thumb Code    10  gd32f1x0_timer.o(.text)
    timer_counter_down_direction             0x08006a35   Thumb Code    10  gd32f1x0_timer.o(.text)
    timer_prescaler_config                   0x08006a41   Thumb Code    18  gd32f1x0_timer.o(.text)
    timer_repetition_value_config            0x08006a55   Thumb Code     4  gd32f1x0_timer.o(.text)
    timer_autoreload_value_config            0x08006a59   Thumb Code     4  gd32f1x0_timer.o(.text)
    timer_counter_value_config               0x08006a5d   Thumb Code     4  gd32f1x0_timer.o(.text)
    timer_counter_read                       0x08006a61   Thumb Code     4  gd32f1x0_timer.o(.text)
    timer_prescaler_read                     0x08006a65   Thumb Code     6  gd32f1x0_timer.o(.text)
    timer_single_pulse_mode_config           0x08006a6d   Thumb Code    30  gd32f1x0_timer.o(.text)
    timer_update_source_config               0x08006a8d   Thumb Code    30  gd32f1x0_timer.o(.text)
    timer_ocpre_clear_source_config          0x08006aad   Thumb Code    28  gd32f1x0_timer.o(.text)
    timer_interrupt_enable                   0x08006ac9   Thumb Code     8  gd32f1x0_timer.o(.text)
    timer_interrupt_disable                  0x08006ad1   Thumb Code    10  gd32f1x0_timer.o(.text)
    timer_interrupt_flag_get                 0x08006add   Thumb Code    22  gd32f1x0_timer.o(.text)
    timer_interrupt_flag_clear               0x08006af5   Thumb Code     6  gd32f1x0_timer.o(.text)
    timer_flag_get                           0x08006afd   Thumb Code    10  gd32f1x0_timer.o(.text)
    timer_flag_clear                         0x08006b09   Thumb Code     6  gd32f1x0_timer.o(.text)
    timer_dma_enable                         0x08006b11   Thumb Code     8  gd32f1x0_timer.o(.text)
    timer_dma_disable                        0x08006b19   Thumb Code    10  gd32f1x0_timer.o(.text)
    timer_channel_dma_request_source_select  0x08006b25   Thumb Code    30  gd32f1x0_timer.o(.text)
    timer_dma_transfer_config                0x08006b45   Thumb Code    24  gd32f1x0_timer.o(.text)
    timer_event_software_generate            0x08006b5d   Thumb Code     8  gd32f1x0_timer.o(.text)
    timer_break_struct_para_init             0x08006b65   Thumb Code    16  gd32f1x0_timer.o(.text)
    timer_break_config                       0x08006b75   Thumb Code    36  gd32f1x0_timer.o(.text)
    timer_break_enable                       0x08006b99   Thumb Code    10  gd32f1x0_timer.o(.text)
    timer_break_disable                      0x08006ba5   Thumb Code    10  gd32f1x0_timer.o(.text)
    timer_automatic_output_enable            0x08006bb1   Thumb Code    10  gd32f1x0_timer.o(.text)
    timer_automatic_output_disable           0x08006bbd   Thumb Code    10  gd32f1x0_timer.o(.text)
    timer_primary_output_config              0x08006bc9   Thumb Code    18  gd32f1x0_timer.o(.text)
    timer_channel_control_shadow_config      0x08006bdd   Thumb Code    16  gd32f1x0_timer.o(.text)
    timer_channel_control_shadow_update_config 0x08006bed   Thumb Code    30  gd32f1x0_timer.o(.text)
    timer_channel_output_struct_para_init    0x08006c0d   Thumb Code    12  gd32f1x0_timer.o(.text)
    timer_channel_output_config              0x08006c19   Thumb Code   562  gd32f1x0_timer.o(.text)
    timer_channel_output_mode_config         0x08006e4d   Thumb Code    56  gd32f1x0_timer.o(.text)
    timer_channel_output_pulse_value_config  0x08006e85   Thumb Code    16  gd32f1x0_timer.o(.text)
    timer_channel_output_shadow_config       0x08006e95   Thumb Code    56  gd32f1x0_timer.o(.text)
    timer_channel_output_fast_config         0x08006ecd   Thumb Code    56  gd32f1x0_timer.o(.text)
    timer_channel_output_clear_config        0x08006f05   Thumb Code    56  gd32f1x0_timer.o(.text)
    timer_channel_output_polarity_config     0x08006f3d   Thumb Code    68  gd32f1x0_timer.o(.text)
    timer_channel_complementary_output_polarity_config 0x08006f81   Thumb Code    68  gd32f1x0_timer.o(.text)
    timer_channel_output_state_config        0x08006fc5   Thumb Code    68  gd32f1x0_timer.o(.text)
    timer_channel_complementary_output_state_config 0x08007009   Thumb Code    56  gd32f1x0_timer.o(.text)
    timer_channel_input_struct_para_init     0x08007041   Thumb Code    12  gd32f1x0_timer.o(.text)
    timer_input_capture_config               0x0800704d   Thumb Code   350  gd32f1x0_timer.o(.text)
    timer_channel_input_capture_prescaler_config 0x080071ad   Thumb Code    56  gd32f1x0_timer.o(.text)
    timer_channel_capture_value_register_read 0x080071e5   Thumb Code    18  gd32f1x0_timer.o(.text)
    timer_input_pwm_capture_config           0x080071f9   Thumb Code   354  gd32f1x0_timer.o(.text)
    timer_hall_mode_config                   0x0800735d   Thumb Code    30  gd32f1x0_timer.o(.text)
    timer_input_trigger_source_select        0x0800737d   Thumb Code    16  gd32f1x0_timer.o(.text)
    timer_master_output_trigger_source_select 0x0800738d   Thumb Code    16  gd32f1x0_timer.o(.text)
    timer_slave_mode_select                  0x0800739d   Thumb Code    16  gd32f1x0_timer.o(.text)
    timer_master_slave_mode_config           0x080073ad   Thumb Code    30  gd32f1x0_timer.o(.text)
    timer_external_trigger_config            0x080073cd   Thumb Code    34  gd32f1x0_timer.o(.text)
    timer_quadrature_decoder_mode_config     0x080073f1   Thumb Code    78  gd32f1x0_timer.o(.text)
    timer_internal_clock_config              0x08007441   Thumb Code    10  gd32f1x0_timer.o(.text)
    timer_internal_trigger_as_external_clock_config 0x0800744d   Thumb Code    32  gd32f1x0_timer.o(.text)
    timer_external_trigger_as_external_clock_config 0x0800746d   Thumb Code   152  gd32f1x0_timer.o(.text)
    timer_external_clock_mode0_config        0x08007505   Thumb Code    50  gd32f1x0_timer.o(.text)
    timer_external_clock_mode1_config        0x08007539   Thumb Code    42  gd32f1x0_timer.o(.text)
    timer_external_clock_mode1_disable       0x08007565   Thumb Code    10  gd32f1x0_timer.o(.text)
    timer_channel_remap_config               0x08007571   Thumb Code     4  gd32f1x0_timer.o(.text)
    Reset_Handler                            0x08007575   Thumb Code     8  startup_gd32f1x0.o(.text)
    CAN0_RX0_IRQHandler                      0x0800758f   Thumb Code     0  startup_gd32f1x0.o(.text)
    CAN0_RX1_IRQHandler                      0x0800758f   Thumb Code     0  startup_gd32f1x0.o(.text)
    CAN0_SCE_IRQHandler                      0x0800758f   Thumb Code     0  startup_gd32f1x0.o(.text)
    CAN0_TX_IRQHandler                       0x0800758f   Thumb Code     0  startup_gd32f1x0.o(.text)
    CAN1_RX0_IRQHandler                      0x0800758f   Thumb Code     0  startup_gd32f1x0.o(.text)
    CAN1_RX1_IRQHandler                      0x0800758f   Thumb Code     0  startup_gd32f1x0.o(.text)
    CAN1_SCE_IRQHandler                      0x0800758f   Thumb Code     0  startup_gd32f1x0.o(.text)
    CAN1_TX_IRQHandler                       0x0800758f   Thumb Code     0  startup_gd32f1x0.o(.text)
    CEC_IRQHandler                           0x0800758f   Thumb Code     0  startup_gd32f1x0.o(.text)
    DMA_Channel0_IRQHandler                  0x0800758f   Thumb Code     0  startup_gd32f1x0.o(.text)
    DMA_Channel1_2_IRQHandler                0x0800758f   Thumb Code     0  startup_gd32f1x0.o(.text)
    DMA_Channel3_4_IRQHandler                0x0800758f   Thumb Code     0  startup_gd32f1x0.o(.text)
    DMA_Channel5_6_IRQHandler                0x0800758f   Thumb Code     0  startup_gd32f1x0.o(.text)
    EXTI0_1_IRQHandler                       0x0800758f   Thumb Code     0  startup_gd32f1x0.o(.text)
    EXTI2_3_IRQHandler                       0x0800758f   Thumb Code     0  startup_gd32f1x0.o(.text)
    EXTI4_15_IRQHandler                      0x0800758f   Thumb Code     0  startup_gd32f1x0.o(.text)
    FMC_IRQHandler                           0x0800758f   Thumb Code     0  startup_gd32f1x0.o(.text)
    I2C0_ER_IRQHandler                       0x0800758f   Thumb Code     0  startup_gd32f1x0.o(.text)
    I2C0_EV_IRQHandler                       0x0800758f   Thumb Code     0  startup_gd32f1x0.o(.text)
    I2C1_ER_IRQHandler                       0x0800758f   Thumb Code     0  startup_gd32f1x0.o(.text)
    I2C1_EV_IRQHandler                       0x0800758f   Thumb Code     0  startup_gd32f1x0.o(.text)
    I2C2_ER_IRQHandler                       0x0800758f   Thumb Code     0  startup_gd32f1x0.o(.text)
    I2C2_EV_IRQHandler                       0x0800758f   Thumb Code     0  startup_gd32f1x0.o(.text)
    LVD_IRQHandler                           0x0800758f   Thumb Code     0  startup_gd32f1x0.o(.text)
    RCU_IRQHandler                           0x0800758f   Thumb Code     0  startup_gd32f1x0.o(.text)
    RTC_IRQHandler                           0x0800758f   Thumb Code     0  startup_gd32f1x0.o(.text)
    SLCD_IRQHandler                          0x0800758f   Thumb Code     0  startup_gd32f1x0.o(.text)
    SPI0_IRQHandler                          0x0800758f   Thumb Code     0  startup_gd32f1x0.o(.text)
    SPI1_IRQHandler                          0x0800758f   Thumb Code     0  startup_gd32f1x0.o(.text)
    SPI2_IRQHandler                          0x0800758f   Thumb Code     0  startup_gd32f1x0.o(.text)
    TIMER0_BRK_UP_TRG_COM_IRQHandler         0x0800758f   Thumb Code     0  startup_gd32f1x0.o(.text)
    TIMER0_Channel_IRQHandler                0x0800758f   Thumb Code     0  startup_gd32f1x0.o(.text)
    TIMER14_IRQHandler                       0x0800758f   Thumb Code     0  startup_gd32f1x0.o(.text)
    TIMER15_IRQHandler                       0x0800758f   Thumb Code     0  startup_gd32f1x0.o(.text)
    TIMER16_IRQHandler                       0x0800758f   Thumb Code     0  startup_gd32f1x0.o(.text)
    TIMER1_IRQHandler                        0x0800758f   Thumb Code     0  startup_gd32f1x0.o(.text)
    TIMER2_IRQHandler                        0x0800758f   Thumb Code     0  startup_gd32f1x0.o(.text)
    TIMER5_DAC_IRQHandler                    0x0800758f   Thumb Code     0  startup_gd32f1x0.o(.text)
    TSI_IRQHandler                           0x0800758f   Thumb Code     0  startup_gd32f1x0.o(.text)
    USART0_IRQHandler                        0x0800758f   Thumb Code     0  startup_gd32f1x0.o(.text)
    USART1_IRQHandler                        0x0800758f   Thumb Code     0  startup_gd32f1x0.o(.text)
    USBDWakeUp_IRQHandler                    0x0800758f   Thumb Code     0  startup_gd32f1x0.o(.text)
    USBD_HP_IRQHandler                       0x0800758f   Thumb Code     0  startup_gd32f1x0.o(.text)
    USBD_LP_IRQHandler                       0x0800758f   Thumb Code     0  startup_gd32f1x0.o(.text)
    WWDGT_IRQHandler                         0x0800758f   Thumb Code     0  startup_gd32f1x0.o(.text)
    SystemInit                               0x08007599   Thumb Code   188  system_gd32f1x0.o(.text)
    SystemCoreClockUpdate                    0x08007655   Thumb Code   112  system_gd32f1x0.o(.text)
    __aeabi_memcpy                           0x080076d5   Thumb Code    36  memcpya.o(.text)
    __aeabi_memcpy4                          0x080076d5   Thumb Code     0  memcpya.o(.text)
    __aeabi_memcpy8                          0x080076d5   Thumb Code     0  memcpya.o(.text)
    __aeabi_memset                           0x080076f9   Thumb Code    14  memseta.o(.text)
    __aeabi_memset4                          0x080076f9   Thumb Code     0  memseta.o(.text)
    __aeabi_memset8                          0x080076f9   Thumb Code     0  memseta.o(.text)
    __aeabi_memclr                           0x08007707   Thumb Code     4  memseta.o(.text)
    __aeabi_memclr4                          0x08007707   Thumb Code     0  memseta.o(.text)
    __aeabi_memclr8                          0x08007707   Thumb Code     0  memseta.o(.text)
    _memset$wrapper                          0x0800770b   Thumb Code    18  memseta.o(.text)
    strlen                                   0x0800771d   Thumb Code    14  strlen.o(.text)
    __aeabi_fadd                             0x0800772b   Thumb Code   164  fadd.o(.text)
    __aeabi_fsub                             0x080077cf   Thumb Code     6  fadd.o(.text)
    __aeabi_frsub                            0x080077d5   Thumb Code     6  fadd.o(.text)
    __aeabi_fmul                             0x080077db   Thumb Code   100  fmul.o(.text)
    __aeabi_fdiv                             0x0800783f   Thumb Code   124  fdiv.o(.text)
    __aeabi_dadd                             0x080078bb   Thumb Code   322  dadd.o(.text)
    __aeabi_dsub                             0x080079fd   Thumb Code     6  dadd.o(.text)
    __aeabi_drsub                            0x08007a03   Thumb Code     6  dadd.o(.text)
    __aeabi_dmul                             0x08007a09   Thumb Code   228  dmul.o(.text)
    __aeabi_ddiv                             0x08007aed   Thumb Code   222  ddiv.o(.text)
    __aeabi_fcmple                           0x08007bcb   Thumb Code    28  fcmple.o(.text)
    __aeabi_fcmpge                           0x08007be7   Thumb Code    28  fcmpge.o(.text)
    __aeabi_fcmpgt                           0x08007c03   Thumb Code    28  fcmpgt.o(.text)
    __aeabi_fcmpeq                           0x08007c1f   Thumb Code    28  fcmpeq.o(.text)
    __aeabi_i2f                              0x08007c3b   Thumb Code    18  fflti.o(.text)
    __aeabi_ui2f                             0x08007c4d   Thumb Code    10  ffltui.o(.text)
    __aeabi_i2d                              0x08007c57   Thumb Code    34  dflti.o(.text)
    __aeabi_ui2d                             0x08007c79   Thumb Code    26  dfltui.o(.text)
    __aeabi_f2iz                             0x08007c93   Thumb Code    50  ffixi.o(.text)
    __aeabi_f2lz                             0x08007cc5   Thumb Code    66  ffixl.o(.text)
    __aeabi_d2iz                             0x08007d07   Thumb Code    62  dfixi.o(.text)
    __aeabi_f2d                              0x08007d45   Thumb Code    38  f2d.o(.text)
    __aeabi_d2f                              0x08007d6b   Thumb Code    56  d2f.o(.text)
    __aeabi_uidiv                            0x08007da3   Thumb Code     0  uidiv.o(.text)
    __aeabi_uidivmod                         0x08007da3   Thumb Code    44  uidiv.o(.text)
    __aeabi_uldivmod                         0x08007dcf   Thumb Code    98  uldiv.o(.text)
    __aeabi_llsl                             0x08007e31   Thumb Code    30  llshl.o(.text)
    _ll_shift_l                              0x08007e31   Thumb Code     0  llshl.o(.text)
    __aeabi_llsr                             0x08007e4f   Thumb Code    32  llushr.o(.text)
    _ll_ushift_r                             0x08007e4f   Thumb Code     0  llushr.o(.text)
    __aeabi_lasr                             0x08007e6f   Thumb Code    36  llsshr.o(.text)
    _ll_sshift_r                             0x08007e6f   Thumb Code     0  llsshr.o(.text)
    __I$use$fp                               0x08007e93   Thumb Code     0  iusefp.o(.text)
    _float_round                             0x08007e93   Thumb Code    18  fepilogue.o(.text)
    _float_epilogue                          0x08007ea5   Thumb Code    92  fepilogue.o(.text)
    _double_round                            0x08007f01   Thumb Code    30  depilogue.o(.text)
    _double_epilogue                         0x08007f1f   Thumb Code   156  depilogue.o(.text)
    __aeabi_d2ulz                            0x08007fbb   Thumb Code    48  dfixul.o(.text)
    __aeabi_cdrcmple                         0x08007fed   Thumb Code    48  cdrcmple.o(.text)
    __scatterload                            0x0800801d   Thumb Code    38  init.o(.text)
    __scatterload_rt2                        0x0800801d   Thumb Code     0  init.o(.text)
    __decompress                             0x0800804d   Thumb Code     0  __dczerorl2.o(.text)
    __decompress1                            0x0800804d   Thumb Code    86  __dczerorl2.o(.text)
    __0sprintf                               0x080080a5   Thumb Code    34  printfa.o(i.__0sprintf)
    __1sprintf                               0x080080a5   Thumb Code     0  printfa.o(i.__0sprintf)
    __2sprintf                               0x080080a5   Thumb Code     0  printfa.o(i.__0sprintf)
    __c89sprintf                             0x080080a5   Thumb Code     0  printfa.o(i.__0sprintf)
    sprintf                                  0x080080a5   Thumb Code     0  printfa.o(i.__0sprintf)
    __scatterload_copy                       0x080080cd   Thumb Code    14  handlers.o(i.__scatterload_copy)
    __scatterload_null                       0x080080db   Thumb Code     2  handlers.o(i.__scatterload_null)
    __scatterload_zeroinit                   0x080080dd   Thumb Code    14  handlers.o(i.__scatterload_zeroinit)
    hall_to_pos                              0x080089e9   Data           8  bldc.o(.rodata.hall_to_pos)
    Region$$Table$$Base                      0x08008e7c   Number         0  anon$$obj.o(Region$$Table)
    Region$$Table$$Limit                     0x08008e9c   Number         0  anon$$obj.o(Region$$Table)
    HALL_A                                   0x20000000   Data           4  remoteautodetect.o(.data.HALL_A)
    HALL_B                                   0x20000004   Data           4  remoteautodetect.o(.data.HALL_B)
    HALL_C                                   0x20000008   Data           4  remoteautodetect.o(.data.HALL_C)
    SystemCoreClock                          0x2000000c   Data           4  system_gd32f1x0.o(.data.SystemCoreClock)
    aHallOrder                               0x20000010   Data          18  remoteautodetect.o(.data.aHallOrder)
    aoPin                                    0x20000022   Data         341  remoteautodetect.o(.data.aoPin)
    asScan                                   0x20000178   Data          72  remoteautodetect.o(.data.asScan)
    asStage                                  0x200001c0   Data          90  remoteautodetect.o(.data.asStage)
    bHallOld                                 0x2000021a   Data           1  remoteautodetect.o(.data.bHallOld)
    batteryVoltage                           0x2000021c   Data           4  bldc.o(.data.batteryVoltage)
    cRxLast                                  0x20000220   Data           1  remoteautodetect.o(.data.cRxLast)
    currentDC                                0x20000224   Data           4  bldc.o(.data.currentDC)
    fVBattFound                              0x20000228   Data           4  remoteautodetect.o(.data.fVBattFound)
    iAverageMax                              0x2000022c   Data           2  remoteautodetect.o(.data.iAverageMax)
    iFILTER_SHIFT                            0x2000022e   Data           1  bldc.o(.data.iFILTER_SHIFT)
    iHoldAutofind                            0x20000230   Data           2  remoteautodetect.o(.data.iHoldAutofind)
    iTestStart                               0x20000232   Data           1  remoteautodetect.o(.data.iTestStart)
    iVBatMinTest                             0x20000234   Data           2  remoteautodetect.o(.data.iVBatMinTest)
    posAuto                                  0x20000236   Data           1  remoteautodetect.o(.data.posAuto)
    revs32Scale                              0x20000238   Data           4  bldc.o(.data.revs32Scale)
    revs32ScaleSlow                          0x2000023c   Data           4  bldc.o(.data.revs32ScaleSlow)
    sTodoPin                                 0x20000240   Data           4  remoteautodetect.o(.data.sTodoPin)
    wMenuStage                               0x20000244   Data           2  remoteautodetect.o(.data.wMenuStage)
    wStage                                   0x20000246   Data           2  remoteautodetect.o(.data.wStage)
    wStageOld                                0x20000248   Data           2  remoteautodetect.o(.data.wStageOld)
    _SEGGER_RTT                              0x20000254   Data         168  segger_rtt.o(.bss._SEGGER_RTT)
    adc_buffer                               0x2000070c   Data           4  bldc.o(.bss.adc_buffer)
    aiPinScan                                0x20000710   Data          72  remoteautodetect.o(.bss.aiPinScan)
    bCurrentManualMode                       0x20000758   Data           1  remoteautodetect.o(.bss.bCurrentManualMode)
    bLedOutputMode                           0x20000759   Data           1  remoteautodetect.o(.bss.bLedOutputMode)
    bMessageWait                             0x2000075a   Data           1  remoteautodetect.o(.bss.bMessageWait)
    bReturnToMenu                            0x2000075b   Data           1  remoteautodetect.o(.bss.bReturnToMenu)
    bWait4Enter                              0x2000075c   Data           1  remoteautodetect.o(.bss.bWait4Enter)
    bldc_enable                              0x2000075d   Data           1  bldc.o(.bss.bldc_enable)
    bldc_inputFilterPwm                      0x20000760   Data           4  bldc.o(.bss.bldc_inputFilterPwm)
    bldc_outputFilterPwm                     0x20000764   Data           4  bldc.o(.bss.bldc_outputFilterPwm)
    buzzerTimer                              0x20000768   Data           2  bldc.o(.bss.buzzerTimer)
    cCommand                                 0x2000076a   Data           1  remoteautodetect.o(.bss.cCommand)
    fCurrentDC                               0x2000076c   Data           4  remoteautodetect.o(.bss.fCurrentDC)
    fVBatt                                   0x20000770   Data           4  remoteautodetect.o(.bss.fVBatt)
    fVBattOld                                0x20000774   Data           4  remoteautodetect.o(.bss.fVBattOld)
    filter_reg                               0x20000778   Data           4  bldc.o(.bss.filter_reg)
    hall                                     0x2000077c   Data           1  bldc.o(.bss.hall)
    hall_a                                   0x2000077d   Data           1  bldc.o(.bss.hall_a)
    hall_b                                   0x2000077e   Data           1  bldc.o(.bss.hall_b)
    hall_c                                   0x2000077f   Data           1  bldc.o(.bss.hall_c)
    iAdcCounter                              0x20000780   Data           4  it.o(.bss.iAdcCounter)
    iAdcRate                                 0x20000784   Data           4  it.o(.bss.iAdcRate)
    iAdcTime                                 0x20000788   Data           4  it.o(.bss.iAdcTime)
    iAverage                                 0x2000078c   Data           2  remoteautodetect.o(.bss.iAverage)
    iBldcInput                               0x20000790   Data           4  bldc.o(.bss.iBldcInput)
    iBug                                     0x20000794   Data           4  main.o(.bss.iBug)
    iBuzzCounter                             0x20000798   Data           4  bldc.o(.bss.iBuzzCounter)
    iBuzzRate                                0x2000079c   Data           4  bldc.o(.bss.iBuzzRate)
    iBuzzTime                                0x200007a0   Data           4  bldc.o(.bss.iBuzzTime)
    iDrivingMode                             0x200007a4   Data           1  main.o(.bss.iDrivingMode)
    iDrivingModeOverride                     0x200007a5   Data           1  bldc.o(.bss.iDrivingModeOverride)
    iOdom                                    0x200007a8   Data           4  bldc.o(.bss.iOdom)
    iOdomLast                                0x200007ac   Data           4  bldc.o(.bss.iOdomLast)
    iOffsetDC                                0x200007b0   Data           2  remoteautodetect.o(.bss.iOffsetDC)
    iPhaseCurrent                            0x200007b2   Data           1  remoteautodetect.o(.bss.iPhaseCurrent)
    iRepeat                                  0x200007b3   Data           1  remoteautodetect.o(.bss.iRepeat)
    iTest                                    0x200007b4   Data           1  remoteautodetect.o(.bss.iTest)
    iTestPin                                 0x200007b5   Data           1  remoteautodetect.o(.bss.iTestPin)
    iTimeNextLoop                            0x200007b8   Data           4  main.o(.bss.iTimeNextLoop)
    lastPos                                  0x200007bc   Data           1  bldc.o(.bss.lastPos)
    msTicks                                  0x200007c0   Data           4  it.o(.bss.msTicks)
    msTicksAuto                              0x200007c4   Data           4  remoteautodetect.o(.bss.msTicksAuto)
    msTicksOld                               0x200007c8   Data           4  remoteautodetect.o(.bss.msTicksOld)
    msTicksTest                              0x200007cc   Data           4  remoteautodetect.o(.bss.msTicksTest)
    msTicksTestNext                          0x200007d0   Data           4  remoteautodetect.o(.bss.msTicksTestNext)
    msTicksWait                              0x200007d4   Data           4  remoteautodetect.o(.bss.msTicksWait)
    oConfig                                  0x200007d8   Data          25  setup.o(.bss.oConfig)
    pid                                      0x200007f8   Data          40  driver.o(.bss.pid)
    pos                                      0x20000820   Data           1  bldc.o(.bss.pos)
    posOld                                   0x20000821   Data           1  remoteautodetect.o(.bss.posOld)
    realSpeed                                0x20000824   Data           4  bldc.o(.bss.realSpeed)
    revs32                                   0x20000828   Data           4  bldc.o(.bss.revs32)
    revs32_reg                               0x2000082c   Data           4  bldc.o(.bss.revs32_reg)
    revs32x                                  0x20000830   Data           4  bldc.o(.bss.revs32x)
    sMessage                                 0x20000834   Data         512  remoteautodetect.o(.bss.sMessage)
    speed                                    0x20000a34   Data           4  main.o(.bss.speed)
    speedCounter                             0x20000a38   Data           4  bldc.o(.bss.speedCounter)
    speedCounterLog                          0x20000a3c   Data           4  bldc.o(.bss.speedCounterLog)
    speedCounterSlow                         0x20000a40   Data           4  bldc.o(.bss.speedCounterSlow)
    speedCounterSlowLog                      0x20000a44   Data           4  bldc.o(.bss.speedCounterSlowLog)
    steer                                    0x20000a48   Data           4  main.o(.bss.steer)
    steerCounter                             0x20000a4c   Data           4  main.o(.bss.steerCounter)
    timedOut                                 0x20000a50   Data           1  it.o(.bss.timedOut)
    timeoutCounter_ms                        0x20000a54   Data           4  it.o(.bss.timeoutCounter_ms)
    timeoutTimer_paramter_struct             0x20000a58   Data          16  setup.o(.bss.timeoutTimer_paramter_struct)
    timerBldc_break_parameter_struct         0x20000a68   Data          24  setup.o(.bss.timerBldc_break_parameter_struct)
    timerBldc_oc_parameter_struct            0x20000a80   Data          16  setup.o(.bss.timerBldc_oc_parameter_struct)
    timerBldc_paramter_struct                0x20000a90   Data          16  setup.o(.bss.timerBldc_paramter_struct)
    torque32                                 0x20000aa0   Data           4  bldc.o(.bss.torque32)
    torque32_reg                             0x20000aa4   Data           4  bldc.o(.bss.torque32_reg)
    __initial_sp                             0x20000ea8   Data           0  startup_gd32f1x0.o(STACK)



==============================================================================

Memory Map of the image

  Image Entry point : 0x08000169

  Load Region LR_IROM1 (Base: 0x08000000, Size: 0x000090f0, Max: 0x00010000, ABSOLUTE, COMPRESSED[0x00009010])

    Execution Region ER_IROM1 (Exec base: 0x08000000, Load base: 0x08000000, Size: 0x00008e9c, Max: 0x00010000, ABSOLUTE)

    Exec Addr    Load Addr    Size         Type   Attr      Idx    E Section Name        Object

    0x08000000   0x08000000   0x00000168   Data   RO          369    RESET               startup_gd32f1x0.o
    0x08000168   0x08000168   0x00000000   Code   RO          386  * .ARM.Collect$$$$00000000  mc_w.l(entry.o)
    0x08000168   0x08000168   0x00000004   Code   RO          696    .ARM.Collect$$$$00000001  mc_w.l(entry2.o)
    0x0800016c   0x0800016c   0x00000004   Code   RO          699    .ARM.Collect$$$$00000004  mc_w.l(entry5.o)
    0x08000170   0x08000170   0x00000000   Code   RO          701    .ARM.Collect$$$$00000008  mc_w.l(entry7b.o)
    0x08000170   0x08000170   0x00000000   Code   RO          703    .ARM.Collect$$$$0000000A  mc_w.l(entry8b.o)
    0x08000170   0x08000170   0x00000008   Code   RO          704    .ARM.Collect$$$$0000000B  mc_w.l(entry9a.o)
    0x08000178   0x08000178   0x00000000   Code   RO          706    .ARM.Collect$$$$0000000D  mc_w.l(entry10a.o)
    0x08000178   0x08000178   0x00000000   Code   RO          708    .ARM.Collect$$$$0000000F  mc_w.l(entry11a.o)
    0x08000178   0x08000178   0x00000004   Code   RO          697    .ARM.Collect$$$$00002712  mc_w.l(entry2.o)
    0x0800017c   0x0800017c   0x000000ca   Code   RO            1    .text               main.o
    0x08000246   0x08000246   0x00000002   PAD
    0x08000248   0x08000248   0x00000624   Code   RO           28    .text               bldc.o
    0x0800086c   0x0800086c   0x00000242   Code   RO           76    .text               driver.o
    0x08000aae   0x08000aae   0x00000002   PAD
    0x08000ab0   0x08000ab0   0x0000006e   Code   RO           85    .text               bldcbc.o
    0x08000b1e   0x08000b1e   0x00000002   PAD
    0x08000b20   0x08000b20   0x0000061a   Code   RO           94    .text               setup.o
    0x0800113a   0x0800113a   0x00000002   PAD
    0x0800113c   0x0800113c   0x00000122   Code   RO          113    .text               it.o
    0x0800125e   0x0800125e   0x00000002   PAD
    0x08001260   0x08001260   0x000023dc   Code   RO          161    .text               remoteautodetect.o
    0x0800363c   0x0800363c   0x000017a2   Code   RO          222    .text               segger_rtt.o
    0x08004dde   0x08004dde   0x00000002   PAD
    0x08004de0   0x08004de0   0x000005a6   Code   RO          238    .text               gd32f1x0_adc.o
    0x08005386   0x08005386   0x00000002   PAD
    0x08005388   0x08005388   0x000009d0   Code   RO          270    .text               gd32f1x0_fmc.o
    0x08005d58   0x08005d58   0x000000e2   Code   RO          279    .text               gd32f1x0_fwdgt.o
    0x08005e3a   0x08005e3a   0x00000002   PAD
    0x08005e3c   0x08005e3c   0x00000198   Code   RO          287    .text               gd32f1x0_gpio.o
    0x08005fd4   0x08005fd4   0x0000012c   Code   RO          304    .text               gd32f1x0_misc.o
    0x08006100   0x08006100   0x00000724   Code   RO          325    .text               gd32f1x0_rcu.o
    0x08006824   0x08006824   0x00000d50   Code   RO          342    .text               gd32f1x0_timer.o
    0x08007574   0x08007574   0x00000024   Code   RO          370    .text               startup_gd32f1x0.o
    0x08007598   0x08007598   0x0000013c   Code   RO          376    .text               system_gd32f1x0.o
    0x080076d4   0x080076d4   0x00000024   Code   RO          389    .text               mc_w.l(memcpya.o)
    0x080076f8   0x080076f8   0x00000024   Code   RO          391    .text               mc_w.l(memseta.o)
    0x0800771c   0x0800771c   0x0000000e   Code   RO          393    .text               mc_w.l(strlen.o)
    0x0800772a   0x0800772a   0x000000b0   Code   RO          658    .text               mf_w.l(fadd.o)
    0x080077da   0x080077da   0x00000064   Code   RO          660    .text               mf_w.l(fmul.o)
    0x0800783e   0x0800783e   0x0000007c   Code   RO          662    .text               mf_w.l(fdiv.o)
    0x080078ba   0x080078ba   0x0000014e   Code   RO          664    .text               mf_w.l(dadd.o)
    0x08007a08   0x08007a08   0x000000e4   Code   RO          666    .text               mf_w.l(dmul.o)
    0x08007aec   0x08007aec   0x000000de   Code   RO          668    .text               mf_w.l(ddiv.o)
    0x08007bca   0x08007bca   0x0000001c   Code   RO          670    .text               mf_w.l(fcmple.o)
    0x08007be6   0x08007be6   0x0000001c   Code   RO          672    .text               mf_w.l(fcmpge.o)
    0x08007c02   0x08007c02   0x0000001c   Code   RO          674    .text               mf_w.l(fcmpgt.o)
    0x08007c1e   0x08007c1e   0x0000001c   Code   RO          676    .text               mf_w.l(fcmpeq.o)
    0x08007c3a   0x08007c3a   0x00000012   Code   RO          678    .text               mf_w.l(fflti.o)
    0x08007c4c   0x08007c4c   0x0000000a   Code   RO          680    .text               mf_w.l(ffltui.o)
    0x08007c56   0x08007c56   0x00000022   Code   RO          682    .text               mf_w.l(dflti.o)
    0x08007c78   0x08007c78   0x0000001a   Code   RO          684    .text               mf_w.l(dfltui.o)
    0x08007c92   0x08007c92   0x00000032   Code   RO          686    .text               mf_w.l(ffixi.o)
    0x08007cc4   0x08007cc4   0x00000042   Code   RO          688    .text               mf_w.l(ffixl.o)
    0x08007d06   0x08007d06   0x0000003e   Code   RO          690    .text               mf_w.l(dfixi.o)
    0x08007d44   0x08007d44   0x00000026   Code   RO          692    .text               mf_w.l(f2d.o)
    0x08007d6a   0x08007d6a   0x00000038   Code   RO          694    .text               mf_w.l(d2f.o)
    0x08007da2   0x08007da2   0x0000002c   Code   RO          724    .text               mc_w.l(uidiv.o)
    0x08007dce   0x08007dce   0x00000062   Code   RO          726    .text               mc_w.l(uldiv.o)
    0x08007e30   0x08007e30   0x0000001e   Code   RO          728    .text               mc_w.l(llshl.o)
    0x08007e4e   0x08007e4e   0x00000020   Code   RO          730    .text               mc_w.l(llushr.o)
    0x08007e6e   0x08007e6e   0x00000024   Code   RO          732    .text               mc_w.l(llsshr.o)
    0x08007e92   0x08007e92   0x00000000   Code   RO          734    .text               mc_w.l(iusefp.o)
    0x08007e92   0x08007e92   0x0000006e   Code   RO          735    .text               mf_w.l(fepilogue.o)
    0x08007f00   0x08007f00   0x000000ba   Code   RO          737    .text               mf_w.l(depilogue.o)
    0x08007fba   0x08007fba   0x00000030   Code   RO          739    .text               mf_w.l(dfixul.o)
    0x08007fea   0x08007fea   0x00000002   PAD
    0x08007fec   0x08007fec   0x00000030   Code   RO          741    .text               mf_w.l(cdrcmple.o)
    0x0800801c   0x0800801c   0x00000030   Code   RO          743    .text               mc_w.l(init.o)
    0x0800804c   0x0800804c   0x00000056   Code   RO          755    .text               mc_w.l(__dczerorl2.o)
    0x080080a2   0x080080a2   0x00000002   PAD
    0x080080a4   0x080080a4   0x00000028   Code   RO          632    i.__0sprintf        mc_w.l(printfa.o)
    0x080080cc   0x080080cc   0x0000000e   Code   RO          749    i.__scatterload_copy  mc_w.l(handlers.o)
    0x080080da   0x080080da   0x00000002   Code   RO          750    i.__scatterload_null  mc_w.l(handlers.o)
    0x080080dc   0x080080dc   0x0000000e   Code   RO          751    i.__scatterload_zeroinit  mc_w.l(handlers.o)
    0x080080ea   0x080080ea   0x00000002   PAD
    0x080080ec   0x080080ec   0x00000184   Code   RO          637    i._fp_digits        mc_w.l(printfa.o)
    0x08008270   0x08008270   0x000006dc   Code   RO          638    i._printf_core      mc_w.l(printfa.o)
    0x0800894c   0x0800894c   0x00000024   Code   RO          639    i._printf_post_padding  mc_w.l(printfa.o)
    0x08008970   0x08008970   0x0000002e   Code   RO          640    i._printf_pre_padding  mc_w.l(printfa.o)
    0x0800899e   0x0800899e   0x0000000a   Code   RO          642    i._sputc            mc_w.l(printfa.o)
    0x080089a8   0x080089a8   0x0000000c   Data   RO           57    .rodata..L__const.up_or_down.up_down  bldc.o
    0x080089b4   0x080089b4   0x0000000c   Data   RO          289    .rodata..Lswitch.table.gpio_deinit.1  gd32f1x0_gpio.o
    0x080089c0   0x080089c0   0x00000011   Data   RO          227    .rodata._DoInit._aInitStr  segger_rtt.o
    0x080089d1   0x080089d1   0x00000010   Data   RO          225    .rodata.cst16       segger_rtt.o
    0x080089e1   0x080089e1   0x00000008   Data   RO          327    .rodata.cst8        gd32f1x0_rcu.o
    0x080089e9   0x080089e9   0x00000008   Data   RO           58    .rodata.hall_to_pos  bldc.o
    0x080089f1   0x080089f1   0x000002dc   Data   RO          166    .rodata.str1.1      remoteautodetect.o
    0x08008ccd   0x08008ccd   0x00000009   Data   RO          228    .rodata.str1.1      segger_rtt.o
    0x08008cd6   0x08008cd6   0x00000002   PAD
    0x08008cd8   0x08008cd8   0x000001a3   Data   RO          200    .rodata.str1.4      remoteautodetect.o
    0x08008e7b   0x08008e7b   0x00000001   PAD
    0x08008e7c   0x08008e7c   0x00000020   Data   RO          748    Region$$Table       anon$$obj.o


    Execution Region RW_IRAM1 (Exec base: 0x20000000, Load base: 0x08008ea0, Size: 0x00000ea8, Max: 0x00002000, ABSOLUTE, COMPRESSED[0x00000170])

    Exec Addr    Load Addr    Size         Type   Attr      Idx    E Section Name        Object

    0x20000000   COMPRESSED   0x00000004   Data   RW          176    .data.HALL_A        remoteautodetect.o
    0x20000004   COMPRESSED   0x00000004   Data   RW          177    .data.HALL_B        remoteautodetect.o
    0x20000008   COMPRESSED   0x00000004   Data   RW          178    .data.HALL_C        remoteautodetect.o
    0x2000000c   COMPRESSED   0x00000004   Data   RW          378    .data.SystemCoreClock  system_gd32f1x0.o
    0x20000010   COMPRESSED   0x00000012   Data   RW          190    .data.aHallOrder    remoteautodetect.o
    0x20000022   COMPRESSED   0x00000155   Data   RW          167    .data.aoPin         remoteautodetect.o
    0x20000177   COMPRESSED   0x00000001   PAD
    0x20000178   COMPRESSED   0x00000048   Data   RW          168    .data.asScan        remoteautodetect.o
    0x200001c0   COMPRESSED   0x0000005a   Data   RW          164    .data.asStage       remoteautodetect.o
    0x2000021a   COMPRESSED   0x00000001   Data   RW          204    .data.bHallOld      remoteautodetect.o
    0x2000021b   COMPRESSED   0x00000001   PAD
    0x2000021c   COMPRESSED   0x00000004   Data   RW           30    .data.batteryVoltage  bldc.o
    0x20000220   COMPRESSED   0x00000001   Data   RW          175    .data.cRxLast       remoteautodetect.o
    0x20000221   COMPRESSED   0x00000003   PAD
    0x20000224   COMPRESSED   0x00000004   Data   RW           31    .data.currentDC     bldc.o
    0x20000228   COMPRESSED   0x00000004   Data   RW          192    .data.fVBattFound   remoteautodetect.o
    0x2000022c   COMPRESSED   0x00000002   Data   RW          186    .data.iAverageMax   remoteautodetect.o
    0x2000022e   COMPRESSED   0x00000001   Data   RW           47    .data.iFILTER_SHIFT  bldc.o
    0x2000022f   COMPRESSED   0x00000001   PAD
    0x20000230   COMPRESSED   0x00000002   Data   RW          193    .data.iHoldAutofind  remoteautodetect.o
    0x20000232   COMPRESSED   0x00000001   Data   RW          183    .data.iTestStart    remoteautodetect.o
    0x20000233   COMPRESSED   0x00000001   PAD
    0x20000234   COMPRESSED   0x00000002   Data   RW          191    .data.iVBatMinTest  remoteautodetect.o
    0x20000236   COMPRESSED   0x00000001   Data   RW          206    .data.posAuto       remoteautodetect.o
    0x20000237   COMPRESSED   0x00000001   PAD
    0x20000238   COMPRESSED   0x00000004   Data   RW           39    .data.revs32Scale   bldc.o
    0x2000023c   COMPRESSED   0x00000004   Data   RW           40    .data.revs32ScaleSlow  bldc.o
    0x20000240   COMPRESSED   0x00000004   Data   RW          170    .data.sTodoPin      remoteautodetect.o
    0x20000244   COMPRESSED   0x00000002   Data   RW          165    .data.wMenuStage    remoteautodetect.o
    0x20000246   COMPRESSED   0x00000002   Data   RW          179    .data.wStage        remoteautodetect.o
    0x20000248   COMPRESSED   0x00000002   Data   RW          180    .data.wStageOld     remoteautodetect.o
    0x2000024a   COMPRESSED   0x00000006   PAD
    0x20000250        -       0x00000001   Zero   RW          226    .bss._ActiveTerminal  segger_rtt.o
    0x20000251   COMPRESSED   0x00000003   PAD
    0x20000254        -       0x000000a8   Zero   RW          224    .bss._SEGGER_RTT    segger_rtt.o
    0x200002fc        -       0x00000010   Zero   RW          230    .bss._acDownBuffer  segger_rtt.o
    0x2000030c        -       0x00000400   Zero   RW          229    .bss._acUpBuffer    segger_rtt.o
    0x2000070c        -       0x00000004   Zero   RW           68    .bss.adc_buffer     bldc.o
    0x20000710        -       0x00000048   Zero   RW          169    .bss.aiPinScan      remoteautodetect.o
    0x20000758        -       0x00000001   Zero   RW          194    .bss.bCurrentManualMode  remoteautodetect.o
    0x20000759        -       0x00000001   Zero   RW          195    .bss.bLedOutputMode  remoteautodetect.o
    0x2000075a        -       0x00000001   Zero   RW          171    .bss.bMessageWait   remoteautodetect.o
    0x2000075b        -       0x00000001   Zero   RW          189    .bss.bReturnToMenu  remoteautodetect.o
    0x2000075c        -       0x00000001   Zero   RW          198    .bss.bWait4Enter    remoteautodetect.o
    0x2000075d        -       0x00000001   Zero   RW           42    .bss.bldc_enable    bldc.o
    0x2000075e   COMPRESSED   0x00000002   PAD
    0x20000760        -       0x00000004   Zero   RW           44    .bss.bldc_inputFilterPwm  bldc.o
    0x20000764        -       0x00000004   Zero   RW           45    .bss.bldc_outputFilterPwm  bldc.o
    0x20000768        -       0x00000002   Zero   RW           48    .bss.buzzerTimer    bldc.o
    0x2000076a        -       0x00000001   Zero   RW          174    .bss.cCommand       remoteautodetect.o
    0x2000076b   COMPRESSED   0x00000001   PAD
    0x2000076c        -       0x00000004   Zero   RW          203    .bss.fCurrentDC     remoteautodetect.o
    0x20000770        -       0x00000004   Zero   RW          201    .bss.fVBatt         remoteautodetect.o
    0x20000774        -       0x00000004   Zero   RW          197    .bss.fVBattOld      remoteautodetect.o
    0x20000778        -       0x00000004   Zero   RW           59    .bss.filter_reg     bldc.o
    0x2000077c        -       0x00000001   Zero   RW           43    .bss.hall           bldc.o
    0x2000077d        -       0x00000001   Zero   RW           63    .bss.hall_a         bldc.o
    0x2000077e        -       0x00000001   Zero   RW           64    .bss.hall_b         bldc.o
    0x2000077f        -       0x00000001   Zero   RW           65    .bss.hall_c         bldc.o
    0x20000780        -       0x00000004   Zero   RW          125    .bss.iAdcCounter    it.o
    0x20000784        -       0x00000004   Zero   RW          127    .bss.iAdcRate       it.o
    0x20000788        -       0x00000004   Zero   RW          126    .bss.iAdcTime       it.o
    0x2000078c        -       0x00000002   Zero   RW          185    .bss.iAverage       remoteautodetect.o
    0x2000078e   COMPRESSED   0x00000002   PAD
    0x20000790        -       0x00000004   Zero   RW           41    .bss.iBldcInput     bldc.o
    0x20000794        -       0x00000004   Zero   RW            6    .bss.iBug           main.o
    0x20000798        -       0x00000004   Zero   RW           60    .bss.iBuzzCounter   bldc.o
    0x2000079c        -       0x00000004   Zero   RW           62    .bss.iBuzzRate      bldc.o
    0x200007a0        -       0x00000004   Zero   RW           61    .bss.iBuzzTime      bldc.o
    0x200007a4        -       0x00000001   Zero   RW            3    .bss.iDrivingMode   main.o
    0x200007a5        -       0x00000001   Zero   RW           46    .bss.iDrivingModeOverride  bldc.o
    0x200007a6   COMPRESSED   0x00000002   PAD
    0x200007a8        -       0x00000004   Zero   RW           55    .bss.iOdom          bldc.o
    0x200007ac        -       0x00000004   Zero   RW           56    .bss.iOdomLast      bldc.o
    0x200007b0        -       0x00000002   Zero   RW          202    .bss.iOffsetDC      remoteautodetect.o
    0x200007b2        -       0x00000001   Zero   RW          187    .bss.iPhaseCurrent  remoteautodetect.o
    0x200007b3        -       0x00000001   Zero   RW          184    .bss.iRepeat        remoteautodetect.o
    0x200007b4        -       0x00000001   Zero   RW          181    .bss.iTest          remoteautodetect.o
    0x200007b5        -       0x00000001   Zero   RW          182    .bss.iTestPin       remoteautodetect.o
    0x200007b6   COMPRESSED   0x00000002   PAD
    0x200007b8        -       0x00000004   Zero   RW           20    .bss.iTimeNextLoop  main.o
    0x200007bc        -       0x00000001   Zero   RW           67    .bss.lastPos        bldc.o
    0x200007bd   COMPRESSED   0x00000003   PAD
    0x200007c0        -       0x00000004   Zero   RW          117    .bss.msTicks        it.o
    0x200007c4        -       0x00000004   Zero   RW          205    .bss.msTicksAuto    remoteautodetect.o
    0x200007c8        -       0x00000004   Zero   RW          208    .bss.msTicksOld     remoteautodetect.o
    0x200007cc        -       0x00000004   Zero   RW          199    .bss.msTicksTest    remoteautodetect.o
    0x200007d0        -       0x00000004   Zero   RW          196    .bss.msTicksTestNext  remoteautodetect.o
    0x200007d4        -       0x00000004   Zero   RW          188    .bss.msTicksWait    remoteautodetect.o
    0x200007d8        -       0x00000019   Zero   RW          100    .bss.oConfig        setup.o
    0x200007f1   COMPRESSED   0x00000007   PAD
    0x200007f8        -       0x00000028   Zero   RW           78    .bss.pid            driver.o
    0x20000820        -       0x00000001   Zero   RW           66    .bss.pos            bldc.o
    0x20000821        -       0x00000001   Zero   RW          207    .bss.posOld         remoteautodetect.o
    0x20000822   COMPRESSED   0x00000002   PAD
    0x20000824        -       0x00000004   Zero   RW           32    .bss.realSpeed      bldc.o
    0x20000828        -       0x00000004   Zero   RW           33    .bss.revs32         bldc.o
    0x2000082c        -       0x00000004   Zero   RW           35    .bss.revs32_reg     bldc.o
    0x20000830        -       0x00000004   Zero   RW           38    .bss.revs32x        bldc.o
    0x20000834        -       0x00000200   Zero   RW          172    .bss.sMessage       remoteautodetect.o
    0x20000a34        -       0x00000004   Zero   RW            9    .bss.speed          main.o
    0x20000a38        -       0x00000004   Zero   RW           51    .bss.speedCounter   bldc.o
    0x20000a3c        -       0x00000004   Zero   RW           53    .bss.speedCounterLog  bldc.o
    0x20000a40        -       0x00000004   Zero   RW           52    .bss.speedCounterSlow  bldc.o
    0x20000a44        -       0x00000004   Zero   RW           54    .bss.speedCounterSlowLog  bldc.o
    0x20000a48        -       0x00000004   Zero   RW           14    .bss.steer          main.o
    0x20000a4c        -       0x00000004   Zero   RW            8    .bss.steerCounter   main.o
    0x20000a50        -       0x00000001   Zero   RW          116    .bss.timedOut       it.o
    0x20000a51   COMPRESSED   0x00000003   PAD
    0x20000a54        -       0x00000004   Zero   RW          115    .bss.timeoutCounter_ms  it.o
    0x20000a58        -       0x00000010   Zero   RW           96    .bss.timeoutTimer_paramter_struct  setup.o
    0x20000a68        -       0x00000018   Zero   RW           99    .bss.timerBldc_break_parameter_struct  setup.o
    0x20000a80        -       0x00000010   Zero   RW           98    .bss.timerBldc_oc_parameter_struct  setup.o
    0x20000a90        -       0x00000010   Zero   RW           97    .bss.timerBldc_paramter_struct  setup.o
    0x20000aa0        -       0x00000004   Zero   RW           34    .bss.torque32       bldc.o
    0x20000aa4        -       0x00000004   Zero   RW           36    .bss.torque32_reg   bldc.o
    0x20000aa8        -       0x00000400   Zero   RW          367    STACK               startup_gd32f1x0.o


==============================================================================

Image component sizes


      Code (inc. data)   RO Data    RW Data    ZI Data      Debug   Object Name

      1572          0         20         17         90       4592   bldc.o
       110          6          0          0          0        953   bldcbc.o
       578         28          0          0         40       2880   driver.o
      1446         16          0          0          0       7635   gd32f1x0_adc.o
      2512          0          0          0          0      13341   gd32f1x0_fmc.o
       226          0          0          0          0       2007   gd32f1x0_fwdgt.o
       408          0         12          0          0       4183   gd32f1x0_gpio.o
       300          0          0          0          0       3163   gd32f1x0_misc.o
      1828         34          8          0          0      13497   gd32f1x0_rcu.o
      3408         44          0          0          0      18497   gd32f1x0_timer.o
       290          0          0          0         21       2691   it.o
       202          0          0          0         21       4504   main.o
      9180        608       1151        557        631      18357   remoteautodetect.o
      6050          8         42          0       1209      26317   segger_rtt.o
      1562          0          0          0         97       9258   setup.o
        36          8        360          0       1024        844   startup_gd32f1x0.o
       316         16          0          4          0       1621   system_gd32f1x0.o

    ----------------------------------------------------------------------
     30040        768       1628        588       3164     134340   Object Totals
         0          0         32          0          0          0   (incl. Generated)
        16          0          3         10         31          0   (incl. Padding)

    ----------------------------------------------------------------------

      Code (inc. data)   RO Data    RW Data    ZI Data      Debug   Library Member Name

        86          0          0          0          0          0   __dczerorl2.o
         0          0          0          0          0          0   entry.o
         0          0          0          0          0          0   entry10a.o
         0          0          0          0          0          0   entry11a.o
         8          4          0          0          0          0   entry2.o
         4          0          0          0          0          0   entry5.o
         0          0          0          0          0          0   entry7b.o
         0          0          0          0          0          0   entry8b.o
         8          4          0          0          0          0   entry9a.o
        30          0          0          0          0          0   handlers.o
        48         10          0          0          0         68   init.o
         0          0          0          0          0          0   iusefp.o
        30          0          0          0          0         68   llshl.o
        36          0          0          0          0         68   llsshr.o
        32          0          0          0          0         68   llushr.o
        36          0          0          0          0         68   memcpya.o
        36          0          0          0          0        108   memseta.o
      2276         86          0          0          0        520   printfa.o
        14          0          0          0          0         68   strlen.o
        44          0          0          0          0         80   uidiv.o
        98          0          0          0          0         92   uldiv.o
        48          0          0          0          0         68   cdrcmple.o
        56          0          0          0          0         88   d2f.o
       334          0          0          0          0        148   dadd.o
       222          0          0          0          0        100   ddiv.o
       186          0          0          0          0        176   depilogue.o
        62          0          0          0          0         80   dfixi.o
        48          0          0          0          0         68   dfixul.o
        34          0          0          0          0         76   dflti.o
        26          0          0          0          0         76   dfltui.o
       228          0          0          0          0         96   dmul.o
        38          0          0          0          0         68   f2d.o
       176          0          0          0          0        140   fadd.o
        28          0          0          0          0         68   fcmpeq.o
        28          0          0          0          0         68   fcmpge.o
        28          0          0          0          0         68   fcmpgt.o
        28          0          0          0          0         68   fcmple.o
       124          0          0          0          0         88   fdiv.o
       110          0          0          0          0        168   fepilogue.o
        50          0          0          0          0         68   ffixi.o
        66          0          0          0          0         76   ffixl.o
        18          0          0          0          0         68   fflti.o
        10          0          0          0          0         68   ffltui.o
       100          0          0          0          0         76   fmul.o

    ----------------------------------------------------------------------
      4840        104          0          0          0       3276   Library Totals
         6          0          0          0          0          0   (incl. Padding)

    ----------------------------------------------------------------------

      Code (inc. data)   RO Data    RW Data    ZI Data      Debug   Library Name

      2786        104          0          0          0       1208   mc_w.l
      2048          0          0          0          0       2068   mf_w.l

    ----------------------------------------------------------------------
      4840        104          0          0          0       3276   Library Totals

    ----------------------------------------------------------------------

==============================================================================


      Code (inc. data)   RO Data    RW Data    ZI Data      Debug   

     34880        872       1628        588       3164     135728   Grand Totals
     34880        872       1628        368       3164     135728   ELF Image Totals (compressed)
     34880        872       1628        368          0          0   ROM Totals

==============================================================================

    Total RO  Size (Code + RO Data)                36508 (  35.65kB)
    Total RW  Size (RW Data + ZI Data)              3752 (   3.66kB)
    Total ROM Size (Code + RO Data + RW Data)      36876 (  36.01kB)

==============================================================================

