Component: Arm Compiler for Embedded 6.19 Tool: armlink [5e73cb00]

==============================================================================

Section Cross References

    main.o(.text) refers to main.o(.bss.iBug) for iBug
    main.o(.text) refers to setup.o(.text) for ConfigRead
    main.o(.text) refers to system_gd32f10x.o(.text) for SystemCoreClockUpdate
    main.o(.text) refers to system_gd32f10x.o(.data.SystemCoreClock) for SystemCoreClock
    main.o(.text) refers to bldcsine.o(.text) for InitBldc
    main.o(.text) refers to gd32f10x_fwdgt.o(.text) for fwdgt_counter_reload
    main.o(.text) refers to main.o(.bss.iTimeNextLoop) for iTimeNextLoop
    main.o(.text) refers to main.o(.bss.speedShutoff) for speedShutoff
    main.o(.text) refers to main.o(.data.wState) for wState
    main.o(.text) refers to main.o(.bss.enable) for enable
    main.o(.text) refers to bldc.o(.text) for SetEnable
    main.o(.text) refers to it.o(.text) for millis
    main.o(.text) refers to main.o(.bss.steerCounter) for steerCounter
    main.o(.text) refers to remotedummy.o(.text) for RemoteUpdate
    main.o(.text) refers to main.o(.bss.speed) for speed
    main.o(.text) refers to fflt_clz.o(x$fpl$fflt) for __aeabi_i2f
    main.o(.text) refers to f2d.o(x$fpl$f2d) for __aeabi_f2d
    main.o(.text) refers to dmul.o(x$fpl$dmul) for __aeabi_dmul
    main.o(.text) refers to ddiv.o(x$fpl$ddiv) for __aeabi_ddiv
    main.o(.text) refers to daddsub_clz.o(x$fpl$dadd) for __aeabi_dadd
    main.o(.text) refers to d2f.o(x$fpl$d2f) for __aeabi_d2f
    main.o(.text) refers to main.o(.data.speedLimit) for speedLimit
    main.o(.text) refers to main.o(.bss.steer) for steer
    main.o(.text) refers to fmul.o(x$fpl$fmul) for __aeabi_fmul
    main.o(.text) refers to ffix.o(x$fpl$ffix) for __aeabi_f2iz
    main.o(.text) refers to faddsub_clz.o(x$fpl$fsub) for __aeabi_fsub
    main.o(.text) refers to fdiv.o(x$fpl$fdiv) for __aeabi_fdiv
    main.o(.text) refers to faddsub_clz.o(x$fpl$fadd) for __aeabi_fadd
    main.o(.text) refers to main.o(.rodata.lookUpTableAngle) for lookUpTableAngle
    main.o(.text) refers to fcmp.o(x$fpl$fcmp) for __aeabi_fcmplt
    main.o(.text) refers to main.o(.bss.pwmSlave) for pwmSlave
    main.o(.text) refers to main.o(.bss.inactivity_timeout_counter) for inactivity_timeout_counter
    main.o(.ARM.exidx) refers to main.o(.text) for [Anonymous Symbol]
    bldc.o(.text) refers to bldc.o(.rodata..L__const.up_or_down.up_down) for .L__const.up_or_down.up_down
    bldc.o(.text) refers to bldc.o(.bss.bldc_enable) for bldc_enable
    bldc.o(.text) refers to dflt_clz.o(x$fpl$dflt) for __aeabi_i2d
    bldc.o(.text) refers to ddiv.o(x$fpl$ddiv) for __aeabi_ddiv
    bldc.o(.text) refers to dmul.o(x$fpl$dmul) for __aeabi_dmul
    bldc.o(.text) refers to dfix.o(x$fpl$dfix) for __aeabi_d2iz
    bldc.o(.text) refers to bldc.o(.bss.bldc_inputFilterPwm) for bldc_inputFilterPwm
    bldc.o(.text) refers to bldc.o(.bss.offsetcount) for offsetcount
    bldc.o(.text) refers to bldc.o(.bss.adc_buffer) for adc_buffer
    bldc.o(.text) refers to bldc.o(.data.offsetdc) for offsetdc
    bldc.o(.text) refers to bldc.o(.bss.buzzerTimer) for buzzerTimer
    bldc.o(.text) refers to bldc.o(.data.batteryVoltage) for batteryVoltage
    bldc.o(.text) refers to f2d.o(x$fpl$f2d) for __aeabi_f2d
    bldc.o(.text) refers to dflt_clz.o(x$fpl$dfltu) for __aeabi_ui2d
    bldc.o(.text) refers to daddsub_clz.o(x$fpl$dadd) for __aeabi_dadd
    bldc.o(.text) refers to d2f.o(x$fpl$d2f) for __aeabi_d2f
    bldc.o(.text) refers to bldc.o(.data.currentDC) for currentDC
    bldc.o(.text) refers to fcmp.o(x$fpl$fcmp) for __aeabi_fcmpgt
    bldc.o(.text) refers to it.o(.bss.timedOut) for timedOut
    bldc.o(.text) refers to gd32f10x_timer.o(.text) for timer_automatic_output_enable
    bldc.o(.text) refers to gd32f10x_gpio.o(.text) for gpio_input_bit_get
    bldc.o(.text) refers to bldc.o(.bss.hall_a) for hall_a
    bldc.o(.text) refers to bldc.o(.bss.hall_b) for hall_b
    bldc.o(.text) refers to bldc.o(.bss.hall_c) for hall_c
    bldc.o(.text) refers to bldc.o(.bss.hall) for hall
    bldc.o(.text) refers to bldc.o(.rodata.hall_to_pos) for hall_to_pos
    bldc.o(.text) refers to bldc.o(.bss.pos) for pos
    bldc.o(.text) refers to bldc.o(.bss.filter_reg) for filter_reg
    bldc.o(.text) refers to bldc.o(.bss.bldc_outputFilterPwm) for bldc_outputFilterPwm
    bldc.o(.text) refers to bldcsine.o(.text) for bldc_get_pwm
    bldc.o(.text) refers to bldc.o(.bss.lastPos) for lastPos
    bldc.o(.text) refers to bldc.o(.bss.iOdom) for iOdom
    bldc.o(.text) refers to bldc.o(.bss.speedCounter) for speedCounter
    bldc.o(.text) refers to fflt_clz.o(x$fpl$ffltu) for __aeabi_ui2f
    bldc.o(.text) refers to fdiv.o(x$fpl$fdiv) for __aeabi_fdiv
    bldc.o(.text) refers to bldc.o(.bss.realSpeed) for realSpeed
    bldc.o(.ARM.exidx) refers to bldc.o(.text) for [Anonymous Symbol]
    bldcsine.o(.text) refers to gd32f10x_gpio.o(.text) for gpio_exti_source_select
    bldcsine.o(.text) refers to gd32f10x_exti.o(.text) for exti_init
    bldcsine.o(.text) refers to gd32f10x_misc.o(.text) for nvic_irq_enable
    bldcsine.o(.text) refers to gd32f10x_rcu.o(.text) for rcu_periph_clock_enable
    bldcsine.o(.text) refers to bldcsine.o(.bss.aHallEXTI) for aHallEXTI
    bldcsine.o(.text) refers to bldcsine.o(.bss.hall_time_last) for hall_time_last
    bldcsine.o(.text) refers to bldcsine.o(.bss.hall_time_step) for hall_time_step
    bldcsine.o(.text) refers to bldc.o(.bss.hall) for hall
    bldcsine.o(.text) refers to bldcsine.o(.bss.hall_last) for hall_last
    bldcsine.o(.text) refers to bldcsine.o(.bss.bInterrupt) for bInterrupt
    bldcsine.o(.text) refers to bldc.o(.bss.buzzerTimer) for buzzerTimer
    bldcsine.o(.text) refers to bldcsine.o(.bss.pwmGo) for pwmGo
    bldcsine.o(.text) refers to bldcsine.o(.rodata.cst8) for hall_to_sector
    bldcsine.o(.text) refers to bldcsine.o(.bss.sector) for sector
    bldcsine.o(.text) refers to bldcsine.o(.bss.sector10x) for sector10x
    bldcsine.o(.text) refers to fflt_clz.o(x$fpl$fflt) for __aeabi_i2f
    bldcsine.o(.text) refers to fmul.o(x$fpl$fmul) for __aeabi_fmul
    bldcsine.o(.text) refers to bldcsine.o(.bss.angle_deg) for angle_deg
    bldcsine.o(.text) refers to bldcsine.o(.bss.angle_deg_add) for angle_deg_add
    bldcsine.o(.text) refers to bldcsine.o(.bss.sectorChange) for sectorChange
    bldcsine.o(.text) refers to fflt_clz.o(x$fpl$ffltu) for __aeabi_ui2f
    bldcsine.o(.text) refers to fdiv.o(x$fpl$fdiv) for __aeabi_fdiv
    bldcsine.o(.text) refers to bldcsine.o(.bss.fDT) for fDT
    bldcsine.o(.text) refers to fcmp.o(x$fpl$fcmp) for __aeabi_fcmpge
    bldcsine.o(.text) refers to faddsub_clz.o(x$fpl$fadd) for __aeabi_fadd
    bldcsine.o(.text) refers to bldcsine.o(.bss.angle_deg_final) for angle_deg_final
    bldcsine.o(.text) refers to ffix.o(x$fpl$ffix) for __aeabi_f2iz
    bldcsine.o(.text) refers to bldcsine.o(.rodata.sine_table) for sine_table
    bldcsine.o(.text) refers to bldcsine.o(.bss.angle_idx) for angle_idx
    bldcsine.o(.ARM.exidx) refers to bldcsine.o(.text) for [Anonymous Symbol]
    setup.o(.text) refers to gd32f10x_misc.o(.text) for nvic_priority_group_set
    setup.o(.text) refers to gd32f10x_rcu.o(.text) for rcu_flag_get
    setup.o(.text) refers to gd32f10x_fwdgt.o(.text) for fwdgt_config
    setup.o(.text) refers to gd32f10x_timer.o(.text) for timer_deinit
    setup.o(.text) refers to setup.o(.bss.timeoutTimer_paramter_struct) for timeoutTimer_paramter_struct
    setup.o(.text) refers to gd32f10x_gpio.o(.text) for gpio_init
    setup.o(.text) refers to setup.o(.bss.timerBldc_paramter_struct) for timerBldc_paramter_struct
    setup.o(.text) refers to setup.o(.bss.timerBldc_oc_parameter_struct) for timerBldc_oc_parameter_struct
    setup.o(.text) refers to setup.o(.bss.timerBldc_break_parameter_struct) for timerBldc_break_parameter_struct
    setup.o(.text) refers to gd32f10x_dma.o(.text) for dma_deinit
    setup.o(.text) refers to setup.o(.bss.dma_init_struct_adc) for dma_init_struct_adc
    setup.o(.text) refers to bldc.o(.bss.adc_buffer) for adc_buffer
    setup.o(.text) refers to gd32f10x_adc.o(.text) for adc_channel_length_config
    setup.o(.text) refers to gd32f10x_fmc.o(.text) for fmc_unlock
    setup.o(.text) refers to setup.o(.bss.oConfig) for oConfig
    setup.o(.ARM.exidx) refers to setup.o(.text) for [Anonymous Symbol]
    it.o(.text) refers to it.o(.bss.msTicks) for msTicks
    it.o(.text) refers to it.o(.bss.timeoutCounter_ms) for timeoutCounter_ms
    it.o(.text) refers to it.o(.bss.timedOut) for timedOut
    it.o(.text) refers to bldc.o(.text) for SetPWM
    it.o(.text) refers to gd32f10x_timer.o(.text) for timer_interrupt_flag_clear
    it.o(.text) refers to it.o(.bss.iPwmCounter) for iPwmCounter
    it.o(.text) refers to it.o(.bss.iPwmTicks0) for iPwmTicks0
    it.o(.text) refers to it.o(.bss.iPwmTicks) for iPwmTicks
    it.o(.text) refers to gd32f10x_adc.o(.text) for adc_software_trigger_enable
    it.o(.text) refers to it.o(.bss.iAdcCounter) for iAdcCounter
    it.o(.text) refers to it.o(.bss.iAdcTicks0) for iAdcTicks0
    it.o(.text) refers to it.o(.bss.iAdcTicks) for iAdcTicks
    it.o(.text) refers to gd32f10x_dma.o(.text) for dma_interrupt_flag_get
    it.o(.ARM.exidx) refers to it.o(.text) for [Anonymous Symbol]
    comms.o(.text) refers to gd32f10x_usart.o(.text) for usart_data_transmit
    comms.o(.ARM.exidx) refers to comms.o(.text) for [Anonymous Symbol]
    remotedummy.o(.text) refers to it.o(.bss.msTicks) for msTicks
    remotedummy.o(.text) refers to main.o(.bss.speed) for speed
    remotedummy.o(.text) refers to it.o(.text) for ResetTimeout
    remotedummy.o(.ARM.exidx) refers to remotedummy.o(.text) for [Anonymous Symbol]
    gd32f10x_adc.o(.text) refers to gd32f10x_rcu.o(.text) for rcu_periph_reset_enable
    gd32f10x_adc.o(.ARM.exidx) refers to gd32f10x_adc.o(.text) for [Anonymous Symbol]
    gd32f10x_dma.o(.ARM.exidx) refers to gd32f10x_dma.o(.text) for [Anonymous Symbol]
    gd32f10x_fmc.o(.ARM.exidx) refers to gd32f10x_fmc.o(.text) for [Anonymous Symbol]
    gd32f10x_fwdgt.o(.ARM.exidx) refers to gd32f10x_fwdgt.o(.text) for [Anonymous Symbol]
    gd32f10x_gpio.o(.text) refers to gd32f10x_rcu.o(.text) for rcu_periph_reset_enable
    gd32f10x_gpio.o(.ARM.exidx) refers to gd32f10x_gpio.o(.text) for [Anonymous Symbol]
    gd32f10x_i2c.o(.text) refers to gd32f10x_rcu.o(.text) for rcu_periph_reset_enable
    gd32f10x_i2c.o(.ARM.exidx) refers to gd32f10x_i2c.o(.text) for [Anonymous Symbol]
    gd32f10x_misc.o(.ARM.exidx) refers to gd32f10x_misc.o(.text) for [Anonymous Symbol]
    gd32f10x_pmu.o(.text) refers to gd32f10x_rcu.o(.text) for rcu_periph_reset_enable
    gd32f10x_pmu.o(.ARM.exidx) refers to gd32f10x_pmu.o(.text) for [Anonymous Symbol]
    gd32f10x_rcu.o(.text) refers to gd32f10x_rcu.o(.rodata.cst8) for .L__const.rcu_clock_freq_get.apb2_exp
    gd32f10x_rcu.o(.ARM.exidx) refers to gd32f10x_rcu.o(.text) for [Anonymous Symbol]
    gd32f10x_timer.o(.text) refers to gd32f10x_rcu.o(.text) for rcu_periph_reset_enable
    gd32f10x_timer.o(.ARM.exidx) refers to gd32f10x_timer.o(.text) for [Anonymous Symbol]
    gd32f10x_usart.o(.text) refers to gd32f10x_rcu.o(.text) for rcu_periph_reset_enable
    gd32f10x_usart.o(.ARM.exidx) refers to gd32f10x_usart.o(.text) for [Anonymous Symbol]
    gd32f10x_wwdgt.o(.text) refers to gd32f10x_rcu.o(.text) for rcu_periph_reset_enable
    gd32f10x_wwdgt.o(.ARM.exidx) refers to gd32f10x_wwdgt.o(.text) for [Anonymous Symbol]
    startup_gd32f10x_hd.o(STACK) refers (Special) to heapauxi.o(.text) for __use_two_region_memory
    startup_gd32f10x_hd.o(HEAP) refers (Special) to heapauxi.o(.text) for __use_two_region_memory
    startup_gd32f10x_hd.o(RESET) refers (Special) to heapauxi.o(.text) for __use_two_region_memory
    startup_gd32f10x_hd.o(RESET) refers to startup_gd32f10x_hd.o(STACK) for __initial_sp
    startup_gd32f10x_hd.o(RESET) refers to startup_gd32f10x_hd.o(.text) for Reset_Handler
    startup_gd32f10x_hd.o(RESET) refers to it.o(.text) for NMI_Handler
    startup_gd32f10x_hd.o(RESET) refers to bldcsine.o(.text) for EXTI0_IRQHandler
    startup_gd32f10x_hd.o(.text) refers (Special) to heapauxi.o(.text) for __use_two_region_memory
    startup_gd32f10x_hd.o(.text) refers to system_gd32f10x.o(.text) for SystemInit
    startup_gd32f10x_hd.o(.text) refers to __main.o(!!!main) for __main
    startup_gd32f10x_hd.o(.text) refers to startup_gd32f10x_hd.o(HEAP) for Heap_Mem
    startup_gd32f10x_hd.o(.text) refers to startup_gd32f10x_hd.o(STACK) for Stack_Mem
    system_gd32f10x.o(.text) refers to system_gd32f10x.o(.data.SystemCoreClock) for SystemCoreClock
    system_gd32f10x.o(.ARM.exidx) refers to system_gd32f10x.o(.text) for [Anonymous Symbol]
    gd32f10x_exti.o(.ARM.exidx) refers to gd32f10x_exti.o(.text) for [Anonymous Symbol]
    __main.o(!!!main) refers to __rtentry.o(.ARM.Collect$$rtentry$$00000000) for __rt_entry
    d2f.o(x$fpl$d2f) refers (Special) to usenofp.o(x$fpl$usenofp) for __I$use$fp
    d2f.o(x$fpl$d2f) refers to fretinf.o(x$fpl$fretinf) for __fpl_fretinf
    d2f.o(x$fpl$d2f) refers to dnaninf.o(x$fpl$dnaninf) for __fpl_dnaninf
    daddsub_clz.o(x$fpl$dadd) refers (Special) to usenofp.o(x$fpl$usenofp) for __I$use$fp
    daddsub_clz.o(x$fpl$dadd) refers to daddsub_clz.o(x$fpl$dsub) for _dsub1
    daddsub_clz.o(x$fpl$dadd) refers to dretinf.o(x$fpl$dretinf) for __fpl_dretinf
    daddsub_clz.o(x$fpl$dadd) refers to dnaninf.o(x$fpl$dnaninf) for __fpl_dnaninf
    daddsub_clz.o(x$fpl$drsb) refers (Special) to usenofp.o(x$fpl$usenofp) for __I$use$fp
    daddsub_clz.o(x$fpl$drsb) refers to daddsub_clz.o(x$fpl$dadd) for _dadd1
    daddsub_clz.o(x$fpl$drsb) refers to daddsub_clz.o(x$fpl$dsub) for _dsub1
    daddsub_clz.o(x$fpl$dsub) refers (Special) to usenofp.o(x$fpl$usenofp) for __I$use$fp
    daddsub_clz.o(x$fpl$dsub) refers to daddsub_clz.o(x$fpl$dadd) for _dadd1
    daddsub_clz.o(x$fpl$dsub) refers to dnaninf.o(x$fpl$dnaninf) for __fpl_dnaninf
    ddiv.o(x$fpl$drdiv) refers (Special) to usenofp.o(x$fpl$usenofp) for __I$use$fp
    ddiv.o(x$fpl$drdiv) refers to ddiv.o(x$fpl$ddiv) for ddiv_entry
    ddiv.o(x$fpl$ddiv) refers (Special) to usenofp.o(x$fpl$usenofp) for __I$use$fp
    ddiv.o(x$fpl$ddiv) refers to dretinf.o(x$fpl$dretinf) for __fpl_dretinf
    ddiv.o(x$fpl$ddiv) refers to dnaninf.o(x$fpl$dnaninf) for __fpl_dnaninf
    dfix.o(x$fpl$dfix) refers (Special) to usenofp.o(x$fpl$usenofp) for __I$use$fp
    dfix.o(x$fpl$dfix) refers to dnaninf.o(x$fpl$dnaninf) for __fpl_dnaninf
    dfix.o(x$fpl$dfixr) refers (Special) to usenofp.o(x$fpl$usenofp) for __I$use$fp
    dfix.o(x$fpl$dfixr) refers to dnaninf.o(x$fpl$dnaninf) for __fpl_dnaninf
    dflt_clz.o(x$fpl$dfltu) refers (Special) to usenofp.o(x$fpl$usenofp) for __I$use$fp
    dflt_clz.o(x$fpl$dflt) refers (Special) to usenofp.o(x$fpl$usenofp) for __I$use$fp
    dflt_clz.o(x$fpl$dfltn) refers (Special) to usenofp.o(x$fpl$usenofp) for __I$use$fp
    dmul.o(x$fpl$dmul) refers (Special) to usenofp.o(x$fpl$usenofp) for __I$use$fp
    dmul.o(x$fpl$dmul) refers to dretinf.o(x$fpl$dretinf) for __fpl_dretinf
    dmul.o(x$fpl$dmul) refers to dnaninf.o(x$fpl$dnaninf) for __fpl_dnaninf
    f2d.o(x$fpl$f2d) refers (Special) to usenofp.o(x$fpl$usenofp) for __I$use$fp
    f2d.o(x$fpl$f2d) refers to fnaninf.o(x$fpl$fnaninf) for __fpl_fnaninf
    f2d.o(x$fpl$f2d) refers to dretinf.o(x$fpl$dretinf) for __fpl_dretinf
    faddsub_clz.o(x$fpl$fadd) refers (Special) to usenofp.o(x$fpl$usenofp) for __I$use$fp
    faddsub_clz.o(x$fpl$fadd) refers to faddsub_clz.o(x$fpl$fsub) for _fsub1
    faddsub_clz.o(x$fpl$fadd) refers to fretinf.o(x$fpl$fretinf) for __fpl_fretinf
    faddsub_clz.o(x$fpl$fadd) refers to fnaninf.o(x$fpl$fnaninf) for __fpl_fnaninf
    faddsub_clz.o(x$fpl$frsb) refers (Special) to usenofp.o(x$fpl$usenofp) for __I$use$fp
    faddsub_clz.o(x$fpl$frsb) refers to faddsub_clz.o(x$fpl$fadd) for _fadd1
    faddsub_clz.o(x$fpl$frsb) refers to faddsub_clz.o(x$fpl$fsub) for _fsub1
    faddsub_clz.o(x$fpl$fsub) refers (Special) to usenofp.o(x$fpl$usenofp) for __I$use$fp
    faddsub_clz.o(x$fpl$fsub) refers to faddsub_clz.o(x$fpl$fadd) for _fadd1
    faddsub_clz.o(x$fpl$fsub) refers to fnaninf.o(x$fpl$fnaninf) for __fpl_fnaninf
    fcmp.o(x$fpl$fcmp) refers (Special) to usenofp.o(x$fpl$usenofp) for __I$use$fp
    fcmp.o(x$fpl$fcmp) refers to feqf.o(x$fpl$feqf) for _fcmpeq
    fcmp.o(x$fpl$fcmp) refers to fgeqf.o(x$fpl$fgeqf) for _fcmpge
    fcmp.o(x$fpl$fcmp) refers to fleqf.o(x$fpl$fleqf) for _fcmple
    fdiv.o(x$fpl$frdiv) refers (Special) to usenofp.o(x$fpl$usenofp) for __I$use$fp
    fdiv.o(x$fpl$frdiv) refers to fdiv.o(x$fpl$fdiv) for _fdiv1
    fdiv.o(x$fpl$fdiv) refers (Special) to usenofp.o(x$fpl$usenofp) for __I$use$fp
    fdiv.o(x$fpl$fdiv) refers to fretinf.o(x$fpl$fretinf) for __fpl_fretinf
    fdiv.o(x$fpl$fdiv) refers to fnaninf.o(x$fpl$fnaninf) for __fpl_fnaninf
    ffix.o(x$fpl$ffix) refers (Special) to usenofp.o(x$fpl$usenofp) for __I$use$fp
    ffix.o(x$fpl$ffix) refers to fnaninf.o(x$fpl$fnaninf) for __fpl_fnaninf
    ffix.o(x$fpl$ffixr) refers (Special) to usenofp.o(x$fpl$usenofp) for __I$use$fp
    ffix.o(x$fpl$ffixr) refers to fnaninf.o(x$fpl$fnaninf) for __fpl_fnaninf
    fflt_clz.o(x$fpl$ffltu) refers (Special) to usenofp.o(x$fpl$usenofp) for __I$use$fp
    fflt_clz.o(x$fpl$fflt) refers (Special) to usenofp.o(x$fpl$usenofp) for __I$use$fp
    fflt_clz.o(x$fpl$ffltn) refers (Special) to usenofp.o(x$fpl$usenofp) for __I$use$fp
    fmul.o(x$fpl$fmul) refers (Special) to usenofp.o(x$fpl$usenofp) for __I$use$fp
    fmul.o(x$fpl$fmul) refers to fretinf.o(x$fpl$fretinf) for __fpl_fretinf
    fmul.o(x$fpl$fmul) refers to fnaninf.o(x$fpl$fnaninf) for __fpl_fnaninf
    __rtentry.o(.ARM.Collect$$rtentry$$00000000) refers (Special) to __rtentry2.o(.ARM.Collect$$rtentry$$0000000A) for __rt_entry_li
    __rtentry.o(.ARM.Collect$$rtentry$$00000000) refers (Special) to __rtentry2.o(.ARM.Collect$$rtentry$$0000000D) for __rt_entry_main
    __rtentry.o(.ARM.Collect$$rtentry$$00000000) refers (Special) to __rtentry2.o(.ARM.Collect$$rtentry$$0000000C) for __rt_entry_postli_1
    __rtentry.o(.ARM.Collect$$rtentry$$00000000) refers (Special) to __rtentry2.o(.ARM.Collect$$rtentry$$00000009) for __rt_entry_postsh_1
    __rtentry.o(.ARM.Collect$$rtentry$$00000000) refers (Special) to __rtentry2.o(.ARM.Collect$$rtentry$$00000002) for __rt_entry_presh_1
    __rtentry.o(.ARM.Collect$$rtentry$$00000000) refers (Special) to __rtentry4.o(.ARM.Collect$$rtentry$$00000004) for __rt_entry_sh
    dnaninf.o(x$fpl$dnaninf) refers (Special) to usenofp.o(x$fpl$usenofp) for __I$use$fp
    dretinf.o(x$fpl$dretinf) refers (Special) to usenofp.o(x$fpl$usenofp) for __I$use$fp
    feqf.o(x$fpl$feqf) refers (Special) to usenofp.o(x$fpl$usenofp) for __I$use$fp
    feqf.o(x$fpl$feqf) refers to fnaninf.o(x$fpl$fnaninf) for __fpl_fnaninf
    feqf.o(x$fpl$feqf) refers to fcmpi.o(x$fpl$fcmpinf) for __fpl_fcmp_Inf
    fgeqf.o(x$fpl$fgeqf) refers (Special) to usenofp.o(x$fpl$usenofp) for __I$use$fp
    fgeqf.o(x$fpl$fgeqf) refers to fnaninf.o(x$fpl$fnaninf) for __fpl_fnaninf
    fgeqf.o(x$fpl$fgeqf) refers to fcmpi.o(x$fpl$fcmpinf) for __fpl_fcmp_Inf
    fleqf.o(x$fpl$fleqf) refers (Special) to usenofp.o(x$fpl$usenofp) for __I$use$fp
    fleqf.o(x$fpl$fleqf) refers to fnaninf.o(x$fpl$fnaninf) for __fpl_fnaninf
    fleqf.o(x$fpl$fleqf) refers to fcmpi.o(x$fpl$fcmpinf) for __fpl_fcmp_Inf
    fnaninf.o(x$fpl$fnaninf) refers (Special) to usenofp.o(x$fpl$usenofp) for __I$use$fp
    fretinf.o(x$fpl$fretinf) refers (Special) to usenofp.o(x$fpl$usenofp) for __I$use$fp
    __rtentry2.o(.ARM.Collect$$rtentry$$00000008) refers to boardinit2.o(.text) for _platform_post_stackheap_init
    __rtentry2.o(.ARM.Collect$$rtentry$$0000000A) refers to libinit.o(.ARM.Collect$$libinit$$00000000) for __rt_lib_init
    __rtentry2.o(.ARM.Collect$$rtentry$$0000000B) refers to boardinit3.o(.text) for _platform_post_lib_init
    __rtentry2.o(.ARM.Collect$$rtentry$$0000000D) refers to main.o(.text) for main
    __rtentry2.o(.ARM.Collect$$rtentry$$0000000D) refers to exit.o(.text) for exit
    __rtentry2.o(.ARM.exidx) refers to __rtentry2.o(.ARM.Collect$$rtentry$$00000001) for .ARM.Collect$$rtentry$$00000001
    __rtentry2.o(.ARM.exidx) refers to __rtentry2.o(.ARM.Collect$$rtentry$$00000008) for .ARM.Collect$$rtentry$$00000008
    __rtentry2.o(.ARM.exidx) refers to __rtentry2.o(.ARM.Collect$$rtentry$$0000000A) for .ARM.Collect$$rtentry$$0000000A
    __rtentry2.o(.ARM.exidx) refers to __rtentry2.o(.ARM.Collect$$rtentry$$0000000B) for .ARM.Collect$$rtentry$$0000000B
    __rtentry2.o(.ARM.exidx) refers to __rtentry2.o(.ARM.Collect$$rtentry$$0000000D) for .ARM.Collect$$rtentry$$0000000D
    __rtentry4.o(.ARM.Collect$$rtentry$$00000004) refers to sys_stackheap_outer.o(.text) for __user_setup_stackheap
    __rtentry4.o(.ARM.exidx) refers to __rtentry4.o(.ARM.Collect$$rtentry$$00000004) for .ARM.Collect$$rtentry$$00000004
    fcmpi.o(x$fpl$fcmpinf) refers (Special) to usenofp.o(x$fpl$usenofp) for __I$use$fp
    sys_stackheap_outer.o(.text) refers to libspace.o(.text) for __user_perproc_libspace
    sys_stackheap_outer.o(.text) refers to startup_gd32f10x_hd.o(.text) for __user_initial_stackheap
    exit.o(.text) refers to rtexit.o(.ARM.Collect$$rtexit$$00000000) for __rt_exit
    libinit.o(.ARM.Collect$$libinit$$00000000) refers (Special) to libinit2.o(.ARM.Collect$$libinit$$00000030) for __rt_lib_init_alloca_1
    libinit.o(.ARM.Collect$$libinit$$00000000) refers (Special) to libinit2.o(.ARM.Collect$$libinit$$0000002E) for __rt_lib_init_argv_1
    libinit.o(.ARM.Collect$$libinit$$00000000) refers (Special) to libinit2.o(.ARM.Collect$$libinit$$0000001D) for __rt_lib_init_atexit_1
    libinit.o(.ARM.Collect$$libinit$$00000000) refers (Special) to libinit2.o(.ARM.Collect$$libinit$$00000023) for __rt_lib_init_clock_1
    libinit.o(.ARM.Collect$$libinit$$00000000) refers (Special) to libinit2.o(.ARM.Collect$$libinit$$00000034) for __rt_lib_init_cpp_1
    libinit.o(.ARM.Collect$$libinit$$00000000) refers (Special) to libinit2.o(.ARM.Collect$$libinit$$00000032) for __rt_lib_init_exceptions_1
    libinit.o(.ARM.Collect$$libinit$$00000000) refers (Special) to libinit2.o(.ARM.Collect$$libinit$$00000002) for __rt_lib_init_fp_1
    libinit.o(.ARM.Collect$$libinit$$00000000) refers (Special) to libinit2.o(.ARM.Collect$$libinit$$00000021) for __rt_lib_init_fp_trap_1
    libinit.o(.ARM.Collect$$libinit$$00000000) refers (Special) to libinit2.o(.ARM.Collect$$libinit$$00000025) for __rt_lib_init_getenv_1
    libinit.o(.ARM.Collect$$libinit$$00000000) refers (Special) to libinit2.o(.ARM.Collect$$libinit$$0000000C) for __rt_lib_init_heap_1
    libinit.o(.ARM.Collect$$libinit$$00000000) refers (Special) to libinit2.o(.ARM.Collect$$libinit$$00000013) for __rt_lib_init_lc_collate_1
    libinit.o(.ARM.Collect$$libinit$$00000000) refers (Special) to libinit2.o(.ARM.Collect$$libinit$$00000015) for __rt_lib_init_lc_ctype_1
    libinit.o(.ARM.Collect$$libinit$$00000000) refers (Special) to libinit2.o(.ARM.Collect$$libinit$$00000017) for __rt_lib_init_lc_monetary_1
    libinit.o(.ARM.Collect$$libinit$$00000000) refers (Special) to libinit2.o(.ARM.Collect$$libinit$$00000019) for __rt_lib_init_lc_numeric_1
    libinit.o(.ARM.Collect$$libinit$$00000000) refers (Special) to libinit2.o(.ARM.Collect$$libinit$$0000001B) for __rt_lib_init_lc_time_1
    libinit.o(.ARM.Collect$$libinit$$00000000) refers (Special) to libinit2.o(.ARM.Collect$$libinit$$00000006) for __rt_lib_init_preinit_1
    libinit.o(.ARM.Collect$$libinit$$00000000) refers (Special) to libinit2.o(.ARM.Collect$$libinit$$00000010) for __rt_lib_init_rand_1
    libinit.o(.ARM.Collect$$libinit$$00000000) refers (Special) to libinit2.o(.ARM.Collect$$libinit$$00000004) for __rt_lib_init_relocate_pie_1
    libinit.o(.ARM.Collect$$libinit$$00000000) refers (Special) to libinit2.o(.ARM.Collect$$libinit$$00000035) for __rt_lib_init_return
    libinit.o(.ARM.Collect$$libinit$$00000000) refers (Special) to libinit2.o(.ARM.Collect$$libinit$$0000001F) for __rt_lib_init_signal_1
    libinit.o(.ARM.Collect$$libinit$$00000000) refers (Special) to libinit2.o(.ARM.Collect$$libinit$$00000027) for __rt_lib_init_stdio_1
    libinit.o(.ARM.Collect$$libinit$$00000000) refers (Special) to libinit2.o(.ARM.Collect$$libinit$$0000000E) for __rt_lib_init_user_alloc_1
    libspace.o(.text) refers to libspace.o(.bss) for __libspace_start
    rtexit.o(.ARM.Collect$$rtexit$$00000000) refers (Special) to rtexit2.o(.ARM.Collect$$rtexit$$00000004) for __rt_exit_exit
    rtexit.o(.ARM.Collect$$rtexit$$00000000) refers (Special) to rtexit2.o(.ARM.Collect$$rtexit$$00000003) for __rt_exit_ls
    rtexit.o(.ARM.Collect$$rtexit$$00000000) refers (Special) to rtexit2.o(.ARM.Collect$$rtexit$$00000002) for __rt_exit_prels_1
    rtexit.o(.ARM.exidx) refers (Special) to rtexit2.o(.ARM.Collect$$rtexit$$00000004) for __rt_exit_exit
    rtexit.o(.ARM.exidx) refers (Special) to rtexit2.o(.ARM.Collect$$rtexit$$00000003) for __rt_exit_ls
    rtexit.o(.ARM.exidx) refers (Special) to rtexit2.o(.ARM.Collect$$rtexit$$00000002) for __rt_exit_prels_1
    rtexit.o(.ARM.exidx) refers to rtexit.o(.ARM.Collect$$rtexit$$00000000) for .ARM.Collect$$rtexit$$00000000
    libinit2.o(.ARM.Collect$$libinit$$00000012) refers to libinit2.o(.ARM.Collect$$libinit$$00000011) for .ARM.Collect$$libinit$$00000011
    libinit2.o(.ARM.Collect$$libinit$$00000014) refers to libinit2.o(.ARM.Collect$$libinit$$00000011) for .ARM.Collect$$libinit$$00000011
    libinit2.o(.ARM.Collect$$libinit$$00000016) refers to libinit2.o(.ARM.Collect$$libinit$$00000011) for .ARM.Collect$$libinit$$00000011
    libinit2.o(.ARM.Collect$$libinit$$00000018) refers to libinit2.o(.ARM.Collect$$libinit$$00000011) for .ARM.Collect$$libinit$$00000011
    libinit2.o(.ARM.Collect$$libinit$$0000001A) refers to libinit2.o(.ARM.Collect$$libinit$$00000011) for .ARM.Collect$$libinit$$00000011
    libinit2.o(.ARM.Collect$$libinit$$00000028) refers to argv_veneer.o(.emb_text) for __ARM_argv_veneer
    libinit2.o(.ARM.Collect$$libinit$$00000029) refers to argv_veneer.o(.emb_text) for __ARM_argv_veneer
    rtexit2.o(.ARM.Collect$$rtexit$$00000003) refers to libshutdown.o(.ARM.Collect$$libshutdown$$00000000) for __rt_lib_shutdown
    rtexit2.o(.ARM.Collect$$rtexit$$00000004) refers to sys_exit.o(.text) for _sys_exit
    rtexit2.o(.ARM.exidx) refers to rtexit2.o(.ARM.Collect$$rtexit$$00000001) for .ARM.Collect$$rtexit$$00000001
    rtexit2.o(.ARM.exidx) refers to rtexit2.o(.ARM.Collect$$rtexit$$00000003) for .ARM.Collect$$rtexit$$00000003
    rtexit2.o(.ARM.exidx) refers to rtexit2.o(.ARM.Collect$$rtexit$$00000004) for .ARM.Collect$$rtexit$$00000004
    argv_veneer.o(.emb_text) refers to no_argv.o(.text) for __ARM_get_argv
    sys_exit.o(.text) refers (Special) to use_no_semi.o(.text) for __I$use$semihosting
    sys_exit.o(.text) refers (Special) to indicate_semi.o(.text) for __semihosting_library_function
    sys_exit_hlt.o(.text) refers (Special) to use_no_semi.o(.text) for __I$use$semihosting
    sys_exit_hlt.o(.text) refers (Special) to indicate_semi.o(.text) for __semihosting_library_function
    _get_argv_nomalloc.o(.text) refers (Special) to hrguard.o(.text) for __heap_region$guard
    _get_argv_nomalloc.o(.text) refers to defsig_rtmem_outer.o(.text) for __rt_SIGRTMEM
    _get_argv_nomalloc.o(.text) refers to sys_command.o(.text) for _sys_command_string
    libshutdown.o(.ARM.Collect$$libshutdown$$00000000) refers (Special) to libshutdown2.o(.ARM.Collect$$libshutdown$$00000002) for __rt_lib_shutdown_cpp_1
    libshutdown.o(.ARM.Collect$$libshutdown$$00000000) refers (Special) to libshutdown2.o(.ARM.Collect$$libshutdown$$00000007) for __rt_lib_shutdown_fp_trap_1
    libshutdown.o(.ARM.Collect$$libshutdown$$00000000) refers (Special) to libshutdown2.o(.ARM.Collect$$libshutdown$$0000000F) for __rt_lib_shutdown_heap_1
    libshutdown.o(.ARM.Collect$$libshutdown$$00000000) refers (Special) to libshutdown2.o(.ARM.Collect$$libshutdown$$00000010) for __rt_lib_shutdown_return
    libshutdown.o(.ARM.Collect$$libshutdown$$00000000) refers (Special) to libshutdown2.o(.ARM.Collect$$libshutdown$$0000000A) for __rt_lib_shutdown_signal_1
    libshutdown.o(.ARM.Collect$$libshutdown$$00000000) refers (Special) to libshutdown2.o(.ARM.Collect$$libshutdown$$00000004) for __rt_lib_shutdown_stdio_1
    libshutdown.o(.ARM.Collect$$libshutdown$$00000000) refers (Special) to libshutdown2.o(.ARM.Collect$$libshutdown$$0000000C) for __rt_lib_shutdown_user_alloc_1
    sys_command.o(.text) refers (Special) to use_no_semi.o(.text) for __I$use$semihosting
    sys_command.o(.text) refers (Special) to indicate_semi.o(.text) for __semihosting_library_function
    sys_command_hlt.o(.text) refers (Special) to use_no_semi.o(.text) for __I$use$semihosting
    sys_command_hlt.o(.text) refers (Special) to indicate_semi.o(.text) for __semihosting_library_function
    defsig_rtmem_outer.o(.text) refers to defsig_rtmem_inner.o(.text) for __rt_SIGRTMEM_inner
    defsig_rtmem_outer.o(.text) refers to defsig_exit.o(.text) for __sig_exit
    defsig_rtmem_formal.o(.text) refers to rt_raise.o(.text) for __rt_raise
    rt_raise.o(.text) refers to __raise.o(.text) for __raise
    rt_raise.o(.text) refers to sys_exit.o(.text) for _sys_exit
    defsig_exit.o(.text) refers to sys_exit.o(.text) for _sys_exit
    defsig_rtmem_inner.o(.text) refers to defsig_general.o(.text) for __default_signal_display
    __raise.o(.text) refers to defsig.o(CL$$defsig) for __default_signal_handler
    defsig_general.o(.text) refers to sys_wrch.o(.text) for _ttywrch
    sys_wrch.o(.text) refers (Special) to use_no_semi.o(.text) for __I$use$semihosting
    sys_wrch.o(.text) refers (Special) to indicate_semi.o(.text) for __semihosting_library_function
    sys_wrch_hlt.o(.text) refers (Special) to use_no_semi.o(.text) for __I$use$semihosting
    sys_wrch_hlt.o(.text) refers (Special) to indicate_semi.o(.text) for __semihosting_library_function
    defsig.o(CL$$defsig) refers to defsig_rtmem_inner.o(.text) for __rt_SIGRTMEM_inner
    defsig_abrt_inner.o(.text) refers to defsig_general.o(.text) for __default_signal_display
    defsig_fpe_inner.o(.text) refers to defsig_general.o(.text) for __default_signal_display
    defsig_rtred_inner.o(.text) refers to defsig_general.o(.text) for __default_signal_display
    defsig_stak_inner.o(.text) refers to defsig_general.o(.text) for __default_signal_display
    defsig_pvfn_inner.o(.text) refers to defsig_general.o(.text) for __default_signal_display
    defsig_cppl_inner.o(.text) refers to defsig_general.o(.text) for __default_signal_display
    defsig_segv_inner.o(.text) refers to defsig_general.o(.text) for __default_signal_display
    defsig_other.o(.text) refers to defsig_general.o(.text) for __default_signal_display


==============================================================================

Removing Unused input sections from the image.

    Removing main.o(.ARM.exidx), (24 bytes).
    Removing main.o(.data.wStateSlave), (1 bytes).
    Removing main.o(.bss.activateWeakening), (1 bytes).
    Removing main.o(.data.beepsBackwards), (1 bytes).
    Removing main.o(.bss.slaveError), (1 bytes).
    Removing main.o(.ARM.use_no_argv), (4 bytes).
    Removing bldc.o(.ARM.exidx), (40 bytes).
    Removing bldcbc.o(.text), (0 bytes).
    Removing bldcsine.o(.ARM.exidx), (112 bytes).
    Removing setup.o(.ARM.exidx), (152 bytes).
    Removing setup.o(.bss.dma_init_struct_usart), (28 bytes).
    Removing setup.o(.bss.usart0_rx_buf), (1 bytes).
    Removing setup.o(.bss.usart1_rx_buf), (1 bytes).
    Removing it.o(.ARM.exidx), (120 bytes).
    Removing it.o(.bss.iUartCounter), (2 bytes).
    Removing led.o(.text), (0 bytes).
    Removing comms.o(.text), (108 bytes).
    Removing comms.o(.ARM.exidx), (16 bytes).
    Removing remoteuart.o(.text), (0 bytes).
    Removing remotecrsf.o(.text), (0 bytes).
    Removing remotedummy.o(.ARM.exidx), (16 bytes).
    Removing remoteuartbus.o(.text), (0 bytes).
    Removing commsmasterslave.o(.text), (0 bytes).
    Removing commsmasterslave.o(.bss.mosfetOutMaster), (1 bytes).
    Removing commsmasterslave.o(.bss.beepsBackwardsMaster), (1 bytes).
    Removing remoteadc.o(.text), (0 bytes).
    Removing remoteautodetect.o(.text), (0 bytes).
    Removing gd32f10x_adc.o(.ARM.exidx), (272 bytes).
    Removing gd32f10x_dma.o(.ARM.exidx), (216 bytes).
    Removing gd32f10x_fmc.o(.ARM.exidx), (272 bytes).
    Removing gd32f10x_fwdgt.o(.ARM.exidx), (48 bytes).
    Removing gd32f10x_gpio.o(.ARM.exidx), (136 bytes).
    Removing gd32f10x_i2c.o(.text), (802 bytes).
    Removing gd32f10x_i2c.o(.ARM.exidx), (240 bytes).
    Removing gd32f10x_misc.o(.ARM.exidx), (56 bytes).
    Removing gd32f10x_pmu.o(.text), (362 bytes).
    Removing gd32f10x_pmu.o(.ARM.exidx), (96 bytes).
    Removing gd32f10x_rcu.o(.ARM.exidx), (288 bytes).
    Removing gd32f10x_timer.o(.ARM.exidx), (552 bytes).
    Removing gd32f10x_usart.o(.text), (868 bytes).
    Removing gd32f10x_usart.o(.ARM.exidx), (344 bytes).
    Removing gd32f10x_wwdgt.o(.text), (170 bytes).
    Removing gd32f10x_wwdgt.o(.ARM.exidx), (56 bytes).
    Removing system_gd32f10x.o(.ARM.exidx), (16 bytes).
    Removing gd32f10x_exti.o(.ARM.exidx), (96 bytes).

45 unused section(s) (total 5520 bytes) removed from the image.

==============================================================================

Image Symbol Table

    Local Symbols

    Symbol Name                              Value     Ov Type        Size  Object(Section)

    ../clib/angel/boardlib.s                 0x00000000   Number         0  boardinit1.o ABSOLUTE
    ../clib/angel/boardlib.s                 0x00000000   Number         0  boardinit2.o ABSOLUTE
    ../clib/angel/boardlib.s                 0x00000000   Number         0  boardinit3.o ABSOLUTE
    ../clib/angel/boardlib.s                 0x00000000   Number         0  boardshut.o ABSOLUTE
    ../clib/angel/handlers.s                 0x00000000   Number         0  __scatter_copy.o ABSOLUTE
    ../clib/angel/handlers.s                 0x00000000   Number         0  __scatter_zi.o ABSOLUTE
    ../clib/angel/kernel.s                   0x00000000   Number         0  __rtentry.o ABSOLUTE
    ../clib/angel/kernel.s                   0x00000000   Number         0  __rtentry2.o ABSOLUTE
    ../clib/angel/kernel.s                   0x00000000   Number         0  __rtentry4.o ABSOLUTE
    ../clib/angel/kernel.s                   0x00000000   Number         0  rtexit.o ABSOLUTE
    ../clib/angel/kernel.s                   0x00000000   Number         0  rtexit2.o ABSOLUTE
    ../clib/angel/rt.s                       0x00000000   Number         0  rt_raise.o ABSOLUTE
    ../clib/angel/scatter.s                  0x00000000   Number         0  __scatter.o ABSOLUTE
    ../clib/angel/startup.s                  0x00000000   Number         0  __main.o ABSOLUTE
    ../clib/angel/sys.s                      0x00000000   Number         0  sys_stackheap_outer.o ABSOLUTE
    ../clib/angel/sys.s                      0x00000000   Number         0  libspace.o ABSOLUTE
    ../clib/angel/sys.s                      0x00000000   Number         0  use_no_semi.o ABSOLUTE
    ../clib/angel/sys.s                      0x00000000   Number         0  indicate_semi.o ABSOLUTE
    ../clib/angel/sysapp.c                   0x00000000   Number         0  sys_exit.o ABSOLUTE
    ../clib/angel/sysapp.c                   0x00000000   Number         0  sys_exit_hlt.o ABSOLUTE
    ../clib/angel/sysapp.c                   0x00000000   Number         0  sys_command.o ABSOLUTE
    ../clib/angel/sysapp.c                   0x00000000   Number         0  sys_command_hlt.o ABSOLUTE
    ../clib/angel/sysapp.c                   0x00000000   Number         0  sys_wrch.o ABSOLUTE
    ../clib/angel/sysapp.c                   0x00000000   Number         0  sys_wrch_hlt.o ABSOLUTE
    ../clib/armsys.c                         0x00000000   Number         0  argv_veneer.o ABSOLUTE
    ../clib/armsys.c                         0x00000000   Number         0  argv_veneer.o ABSOLUTE
    ../clib/armsys.c                         0x00000000   Number         0  _get_argv_nomalloc.o ABSOLUTE
    ../clib/armsys.c                         0x00000000   Number         0  no_argv.o ABSOLUTE
    ../clib/heapalloc.c                      0x00000000   Number         0  hrguard.o ABSOLUTE
    ../clib/heapaux.c                        0x00000000   Number         0  heapauxi.o ABSOLUTE
    ../clib/libinit.s                        0x00000000   Number         0  libinit.o ABSOLUTE
    ../clib/libinit.s                        0x00000000   Number         0  libinit2.o ABSOLUTE
    ../clib/libinit.s                        0x00000000   Number         0  libshutdown.o ABSOLUTE
    ../clib/libinit.s                        0x00000000   Number         0  libshutdown2.o ABSOLUTE
    ../clib/signal.c                         0x00000000   Number         0  defsig_rtmem_outer.o ABSOLUTE
    ../clib/signal.c                         0x00000000   Number         0  defsig_rtmem_formal.o ABSOLUTE
    ../clib/signal.c                         0x00000000   Number         0  defsig_exit.o ABSOLUTE
    ../clib/signal.c                         0x00000000   Number         0  defsig_rtmem_inner.o ABSOLUTE
    ../clib/signal.c                         0x00000000   Number         0  __raise.o ABSOLUTE
    ../clib/signal.c                         0x00000000   Number         0  defsig_general.o ABSOLUTE
    ../clib/signal.c                         0x00000000   Number         0  defsig_abrt_inner.o ABSOLUTE
    ../clib/signal.c                         0x00000000   Number         0  defsig_fpe_inner.o ABSOLUTE
    ../clib/signal.c                         0x00000000   Number         0  defsig_rtred_inner.o ABSOLUTE
    ../clib/signal.c                         0x00000000   Number         0  defsig_stak_inner.o ABSOLUTE
    ../clib/signal.c                         0x00000000   Number         0  defsig_pvfn_inner.o ABSOLUTE
    ../clib/signal.c                         0x00000000   Number         0  defsig_cppl_inner.o ABSOLUTE
    ../clib/signal.c                         0x00000000   Number         0  defsig_segv_inner.o ABSOLUTE
    ../clib/signal.c                         0x00000000   Number         0  defsig_other.o ABSOLUTE
    ../clib/signal.s                         0x00000000   Number         0  defsig.o ABSOLUTE
    ../clib/stdlib.c                         0x00000000   Number         0  exit.o ABSOLUTE
    ../fplib/d2f.s                           0x00000000   Number         0  d2f.o ABSOLUTE
    ../fplib/daddsub.s                       0x00000000   Number         0  daddsub_clz.o ABSOLUTE
    ../fplib/ddiv.s                          0x00000000   Number         0  ddiv.o ABSOLUTE
    ../fplib/dfix.s                          0x00000000   Number         0  dfix.o ABSOLUTE
    ../fplib/dflt.s                          0x00000000   Number         0  dflt_clz.o ABSOLUTE
    ../fplib/dmul.s                          0x00000000   Number         0  dmul.o ABSOLUTE
    ../fplib/dnaninf.s                       0x00000000   Number         0  dnaninf.o ABSOLUTE
    ../fplib/dretinf.s                       0x00000000   Number         0  dretinf.o ABSOLUTE
    ../fplib/f2d.s                           0x00000000   Number         0  f2d.o ABSOLUTE
    ../fplib/faddsub.s                       0x00000000   Number         0  faddsub_clz.o ABSOLUTE
    ../fplib/fcmp.s                          0x00000000   Number         0  fcmp.o ABSOLUTE
    ../fplib/fcmpi.s                         0x00000000   Number         0  fcmpi.o ABSOLUTE
    ../fplib/fdiv.s                          0x00000000   Number         0  fdiv.o ABSOLUTE
    ../fplib/feqf.s                          0x00000000   Number         0  feqf.o ABSOLUTE
    ../fplib/ffix.s                          0x00000000   Number         0  ffix.o ABSOLUTE
    ../fplib/fflt.s                          0x00000000   Number         0  fflt_clz.o ABSOLUTE
    ../fplib/fgeqf.s                         0x00000000   Number         0  fgeqf.o ABSOLUTE
    ../fplib/fleqf.s                         0x00000000   Number         0  fleqf.o ABSOLUTE
    ../fplib/fmul.s                          0x00000000   Number         0  fmul.o ABSOLUTE
    ../fplib/fnaninf.s                       0x00000000   Number         0  fnaninf.o ABSOLUTE
    ../fplib/fpinit.s                        0x00000000   Number         0  fpinit.o ABSOLUTE
    ../fplib/fpinit_empty.s                  0x00000000   Number         0  fpinit_empty.o ABSOLUTE
    ../fplib/fretinf.s                       0x00000000   Number         0  fretinf.o ABSOLUTE
    ../fplib/usenofp.s                       0x00000000   Number         0  usenofp.o ABSOLUTE
    RTE/Device/GD32F103C8/startup_gd32f10x_hd.s 0x00000000   Number         0  startup_gd32f10x_hd.o ABSOLUTE
    RemoteAdc.c                              0x00000000   Number         0  remoteadc.o ABSOLUTE
    RemoteAutodetect.c                       0x00000000   Number         0  remoteautodetect.o ABSOLUTE
    bldc.c                                   0x00000000   Number         0  bldc.o ABSOLUTE
    bldcBC.c                                 0x00000000   Number         0  bldcbc.o ABSOLUTE
    bldcSINE.c                               0x00000000   Number         0  bldcsine.o ABSOLUTE
    comms.c                                  0x00000000   Number         0  comms.o ABSOLUTE
    commsMasterSlave.c                       0x00000000   Number         0  commsmasterslave.o ABSOLUTE
    dc.s                                     0x00000000   Number         0  dc.o ABSOLUTE
    gd32f10x_adc.c                           0x00000000   Number         0  gd32f10x_adc.o ABSOLUTE
    gd32f10x_dma.c                           0x00000000   Number         0  gd32f10x_dma.o ABSOLUTE
    gd32f10x_exti.c                          0x00000000   Number         0  gd32f10x_exti.o ABSOLUTE
    gd32f10x_fmc.c                           0x00000000   Number         0  gd32f10x_fmc.o ABSOLUTE
    gd32f10x_fwdgt.c                         0x00000000   Number         0  gd32f10x_fwdgt.o ABSOLUTE
    gd32f10x_gpio.c                          0x00000000   Number         0  gd32f10x_gpio.o ABSOLUTE
    gd32f10x_i2c.c                           0x00000000   Number         0  gd32f10x_i2c.o ABSOLUTE
    gd32f10x_misc.c                          0x00000000   Number         0  gd32f10x_misc.o ABSOLUTE
    gd32f10x_pmu.c                           0x00000000   Number         0  gd32f10x_pmu.o ABSOLUTE
    gd32f10x_rcu.c                           0x00000000   Number         0  gd32f10x_rcu.o ABSOLUTE
    gd32f10x_timer.c                         0x00000000   Number         0  gd32f10x_timer.o ABSOLUTE
    gd32f10x_usart.c                         0x00000000   Number         0  gd32f10x_usart.o ABSOLUTE
    gd32f10x_wwdgt.c                         0x00000000   Number         0  gd32f10x_wwdgt.o ABSOLUTE
    it.c                                     0x00000000   Number         0  it.o ABSOLUTE
    led.c                                    0x00000000   Number         0  led.o ABSOLUTE
    main.c                                   0x00000000   Number         0  main.o ABSOLUTE
    remoteCrsf.c                             0x00000000   Number         0  remotecrsf.o ABSOLUTE
    remoteDummy.c                            0x00000000   Number         0  remotedummy.o ABSOLUTE
    remoteUart.c                             0x00000000   Number         0  remoteuart.o ABSOLUTE
    remoteUartBus.c                          0x00000000   Number         0  remoteuartbus.o ABSOLUTE
    setup.c                                  0x00000000   Number         0  setup.o ABSOLUTE
    system_gd32f10x.c                        0x00000000   Number         0  system_gd32f10x.o ABSOLUTE
    RESET                                    0x08000000   Section      304  startup_gd32f10x_hd.o(RESET)
    !!!main                                  0x08000130   Section        8  __main.o(!!!main)
    !!!scatter                               0x08000138   Section       52  __scatter.o(!!!scatter)
    !!handler_copy                           0x0800016c   Section       26  __scatter_copy.o(!!handler_copy)
    !!handler_zi                             0x08000188   Section       28  __scatter_zi.o(!!handler_zi)
    .ARM.Collect$$libinit$$00000000          0x080001a4   Section        2  libinit.o(.ARM.Collect$$libinit$$00000000)
    .ARM.Collect$$libinit$$00000002          0x080001a6   Section        0  libinit2.o(.ARM.Collect$$libinit$$00000002)
    .ARM.Collect$$libinit$$00000004          0x080001a6   Section        0  libinit2.o(.ARM.Collect$$libinit$$00000004)
    .ARM.Collect$$libinit$$00000006          0x080001a6   Section        0  libinit2.o(.ARM.Collect$$libinit$$00000006)
    .ARM.Collect$$libinit$$0000000C          0x080001a6   Section        0  libinit2.o(.ARM.Collect$$libinit$$0000000C)
    .ARM.Collect$$libinit$$0000000E          0x080001a6   Section        0  libinit2.o(.ARM.Collect$$libinit$$0000000E)
    .ARM.Collect$$libinit$$00000010          0x080001a6   Section        0  libinit2.o(.ARM.Collect$$libinit$$00000010)
    .ARM.Collect$$libinit$$00000013          0x080001a6   Section        0  libinit2.o(.ARM.Collect$$libinit$$00000013)
    .ARM.Collect$$libinit$$00000015          0x080001a6   Section        0  libinit2.o(.ARM.Collect$$libinit$$00000015)
    .ARM.Collect$$libinit$$00000017          0x080001a6   Section        0  libinit2.o(.ARM.Collect$$libinit$$00000017)
    .ARM.Collect$$libinit$$00000019          0x080001a6   Section        0  libinit2.o(.ARM.Collect$$libinit$$00000019)
    .ARM.Collect$$libinit$$0000001B          0x080001a6   Section        0  libinit2.o(.ARM.Collect$$libinit$$0000001B)
    .ARM.Collect$$libinit$$0000001D          0x080001a6   Section        0  libinit2.o(.ARM.Collect$$libinit$$0000001D)
    .ARM.Collect$$libinit$$0000001F          0x080001a6   Section        0  libinit2.o(.ARM.Collect$$libinit$$0000001F)
    .ARM.Collect$$libinit$$00000021          0x080001a6   Section        0  libinit2.o(.ARM.Collect$$libinit$$00000021)
    .ARM.Collect$$libinit$$00000023          0x080001a6   Section        0  libinit2.o(.ARM.Collect$$libinit$$00000023)
    .ARM.Collect$$libinit$$00000025          0x080001a6   Section        0  libinit2.o(.ARM.Collect$$libinit$$00000025)
    .ARM.Collect$$libinit$$00000027          0x080001a6   Section        0  libinit2.o(.ARM.Collect$$libinit$$00000027)
    .ARM.Collect$$libinit$$0000002E          0x080001a6   Section        0  libinit2.o(.ARM.Collect$$libinit$$0000002E)
    .ARM.Collect$$libinit$$00000030          0x080001a6   Section        0  libinit2.o(.ARM.Collect$$libinit$$00000030)
    .ARM.Collect$$libinit$$00000032          0x080001a6   Section        0  libinit2.o(.ARM.Collect$$libinit$$00000032)
    .ARM.Collect$$libinit$$00000034          0x080001a6   Section        0  libinit2.o(.ARM.Collect$$libinit$$00000034)
    .ARM.Collect$$libinit$$00000035          0x080001a6   Section        2  libinit2.o(.ARM.Collect$$libinit$$00000035)
    .ARM.Collect$$libshutdown$$00000000      0x080001a8   Section        2  libshutdown.o(.ARM.Collect$$libshutdown$$00000000)
    .ARM.Collect$$libshutdown$$00000002      0x080001aa   Section        0  libshutdown2.o(.ARM.Collect$$libshutdown$$00000002)
    .ARM.Collect$$libshutdown$$00000004      0x080001aa   Section        0  libshutdown2.o(.ARM.Collect$$libshutdown$$00000004)
    .ARM.Collect$$libshutdown$$00000007      0x080001aa   Section        0  libshutdown2.o(.ARM.Collect$$libshutdown$$00000007)
    .ARM.Collect$$libshutdown$$0000000A      0x080001aa   Section        0  libshutdown2.o(.ARM.Collect$$libshutdown$$0000000A)
    .ARM.Collect$$libshutdown$$0000000C      0x080001aa   Section        0  libshutdown2.o(.ARM.Collect$$libshutdown$$0000000C)
    .ARM.Collect$$libshutdown$$0000000F      0x080001aa   Section        0  libshutdown2.o(.ARM.Collect$$libshutdown$$0000000F)
    .ARM.Collect$$libshutdown$$00000010      0x080001aa   Section        2  libshutdown2.o(.ARM.Collect$$libshutdown$$00000010)
    .ARM.Collect$$rtentry$$00000000          0x080001ac   Section        0  __rtentry.o(.ARM.Collect$$rtentry$$00000000)
    .ARM.Collect$$rtentry$$00000002          0x080001ac   Section        0  __rtentry2.o(.ARM.Collect$$rtentry$$00000002)
    .ARM.Collect$$rtentry$$00000004          0x080001ac   Section        6  __rtentry4.o(.ARM.Collect$$rtentry$$00000004)
    .ARM.Collect$$rtentry$$00000009          0x080001b2   Section        0  __rtentry2.o(.ARM.Collect$$rtentry$$00000009)
    .ARM.Collect$$rtentry$$0000000A          0x080001b2   Section        4  __rtentry2.o(.ARM.Collect$$rtentry$$0000000A)
    .ARM.Collect$$rtentry$$0000000C          0x080001b6   Section        0  __rtentry2.o(.ARM.Collect$$rtentry$$0000000C)
    .ARM.Collect$$rtentry$$0000000D          0x080001b6   Section        8  __rtentry2.o(.ARM.Collect$$rtentry$$0000000D)
    .ARM.Collect$$rtexit$$00000000           0x080001be   Section        2  rtexit.o(.ARM.Collect$$rtexit$$00000000)
    .ARM.Collect$$rtexit$$00000002           0x080001c0   Section        0  rtexit2.o(.ARM.Collect$$rtexit$$00000002)
    .ARM.Collect$$rtexit$$00000003           0x080001c0   Section        4  rtexit2.o(.ARM.Collect$$rtexit$$00000003)
    .ARM.Collect$$rtexit$$00000004           0x080001c4   Section        6  rtexit2.o(.ARM.Collect$$rtexit$$00000004)
    [Anonymous Symbol]                       0x080001cc   Section        0  main.o(.text)
    [Anonymous Symbol]                       0x08000644   Section        0  bldc.o(.text)
    [Anonymous Symbol]                       0x08000a20   Section        0  bldcsine.o(.text)
    [Anonymous Symbol]                       0x08000e20   Section        0  setup.o(.text)
    [Anonymous Symbol]                       0x0800164c   Section        0  it.o(.text)
    [Anonymous Symbol]                       0x080017c0   Section        0  remotedummy.o(.text)
    [Anonymous Symbol]                       0x08001834   Section        0  gd32f10x_adc.o(.text)
    [Anonymous Symbol]                       0x08001cc0   Section        0  gd32f10x_dma.o(.text)
    [Anonymous Symbol]                       0x080020c4   Section        0  gd32f10x_fmc.o(.text)
    [Anonymous Symbol]                       0x08003148   Section        0  gd32f10x_fwdgt.o(.text)
    [Anonymous Symbol]                       0x08003200   Section        0  gd32f10x_gpio.o(.text)
    [Anonymous Symbol]                       0x08003478   Section        0  gd32f10x_misc.o(.text)
    [Anonymous Symbol]                       0x08003564   Section        0  gd32f10x_rcu.o(.text)
    [Anonymous Symbol]                       0x08003b48   Section        0  gd32f10x_timer.o(.text)
    .text                                    0x080048b4   Section       64  startup_gd32f10x_hd.o(.text)
    [Anonymous Symbol]                       0x080048f4   Section        0  system_gd32f10x.o(.text)
    [Anonymous Symbol]                       0x08004a5c   Section        0  gd32f10x_exti.o(.text)
    .text                                    0x08004bc6   Section        0  heapauxi.o(.text)
    .text                                    0x08004bcc   Section       74  sys_stackheap_outer.o(.text)
    .text                                    0x08004c16   Section        0  exit.o(.text)
    .text                                    0x08004c28   Section        8  libspace.o(.text)
    .text                                    0x08004c30   Section        0  sys_exit.o(.text)
    .text                                    0x08004c3c   Section        2  use_no_semi.o(.text)
    .text                                    0x08004c3e   Section        0  indicate_semi.o(.text)
    x$fpl$d2f                                0x08004c40   Section       98  d2f.o(x$fpl$d2f)
    x$fpl$dadd                               0x08004ca4   Section      336  daddsub_clz.o(x$fpl$dadd)
    _dadd1                                   0x08004cb5   Thumb Code     0  daddsub_clz.o(x$fpl$dadd)
    x$fpl$ddiv                               0x08004df4   Section      692  ddiv.o(x$fpl$ddiv)
    ddiv_entry                               0x08004dfb   Thumb Code     0  ddiv.o(x$fpl$ddiv)
    x$fpl$dfix                               0x080050a8   Section       94  dfix.o(x$fpl$dfix)
    x$fpl$dflt                               0x08005106   Section       46  dflt_clz.o(x$fpl$dflt)
    x$fpl$dfltu                              0x08005134   Section       38  dflt_clz.o(x$fpl$dfltu)
    x$fpl$dmul                               0x0800515c   Section      340  dmul.o(x$fpl$dmul)
    x$fpl$dnaninf                            0x080052b0   Section      156  dnaninf.o(x$fpl$dnaninf)
    x$fpl$dretinf                            0x0800534c   Section       12  dretinf.o(x$fpl$dretinf)
    x$fpl$dsub                               0x08005358   Section      476  daddsub_clz.o(x$fpl$dsub)
    _dsub1                                   0x08005369   Thumb Code     0  daddsub_clz.o(x$fpl$dsub)
    x$fpl$f2d                                0x08005534   Section       86  f2d.o(x$fpl$f2d)
    x$fpl$fadd                               0x0800558c   Section      196  faddsub_clz.o(x$fpl$fadd)
    _fadd1                                   0x0800559b   Thumb Code     0  faddsub_clz.o(x$fpl$fadd)
    x$fpl$fcmp                               0x08005650   Section       84  fcmp.o(x$fpl$fcmp)
    x$fpl$fcmpinf                            0x080056a4   Section       24  fcmpi.o(x$fpl$fcmpinf)
    _fdiv1                                   0x080056bd   Thumb Code     0  fdiv.o(x$fpl$fdiv)
    x$fpl$fdiv                               0x080056bc   Section      388  fdiv.o(x$fpl$fdiv)
    x$fpl$feqf                               0x08005840   Section      104  feqf.o(x$fpl$feqf)
    x$fpl$ffix                               0x080058a8   Section       54  ffix.o(x$fpl$ffix)
    x$fpl$fflt                               0x080058e0   Section       48  fflt_clz.o(x$fpl$fflt)
    x$fpl$ffltu                              0x08005910   Section       38  fflt_clz.o(x$fpl$ffltu)
    x$fpl$fgeqf                              0x08005938   Section      104  fgeqf.o(x$fpl$fgeqf)
    x$fpl$fleqf                              0x080059a0   Section      104  fleqf.o(x$fpl$fleqf)
    x$fpl$fmul                               0x08005a08   Section      258  fmul.o(x$fpl$fmul)
    x$fpl$fnaninf                            0x08005b0a   Section      140  fnaninf.o(x$fpl$fnaninf)
    x$fpl$fretinf                            0x08005b96   Section       10  fretinf.o(x$fpl$fretinf)
    x$fpl$fsub                               0x08005ba0   Section      234  faddsub_clz.o(x$fpl$fsub)
    _fsub1                                   0x08005baf   Thumb Code     0  faddsub_clz.o(x$fpl$fsub)
    .L__const.up_or_down.up_down             0x08005c8a   Data          12  bldc.o(.rodata..L__const.up_or_down.up_down)
    x$fpl$usenofp                            0x08005c8a   Section        0  usenofp.o(x$fpl$usenofp)
    hall_to_sector                           0x08005c96   Data           8  bldcsine.o(.rodata.cst8)
    [Anonymous Symbol]                       0x08005c96   Section        0  bldcsine.o(.rodata.cst8)
    .L__const.rcu_clock_freq_get.apb2_exp    0x08005c9e   Data           8  gd32f10x_rcu.o(.rodata.cst8)
    sine_table                               0x08005f84   Data         720  bldcsine.o(.rodata.sine_table)
    [Anonymous Symbol]                       0x08005f84   Section        0  bldcsine.o(.rodata.sine_table)
    .bss                                     0x20000018   Section       96  libspace.o(.bss)
    Heap_Mem                                 0x20000188   Data        8192  startup_gd32f10x_hd.o(HEAP)
    HEAP                                     0x20000188   Section     8192  startup_gd32f10x_hd.o(HEAP)
    Stack_Mem                                0x20002188   Data        8192  startup_gd32f10x_hd.o(STACK)
    STACK                                    0x20002188   Section     8192  startup_gd32f10x_hd.o(STACK)
    __initial_sp                             0x20004188   Data           0  startup_gd32f10x_hd.o(STACK)

    Global Symbols

    Symbol Name                              Value     Ov Type        Size  Object(Section)

    BuildAttributes$$THM_ISAv4$P$D$K$B$S$PE$A:L22UL41UL21$X:L11$S22US41US21$IEEE1$IW$~IW$USESV6$~STKCKD$USESV7$~SHL$OTIME$ROPI$EBA8$UX$STANDARDLIB$REQ8$PRES8$EABIv2 0x00000000   Number         0  anon$$obj.o ABSOLUTE
    __fp_init_empty                          0x00000000   Number         0  fpinit_empty.o ABSOLUTE
    __ARM_exceptions_init                     - Undefined Weak Reference
    __alloca_initialize                       - Undefined Weak Reference
    __arm_preinit_                            - Undefined Weak Reference
    __arm_relocate_pie_                       - Undefined Weak Reference
    __cpp_initialize__aeabi_                  - Undefined Weak Reference
    __cxa_finalize                            - Undefined Weak Reference
    __rt_locale                               - Undefined Weak Reference
    __sigvec_lookup                           - Undefined Weak Reference
    _atexit_init                              - Undefined Weak Reference
    _call_atexit_fns                          - Undefined Weak Reference
    _clock_init                               - Undefined Weak Reference
    _fp_trap_init                             - Undefined Weak Reference
    _fp_trap_shutdown                         - Undefined Weak Reference
    _get_lc_collate                           - Undefined Weak Reference
    _get_lc_ctype                             - Undefined Weak Reference
    _get_lc_monetary                          - Undefined Weak Reference
    _get_lc_numeric                           - Undefined Weak Reference
    _get_lc_time                              - Undefined Weak Reference
    _getenv_init                              - Undefined Weak Reference
    _handle_redirection                       - Undefined Weak Reference
    _init_alloc                               - Undefined Weak Reference
    _init_user_alloc                          - Undefined Weak Reference
    _initio                                   - Undefined Weak Reference
    _rand_init                                - Undefined Weak Reference
    _signal_finish                            - Undefined Weak Reference
    _signal_init                              - Undefined Weak Reference
    _terminate_alloc                          - Undefined Weak Reference
    _terminate_user_alloc                     - Undefined Weak Reference
    _terminateio                              - Undefined Weak Reference
    __Vectors_Size                           0x00000130   Number         0  startup_gd32f10x_hd.o ABSOLUTE
    __Vectors                                0x08000000   Data           4  startup_gd32f10x_hd.o(RESET)
    __Vectors_End                            0x08000130   Data           0  startup_gd32f10x_hd.o(RESET)
    __main                                   0x08000131   Thumb Code     8  __main.o(!!!main)
    __scatterload                            0x08000139   Thumb Code     0  __scatter.o(!!!scatter)
    __scatterload_rt2                        0x08000139   Thumb Code    44  __scatter.o(!!!scatter)
    __scatterload_rt2_thumb_only             0x08000139   Thumb Code     0  __scatter.o(!!!scatter)
    __scatterload_null                       0x08000147   Thumb Code     0  __scatter.o(!!!scatter)
    __scatterload_copy                       0x0800016d   Thumb Code    26  __scatter_copy.o(!!handler_copy)
    __scatterload_zeroinit                   0x08000189   Thumb Code    28  __scatter_zi.o(!!handler_zi)
    __rt_lib_init                            0x080001a5   Thumb Code     0  libinit.o(.ARM.Collect$$libinit$$00000000)
    __rt_lib_init_alloca_1                   0x080001a7   Thumb Code     0  libinit2.o(.ARM.Collect$$libinit$$00000030)
    __rt_lib_init_argv_1                     0x080001a7   Thumb Code     0  libinit2.o(.ARM.Collect$$libinit$$0000002E)
    __rt_lib_init_atexit_1                   0x080001a7   Thumb Code     0  libinit2.o(.ARM.Collect$$libinit$$0000001D)
    __rt_lib_init_clock_1                    0x080001a7   Thumb Code     0  libinit2.o(.ARM.Collect$$libinit$$00000023)
    __rt_lib_init_cpp_1                      0x080001a7   Thumb Code     0  libinit2.o(.ARM.Collect$$libinit$$00000034)
    __rt_lib_init_exceptions_1               0x080001a7   Thumb Code     0  libinit2.o(.ARM.Collect$$libinit$$00000032)
    __rt_lib_init_fp_1                       0x080001a7   Thumb Code     0  libinit2.o(.ARM.Collect$$libinit$$00000002)
    __rt_lib_init_fp_trap_1                  0x080001a7   Thumb Code     0  libinit2.o(.ARM.Collect$$libinit$$00000021)
    __rt_lib_init_getenv_1                   0x080001a7   Thumb Code     0  libinit2.o(.ARM.Collect$$libinit$$00000025)
    __rt_lib_init_heap_1                     0x080001a7   Thumb Code     0  libinit2.o(.ARM.Collect$$libinit$$0000000C)
    __rt_lib_init_lc_collate_1               0x080001a7   Thumb Code     0  libinit2.o(.ARM.Collect$$libinit$$00000013)
    __rt_lib_init_lc_ctype_1                 0x080001a7   Thumb Code     0  libinit2.o(.ARM.Collect$$libinit$$00000015)
    __rt_lib_init_lc_monetary_1              0x080001a7   Thumb Code     0  libinit2.o(.ARM.Collect$$libinit$$00000017)
    __rt_lib_init_lc_numeric_1               0x080001a7   Thumb Code     0  libinit2.o(.ARM.Collect$$libinit$$00000019)
    __rt_lib_init_lc_time_1                  0x080001a7   Thumb Code     0  libinit2.o(.ARM.Collect$$libinit$$0000001B)
    __rt_lib_init_preinit_1                  0x080001a7   Thumb Code     0  libinit2.o(.ARM.Collect$$libinit$$00000006)
    __rt_lib_init_rand_1                     0x080001a7   Thumb Code     0  libinit2.o(.ARM.Collect$$libinit$$00000010)
    __rt_lib_init_relocate_pie_1             0x080001a7   Thumb Code     0  libinit2.o(.ARM.Collect$$libinit$$00000004)
    __rt_lib_init_return                     0x080001a7   Thumb Code     0  libinit2.o(.ARM.Collect$$libinit$$00000035)
    __rt_lib_init_signal_1                   0x080001a7   Thumb Code     0  libinit2.o(.ARM.Collect$$libinit$$0000001F)
    __rt_lib_init_stdio_1                    0x080001a7   Thumb Code     0  libinit2.o(.ARM.Collect$$libinit$$00000027)
    __rt_lib_init_user_alloc_1               0x080001a7   Thumb Code     0  libinit2.o(.ARM.Collect$$libinit$$0000000E)
    __rt_lib_shutdown                        0x080001a9   Thumb Code     0  libshutdown.o(.ARM.Collect$$libshutdown$$00000000)
    __rt_lib_shutdown_cpp_1                  0x080001ab   Thumb Code     0  libshutdown2.o(.ARM.Collect$$libshutdown$$00000002)
    __rt_lib_shutdown_fp_trap_1              0x080001ab   Thumb Code     0  libshutdown2.o(.ARM.Collect$$libshutdown$$00000007)
    __rt_lib_shutdown_heap_1                 0x080001ab   Thumb Code     0  libshutdown2.o(.ARM.Collect$$libshutdown$$0000000F)
    __rt_lib_shutdown_return                 0x080001ab   Thumb Code     0  libshutdown2.o(.ARM.Collect$$libshutdown$$00000010)
    __rt_lib_shutdown_signal_1               0x080001ab   Thumb Code     0  libshutdown2.o(.ARM.Collect$$libshutdown$$0000000A)
    __rt_lib_shutdown_stdio_1                0x080001ab   Thumb Code     0  libshutdown2.o(.ARM.Collect$$libshutdown$$00000004)
    __rt_lib_shutdown_user_alloc_1           0x080001ab   Thumb Code     0  libshutdown2.o(.ARM.Collect$$libshutdown$$0000000C)
    __rt_entry                               0x080001ad   Thumb Code     0  __rtentry.o(.ARM.Collect$$rtentry$$00000000)
    __rt_entry_presh_1                       0x080001ad   Thumb Code     0  __rtentry2.o(.ARM.Collect$$rtentry$$00000002)
    __rt_entry_sh                            0x080001ad   Thumb Code     0  __rtentry4.o(.ARM.Collect$$rtentry$$00000004)
    __rt_entry_li                            0x080001b3   Thumb Code     0  __rtentry2.o(.ARM.Collect$$rtentry$$0000000A)
    __rt_entry_postsh_1                      0x080001b3   Thumb Code     0  __rtentry2.o(.ARM.Collect$$rtentry$$00000009)
    __rt_entry_main                          0x080001b7   Thumb Code     0  __rtentry2.o(.ARM.Collect$$rtentry$$0000000D)
    __rt_entry_postli_1                      0x080001b7   Thumb Code     0  __rtentry2.o(.ARM.Collect$$rtentry$$0000000C)
    __rt_exit                                0x080001bf   Thumb Code     0  rtexit.o(.ARM.Collect$$rtexit$$00000000)
    __rt_exit_ls                             0x080001c1   Thumb Code     0  rtexit2.o(.ARM.Collect$$rtexit$$00000003)
    __rt_exit_prels_1                        0x080001c1   Thumb Code     0  rtexit2.o(.ARM.Collect$$rtexit$$00000002)
    __rt_exit_exit                           0x080001c5   Thumb Code     0  rtexit2.o(.ARM.Collect$$rtexit$$00000004)
    main                                     0x080001cd   Thumb Code  1050  main.o(.text)
    ShutOff                                  0x080005e9   Thumb Code    88  main.o(.text)
    ShowBatteryState                         0x08000641   Thumb Code     2  main.o(.text)
    modulo                                   0x08000645   Thumb Code    22  bldc.o(.text)
    up_or_down                               0x0800065d   Thumb Code    60  bldc.o(.text)
    SetEnable                                0x08000699   Thumb Code    12  bldc.o(.text)
    SetPWM                                   0x080006a5   Thumb Code    74  bldc.o(.text)
    CalculateBLDC                            0x080006f1   Thumb Code   814  bldc.o(.text)
    InitEXTI                                 0x08000a21   Thumb Code    92  bldcsine.o(.text)
    InitBldc                                 0x08000a7d   Thumb Code   134  bldcsine.o(.text)
    _HandleEXTI                              0x08000b05   Thumb Code   174  bldcsine.o(.text)
    EXTI0_IRQHandler                         0x08000bb5   Thumb Code     4  bldcsine.o(.text)
    EXTI1_IRQHandler                         0x08000bb9   Thumb Code     4  bldcsine.o(.text)
    EXTI2_IRQHandler                         0x08000bbd   Thumb Code     4  bldcsine.o(.text)
    EXTI3_IRQHandler                         0x08000bc1   Thumb Code     4  bldcsine.o(.text)
    EXTI4_IRQHandler                         0x08000bc5   Thumb Code     4  bldcsine.o(.text)
    EXTI5_9_IRQHandler                       0x08000bc9   Thumb Code     4  bldcsine.o(.text)
    EXTI10_15_IRQHandler                     0x08000bcd   Thumb Code     4  bldcsine.o(.text)
    EXTI0_1_IRQHandler                       0x08000bd1   Thumb Code     4  bldcsine.o(.text)
    EXTI2_3_IRQHandler                       0x08000bd5   Thumb Code     4  bldcsine.o(.text)
    EXTI4_15_IRQHandler                      0x08000bd9   Thumb Code     4  bldcsine.o(.text)
    bldc_get_pwm                             0x08000bdd   Thumb Code   580  bldcsine.o(.text)
    Interrupt_init                           0x08000e21   Thumb Code     8  setup.o(.text)
    Watchdog_init                            0x08000e29   Thumb Code    44  setup.o(.text)
    TimeoutTimer_init                        0x08000e55   Thumb Code    94  setup.o(.text)
    GPIO_init                                0x08000eb5   Thumb Code   194  setup.o(.text)
    PWM_initOld                              0x08000f79   Thumb Code   362  setup.o(.text)
    PWM_init                                 0x080010e5   Thumb Code   362  setup.o(.text)
    ADC_initOld                              0x08001251   Thumb Code   276  setup.o(.text)
    ADC_init                                 0x08001365   Thumb Code   276  setup.o(.text)
    USART1_Init                              0x08001479   Thumb Code     2  setup.o(.text)
    USART0_Init                              0x0800147d   Thumb Code     2  setup.o(.text)
    flashErase                               0x08001481   Thumb Code    30  setup.o(.text)
    flashRead                                0x080014a1   Thumb Code     4  setup.o(.text)
    flashWrite                               0x080014a5   Thumb Code    40  setup.o(.text)
    flashWriteBuffer                         0x080014cd   Thumb Code    66  setup.o(.text)
    flashReadBuffer                          0x08001511   Thumb Code    26  setup.o(.text)
    ConfigReset                              0x0800152d   Thumb Code    36  setup.o(.text)
    ConfigWrite                              0x08001551   Thumb Code    98  setup.o(.text)
    ConfigRead                               0x080015b5   Thumb Code   116  setup.o(.text)
    confErase                                0x08001629   Thumb Code    34  setup.o(.text)
    SysTick_Handler                          0x0800164d   Thumb Code    16  it.o(.text)
    ResetTimeout                             0x0800165d   Thumb Code    14  it.o(.text)
    TIMER3_IRQHandler                        0x0800166d   Thumb Code    76  it.o(.text)
    TIMER0_UP_IRQHandler                     0x080016b9   Thumb Code    90  it.o(.text)
    DMA0_Channel0_IRQHandler                 0x08001715   Thumb Code   100  it.o(.text)
    millis                                   0x08001779   Thumb Code    12  it.o(.text)
    Delay                                    0x08001785   Thumb Code    28  it.o(.text)
    NMI_Handler                              0x080017a1   Thumb Code     2  it.o(.text)
    HardFault_Handler                        0x080017a5   Thumb Code     2  it.o(.text)
    MemManage_Handler                        0x080017a9   Thumb Code     2  it.o(.text)
    BusFault_Handler                         0x080017ad   Thumb Code     2  it.o(.text)
    UsageFault_Handler                       0x080017b1   Thumb Code     2  it.o(.text)
    SVC_Handler                              0x080017b5   Thumb Code     2  it.o(.text)
    DebugMon_Handler                         0x080017b9   Thumb Code     2  it.o(.text)
    PendSV_Handler                           0x080017bd   Thumb Code     2  it.o(.text)
    RemoteUpdate                             0x080017c1   Thumb Code   110  remotedummy.o(.text)
    RemoteCallback                           0x08001831   Thumb Code     2  remotedummy.o(.text)
    adc_deinit                               0x08001835   Thumb Code    72  gd32f10x_adc.o(.text)
    adc_mode_config                          0x0800187d   Thumb Code    24  gd32f10x_adc.o(.text)
    adc_special_function_config              0x08001895   Thumb Code    92  gd32f10x_adc.o(.text)
    adc_data_alignment_config                0x080018f1   Thumb Code    18  gd32f10x_adc.o(.text)
    adc_enable                               0x08001905   Thumb Code    18  gd32f10x_adc.o(.text)
    adc_disable                              0x08001919   Thumb Code    10  gd32f10x_adc.o(.text)
    adc_calibration_enable                   0x08001925   Thumb Code    32  gd32f10x_adc.o(.text)
    adc_tempsensor_vrefint_enable            0x08001945   Thumb Code    18  gd32f10x_adc.o(.text)
    adc_tempsensor_vrefint_disable           0x08001959   Thumb Code    18  gd32f10x_adc.o(.text)
    adc_dma_mode_enable                      0x0800196d   Thumb Code    10  gd32f10x_adc.o(.text)
    adc_dma_mode_disable                     0x08001979   Thumb Code    10  gd32f10x_adc.o(.text)
    adc_discontinuous_mode_config            0x08001985   Thumb Code    60  gd32f10x_adc.o(.text)
    adc_channel_length_config                0x080019c1   Thumb Code    58  gd32f10x_adc.o(.text)
    adc_regular_channel_config               0x080019fd   Thumb Code   116  gd32f10x_adc.o(.text)
    adc_inserted_channel_config              0x08001a71   Thumb Code   100  gd32f10x_adc.o(.text)
    adc_inserted_channel_offset_config       0x08001ad5   Thumb Code    26  gd32f10x_adc.o(.text)
    adc_external_trigger_source_config       0x08001af1   Thumb Code    34  gd32f10x_adc.o(.text)
    adc_external_trigger_config              0x08001b15   Thumb Code    64  gd32f10x_adc.o(.text)
    adc_software_trigger_enable              0x08001b55   Thumb Code    28  gd32f10x_adc.o(.text)
    adc_regular_data_read                    0x08001b71   Thumb Code     6  gd32f10x_adc.o(.text)
    adc_inserted_data_read                   0x08001b79   Thumb Code    16  gd32f10x_adc.o(.text)
    adc_sync_mode_convert_value_read         0x08001b89   Thumb Code    12  gd32f10x_adc.o(.text)
    adc_watchdog_single_channel_enable       0x08001b95   Thumb Code    34  gd32f10x_adc.o(.text)
    adc_watchdog_group_channel_enable        0x08001bb9   Thumb Code    40  gd32f10x_adc.o(.text)
    adc_watchdog_disable                     0x08001bed   Thumb Code    16  gd32f10x_adc.o(.text)
    adc_watchdog_threshold_config            0x08001bfd   Thumb Code    14  gd32f10x_adc.o(.text)
    adc_flag_get                             0x08001c0d   Thumb Code    10  gd32f10x_adc.o(.text)
    adc_flag_clear                           0x08001c19   Thumb Code    10  gd32f10x_adc.o(.text)
    adc_regular_software_startconv_flag_get  0x08001c25   Thumb Code     8  gd32f10x_adc.o(.text)
    adc_inserted_software_startconv_flag_get 0x08001c2d   Thumb Code     8  gd32f10x_adc.o(.text)
    adc_interrupt_flag_get                   0x08001c35   Thumb Code    48  gd32f10x_adc.o(.text)
    adc_interrupt_flag_clear                 0x08001c65   Thumb Code    10  gd32f10x_adc.o(.text)
    adc_interrupt_enable                     0x08001c71   Thumb Code    40  gd32f10x_adc.o(.text)
    adc_interrupt_disable                    0x08001c99   Thumb Code    40  gd32f10x_adc.o(.text)
    dma_deinit                               0x08001cc1   Thumb Code    60  gd32f10x_dma.o(.text)
    dma_struct_para_init                     0x08001cfd   Thumb Code    20  gd32f10x_dma.o(.text)
    dma_init                                 0x08001d11   Thumb Code   116  gd32f10x_dma.o(.text)
    dma_circulation_enable                   0x08001d85   Thumb Code    36  gd32f10x_dma.o(.text)
    dma_circulation_disable                  0x08001da9   Thumb Code    36  gd32f10x_dma.o(.text)
    dma_memory_to_memory_enable              0x08001dcd   Thumb Code    36  gd32f10x_dma.o(.text)
    dma_memory_to_memory_disable             0x08001df1   Thumb Code    36  gd32f10x_dma.o(.text)
    dma_channel_enable                       0x08001e15   Thumb Code    36  gd32f10x_dma.o(.text)
    dma_channel_disable                      0x08001e39   Thumb Code    36  gd32f10x_dma.o(.text)
    dma_periph_address_config                0x08001e5d   Thumb Code    30  gd32f10x_dma.o(.text)
    dma_memory_address_config                0x08001e7d   Thumb Code    30  gd32f10x_dma.o(.text)
    dma_transfer_number_config               0x08001e9d   Thumb Code    32  gd32f10x_dma.o(.text)
    dma_transfer_number_get                  0x08001ebd   Thumb Code    30  gd32f10x_dma.o(.text)
    dma_priority_config                      0x08001edd   Thumb Code    38  gd32f10x_dma.o(.text)
    dma_memory_width_config                  0x08001f05   Thumb Code    38  gd32f10x_dma.o(.text)
    dma_periph_width_config                  0x08001f2d   Thumb Code    38  gd32f10x_dma.o(.text)
    dma_memory_increase_enable               0x08001f55   Thumb Code    36  gd32f10x_dma.o(.text)
    dma_memory_increase_disable              0x08001f79   Thumb Code    36  gd32f10x_dma.o(.text)
    dma_periph_increase_enable               0x08001f9d   Thumb Code    36  gd32f10x_dma.o(.text)
    dma_periph_increase_disable              0x08001fc1   Thumb Code    36  gd32f10x_dma.o(.text)
    dma_transfer_direction_config            0x08001fe5   Thumb Code    42  gd32f10x_dma.o(.text)
    dma_flag_get                             0x08002011   Thumb Code    16  gd32f10x_dma.o(.text)
    dma_flag_clear                           0x08002021   Thumb Code    14  gd32f10x_dma.o(.text)
    dma_interrupt_flag_get                   0x08002031   Thumb Code    58  gd32f10x_dma.o(.text)
    dma_interrupt_flag_clear                 0x0800206d   Thumb Code    14  gd32f10x_dma.o(.text)
    dma_interrupt_enable                     0x0800207d   Thumb Code    34  gd32f10x_dma.o(.text)
    dma_interrupt_disable                    0x080020a1   Thumb Code    34  gd32f10x_dma.o(.text)
    fmc_wscnt_set                            0x080020c5   Thumb Code    20  gd32f10x_fmc.o(.text)
    fmc_unlock                               0x080020d9   Thumb Code    80  gd32f10x_fmc.o(.text)
    fmc_bank0_unlock                         0x08002129   Thumb Code    38  gd32f10x_fmc.o(.text)
    fmc_bank1_unlock                         0x08002151   Thumb Code    38  gd32f10x_fmc.o(.text)
    fmc_lock                                 0x08002179   Thumb Code    44  gd32f10x_fmc.o(.text)
    fmc_bank0_lock                           0x080021a5   Thumb Code    18  gd32f10x_fmc.o(.text)
    fmc_bank1_lock                           0x080021b9   Thumb Code    18  gd32f10x_fmc.o(.text)
    fmc_page_erase                           0x080021cd   Thumb Code   472  gd32f10x_fmc.o(.text)
    fmc_bank0_ready_wait                     0x080023a5   Thumb Code    68  gd32f10x_fmc.o(.text)
    fmc_bank1_ready_wait                     0x080023e9   Thumb Code    68  gd32f10x_fmc.o(.text)
    fmc_mass_erase                           0x0800242d   Thumb Code   474  gd32f10x_fmc.o(.text)
    fmc_bank0_erase                          0x08002609   Thumb Code   150  gd32f10x_fmc.o(.text)
    fmc_bank1_erase                          0x080026a1   Thumb Code   150  gd32f10x_fmc.o(.text)
    fmc_word_program                         0x08002739   Thumb Code   448  gd32f10x_fmc.o(.text)
    fmc_halfword_program                     0x080028f9   Thumb Code   448  gd32f10x_fmc.o(.text)
    ob_unlock                                0x08002ab9   Thumb Code    44  gd32f10x_fmc.o(.text)
    ob_lock                                  0x08002ae5   Thumb Code    18  gd32f10x_fmc.o(.text)
    ob_erase                                 0x08002af9   Thumb Code   270  gd32f10x_fmc.o(.text)
    ob_spc_get                               0x08002c09   Thumb Code    16  gd32f10x_fmc.o(.text)
    ob_write_protection_enable               0x08002c19   Thumb Code   376  gd32f10x_fmc.o(.text)
    ob_security_protection_config            0x08002d91   Thumb Code   260  gd32f10x_fmc.o(.text)
    ob_user_write                            0x08002e95   Thumb Code   184  gd32f10x_fmc.o(.text)
    ob_data_program                          0x08002f4d   Thumb Code   152  gd32f10x_fmc.o(.text)
    ob_user_get                              0x08002fe5   Thumb Code    16  gd32f10x_fmc.o(.text)
    ob_data_get                              0x08002ff5   Thumb Code    16  gd32f10x_fmc.o(.text)
    ob_write_protection_get                  0x08003005   Thumb Code    12  gd32f10x_fmc.o(.text)
    fmc_interrupt_enable                     0x08003011   Thumb Code    30  gd32f10x_fmc.o(.text)
    fmc_interrupt_disable                    0x08003031   Thumb Code    32  gd32f10x_fmc.o(.text)
    fmc_flag_get                             0x08003051   Thumb Code    26  gd32f10x_fmc.o(.text)
    fmc_flag_clear                           0x0800306d   Thumb Code    30  gd32f10x_fmc.o(.text)
    fmc_interrupt_flag_get                   0x0800308d   Thumb Code    82  gd32f10x_fmc.o(.text)
    fmc_interrupt_flag_clear                 0x080030e1   Thumb Code    30  gd32f10x_fmc.o(.text)
    fmc_bank0_state_get                      0x08003101   Thumb Code    36  gd32f10x_fmc.o(.text)
    fmc_bank1_state_get                      0x08003125   Thumb Code    36  gd32f10x_fmc.o(.text)
    fwdgt_write_enable                       0x08003149   Thumb Code    16  gd32f10x_fwdgt.o(.text)
    fwdgt_write_disable                      0x08003159   Thumb Code    14  gd32f10x_fwdgt.o(.text)
    fwdgt_enable                             0x08003169   Thumb Code    16  gd32f10x_fwdgt.o(.text)
    fwdgt_counter_reload                     0x08003179   Thumb Code    16  gd32f10x_fwdgt.o(.text)
    fwdgt_config                             0x08003189   Thumb Code   100  gd32f10x_fwdgt.o(.text)
    fwdgt_flag_get                           0x080031ed   Thumb Code    18  gd32f10x_fwdgt.o(.text)
    gpio_deinit                              0x08003201   Thumb Code    42  gd32f10x_gpio.o(.text)
    gpio_afio_deinit                         0x0800322d   Thumb Code    22  gd32f10x_gpio.o(.text)
    gpio_init                                0x08003245   Thumb Code   170  gd32f10x_gpio.o(.text)
    gpio_bit_set                             0x080032f1   Thumb Code     4  gd32f10x_gpio.o(.text)
    gpio_bit_reset                           0x080032f5   Thumb Code     4  gd32f10x_gpio.o(.text)
    gpio_bit_write                           0x080032f9   Thumb Code    12  gd32f10x_gpio.o(.text)
    gpio_port_write                          0x08003305   Thumb Code     4  gd32f10x_gpio.o(.text)
    gpio_input_bit_get                       0x08003309   Thumb Code    10  gd32f10x_gpio.o(.text)
    gpio_input_port_get                      0x08003315   Thumb Code     6  gd32f10x_gpio.o(.text)
    gpio_output_bit_get                      0x0800331d   Thumb Code    10  gd32f10x_gpio.o(.text)
    gpio_output_port_get                     0x08003329   Thumb Code     6  gd32f10x_gpio.o(.text)
    gpio_pin_remap_config                    0x08003331   Thumb Code   122  gd32f10x_gpio.o(.text)
    gpio_exti_source_select                  0x080033ad   Thumb Code   130  gd32f10x_gpio.o(.text)
    gpio_event_output_config                 0x08003431   Thumb Code    22  gd32f10x_gpio.o(.text)
    gpio_event_output_enable                 0x08003449   Thumb Code    16  gd32f10x_gpio.o(.text)
    gpio_event_output_disable                0x08003459   Thumb Code    16  gd32f10x_gpio.o(.text)
    gpio_pin_lock                            0x08003469   Thumb Code    16  gd32f10x_gpio.o(.text)
    nvic_priority_group_set                  0x08003479   Thumb Code    20  gd32f10x_misc.o(.text)
    nvic_irq_enable                          0x0800348d   Thumb Code   100  gd32f10x_misc.o(.text)
    nvic_irq_disable                         0x080034f1   Thumb Code    30  gd32f10x_misc.o(.text)
    nvic_vector_table_set                    0x08003511   Thumb Code    24  gd32f10x_misc.o(.text)
    system_lowpower_set                      0x08003529   Thumb Code    16  gd32f10x_misc.o(.text)
    system_lowpower_reset                    0x08003539   Thumb Code    18  gd32f10x_misc.o(.text)
    systick_clksource_set                    0x0800354d   Thumb Code    24  gd32f10x_misc.o(.text)
    rcu_deinit                               0x08003565   Thumb Code   106  gd32f10x_rcu.o(.text)
    rcu_osci_stab_wait                       0x080035d1   Thumb Code   272  gd32f10x_rcu.o(.text)
    rcu_periph_clock_enable                  0x080036e1   Thumb Code    30  gd32f10x_rcu.o(.text)
    rcu_periph_clock_disable                 0x08003701   Thumb Code    32  gd32f10x_rcu.o(.text)
    rcu_periph_clock_sleep_enable            0x08003721   Thumb Code    30  gd32f10x_rcu.o(.text)
    rcu_periph_clock_sleep_disable           0x08003741   Thumb Code    32  gd32f10x_rcu.o(.text)
    rcu_periph_reset_enable                  0x08003761   Thumb Code    30  gd32f10x_rcu.o(.text)
    rcu_periph_reset_disable                 0x08003781   Thumb Code    32  gd32f10x_rcu.o(.text)
    rcu_bkp_reset_enable                     0x080037a1   Thumb Code    18  gd32f10x_rcu.o(.text)
    rcu_bkp_reset_disable                    0x080037b5   Thumb Code    18  gd32f10x_rcu.o(.text)
    rcu_system_clock_source_config           0x080037c9   Thumb Code    20  gd32f10x_rcu.o(.text)
    rcu_system_clock_source_get              0x080037dd   Thumb Code    16  gd32f10x_rcu.o(.text)
    rcu_ahb_clock_config                     0x080037ed   Thumb Code    20  gd32f10x_rcu.o(.text)
    rcu_apb1_clock_config                    0x08003801   Thumb Code    20  gd32f10x_rcu.o(.text)
    rcu_apb2_clock_config                    0x08003815   Thumb Code    20  gd32f10x_rcu.o(.text)
    rcu_ckout0_config                        0x08003829   Thumb Code    20  gd32f10x_rcu.o(.text)
    rcu_pll_config                           0x0800383d   Thumb Code    32  gd32f10x_rcu.o(.text)
    rcu_predv0_config                        0x0800385d   Thumb Code    26  gd32f10x_rcu.o(.text)
    rcu_adc_clock_config                     0x08003879   Thumb Code    64  gd32f10x_rcu.o(.text)
    rcu_usb_clock_config                     0x080038b9   Thumb Code    20  gd32f10x_rcu.o(.text)
    rcu_rtc_clock_config                     0x080038cd   Thumb Code    20  gd32f10x_rcu.o(.text)
    rcu_flag_get                             0x080038e1   Thumb Code    26  gd32f10x_rcu.o(.text)
    rcu_all_reset_flag_clear                 0x080038fd   Thumb Code    18  gd32f10x_rcu.o(.text)
    rcu_interrupt_flag_get                   0x08003911   Thumb Code    26  gd32f10x_rcu.o(.text)
    rcu_interrupt_flag_clear                 0x0800392d   Thumb Code    30  gd32f10x_rcu.o(.text)
    rcu_interrupt_enable                     0x0800394d   Thumb Code    30  gd32f10x_rcu.o(.text)
    rcu_interrupt_disable                    0x0800396d   Thumb Code    32  gd32f10x_rcu.o(.text)
    rcu_osci_on                              0x0800398d   Thumb Code    30  gd32f10x_rcu.o(.text)
    rcu_osci_off                             0x080039ad   Thumb Code    32  gd32f10x_rcu.o(.text)
    rcu_osci_bypass_mode_enable              0x080039cd   Thumb Code    64  gd32f10x_rcu.o(.text)
    rcu_osci_bypass_mode_disable             0x08003a0d   Thumb Code    64  gd32f10x_rcu.o(.text)
    rcu_hxtal_clock_monitor_enable           0x08003a4d   Thumb Code    18  gd32f10x_rcu.o(.text)
    rcu_hxtal_clock_monitor_disable          0x08003a61   Thumb Code    18  gd32f10x_rcu.o(.text)
    rcu_irc8m_adjust_value_set               0x08003a75   Thumb Code    18  gd32f10x_rcu.o(.text)
    rcu_deepsleep_voltage_set                0x08003a89   Thumb Code    16  gd32f10x_rcu.o(.text)
    rcu_clock_freq_get                       0x08003a99   Thumb Code   160  gd32f10x_rcu.o(.text)
    timer_deinit                             0x08003b49   Thumb Code   194  gd32f10x_timer.o(.text)
    timer_struct_para_init                   0x08003c0d   Thumb Code    18  gd32f10x_timer.o(.text)
    timer_init                               0x08003c21   Thumb Code   284  gd32f10x_timer.o(.text)
    timer_enable                             0x08003d3d   Thumb Code    10  gd32f10x_timer.o(.text)
    timer_disable                            0x08003d49   Thumb Code    10  gd32f10x_timer.o(.text)
    timer_auto_reload_shadow_enable          0x08003d55   Thumb Code    10  gd32f10x_timer.o(.text)
    timer_auto_reload_shadow_disable         0x08003d61   Thumb Code    10  gd32f10x_timer.o(.text)
    timer_update_event_enable                0x08003d6d   Thumb Code    10  gd32f10x_timer.o(.text)
    timer_update_event_disable               0x08003d79   Thumb Code    10  gd32f10x_timer.o(.text)
    timer_counter_alignment                  0x08003d85   Thumb Code    16  gd32f10x_timer.o(.text)
    timer_counter_up_direction               0x08003d95   Thumb Code    10  gd32f10x_timer.o(.text)
    timer_counter_down_direction             0x08003da1   Thumb Code    10  gd32f10x_timer.o(.text)
    timer_prescaler_config                   0x08003dad   Thumb Code    18  gd32f10x_timer.o(.text)
    timer_repetition_value_config            0x08003dc1   Thumb Code     4  gd32f10x_timer.o(.text)
    timer_autoreload_value_config            0x08003dc5   Thumb Code     4  gd32f10x_timer.o(.text)
    timer_counter_value_config               0x08003dc9   Thumb Code     4  gd32f10x_timer.o(.text)
    timer_counter_read                       0x08003dcd   Thumb Code     4  gd32f10x_timer.o(.text)
    timer_prescaler_read                     0x08003dd1   Thumb Code     6  gd32f10x_timer.o(.text)
    timer_single_pulse_mode_config           0x08003dd9   Thumb Code    28  gd32f10x_timer.o(.text)
    timer_update_source_config               0x08003df5   Thumb Code    28  gd32f10x_timer.o(.text)
    timer_dma_enable                         0x08003e11   Thumb Code     8  gd32f10x_timer.o(.text)
    timer_dma_disable                        0x08003e19   Thumb Code    10  gd32f10x_timer.o(.text)
    timer_channel_dma_request_source_select  0x08003e25   Thumb Code    28  gd32f10x_timer.o(.text)
    timer_dma_transfer_config                0x08003e41   Thumb Code    24  gd32f10x_timer.o(.text)
    timer_event_software_generate            0x08003e59   Thumb Code     8  gd32f10x_timer.o(.text)
    timer_break_struct_para_init             0x08003e61   Thumb Code    12  gd32f10x_timer.o(.text)
    timer_break_config                       0x08003e6d   Thumb Code    38  gd32f10x_timer.o(.text)
    timer_break_enable                       0x08003e95   Thumb Code    10  gd32f10x_timer.o(.text)
    timer_break_disable                      0x08003ea1   Thumb Code    10  gd32f10x_timer.o(.text)
    timer_automatic_output_enable            0x08003ead   Thumb Code    10  gd32f10x_timer.o(.text)
    timer_automatic_output_disable           0x08003eb9   Thumb Code    10  gd32f10x_timer.o(.text)
    timer_primary_output_config              0x08003ec5   Thumb Code    18  gd32f10x_timer.o(.text)
    timer_channel_control_shadow_config      0x08003ed9   Thumb Code    16  gd32f10x_timer.o(.text)
    timer_channel_control_shadow_update_config 0x08003ee9   Thumb Code    30  gd32f10x_timer.o(.text)
    timer_channel_output_struct_para_init    0x08003f09   Thumb Code    10  gd32f10x_timer.o(.text)
    timer_channel_output_config              0x08003f15   Thumb Code   518  gd32f10x_timer.o(.text)
    timer_channel_output_mode_config         0x0800411d   Thumb Code    58  gd32f10x_timer.o(.text)
    timer_channel_output_pulse_value_config  0x08004159   Thumb Code    12  gd32f10x_timer.o(.text)
    timer_channel_output_shadow_config       0x08004165   Thumb Code    58  gd32f10x_timer.o(.text)
    timer_channel_output_fast_config         0x080041a1   Thumb Code    58  gd32f10x_timer.o(.text)
    timer_channel_output_clear_config        0x080041dd   Thumb Code    58  gd32f10x_timer.o(.text)
    timer_channel_output_polarity_config     0x08004219   Thumb Code    74  gd32f10x_timer.o(.text)
    timer_channel_complementary_output_polarity_config 0x08004265   Thumb Code    60  gd32f10x_timer.o(.text)
    timer_channel_output_state_config        0x080042a1   Thumb Code    74  gd32f10x_timer.o(.text)
    timer_channel_complementary_output_state_config 0x080042ed   Thumb Code    60  gd32f10x_timer.o(.text)
    timer_channel_input_struct_para_init     0x08004329   Thumb Code    12  gd32f10x_timer.o(.text)
    timer_input_capture_config               0x08004335   Thumb Code   346  gd32f10x_timer.o(.text)
    timer_channel_input_capture_prescaler_config 0x08004491   Thumb Code    58  gd32f10x_timer.o(.text)
    timer_channel_capture_value_register_read 0x080044cd   Thumb Code    14  gd32f10x_timer.o(.text)
    timer_input_pwm_capture_config           0x080044dd   Thumb Code   356  gd32f10x_timer.o(.text)
    timer_hall_mode_config                   0x08004641   Thumb Code    28  gd32f10x_timer.o(.text)
    timer_input_trigger_source_select        0x0800465d   Thumb Code    16  gd32f10x_timer.o(.text)
    timer_master_output_trigger_source_select 0x0800466d   Thumb Code    16  gd32f10x_timer.o(.text)
    timer_slave_mode_select                  0x0800467d   Thumb Code    16  gd32f10x_timer.o(.text)
    timer_master_slave_mode_config           0x0800468d   Thumb Code    28  gd32f10x_timer.o(.text)
    timer_external_trigger_config            0x080046a9   Thumb Code    34  gd32f10x_timer.o(.text)
    timer_quadrature_decoder_mode_config     0x080046cd   Thumb Code    78  gd32f10x_timer.o(.text)
    timer_internal_clock_config              0x0800471d   Thumb Code    10  gd32f10x_timer.o(.text)
    timer_internal_trigger_as_external_clock_config 0x08004729   Thumb Code    32  gd32f10x_timer.o(.text)
    timer_external_trigger_as_external_clock_config 0x08004749   Thumb Code   174  gd32f10x_timer.o(.text)
    timer_external_clock_mode0_config        0x080047f9   Thumb Code    50  gd32f10x_timer.o(.text)
    timer_external_clock_mode1_config        0x0800482d   Thumb Code    42  gd32f10x_timer.o(.text)
    timer_external_clock_mode1_disable       0x08004859   Thumb Code    10  gd32f10x_timer.o(.text)
    timer_interrupt_enable                   0x08004865   Thumb Code     8  gd32f10x_timer.o(.text)
    timer_interrupt_disable                  0x0800486d   Thumb Code    10  gd32f10x_timer.o(.text)
    timer_interrupt_flag_get                 0x08004879   Thumb Code    22  gd32f10x_timer.o(.text)
    timer_interrupt_flag_clear               0x08004891   Thumb Code    10  gd32f10x_timer.o(.text)
    timer_flag_get                           0x0800489d   Thumb Code    10  gd32f10x_timer.o(.text)
    timer_flag_clear                         0x080048a9   Thumb Code    10  gd32f10x_timer.o(.text)
    Reset_Handler                            0x080048b5   Thumb Code     8  startup_gd32f10x_hd.o(.text)
    ADC0_1_IRQHandler                        0x080048cf   Thumb Code     0  startup_gd32f10x_hd.o(.text)
    ADC2_IRQHandler                          0x080048cf   Thumb Code     0  startup_gd32f10x_hd.o(.text)
    CAN0_EWMC_IRQHandler                     0x080048cf   Thumb Code     0  startup_gd32f10x_hd.o(.text)
    CAN0_RX1_IRQHandler                      0x080048cf   Thumb Code     0  startup_gd32f10x_hd.o(.text)
    DMA0_Channel1_IRQHandler                 0x080048cf   Thumb Code     0  startup_gd32f10x_hd.o(.text)
    DMA0_Channel2_IRQHandler                 0x080048cf   Thumb Code     0  startup_gd32f10x_hd.o(.text)
    DMA0_Channel3_IRQHandler                 0x080048cf   Thumb Code     0  startup_gd32f10x_hd.o(.text)
    DMA0_Channel4_IRQHandler                 0x080048cf   Thumb Code     0  startup_gd32f10x_hd.o(.text)
    DMA0_Channel5_IRQHandler                 0x080048cf   Thumb Code     0  startup_gd32f10x_hd.o(.text)
    DMA0_Channel6_IRQHandler                 0x080048cf   Thumb Code     0  startup_gd32f10x_hd.o(.text)
    DMA1_Channel0_IRQHandler                 0x080048cf   Thumb Code     0  startup_gd32f10x_hd.o(.text)
    DMA1_Channel1_IRQHandler                 0x080048cf   Thumb Code     0  startup_gd32f10x_hd.o(.text)
    DMA1_Channel2_IRQHandler                 0x080048cf   Thumb Code     0  startup_gd32f10x_hd.o(.text)
    DMA1_Channel3_4_IRQHandler               0x080048cf   Thumb Code     0  startup_gd32f10x_hd.o(.text)
    EXMC_IRQHandler                          0x080048cf   Thumb Code     0  startup_gd32f10x_hd.o(.text)
    FMC_IRQHandler                           0x080048cf   Thumb Code     0  startup_gd32f10x_hd.o(.text)
    I2C0_ER_IRQHandler                       0x080048cf   Thumb Code     0  startup_gd32f10x_hd.o(.text)
    I2C0_EV_IRQHandler                       0x080048cf   Thumb Code     0  startup_gd32f10x_hd.o(.text)
    I2C1_ER_IRQHandler                       0x080048cf   Thumb Code     0  startup_gd32f10x_hd.o(.text)
    I2C1_EV_IRQHandler                       0x080048cf   Thumb Code     0  startup_gd32f10x_hd.o(.text)
    LVD_IRQHandler                           0x080048cf   Thumb Code     0  startup_gd32f10x_hd.o(.text)
    RCU_IRQHandler                           0x080048cf   Thumb Code     0  startup_gd32f10x_hd.o(.text)
    RTC_Alarm_IRQHandler                     0x080048cf   Thumb Code     0  startup_gd32f10x_hd.o(.text)
    RTC_IRQHandler                           0x080048cf   Thumb Code     0  startup_gd32f10x_hd.o(.text)
    SDIO_IRQHandler                          0x080048cf   Thumb Code     0  startup_gd32f10x_hd.o(.text)
    SPI0_IRQHandler                          0x080048cf   Thumb Code     0  startup_gd32f10x_hd.o(.text)
    SPI1_IRQHandler                          0x080048cf   Thumb Code     0  startup_gd32f10x_hd.o(.text)
    SPI2_IRQHandler                          0x080048cf   Thumb Code     0  startup_gd32f10x_hd.o(.text)
    TAMPER_IRQHandler                        0x080048cf   Thumb Code     0  startup_gd32f10x_hd.o(.text)
    TIMER0_BRK_IRQHandler                    0x080048cf   Thumb Code     0  startup_gd32f10x_hd.o(.text)
    TIMER0_Channel_IRQHandler                0x080048cf   Thumb Code     0  startup_gd32f10x_hd.o(.text)
    TIMER0_TRG_CMT_IRQHandler                0x080048cf   Thumb Code     0  startup_gd32f10x_hd.o(.text)
    TIMER1_IRQHandler                        0x080048cf   Thumb Code     0  startup_gd32f10x_hd.o(.text)
    TIMER2_IRQHandler                        0x080048cf   Thumb Code     0  startup_gd32f10x_hd.o(.text)
    TIMER4_IRQHandler                        0x080048cf   Thumb Code     0  startup_gd32f10x_hd.o(.text)
    TIMER5_IRQHandler                        0x080048cf   Thumb Code     0  startup_gd32f10x_hd.o(.text)
    TIMER6_IRQHandler                        0x080048cf   Thumb Code     0  startup_gd32f10x_hd.o(.text)
    TIMER7_BRK_IRQHandler                    0x080048cf   Thumb Code     0  startup_gd32f10x_hd.o(.text)
    TIMER7_Channel_IRQHandler                0x080048cf   Thumb Code     0  startup_gd32f10x_hd.o(.text)
    TIMER7_TRG_CMT_IRQHandler                0x080048cf   Thumb Code     0  startup_gd32f10x_hd.o(.text)
    TIMER7_UP_IRQHandler                     0x080048cf   Thumb Code     0  startup_gd32f10x_hd.o(.text)
    UART3_IRQHandler                         0x080048cf   Thumb Code     0  startup_gd32f10x_hd.o(.text)
    UART4_IRQHandler                         0x080048cf   Thumb Code     0  startup_gd32f10x_hd.o(.text)
    USART0_IRQHandler                        0x080048cf   Thumb Code     0  startup_gd32f10x_hd.o(.text)
    USART1_IRQHandler                        0x080048cf   Thumb Code     0  startup_gd32f10x_hd.o(.text)
    USART2_IRQHandler                        0x080048cf   Thumb Code     0  startup_gd32f10x_hd.o(.text)
    USBD_HP_CAN0_TX_IRQHandler               0x080048cf   Thumb Code     0  startup_gd32f10x_hd.o(.text)
    USBD_LP_CAN0_RX0_IRQHandler              0x080048cf   Thumb Code     0  startup_gd32f10x_hd.o(.text)
    USBD_WKUP_IRQHandler                     0x080048cf   Thumb Code     0  startup_gd32f10x_hd.o(.text)
    WWDGT_IRQHandler                         0x080048cf   Thumb Code     0  startup_gd32f10x_hd.o(.text)
    __user_initial_stackheap                 0x080048d1   Thumb Code    10  startup_gd32f10x_hd.o(.text)
    SystemInit                               0x080048f5   Thumb Code   266  system_gd32f10x.o(.text)
    SystemCoreClockUpdate                    0x08004a01   Thumb Code    90  system_gd32f10x.o(.text)
    exti_deinit                              0x08004a5d   Thumb Code    22  gd32f10x_exti.o(.text)
    exti_init                                0x08004a75   Thumb Code   156  gd32f10x_exti.o(.text)
    exti_interrupt_enable                    0x08004b11   Thumb Code    16  gd32f10x_exti.o(.text)
    exti_event_enable                        0x08004b21   Thumb Code    16  gd32f10x_exti.o(.text)
    exti_interrupt_disable                   0x08004b31   Thumb Code    18  gd32f10x_exti.o(.text)
    exti_event_disable                       0x08004b45   Thumb Code    18  gd32f10x_exti.o(.text)
    exti_flag_get                            0x08004b59   Thumb Code    18  gd32f10x_exti.o(.text)
    exti_flag_clear                          0x08004b6d   Thumb Code    12  gd32f10x_exti.o(.text)
    exti_interrupt_flag_get                  0x08004b79   Thumb Code    32  gd32f10x_exti.o(.text)
    exti_interrupt_flag_clear                0x08004b99   Thumb Code    12  gd32f10x_exti.o(.text)
    exti_software_interrupt_enable           0x08004ba5   Thumb Code    16  gd32f10x_exti.o(.text)
    exti_software_interrupt_disable          0x08004bb5   Thumb Code    18  gd32f10x_exti.o(.text)
    __use_two_region_memory                  0x08004bc7   Thumb Code     2  heapauxi.o(.text)
    __rt_heap_escrow$2region                 0x08004bc9   Thumb Code     2  heapauxi.o(.text)
    __rt_heap_expand$2region                 0x08004bcb   Thumb Code     2  heapauxi.o(.text)
    __user_setup_stackheap                   0x08004bcd   Thumb Code    74  sys_stackheap_outer.o(.text)
    exit                                     0x08004c17   Thumb Code    18  exit.o(.text)
    __user_libspace                          0x08004c29   Thumb Code     8  libspace.o(.text)
    __user_perproc_libspace                  0x08004c29   Thumb Code     0  libspace.o(.text)
    __user_perthread_libspace                0x08004c29   Thumb Code     0  libspace.o(.text)
    _sys_exit                                0x08004c31   Thumb Code     8  sys_exit.o(.text)
    __I$use$semihosting                      0x08004c3d   Thumb Code     0  use_no_semi.o(.text)
    __use_no_semihosting_swi                 0x08004c3d   Thumb Code     2  use_no_semi.o(.text)
    __semihosting_library_function           0x08004c3f   Thumb Code     0  indicate_semi.o(.text)
    __aeabi_d2f                              0x08004c41   Thumb Code     0  d2f.o(x$fpl$d2f)
    _d2f                                     0x08004c41   Thumb Code    98  d2f.o(x$fpl$d2f)
    __aeabi_dadd                             0x08004ca5   Thumb Code     0  daddsub_clz.o(x$fpl$dadd)
    _dadd                                    0x08004ca5   Thumb Code   332  daddsub_clz.o(x$fpl$dadd)
    __aeabi_ddiv                             0x08004df5   Thumb Code     0  ddiv.o(x$fpl$ddiv)
    _ddiv                                    0x08004df5   Thumb Code   556  ddiv.o(x$fpl$ddiv)
    __aeabi_d2iz                             0x080050a9   Thumb Code     0  dfix.o(x$fpl$dfix)
    _dfix                                    0x080050a9   Thumb Code    94  dfix.o(x$fpl$dfix)
    __aeabi_i2d                              0x08005107   Thumb Code     0  dflt_clz.o(x$fpl$dflt)
    _dflt                                    0x08005107   Thumb Code    46  dflt_clz.o(x$fpl$dflt)
    __aeabi_ui2d                             0x08005135   Thumb Code     0  dflt_clz.o(x$fpl$dfltu)
    _dfltu                                   0x08005135   Thumb Code    38  dflt_clz.o(x$fpl$dfltu)
    __aeabi_dmul                             0x0800515d   Thumb Code     0  dmul.o(x$fpl$dmul)
    _dmul                                    0x0800515d   Thumb Code   332  dmul.o(x$fpl$dmul)
    __fpl_dnaninf                            0x080052b1   Thumb Code   156  dnaninf.o(x$fpl$dnaninf)
    __fpl_dretinf                            0x0800534d   Thumb Code    12  dretinf.o(x$fpl$dretinf)
    __aeabi_dsub                             0x08005359   Thumb Code     0  daddsub_clz.o(x$fpl$dsub)
    _dsub                                    0x08005359   Thumb Code   472  daddsub_clz.o(x$fpl$dsub)
    __aeabi_f2d                              0x08005535   Thumb Code     0  f2d.o(x$fpl$f2d)
    _f2d                                     0x08005535   Thumb Code    86  f2d.o(x$fpl$f2d)
    __aeabi_fadd                             0x0800558d   Thumb Code     0  faddsub_clz.o(x$fpl$fadd)
    _fadd                                    0x0800558d   Thumb Code   196  faddsub_clz.o(x$fpl$fadd)
    __aeabi_fcmpeq                           0x08005651   Thumb Code     0  fcmp.o(x$fpl$fcmp)
    _feq                                     0x08005651   Thumb Code    14  fcmp.o(x$fpl$fcmp)
    _fneq                                    0x0800565f   Thumb Code    14  fcmp.o(x$fpl$fcmp)
    __aeabi_fcmpgt                           0x0800566d   Thumb Code     0  fcmp.o(x$fpl$fcmp)
    _fgr                                     0x0800566d   Thumb Code    14  fcmp.o(x$fpl$fcmp)
    __aeabi_fcmpge                           0x0800567b   Thumb Code     0  fcmp.o(x$fpl$fcmp)
    _fgeq                                    0x0800567b   Thumb Code    14  fcmp.o(x$fpl$fcmp)
    __aeabi_fcmple                           0x08005689   Thumb Code     0  fcmp.o(x$fpl$fcmp)
    _fleq                                    0x08005689   Thumb Code    14  fcmp.o(x$fpl$fcmp)
    __aeabi_fcmplt                           0x08005697   Thumb Code     0  fcmp.o(x$fpl$fcmp)
    _fls                                     0x08005697   Thumb Code    14  fcmp.o(x$fpl$fcmp)
    __fpl_fcmp_Inf                           0x080056a5   Thumb Code    24  fcmpi.o(x$fpl$fcmpinf)
    __aeabi_fdiv                             0x080056bd   Thumb Code     0  fdiv.o(x$fpl$fdiv)
    _fdiv                                    0x080056bd   Thumb Code   384  fdiv.o(x$fpl$fdiv)
    __aeabi_cfcmpeq                          0x08005841   Thumb Code     0  feqf.o(x$fpl$feqf)
    _fcmpeq                                  0x08005841   Thumb Code   104  feqf.o(x$fpl$feqf)
    __aeabi_f2iz                             0x080058a9   Thumb Code     0  ffix.o(x$fpl$ffix)
    _ffix                                    0x080058a9   Thumb Code    54  ffix.o(x$fpl$ffix)
    __aeabi_i2f                              0x080058e1   Thumb Code     0  fflt_clz.o(x$fpl$fflt)
    _fflt                                    0x080058e1   Thumb Code    48  fflt_clz.o(x$fpl$fflt)
    __aeabi_ui2f                             0x08005911   Thumb Code     0  fflt_clz.o(x$fpl$ffltu)
    _ffltu                                   0x08005911   Thumb Code    38  fflt_clz.o(x$fpl$ffltu)
    _fcmpge                                  0x08005939   Thumb Code   104  fgeqf.o(x$fpl$fgeqf)
    __aeabi_cfcmple                          0x080059a1   Thumb Code     0  fleqf.o(x$fpl$fleqf)
    _fcmple                                  0x080059a1   Thumb Code   104  fleqf.o(x$fpl$fleqf)
    __fpl_fcmple_InfNaN                      0x080059f3   Thumb Code     0  fleqf.o(x$fpl$fleqf)
    __aeabi_fmul                             0x08005a09   Thumb Code     0  fmul.o(x$fpl$fmul)
    _fmul                                    0x08005a09   Thumb Code   258  fmul.o(x$fpl$fmul)
    __fpl_fnaninf                            0x08005b0b   Thumb Code   140  fnaninf.o(x$fpl$fnaninf)
    __fpl_fretinf                            0x08005b97   Thumb Code    10  fretinf.o(x$fpl$fretinf)
    __aeabi_fsub                             0x08005ba1   Thumb Code     0  faddsub_clz.o(x$fpl$fsub)
    _fsub                                    0x08005ba1   Thumb Code   234  faddsub_clz.o(x$fpl$fsub)
    __I$use$fp                               0x08005c8a   Number         0  usenofp.o(x$fpl$usenofp)
    hall_to_pos                              0x08005ca6   Data           8  bldc.o(.rodata.hall_to_pos)
    lookUpTableAngle                         0x08005cb0   Data         724  main.o(.rodata.lookUpTableAngle)
    Region$$Table$$Base                      0x08006254   Number         0  anon$$obj.o(Region$$Table)
    Region$$Table$$Limit                     0x08006274   Number         0  anon$$obj.o(Region$$Table)
    SystemCoreClock                          0x20000000   Data           4  system_gd32f10x.o(.data.SystemCoreClock)
    batteryVoltage                           0x20000004   Data           4  bldc.o(.data.batteryVoltage)
    currentDC                                0x20000008   Data           4  bldc.o(.data.currentDC)
    offsetdc                                 0x2000000c   Data           2  bldc.o(.data.offsetdc)
    speedLimit                               0x2000000e   Data           2  main.o(.data.speedLimit)
    wState                                   0x20000010   Data           1  main.o(.data.wState)
    __libspace_start                         0x20000018   Data          96  libspace.o(.bss)
    __temporary_stack_top$libspace           0x20000078   Data           0  libspace.o(.bss)
    aHallEXTI                                0x20000078   Data          12  bldcsine.o(.bss.aHallEXTI)
    adc_buffer                               0x20000084   Data           4  bldc.o(.bss.adc_buffer)
    angle_deg                                0x20000088   Data           4  bldcsine.o(.bss.angle_deg)
    angle_deg_add                            0x2000008c   Data           4  bldcsine.o(.bss.angle_deg_add)
    angle_deg_final                          0x20000090   Data           4  bldcsine.o(.bss.angle_deg_final)
    angle_idx                                0x20000094   Data           2  bldcsine.o(.bss.angle_idx)
    bInterrupt                               0x20000096   Data           1  bldcsine.o(.bss.bInterrupt)
    bldc_enable                              0x20000097   Data           1  bldc.o(.bss.bldc_enable)
    bldc_inputFilterPwm                      0x20000098   Data           2  bldc.o(.bss.bldc_inputFilterPwm)
    bldc_outputFilterPwm                     0x2000009a   Data           2  bldc.o(.bss.bldc_outputFilterPwm)
    buzzerTimer                              0x2000009c   Data           2  bldc.o(.bss.buzzerTimer)
    dma_init_struct_adc                      0x200000a0   Data          28  setup.o(.bss.dma_init_struct_adc)
    enable                                   0x200000bc   Data           1  main.o(.bss.enable)
    fDT                                      0x200000c0   Data           4  bldcsine.o(.bss.fDT)
    filter_reg                               0x200000c4   Data           4  bldc.o(.bss.filter_reg)
    hall                                     0x200000c8   Data           1  bldc.o(.bss.hall)
    hall_a                                   0x200000c9   Data           1  bldc.o(.bss.hall_a)
    hall_b                                   0x200000ca   Data           1  bldc.o(.bss.hall_b)
    hall_c                                   0x200000cb   Data           1  bldc.o(.bss.hall_c)
    hall_last                                0x200000cc   Data           1  bldcsine.o(.bss.hall_last)
    hall_time_last                           0x200000ce   Data           2  bldcsine.o(.bss.hall_time_last)
    hall_time_step                           0x200000d0   Data           2  bldcsine.o(.bss.hall_time_step)
    iAdcCounter                              0x200000d4   Data           4  it.o(.bss.iAdcCounter)
    iAdcTicks                                0x200000d8   Data           4  it.o(.bss.iAdcTicks)
    iAdcTicks0                               0x200000dc   Data           4  it.o(.bss.iAdcTicks0)
    iBug                                     0x200000e0   Data           4  main.o(.bss.iBug)
    iOdom                                    0x200000e4   Data           4  bldc.o(.bss.iOdom)
    iPwmCounter                              0x200000e8   Data           4  it.o(.bss.iPwmCounter)
    iPwmTicks                                0x200000ec   Data           4  it.o(.bss.iPwmTicks)
    iPwmTicks0                               0x200000f0   Data           4  it.o(.bss.iPwmTicks0)
    iTimeNextLoop                            0x200000f4   Data           4  main.o(.bss.iTimeNextLoop)
    inactivity_timeout_counter               0x200000f8   Data           4  main.o(.bss.inactivity_timeout_counter)
    lastPos                                  0x200000fc   Data           1  bldc.o(.bss.lastPos)
    msTicks                                  0x20000100   Data           4  it.o(.bss.msTicks)
    oConfig                                  0x20000104   Data          18  setup.o(.bss.oConfig)
    offsetcount                              0x20000116   Data           2  bldc.o(.bss.offsetcount)
    pos                                      0x20000118   Data           1  bldc.o(.bss.pos)
    pwmGo                                    0x2000011c   Data           4  bldcsine.o(.bss.pwmGo)
    pwmSlave                                 0x20000120   Data           2  main.o(.bss.pwmSlave)
    realSpeed                                0x20000124   Data           4  bldc.o(.bss.realSpeed)
    sector                                   0x20000128   Data           1  bldcsine.o(.bss.sector)
    sector10x                                0x20000129   Data           1  bldcsine.o(.bss.sector10x)
    sectorChange                             0x2000012a   Data           1  bldcsine.o(.bss.sectorChange)
    speed                                    0x2000012c   Data           4  main.o(.bss.speed)
    speedCounter                             0x20000130   Data           4  bldc.o(.bss.speedCounter)
    speedShutoff                             0x20000134   Data           4  main.o(.bss.speedShutoff)
    steer                                    0x20000138   Data           4  main.o(.bss.steer)
    steerCounter                             0x2000013c   Data           4  main.o(.bss.steerCounter)
    timedOut                                 0x20000140   Data           1  it.o(.bss.timedOut)
    timeoutCounter_ms                        0x20000144   Data           4  it.o(.bss.timeoutCounter_ms)
    timeoutTimer_paramter_struct             0x20000148   Data          16  setup.o(.bss.timeoutTimer_paramter_struct)
    timerBldc_break_parameter_struct         0x20000158   Data          14  setup.o(.bss.timerBldc_break_parameter_struct)
    timerBldc_oc_parameter_struct            0x20000166   Data          12  setup.o(.bss.timerBldc_oc_parameter_struct)
    timerBldc_paramter_struct                0x20000174   Data          16  setup.o(.bss.timerBldc_paramter_struct)



==============================================================================

Memory Map of the image

  Image Entry point : 0x08000131

  Load Region LR_IROM1 (Base: 0x08000000, Size: 0x00006290, Max: 0x00010000, ABSOLUTE)

    Execution Region ER_IROM1 (Exec base: 0x08000000, Load base: 0x08000000, Size: 0x00006274, Max: 0x00010000, ABSOLUTE)

    Exec Addr    Load Addr    Size         Type   Attr      Idx    E Section Name        Object

    0x08000000   0x08000000   0x00000130   Data   RO          248    RESET               startup_gd32f10x_hd.o
    0x08000130   0x08000130   0x00000008   Code   RO          276  * !!!main             c_w.l(__main.o)
    0x08000138   0x08000138   0x00000034   Code   RO          508    !!!scatter          c_w.l(__scatter.o)
    0x0800016c   0x0800016c   0x0000001a   Code   RO          510    !!handler_copy      c_w.l(__scatter_copy.o)
    0x08000186   0x08000186   0x00000002   PAD
    0x08000188   0x08000188   0x0000001c   Code   RO          512    !!handler_zi        c_w.l(__scatter_zi.o)
    0x080001a4   0x080001a4   0x00000002   Code   RO          370    .ARM.Collect$$libinit$$00000000  c_w.l(libinit.o)
    0x080001a6   0x080001a6   0x00000000   Code   RO          377    .ARM.Collect$$libinit$$00000002  c_w.l(libinit2.o)
    0x080001a6   0x080001a6   0x00000000   Code   RO          379    .ARM.Collect$$libinit$$00000004  c_w.l(libinit2.o)
    0x080001a6   0x080001a6   0x00000000   Code   RO          381    .ARM.Collect$$libinit$$00000006  c_w.l(libinit2.o)
    0x080001a6   0x080001a6   0x00000000   Code   RO          384    .ARM.Collect$$libinit$$0000000C  c_w.l(libinit2.o)
    0x080001a6   0x080001a6   0x00000000   Code   RO          386    .ARM.Collect$$libinit$$0000000E  c_w.l(libinit2.o)
    0x080001a6   0x080001a6   0x00000000   Code   RO          388    .ARM.Collect$$libinit$$00000010  c_w.l(libinit2.o)
    0x080001a6   0x080001a6   0x00000000   Code   RO          391    .ARM.Collect$$libinit$$00000013  c_w.l(libinit2.o)
    0x080001a6   0x080001a6   0x00000000   Code   RO          393    .ARM.Collect$$libinit$$00000015  c_w.l(libinit2.o)
    0x080001a6   0x080001a6   0x00000000   Code   RO          395    .ARM.Collect$$libinit$$00000017  c_w.l(libinit2.o)
    0x080001a6   0x080001a6   0x00000000   Code   RO          397    .ARM.Collect$$libinit$$00000019  c_w.l(libinit2.o)
    0x080001a6   0x080001a6   0x00000000   Code   RO          399    .ARM.Collect$$libinit$$0000001B  c_w.l(libinit2.o)
    0x080001a6   0x080001a6   0x00000000   Code   RO          401    .ARM.Collect$$libinit$$0000001D  c_w.l(libinit2.o)
    0x080001a6   0x080001a6   0x00000000   Code   RO          403    .ARM.Collect$$libinit$$0000001F  c_w.l(libinit2.o)
    0x080001a6   0x080001a6   0x00000000   Code   RO          405    .ARM.Collect$$libinit$$00000021  c_w.l(libinit2.o)
    0x080001a6   0x080001a6   0x00000000   Code   RO          407    .ARM.Collect$$libinit$$00000023  c_w.l(libinit2.o)
    0x080001a6   0x080001a6   0x00000000   Code   RO          409    .ARM.Collect$$libinit$$00000025  c_w.l(libinit2.o)
    0x080001a6   0x080001a6   0x00000000   Code   RO          411    .ARM.Collect$$libinit$$00000027  c_w.l(libinit2.o)
    0x080001a6   0x080001a6   0x00000000   Code   RO          415    .ARM.Collect$$libinit$$0000002E  c_w.l(libinit2.o)
    0x080001a6   0x080001a6   0x00000000   Code   RO          417    .ARM.Collect$$libinit$$00000030  c_w.l(libinit2.o)
    0x080001a6   0x080001a6   0x00000000   Code   RO          419    .ARM.Collect$$libinit$$00000032  c_w.l(libinit2.o)
    0x080001a6   0x080001a6   0x00000000   Code   RO          421    .ARM.Collect$$libinit$$00000034  c_w.l(libinit2.o)
    0x080001a6   0x080001a6   0x00000002   Code   RO          422    .ARM.Collect$$libinit$$00000035  c_w.l(libinit2.o)
    0x080001a8   0x080001a8   0x00000002   Code   RO          444    .ARM.Collect$$libshutdown$$00000000  c_w.l(libshutdown.o)
    0x080001aa   0x080001aa   0x00000000   Code   RO          459    .ARM.Collect$$libshutdown$$00000002  c_w.l(libshutdown2.o)
    0x080001aa   0x080001aa   0x00000000   Code   RO          461    .ARM.Collect$$libshutdown$$00000004  c_w.l(libshutdown2.o)
    0x080001aa   0x080001aa   0x00000000   Code   RO          464    .ARM.Collect$$libshutdown$$00000007  c_w.l(libshutdown2.o)
    0x080001aa   0x080001aa   0x00000000   Code   RO          467    .ARM.Collect$$libshutdown$$0000000A  c_w.l(libshutdown2.o)
    0x080001aa   0x080001aa   0x00000000   Code   RO          469    .ARM.Collect$$libshutdown$$0000000C  c_w.l(libshutdown2.o)
    0x080001aa   0x080001aa   0x00000000   Code   RO          472    .ARM.Collect$$libshutdown$$0000000F  c_w.l(libshutdown2.o)
    0x080001aa   0x080001aa   0x00000002   Code   RO          473    .ARM.Collect$$libshutdown$$00000010  c_w.l(libshutdown2.o)
    0x080001ac   0x080001ac   0x00000000   Code   RO          328    .ARM.Collect$$rtentry$$00000000  c_w.l(__rtentry.o)
    0x080001ac   0x080001ac   0x00000000   Code   RO          345    .ARM.Collect$$rtentry$$00000002  c_w.l(__rtentry2.o)
    0x080001ac   0x080001ac   0x00000006   Code   RO          357    .ARM.Collect$$rtentry$$00000004  c_w.l(__rtentry4.o)
    0x080001b2   0x080001b2   0x00000000   Code   RO          347    .ARM.Collect$$rtentry$$00000009  c_w.l(__rtentry2.o)
    0x080001b2   0x080001b2   0x00000004   Code   RO          348    .ARM.Collect$$rtentry$$0000000A  c_w.l(__rtentry2.o)
    0x080001b6   0x080001b6   0x00000000   Code   RO          350    .ARM.Collect$$rtentry$$0000000C  c_w.l(__rtentry2.o)
    0x080001b6   0x080001b6   0x00000008   Code   RO          351    .ARM.Collect$$rtentry$$0000000D  c_w.l(__rtentry2.o)
    0x080001be   0x080001be   0x00000002   Code   RO          374    .ARM.Collect$$rtexit$$00000000  c_w.l(rtexit.o)
    0x080001c0   0x080001c0   0x00000000   Code   RO          424    .ARM.Collect$$rtexit$$00000002  c_w.l(rtexit2.o)
    0x080001c0   0x080001c0   0x00000004   Code   RO          425    .ARM.Collect$$rtexit$$00000003  c_w.l(rtexit2.o)
    0x080001c4   0x080001c4   0x00000006   Code   RO          426    .ARM.Collect$$rtexit$$00000004  c_w.l(rtexit2.o)
    0x080001ca   0x080001ca   0x00000002   PAD
    0x080001cc   0x080001cc   0x00000476   Code   RO            1    .text               main.o
    0x08000642   0x08000642   0x00000002   PAD
    0x08000644   0x08000644   0x000003da   Code   RO           27    .text               bldc.o
    0x08000a1e   0x08000a1e   0x00000002   PAD
    0x08000a20   0x08000a20   0x00000400   Code   RO           58    .text               bldcsine.o
    0x08000e20   0x08000e20   0x0000082a   Code   RO           83    .text               setup.o
    0x0800164a   0x0800164a   0x00000002   PAD
    0x0800164c   0x0800164c   0x00000172   Code   RO          101    .text               it.o
    0x080017be   0x080017be   0x00000002   PAD
    0x080017c0   0x080017c0   0x00000072   Code   RO          130    .text               remotedummy.o
    0x08001832   0x08001832   0x00000002   PAD
    0x08001834   0x08001834   0x0000048c   Code   RO          147    .text               gd32f10x_adc.o
    0x08001cc0   0x08001cc0   0x00000402   Code   RO          155    .text               gd32f10x_dma.o
    0x080020c2   0x080020c2   0x00000002   PAD
    0x080020c4   0x080020c4   0x00001084   Code   RO          163    .text               gd32f10x_fmc.o
    0x08003148   0x08003148   0x000000b6   Code   RO          172    .text               gd32f10x_fwdgt.o
    0x080031fe   0x080031fe   0x00000002   PAD
    0x08003200   0x08003200   0x00000278   Code   RO          180    .text               gd32f10x_gpio.o
    0x08003478   0x08003478   0x000000ec   Code   RO          196    .text               gd32f10x_misc.o
    0x08003564   0x08003564   0x000005e4   Code   RO          212    .text               gd32f10x_rcu.o
    0x08003b48   0x08003b48   0x00000d6a   Code   RO          221    .text               gd32f10x_timer.o
    0x080048b2   0x080048b2   0x00000002   PAD
    0x080048b4   0x080048b4   0x00000040   Code   RO          249    .text               startup_gd32f10x_hd.o
    0x080048f4   0x080048f4   0x00000166   Code   RO          255    .text               system_gd32f10x.o
    0x08004a5a   0x08004a5a   0x00000002   PAD
    0x08004a5c   0x08004a5c   0x0000016a   Code   RO          264    .text               gd32f10x_exti.o
    0x08004bc6   0x08004bc6   0x00000006   Code   RO          274    .text               c_w.l(heapauxi.o)
    0x08004bcc   0x08004bcc   0x0000004a   Code   RO          361    .text               c_w.l(sys_stackheap_outer.o)
    0x08004c16   0x08004c16   0x00000012   Code   RO          363    .text               c_w.l(exit.o)
    0x08004c28   0x08004c28   0x00000008   Code   RO          371    .text               c_w.l(libspace.o)
    0x08004c30   0x08004c30   0x0000000c   Code   RO          434    .text               c_w.l(sys_exit.o)
    0x08004c3c   0x08004c3c   0x00000002   Code   RO          449    .text               c_w.l(use_no_semi.o)
    0x08004c3e   0x08004c3e   0x00000000   Code   RO          451    .text               c_w.l(indicate_semi.o)
    0x08004c3e   0x08004c3e   0x00000002   PAD
    0x08004c40   0x08004c40   0x00000062   Code   RO          278    x$fpl$d2f           fz_ws.l(d2f.o)
    0x08004ca2   0x08004ca2   0x00000002   PAD
    0x08004ca4   0x08004ca4   0x00000150   Code   RO          280    x$fpl$dadd          fz_ws.l(daddsub_clz.o)
    0x08004df4   0x08004df4   0x000002b4   Code   RO          287    x$fpl$ddiv          fz_ws.l(ddiv.o)
    0x080050a8   0x080050a8   0x0000005e   Code   RO          290    x$fpl$dfix          fz_ws.l(dfix.o)
    0x08005106   0x08005106   0x0000002e   Code   RO          295    x$fpl$dflt          fz_ws.l(dflt_clz.o)
    0x08005134   0x08005134   0x00000026   Code   RO          294    x$fpl$dfltu         fz_ws.l(dflt_clz.o)
    0x0800515a   0x0800515a   0x00000002   PAD
    0x0800515c   0x0800515c   0x00000154   Code   RO          300    x$fpl$dmul          fz_ws.l(dmul.o)
    0x080052b0   0x080052b0   0x0000009c   Code   RO          329    x$fpl$dnaninf       fz_ws.l(dnaninf.o)
    0x0800534c   0x0800534c   0x0000000c   Code   RO          331    x$fpl$dretinf       fz_ws.l(dretinf.o)
    0x08005358   0x08005358   0x000001dc   Code   RO          282    x$fpl$dsub          fz_ws.l(daddsub_clz.o)
    0x08005534   0x08005534   0x00000056   Code   RO          302    x$fpl$f2d           fz_ws.l(f2d.o)
    0x0800558a   0x0800558a   0x00000002   PAD
    0x0800558c   0x0800558c   0x000000c4   Code   RO          304    x$fpl$fadd          fz_ws.l(faddsub_clz.o)
    0x08005650   0x08005650   0x00000054   Code   RO          310    x$fpl$fcmp          fz_ws.l(fcmp.o)
    0x080056a4   0x080056a4   0x00000018   Code   RO          359    x$fpl$fcmpinf       fz_ws.l(fcmpi.o)
    0x080056bc   0x080056bc   0x00000184   Code   RO          313    x$fpl$fdiv          fz_ws.l(fdiv.o)
    0x08005840   0x08005840   0x00000068   Code   RO          333    x$fpl$feqf          fz_ws.l(feqf.o)
    0x080058a8   0x080058a8   0x00000036   Code   RO          316    x$fpl$ffix          fz_ws.l(ffix.o)
    0x080058de   0x080058de   0x00000002   PAD
    0x080058e0   0x080058e0   0x00000030   Code   RO          321    x$fpl$fflt          fz_ws.l(fflt_clz.o)
    0x08005910   0x08005910   0x00000026   Code   RO          320    x$fpl$ffltu         fz_ws.l(fflt_clz.o)
    0x08005936   0x08005936   0x00000002   PAD
    0x08005938   0x08005938   0x00000068   Code   RO          335    x$fpl$fgeqf         fz_ws.l(fgeqf.o)
    0x080059a0   0x080059a0   0x00000068   Code   RO          337    x$fpl$fleqf         fz_ws.l(fleqf.o)
    0x08005a08   0x08005a08   0x00000102   Code   RO          326    x$fpl$fmul          fz_ws.l(fmul.o)
    0x08005b0a   0x08005b0a   0x0000008c   Code   RO          339    x$fpl$fnaninf       fz_ws.l(fnaninf.o)
    0x08005b96   0x08005b96   0x0000000a   Code   RO          341    x$fpl$fretinf       fz_ws.l(fretinf.o)
    0x08005ba0   0x08005ba0   0x000000ea   Code   RO          306    x$fpl$fsub          fz_ws.l(faddsub_clz.o)
    0x08005c8a   0x08005c8a   0x00000000   Code   RO          343    x$fpl$usenofp       fz_ws.l(usenofp.o)
    0x08005c8a   0x08005c8a   0x0000000c   Data   RO           41    .rodata..L__const.up_or_down.up_down  bldc.o
    0x08005c96   0x08005c96   0x00000008   Data   RO           74    .rodata.cst8        bldcsine.o
    0x08005c9e   0x08005c9e   0x00000008   Data   RO          214    .rodata.cst8        gd32f10x_rcu.o
    0x08005ca6   0x08005ca6   0x00000008   Data   RO           42    .rodata.hall_to_pos  bldc.o
    0x08005cae   0x08005cae   0x00000002   PAD
    0x08005cb0   0x08005cb0   0x000002d4   Data   RO           15    .rodata.lookUpTableAngle  main.o
    0x08005f84   0x08005f84   0x000002d0   Data   RO           75    .rodata.sine_table  bldcsine.o
    0x08006254   0x08006254   0x00000020   Data   RO          507    Region$$Table       anon$$obj.o


    Execution Region RW_IRAM1 (Exec base: 0x20000000, Load base: 0x08006278, Size: 0x00004188, Max: 0x00005000, ABSOLUTE)

    Exec Addr    Load Addr    Size         Type   Attr      Idx    E Section Name        Object

    0x20000000   0x08006278   0x00000004   Data   RW          257    .data.SystemCoreClock  system_gd32f10x.o
    0x20000004   0x0800627c   0x00000004   Data   RW           29    .data.batteryVoltage  bldc.o
    0x20000008   0x08006280   0x00000004   Data   RW           30    .data.currentDC     bldc.o
    0x2000000c   0x08006284   0x00000002   Data   RW           38    .data.offsetdc      bldc.o
    0x2000000e   0x08006286   0x00000002   Data   RW            7    .data.speedLimit    main.o
    0x20000010   0x08006288   0x00000001   Data   RW            8    .data.wState        main.o
    0x20000011   0x08006289   0x00000007   PAD
    0x20000018        -       0x00000060   Zero   RW          372    .bss                c_w.l(libspace.o)
    0x20000078        -       0x0000000c   Zero   RW           69    .bss.aHallEXTI      bldcsine.o
    0x20000084        -       0x00000004   Zero   RW           43    .bss.adc_buffer     bldc.o
    0x20000088        -       0x00000004   Zero   RW           64    .bss.angle_deg      bldcsine.o
    0x2000008c        -       0x00000004   Zero   RW           65    .bss.angle_deg_add  bldcsine.o
    0x20000090        -       0x00000004   Zero   RW           66    .bss.angle_deg_final  bldcsine.o
    0x20000094        -       0x00000002   Zero   RW           67    .bss.angle_idx      bldcsine.o
    0x20000096        -       0x00000001   Zero   RW           70    .bss.bInterrupt     bldcsine.o
    0x20000097        -       0x00000001   Zero   RW           33    .bss.bldc_enable    bldc.o
    0x20000098        -       0x00000002   Zero   RW           32    .bss.bldc_inputFilterPwm  bldc.o
    0x2000009a        -       0x00000002   Zero   RW           35    .bss.bldc_outputFilterPwm  bldc.o
    0x2000009c        -       0x00000002   Zero   RW           36    .bss.buzzerTimer    bldc.o
    0x2000009e   0x08006289   0x00000002   PAD
    0x200000a0        -       0x0000001c   Zero   RW           89    .bss.dma_init_struct_adc  setup.o
    0x200000bc        -       0x00000001   Zero   RW           16    .bss.enable         main.o
    0x200000bd   0x08006289   0x00000003   PAD
    0x200000c0        -       0x00000004   Zero   RW           63    .bss.fDT            bldcsine.o
    0x200000c4        -       0x00000004   Zero   RW           48    .bss.filter_reg     bldc.o
    0x200000c8        -       0x00000001   Zero   RW           34    .bss.hall           bldc.o
    0x200000c9        -       0x00000001   Zero   RW           44    .bss.hall_a         bldc.o
    0x200000ca        -       0x00000001   Zero   RW           45    .bss.hall_b         bldc.o
    0x200000cb        -       0x00000001   Zero   RW           46    .bss.hall_c         bldc.o
    0x200000cc        -       0x00000001   Zero   RW           73    .bss.hall_last      bldcsine.o
    0x200000cd   0x08006289   0x00000001   PAD
    0x200000ce        -       0x00000002   Zero   RW           71    .bss.hall_time_last  bldcsine.o
    0x200000d0        -       0x00000002   Zero   RW           72    .bss.hall_time_step  bldcsine.o
    0x200000d2   0x08006289   0x00000002   PAD
    0x200000d4        -       0x00000004   Zero   RW          111    .bss.iAdcCounter    it.o
    0x200000d8        -       0x00000004   Zero   RW          109    .bss.iAdcTicks      it.o
    0x200000dc        -       0x00000004   Zero   RW          110    .bss.iAdcTicks0     it.o
    0x200000e0        -       0x00000004   Zero   RW            3    .bss.iBug           main.o
    0x200000e4        -       0x00000004   Zero   RW           40    .bss.iOdom          bldc.o
    0x200000e8        -       0x00000004   Zero   RW          108    .bss.iPwmCounter    it.o
    0x200000ec        -       0x00000004   Zero   RW          106    .bss.iPwmTicks      it.o
    0x200000f0        -       0x00000004   Zero   RW          107    .bss.iPwmTicks0     it.o
    0x200000f4        -       0x00000004   Zero   RW           18    .bss.iTimeNextLoop  main.o
    0x200000f8        -       0x00000004   Zero   RW           14    .bss.inactivity_timeout_counter  main.o
    0x200000fc        -       0x00000001   Zero   RW           49    .bss.lastPos        bldc.o
    0x200000fd   0x08006289   0x00000003   PAD
    0x20000100        -       0x00000004   Zero   RW          105    .bss.msTicks        it.o
    0x20000104        -       0x00000012   Zero   RW           90    .bss.oConfig        setup.o
    0x20000116        -       0x00000002   Zero   RW           37    .bss.offsetcount    bldc.o
    0x20000118        -       0x00000001   Zero   RW           47    .bss.pos            bldc.o
    0x20000119   0x08006289   0x00000003   PAD
    0x2000011c        -       0x00000004   Zero   RW           68    .bss.pwmGo          bldcsine.o
    0x20000120        -       0x00000002   Zero   RW           17    .bss.pwmSlave       main.o
    0x20000122   0x08006289   0x00000002   PAD
    0x20000124        -       0x00000004   Zero   RW           31    .bss.realSpeed      bldc.o
    0x20000128        -       0x00000001   Zero   RW           61    .bss.sector         bldcsine.o
    0x20000129        -       0x00000001   Zero   RW           62    .bss.sector10x      bldcsine.o
    0x2000012a        -       0x00000001   Zero   RW           60    .bss.sectorChange   bldcsine.o
    0x2000012b   0x08006289   0x00000001   PAD
    0x2000012c        -       0x00000004   Zero   RW            5    .bss.speed          main.o
    0x20000130        -       0x00000004   Zero   RW           39    .bss.speedCounter   bldc.o
    0x20000134        -       0x00000004   Zero   RW            6    .bss.speedShutoff   main.o
    0x20000138        -       0x00000004   Zero   RW           10    .bss.steer          main.o
    0x2000013c        -       0x00000004   Zero   RW            4    .bss.steerCounter   main.o
    0x20000140        -       0x00000001   Zero   RW          104    .bss.timedOut       it.o
    0x20000141   0x08006289   0x00000003   PAD
    0x20000144        -       0x00000004   Zero   RW          103    .bss.timeoutCounter_ms  it.o
    0x20000148        -       0x00000010   Zero   RW           85    .bss.timeoutTimer_paramter_struct  setup.o
    0x20000158        -       0x0000000e   Zero   RW           88    .bss.timerBldc_break_parameter_struct  setup.o
    0x20000166        -       0x0000000c   Zero   RW           87    .bss.timerBldc_oc_parameter_struct  setup.o
    0x20000172   0x08006289   0x00000002   PAD
    0x20000174        -       0x00000010   Zero   RW           86    .bss.timerBldc_paramter_struct  setup.o
    0x20000184   0x08006289   0x00000004   PAD
    0x20000188        -       0x00002000   Zero   RW          247    HEAP                startup_gd32f10x_hd.o
    0x20002188        -       0x00002000   Zero   RW          246    STACK               startup_gd32f10x_hd.o


==============================================================================

Image component sizes


      Code (inc. data)   RO Data    RW Data    ZI Data      Debug   Object Name

       986          0         20         10         35       3517   bldc.o
      1024          0        728          0         43       6955   bldcsine.o
      1164         12          0          0          0       8150   gd32f10x_adc.o
      1026          0          0          0          0       6969   gd32f10x_dma.o
       362          0          0          0          0       3103   gd32f10x_exti.o
      4228          0          0          0          0      20220   gd32f10x_fmc.o
       182          0          0          0          0       1769   gd32f10x_fwdgt.o
       632          0          0          0          0       5118   gd32f10x_gpio.o
       236          0          0          0          0       3265   gd32f10x_misc.o
      1508         20          8          0          0      11590   gd32f10x_rcu.o
      3434         40          0          0          0      18089   gd32f10x_timer.o
       370          0          0          0         33       2720   it.o
      1142          0        724          3         31       5526   main.o
       114          0          0          0          0        663   remotedummy.o
      2090          0          0          0        104       8899   setup.o
        64         26        304          0      16384        908   startup_gd32f10x_hd.o
       358          0          0          4          0       1432   system_gd32f10x.o

    ----------------------------------------------------------------------
     18938         98       1818         20      16660     108893   Object Totals
         0          0         32          0          0          0   (incl. Generated)
        18          0          2          3         30          0   (incl. Padding)

    ----------------------------------------------------------------------

      Code (inc. data)   RO Data    RW Data    ZI Data      Debug   Library Member Name

         8          0          0          0          0         68   __main.o
         0          0          0          0          0          0   __rtentry.o
        12          0          0          0          0          0   __rtentry2.o
         6          0          0          0          0          0   __rtentry4.o
        52          8          0          0          0          0   __scatter.o
        26          0          0          0          0          0   __scatter_copy.o
        28          0          0          0          0          0   __scatter_zi.o
        18          0          0          0          0         80   exit.o
         6          0          0          0          0        152   heapauxi.o
         0          0          0          0          0          0   indicate_semi.o
         2          0          0          0          0          0   libinit.o
         2          0          0          0          0          0   libinit2.o
         2          0          0          0          0          0   libshutdown.o
         2          0          0          0          0          0   libshutdown2.o
         8          4          0          0         96         68   libspace.o
         2          0          0          0          0          0   rtexit.o
        10          0          0          0          0          0   rtexit2.o
        12          4          0          0          0         68   sys_exit.o
        74          0          0          0          0         80   sys_stackheap_outer.o
         2          0          0          0          0         68   use_no_semi.o
        98          4          0          0          0         92   d2f.o
       812         16          0          0          0        296   daddsub_clz.o
       692        140          0          0          0        216   ddiv.o
        94          4          0          0          0         92   dfix.o
        84          0          0          0          0        136   dflt_clz.o
       340         12          0          0          0        104   dmul.o
       156          4          0          0          0         92   dnaninf.o
        12          0          0          0          0         68   dretinf.o
        86          4          0          0          0         84   f2d.o
       430          8          0          0          0        168   faddsub_clz.o
        84          0          0          0          0        196   fcmp.o
        24          0          0          0          0         68   fcmpi.o
       388         76          0          0          0         96   fdiv.o
       104          4          0          0          0         84   feqf.o
        54          4          0          0          0         84   ffix.o
        86          0          0          0          0        136   fflt_clz.o
       104          4          0          0          0         84   fgeqf.o
       104          4          0          0          0         84   fleqf.o
       258          4          0          0          0         84   fmul.o
       140          4          0          0          0         84   fnaninf.o
        10          0          0          0          0         68   fretinf.o
         0          0          0          0          0          0   usenofp.o

    ----------------------------------------------------------------------
      4448        308          0          0         96       3000   Library Totals
        16          0          0          0          0          0   (incl. Padding)

    ----------------------------------------------------------------------

      Code (inc. data)   RO Data    RW Data    ZI Data      Debug   Library Name

       272         16          0          0         96        584   c_w.l
      4160        292          0          0          0       2416   fz_ws.l

    ----------------------------------------------------------------------
      4448        308          0          0         96       3000   Library Totals

    ----------------------------------------------------------------------

==============================================================================


      Code (inc. data)   RO Data    RW Data    ZI Data      Debug   

     23386        406       1818         20      16756     110185   Grand Totals
     23386        406       1818         20      16756     110185   ELF Image Totals
     23386        406       1818         20          0          0   ROM Totals

==============================================================================

    Total RO  Size (Code + RO Data)                25204 (  24.61kB)
    Total RW  Size (RW Data + ZI Data)             16776 (  16.38kB)
    Total ROM Size (Code + RO Data + RW Data)      25224 (  24.63kB)

==============================================================================

