Component: Arm Compiler for Embedded 6.23 Tool: armlink [5f102400]

==============================================================================

Section Cross References

    main.o(.text) refers to main.o(.bss.iBug) for iBug
    main.o(.text) refers to setup.o(.text) for ConfigRead
    main.o(.text) refers to system_gd32f10x.o(.text) for SystemCoreClockUpdate
    main.o(.text) refers to system_gd32f10x.o(.data.SystemCoreClock) for SystemCoreClock
    main.o(.text) refers to gd32f10x_gpio.o(.text) for gpio_bit_write
    main.o(.text) refers to bldcbc.o(.text) for InitBldc
    main.o(.text) refers to main.o(.data.iDrivingMode) for iDrivingMode
    main.o(.text) refers to driver.o(.text) for DriverInit
    main.o(.text) refers to gd32f10x_fwdgt.o(.text) for fwdgt_counter_reload
    main.o(.text) refers to bldc.o(.bss.buzzerFreq) for buzzerFreq
    main.o(.text) refers to it.o(.text) for Delay
    main.o(.text) refers to main.o(.bss.iTimeNextLoop) for iTimeNextLoop
    main.o(.text) refers to main.o(.bss.speed) for speed
    main.o(.text) refers to bldc.o(.text) for SetEnable
    main.o(.text) refers to main.o(.bss.steerCounter) for steerCounter
    main.o(.text) refers to remotedummy.o(.text) for RemoteUpdate
    main.o(.text) refers to main.o(.bss.speedShutoff) for speedShutoff
    main.o(.text) refers to dflti.o(.text) for __aeabi_i2d
    main.o(.text) refers to main.o(.bss.steer) for steer
    main.o(.text) refers to ddiv.o(.text) for __aeabi_ddiv
    main.o(.text) refers to dadd.o(.text) for __aeabi_dadd
    main.o(.text) refers to dmul.o(.text) for __aeabi_dmul
    main.o(.text) refers to dfixi.o(.text) for __aeabi_d2iz
    main.o(.text) refers to main.o(.bss.pwmSlave) for pwmSlave
    main.o(.text) refers to ffltui.o(.text) for __aeabi_ui2f
    main.o(.text) refers to f2d.o(.text) for __aeabi_f2d
    main.o(.text) refers to d2f.o(.text) for __aeabi_d2f
    main.o(.text) refers to main.o(.data.speedLimit) for speedLimit
    main.o(.text) refers to fflti.o(.text) for __aeabi_i2f
    main.o(.text) refers to fmul.o(.text) for __aeabi_fmul
    main.o(.text) refers to ffixi.o(.text) for __aeabi_f2iz
    main.o(.text) refers to fadd.o(.text) for __aeabi_fsub
    main.o(.text) refers to fdiv.o(.text) for __aeabi_fdiv
    main.o(.text) refers to main.o(.rodata.lookUpTableAngle) for lookUpTableAngle
    main.o(.text) refers to fcmplt.o(.text) for __aeabi_fcmplt
    main.o(.text) refers to bldc.o(.data.batteryVoltage) for batteryVoltage
    main.o(.text) refers to fcmple.o(.text) for __aeabi_fcmple
    main.o(.text) refers to main.o(.data.wState) for wState
    main.o(.text) refers to main.o(.data.beepsBackwards) for beepsBackwards
    main.o(.text) refers to bldc.o(.bss.buzzerPattern) for buzzerPattern
    main.o(.text) refers to dcmple.o(.text) for __aeabi_dcmple
    main.o(.text) refers to main.o(.bss.enable) for enable
    main.o(.text) refers to main.o(.bss.inactivity_timeout_counter) for inactivity_timeout_counter
    main.o(.text) refers to main.o(.bss.bRemoteTimeout) for bRemoteTimeout
    main.o(.text) refers to main.o(.bss.bPilotTimeout) for bPilotTimeout
    main.o(.ARM.exidx) refers to main.o(.text) for [Anonymous Symbol]
    bldc.o(.text) refers to bldc.o(.rodata..L__const.up_or_down.up_down) for .L__const.up_or_down.up_down
    bldc.o(.text) refers to bldc.o(.bss.bldc_enable) for bldc_enable
    bldc.o(.text) refers to main.o(.data.iDrivingMode) for iDrivingMode
    bldc.o(.text) refers to dflti.o(.text) for __aeabi_i2d
    bldc.o(.text) refers to ddiv.o(.text) for __aeabi_ddiv
    bldc.o(.text) refers to dmul.o(.text) for __aeabi_dmul
    bldc.o(.text) refers to dfixi.o(.text) for __aeabi_d2iz
    bldc.o(.text) refers to bldc.o(.bss.iBldcInput) for iBldcInput
    bldc.o(.text) refers to bldc.o(.data.iFILTER_SHIFT) for iFILTER_SHIFT
    bldc.o(.text) refers to bldc.o(.bss.bldc_outputFilterPwm) for bldc_outputFilterPwm
    bldc.o(.text) refers to bldc.o(.bss.filter_reg) for filter_reg
    bldc.o(.text) refers to bldc.o(.bss.offsetcount) for offsetcount
    bldc.o(.text) refers to bldc.o(.bss.adc_buffer) for adc_buffer
    bldc.o(.text) refers to bldc.o(.data.offsetdc) for offsetdc
    bldc.o(.text) refers to bldc.o(.bss.buzzerTimer) for buzzerTimer
    bldc.o(.text) refers to bldc.o(.data.batteryVoltage) for batteryVoltage
    bldc.o(.text) refers to f2d.o(.text) for __aeabi_f2d
    bldc.o(.text) refers to dfltui.o(.text) for __aeabi_ui2d
    bldc.o(.text) refers to dadd.o(.text) for __aeabi_dadd
    bldc.o(.text) refers to d2f.o(.text) for __aeabi_d2f
    bldc.o(.text) refers to main.o(.bss.iBug) for iBug
    bldc.o(.text) refers to it.o(.bss.msTicks) for msTicks
    bldc.o(.text) refers to bldc.o(.bss.iBuzzTime) for iBuzzTime
    bldc.o(.text) refers to bldc.o(.bss.iBuzzCounter) for iBuzzCounter
    bldc.o(.text) refers to bldc.o(.bss.iBuzzRate) for iBuzzRate
    bldc.o(.text) refers to bldc.o(.bss.buzzerFreq) for buzzerFreq
    bldc.o(.text) refers to bldc.o(.bss.buzzerPattern) for buzzerPattern
    bldc.o(.text) refers to gd32f10x_gpio.o(.text) for gpio_bit_write
    bldc.o(.text) refers to bldc.o(.data.currentDC) for currentDC
    bldc.o(.text) refers to fcmpgt.o(.text) for __aeabi_fcmpgt
    bldc.o(.text) refers to it.o(.bss.timedOut) for timedOut
    bldc.o(.text) refers to gd32f10x_timer.o(.text) for timer_automatic_output_enable
    bldc.o(.text) refers to bldc.o(.bss.iDrivingModeOverride) for iDrivingModeOverride
    bldc.o(.text) refers to bldc.o(.bss.bldc_inputFilterPwm) for bldc_inputFilterPwm
    bldc.o(.text) refers to bldc.o(.bss.hall_a) for hall_a
    bldc.o(.text) refers to bldc.o(.bss.hall_b) for hall_b
    bldc.o(.text) refers to bldc.o(.bss.hall_c) for hall_c
    bldc.o(.text) refers to bldc.o(.bss.hall) for hall
    bldc.o(.text) refers to bldc.o(.rodata.hall_to_pos) for hall_to_pos
    bldc.o(.text) refers to bldc.o(.bss.pos) for pos
    bldc.o(.text) refers to driver.o(.text) for Driver
    bldc.o(.text) refers to bldcbc.o(.text) for bldc_get_pwm
    bldc.o(.text) refers to bldc.o(.bss.lastPos) for lastPos
    bldc.o(.text) refers to bldc.o(.bss.iOdom) for iOdom
    bldc.o(.text) refers to bldc.o(.bss.speedCounterSlow) for speedCounterSlow
    bldc.o(.text) refers to bldc.o(.bss.iOdomLast) for iOdomLast
    bldc.o(.text) refers to bldc.o(.bss.torque32) for torque32
    bldc.o(.text) refers to bldc.o(.bss.revs32) for revs32
    bldc.o(.text) refers to bldc.o(.bss.buzzerToggle) for buzzerToggle
    bldc.o(.text) refers to bldc.o(.data.revs32ScaleSlow) for revs32ScaleSlow
    bldc.o(.text) refers to bldc.o(.bss.revs32_reg) for revs32_reg
    bldc.o(.text) refers to bldc.o(.bss.torque32_reg) for torque32_reg
    bldc.o(.text) refers to bldc.o(.bss.speedCounterSlowLog) for speedCounterSlowLog
    bldc.o(.text) refers to bldc.o(.bss.speedCounter) for speedCounter
    bldc.o(.text) refers to ffltui.o(.text) for __aeabi_ui2f
    bldc.o(.text) refers to fdiv.o(.text) for __aeabi_fdiv
    bldc.o(.text) refers to bldc.o(.data.revs32Scale) for revs32Scale
    bldc.o(.text) refers to bldc.o(.bss.realSpeed) for realSpeed
    bldc.o(.text) refers to bldc.o(.bss.revs32x) for revs32x
    bldc.o(.text) refers to bldc.o(.bss.speedCounterLog) for speedCounterLog
    bldc.o(.ARM.exidx) refers to bldc.o(.text) for [Anonymous Symbol]
    driver.o(.text) refers to fmul.o(.text) for __aeabi_fmul
    driver.o(.text) refers to ffixi.o(.text) for __aeabi_f2iz
    driver.o(.text) refers to fdiv.o(.text) for __aeabi_fdiv
    driver.o(.text) refers to ffixl.o(.text) for __aeabi_f2lz
    driver.o(.text) refers to main.o(.data.iDrivingMode) for iDrivingMode
    driver.o(.text) refers to driver.o(.bss.pid) for pid
    driver.o(.text) refers to bldc.o(.bss.revs32) for revs32
    driver.o(.text) refers to bldc.o(.bss.torque32) for torque32
    driver.o(.text) refers to bldc.o(.bss.iOdom) for iOdom
    driver.o(.ARM.exidx) refers to driver.o(.text) for [Anonymous Symbol]
    bldcbc.o(.ARM.exidx) refers to bldcbc.o(.text) for [Anonymous Symbol]
    setup.o(.text) refers to gd32f10x_misc.o(.text) for nvic_priority_group_set
    setup.o(.text) refers to gd32f10x_rcu.o(.text) for rcu_flag_get
    setup.o(.text) refers to gd32f10x_fwdgt.o(.text) for fwdgt_config
    setup.o(.text) refers to gd32f10x_timer.o(.text) for timer_deinit
    setup.o(.text) refers to setup.o(.bss.timeoutTimer_paramter_struct) for timeoutTimer_paramter_struct
    setup.o(.text) refers to gd32f10x_gpio.o(.text) for gpio_init
    setup.o(.text) refers to setup.o(.bss.timerBldc_paramter_struct) for timerBldc_paramter_struct
    setup.o(.text) refers to setup.o(.bss.timerBldc_oc_parameter_struct) for timerBldc_oc_parameter_struct
    setup.o(.text) refers to setup.o(.bss.timerBldc_break_parameter_struct) for timerBldc_break_parameter_struct
    setup.o(.text) refers to gd32f10x_dma.o(.text) for dma_deinit
    setup.o(.text) refers to setup.o(.bss.dma_init_struct_adc) for dma_init_struct_adc
    setup.o(.text) refers to bldc.o(.bss.adc_buffer) for adc_buffer
    setup.o(.text) refers to gd32f10x_adc.o(.text) for adc_channel_length_config
    setup.o(.text) refers to gd32f10x_fmc.o(.text) for fmc_unlock
    setup.o(.text) refers to setup.o(.bss.oConfig) for oConfig
    setup.o(.ARM.exidx) refers to setup.o(.text) for [Anonymous Symbol]
    it.o(.text) refers to it.o(.bss.msTicks) for msTicks
    it.o(.text) refers to it.o(.bss.timeoutCounter_ms) for timeoutCounter_ms
    it.o(.text) refers to it.o(.bss.timedOut) for timedOut
    it.o(.text) refers to main.o(.bss.speed) for speed
    it.o(.text) refers to gd32f10x_timer.o(.text) for timer_interrupt_flag_clear
    it.o(.text) refers to it.o(.bss.iPwmTime) for iPwmTime
    it.o(.text) refers to it.o(.bss.iPwmCounter) for iPwmCounter
    it.o(.text) refers to it.o(.bss.iPwmRate) for iPwmRate
    it.o(.text) refers to gd32f10x_adc.o(.text) for adc_software_trigger_enable
    it.o(.text) refers to it.o(.bss.iAdcTime) for iAdcTime
    it.o(.text) refers to it.o(.bss.iAdcCounter) for iAdcCounter
    it.o(.text) refers to it.o(.bss.iAdcRate) for iAdcRate
    it.o(.text) refers to bldc.o(.text) for CalculateBLDC
    it.o(.text) refers to gd32f10x_dma.o(.text) for dma_interrupt_flag_get
    it.o(.ARM.exidx) refers to it.o(.text) for [Anonymous Symbol]
    comms.o(.text) refers to gd32f10x_usart.o(.text) for usart_data_transmit
    comms.o(.ARM.exidx) refers to comms.o(.text) for [Anonymous Symbol]
    remotedummy.o(.text) refers to main.o(.data.iDrivingMode) for iDrivingMode
    remotedummy.o(.text) refers to it.o(.bss.msTicks) for msTicks
    remotedummy.o(.text) refers to main.o(.bss.steer) for steer
    remotedummy.o(.text) refers to main.o(.bss.speed) for speed
    remotedummy.o(.text) refers to it.o(.text) for ResetTimeout
    remotedummy.o(.ARM.exidx) refers to remotedummy.o(.text) for [Anonymous Symbol]
    segger_rtt.o(.text) refers to segger_rtt.o(.bss._SEGGER_RTT) for _SEGGER_RTT
    segger_rtt.o(.text) refers to memseta.o(.text) for __aeabi_memclr4
    segger_rtt.o(.text) refers to segger_rtt.o(.rodata.str1.1) for .L.str
    segger_rtt.o(.text) refers to segger_rtt.o(.bss._acUpBuffer) for _acUpBuffer
    segger_rtt.o(.text) refers to segger_rtt.o(.bss._acDownBuffer) for _acDownBuffer
    segger_rtt.o(.text) refers to segger_rtt.o(.rodata._DoInit._aInitStr) for _DoInit._aInitStr
    segger_rtt.o(.text) refers to memcpya.o(.text) for __aeabi_memcpy
    segger_rtt.o(.text) refers to strlen.o(.text) for strlen
    segger_rtt.o(.text) refers to segger_rtt.o(.rodata.cst16) for _aTerminalId
    segger_rtt.o(.text) refers to segger_rtt.o(.bss._ActiveTerminal) for _ActiveTerminal
    segger_rtt.o(.ARM.exidx) refers to segger_rtt.o(.text) for [Anonymous Symbol]
    gd32f10x_adc.o(.text) refers to gd32f10x_rcu.o(.text) for rcu_periph_reset_enable
    gd32f10x_adc.o(.ARM.exidx) refers to gd32f10x_adc.o(.text) for [Anonymous Symbol]
    gd32f10x_dma.o(.ARM.exidx) refers to gd32f10x_dma.o(.text) for [Anonymous Symbol]
    gd32f10x_exti.o(.ARM.exidx) refers to gd32f10x_exti.o(.text) for [Anonymous Symbol]
    gd32f10x_fmc.o(.ARM.exidx) refers to gd32f10x_fmc.o(.text) for [Anonymous Symbol]
    gd32f10x_fwdgt.o(.ARM.exidx) refers to gd32f10x_fwdgt.o(.text) for [Anonymous Symbol]
    gd32f10x_gpio.o(.text) refers to gd32f10x_rcu.o(.text) for rcu_periph_reset_enable
    gd32f10x_gpio.o(.ARM.exidx) refers to gd32f10x_gpio.o(.text) for [Anonymous Symbol]
    gd32f10x_i2c.o(.text) refers to gd32f10x_rcu.o(.text) for rcu_periph_reset_enable
    gd32f10x_i2c.o(.ARM.exidx) refers to gd32f10x_i2c.o(.text) for [Anonymous Symbol]
    gd32f10x_misc.o(.ARM.exidx) refers to gd32f10x_misc.o(.text) for [Anonymous Symbol]
    gd32f10x_pmu.o(.text) refers to gd32f10x_rcu.o(.text) for rcu_periph_reset_enable
    gd32f10x_pmu.o(.ARM.exidx) refers to gd32f10x_pmu.o(.text) for [Anonymous Symbol]
    gd32f10x_rcu.o(.text) refers to gd32f10x_rcu.o(.rodata.cst8) for .L__const.rcu_clock_freq_get.apb2_exp
    gd32f10x_rcu.o(.ARM.exidx) refers to gd32f10x_rcu.o(.text) for [Anonymous Symbol]
    gd32f10x_timer.o(.text) refers to gd32f10x_rcu.o(.text) for rcu_periph_reset_enable
    gd32f10x_timer.o(.ARM.exidx) refers to gd32f10x_timer.o(.text) for [Anonymous Symbol]
    gd32f10x_usart.o(.text) refers to gd32f10x_rcu.o(.text) for rcu_periph_reset_enable
    gd32f10x_usart.o(.ARM.exidx) refers to gd32f10x_usart.o(.text) for [Anonymous Symbol]
    gd32f10x_wwdgt.o(.text) refers to gd32f10x_rcu.o(.text) for rcu_periph_reset_enable
    gd32f10x_wwdgt.o(.ARM.exidx) refers to gd32f10x_wwdgt.o(.text) for [Anonymous Symbol]
    startup_gd32f10x_hd.o(RESET) refers to startup_gd32f10x_hd.o(STACK) for __initial_sp
    startup_gd32f10x_hd.o(RESET) refers to startup_gd32f10x_hd.o(.text) for Reset_Handler
    startup_gd32f10x_hd.o(RESET) refers to it.o(.text) for NMI_Handler
    startup_gd32f10x_hd.o(.text) refers to system_gd32f10x.o(.text) for SystemInit
    startup_gd32f10x_hd.o(.text) refers to entry.o(.ARM.Collect$$$$00000000) for __main
    system_gd32f10x.o(.text) refers to system_gd32f10x.o(.data.SystemCoreClock) for SystemCoreClock
    system_gd32f10x.o(.ARM.exidx) refers to system_gd32f10x.o(.text) for [Anonymous Symbol]
    entry.o(.ARM.Collect$$$$00000000) refers (Special) to entry10a.o(.ARM.Collect$$$$0000000D) for __rt_final_cpp
    entry.o(.ARM.Collect$$$$00000000) refers (Special) to entry11a.o(.ARM.Collect$$$$0000000F) for __rt_final_exit
    entry.o(.ARM.Collect$$$$00000000) refers (Special) to entry7b.o(.ARM.Collect$$$$00000008) for _main_clock
    entry.o(.ARM.Collect$$$$00000000) refers (Special) to entry8b.o(.ARM.Collect$$$$0000000A) for _main_cpp_init
    entry.o(.ARM.Collect$$$$00000000) refers (Special) to entry9a.o(.ARM.Collect$$$$0000000B) for _main_init
    entry.o(.ARM.Collect$$$$00000000) refers (Special) to entry5.o(.ARM.Collect$$$$00000004) for _main_scatterload
    entry.o(.ARM.Collect$$$$00000000) refers (Special) to entry2.o(.ARM.Collect$$$$00000001) for _main_stk
    fadd.o(.text) refers (Special) to iusefp.o(.text) for __I$use$fp
    fadd.o(.text) refers to fepilogue.o(.text) for _float_epilogue
    fmul.o(.text) refers (Special) to iusefp.o(.text) for __I$use$fp
    fdiv.o(.text) refers (Special) to iusefp.o(.text) for __I$use$fp
    fdiv.o(.text) refers to fepilogue.o(.text) for _float_round
    dadd.o(.text) refers (Special) to iusefp.o(.text) for __I$use$fp
    dadd.o(.text) refers to llshl.o(.text) for __aeabi_llsl
    dadd.o(.text) refers to llsshr.o(.text) for __aeabi_lasr
    dadd.o(.text) refers to depilogue.o(.text) for _double_epilogue
    dmul.o(.text) refers (Special) to iusefp.o(.text) for __I$use$fp
    dmul.o(.text) refers to depilogue.o(.text) for _double_epilogue
    ddiv.o(.text) refers (Special) to iusefp.o(.text) for __I$use$fp
    ddiv.o(.text) refers to depilogue.o(.text) for _double_round
    fcmple.o(.text) refers (Special) to iusefp.o(.text) for __I$use$fp
    fcmplt.o(.text) refers (Special) to iusefp.o(.text) for __I$use$fp
    fcmpgt.o(.text) refers (Special) to iusefp.o(.text) for __I$use$fp
    dcmple.o(.text) refers (Special) to iusefp.o(.text) for __I$use$fp
    fflti.o(.text) refers (Special) to iusefp.o(.text) for __I$use$fp
    fflti.o(.text) refers to fepilogue.o(.text) for _float_epilogue
    ffltui.o(.text) refers (Special) to iusefp.o(.text) for __I$use$fp
    ffltui.o(.text) refers to fepilogue.o(.text) for _float_epilogue
    dflti.o(.text) refers (Special) to iusefp.o(.text) for __I$use$fp
    dflti.o(.text) refers to depilogue.o(.text) for _double_epilogue
    dfltui.o(.text) refers (Special) to iusefp.o(.text) for __I$use$fp
    dfltui.o(.text) refers to depilogue.o(.text) for _double_epilogue
    ffixi.o(.text) refers (Special) to iusefp.o(.text) for __I$use$fp
    ffixl.o(.text) refers (Special) to iusefp.o(.text) for __I$use$fp
    ffixl.o(.text) refers to llshl.o(.text) for __aeabi_llsl
    dfixi.o(.text) refers (Special) to iusefp.o(.text) for __I$use$fp
    dfixi.o(.text) refers to llushr.o(.text) for __aeabi_llsr
    f2d.o(.text) refers (Special) to iusefp.o(.text) for __I$use$fp
    d2f.o(.text) refers (Special) to iusefp.o(.text) for __I$use$fp
    d2f.o(.text) refers to fepilogue.o(.text) for _float_round
    entry2.o(.ARM.Collect$$$$00000001) refers to entry2.o(.ARM.Collect$$$$00002712) for __lit__00000000
    entry2.o(.ARM.Collect$$$$00002712) refers to startup_gd32f10x_hd.o(STACK) for __initial_sp
    entry2.o(__vectab_stack_and_reset_area) refers to startup_gd32f10x_hd.o(STACK) for __initial_sp
    entry2.o(__vectab_stack_and_reset_area) refers to entry.o(.ARM.Collect$$$$00000000) for __main
    entry5.o(.ARM.Collect$$$$00000004) refers to init.o(.text) for __scatterload
    entry9a.o(.ARM.Collect$$$$0000000B) refers to main.o(.text) for main
    entry9b.o(.ARM.Collect$$$$0000000C) refers to main.o(.text) for main
    fepilogue.o(.text) refers (Special) to iusefp.o(.text) for __I$use$fp
    depilogue.o(.text) refers (Special) to iusefp.o(.text) for __I$use$fp
    depilogue.o(.text) refers to llshl.o(.text) for __aeabi_llsl
    depilogue.o(.text) refers to llushr.o(.text) for __aeabi_llsr
    init.o(.text) refers to entry5.o(.ARM.Collect$$$$00000004) for __main_after_scatterload


==============================================================================

Removing Unused input sections from the image.

    Removing main.o(.ARM.exidx), (24 bytes).
    Removing main.o(.data.iBug8), (1 bytes).
    Removing main.o(.data.wStateSlave), (1 bytes).
    Removing main.o(.bss.activateWeakening), (1 bytes).
    Removing main.o(.bss.slaveError), (1 bytes).
    Removing main.o(.ARM.use_no_argv), (4 bytes).
    Removing bldc.o(.ARM.exidx), (48 bytes).
    Removing bldc.o(.bss.realSpeed32_reg), (4 bytes).
    Removing driver.o(.ARM.exidx), (32 bytes).
    Removing bldcbc.o(.ARM.exidx), (16 bytes).
    Removing bldcsine.o(.text), (0 bytes).
    Removing setup.o(.ARM.exidx), (136 bytes).
    Removing setup.o(.bss.dma_init_struct_usart), (28 bytes).
    Removing setup.o(.bss.usart0_rx_buf), (1 bytes).
    Removing setup.o(.bss.usart1_rx_buf), (1 bytes).
    Removing setup.o(.bss.usart2_rx_buf), (1 bytes).
    Removing it.o(.ARM.exidx), (120 bytes).
    Removing it.o(.bss.iPwmTicks), (4 bytes).
    Removing it.o(.bss.iPwmTicks0), (4 bytes).
    Removing it.o(.bss.iAdcTicks), (4 bytes).
    Removing it.o(.bss.iAdcTicks0), (4 bytes).
    Removing it.o(.bss.iCounterUsart0), (4 bytes).
    Removing it.o(.bss.iCounter2Usart0), (4 bytes).
    Removing it.o(.bss.iCounterUsart1), (4 bytes).
    Removing it.o(.bss.iCounter2Usart1), (4 bytes).
    Removing it.o(.bss.iCounterUsart2), (4 bytes).
    Removing it.o(.bss.iCounter2Usart2), (4 bytes).
    Removing led.o(.text), (0 bytes).
    Removing comms.o(.text), (124 bytes).
    Removing comms.o(.ARM.exidx), (16 bytes).
    Removing remoteuart.o(.text), (0 bytes).
    Removing remotecrsf.o(.text), (0 bytes).
    Removing remotedummy.o(.ARM.exidx), (24 bytes).
    Removing remotedummy.o(.bss.iTimeRTT), (4 bytes).
    Removing remoteuartbus.o(.text), (0 bytes).
    Removing commsmasterslave.o(.text), (0 bytes).
    Removing commsmasterslave.o(.bss.mosfetOutMaster), (1 bytes).
    Removing commsmasterslave.o(.bss.beepsBackwardsMaster), (1 bytes).
    Removing remoteadc.o(.text), (0 bytes).
    Removing remoteautodetect.o(.text), (0 bytes).
    Removing remoteautodetect.o(.bss.i), (2 bytes).
    Removing remoteros2.o(.text), (0 bytes).
    Removing i2c.o(.text), (0 bytes).
    Removing mpu6050.o(.text), (0 bytes).
    Removing pilothoverbike.o(.text), (0 bytes).
    Removing pilotuser.o(.text), (0 bytes).
    Removing segger_rtt.o(.text), (6050 bytes).
    Removing segger_rtt.o(.ARM.exidx), (248 bytes).
    Removing segger_rtt.o(.bss._SEGGER_RTT), (168 bytes).
    Removing segger_rtt.o(.rodata.cst16), (16 bytes).
    Removing segger_rtt.o(.bss._ActiveTerminal), (1 bytes).
    Removing segger_rtt.o(.rodata._DoInit._aInitStr), (17 bytes).
    Removing segger_rtt.o(.rodata.str1.1), (9 bytes).
    Removing segger_rtt.o(.bss._acUpBuffer), (1024 bytes).
    Removing segger_rtt.o(.bss._acDownBuffer), (16 bytes).
    Removing gd32f10x_adc.o(.ARM.exidx), (272 bytes).
    Removing gd32f10x_dma.o(.ARM.exidx), (216 bytes).
    Removing gd32f10x_exti.o(.text), (362 bytes).
    Removing gd32f10x_exti.o(.ARM.exidx), (96 bytes).
    Removing gd32f10x_fmc.o(.ARM.exidx), (272 bytes).
    Removing gd32f10x_fwdgt.o(.ARM.exidx), (48 bytes).
    Removing gd32f10x_gpio.o(.ARM.exidx), (136 bytes).
    Removing gd32f10x_i2c.o(.text), (794 bytes).
    Removing gd32f10x_i2c.o(.ARM.exidx), (240 bytes).
    Removing gd32f10x_misc.o(.ARM.exidx), (56 bytes).
    Removing gd32f10x_pmu.o(.text), (362 bytes).
    Removing gd32f10x_pmu.o(.ARM.exidx), (96 bytes).
    Removing gd32f10x_rcu.o(.ARM.exidx), (288 bytes).
    Removing gd32f10x_timer.o(.ARM.exidx), (552 bytes).
    Removing gd32f10x_usart.o(.text), (872 bytes).
    Removing gd32f10x_usart.o(.ARM.exidx), (344 bytes).
    Removing gd32f10x_wwdgt.o(.text), (170 bytes).
    Removing gd32f10x_wwdgt.o(.ARM.exidx), (56 bytes).
    Removing startup_gd32f10x_hd.o(HEAP), (8192 bytes).
    Removing system_gd32f10x.o(.ARM.exidx), (16 bytes).

75 unused section(s) (total 21620 bytes) removed from the image.

==============================================================================

Image Symbol Table

    Local Symbols

    Symbol Name                              Value     Ov Type        Size  Object(Section)

    ../clib/microlib/init/entry.s            0x00000000   Number         0  entry.o ABSOLUTE
    ../clib/microlib/init/entry.s            0x00000000   Number         0  entry2.o ABSOLUTE
    ../clib/microlib/init/entry.s            0x00000000   Number         0  entry5.o ABSOLUTE
    ../clib/microlib/init/entry.s            0x00000000   Number         0  entry7a.o ABSOLUTE
    ../clib/microlib/init/entry.s            0x00000000   Number         0  entry7b.o ABSOLUTE
    ../clib/microlib/init/entry.s            0x00000000   Number         0  entry8a.o ABSOLUTE
    ../clib/microlib/init/entry.s            0x00000000   Number         0  entry8b.o ABSOLUTE
    ../clib/microlib/init/entry.s            0x00000000   Number         0  entry9a.o ABSOLUTE
    ../clib/microlib/init/entry.s            0x00000000   Number         0  entry9b.o ABSOLUTE
    ../clib/microlib/init/entry.s            0x00000000   Number         0  entry10a.o ABSOLUTE
    ../clib/microlib/init/entry.s            0x00000000   Number         0  entry10b.o ABSOLUTE
    ../clib/microlib/init/entry.s            0x00000000   Number         0  entry11a.o ABSOLUTE
    ../clib/microlib/init/entry.s            0x00000000   Number         0  entry11b.o ABSOLUTE
    ../clib/microlib/longlong.c              0x00000000   Number         0  llshl.o ABSOLUTE
    ../clib/microlib/longlong.c              0x00000000   Number         0  llushr.o ABSOLUTE
    ../clib/microlib/longlong.c              0x00000000   Number         0  llsshr.o ABSOLUTE
    ../clib/microlib/string/memcpy.c         0x00000000   Number         0  memcpya.o ABSOLUTE
    ../clib/microlib/string/memcpy.c         0x00000000   Number         0  memcpyb.o ABSOLUTE
    ../clib/microlib/string/memset.c         0x00000000   Number         0  memseta.o ABSOLUTE
    ../clib/microlib/string/strlen.c         0x00000000   Number         0  strlen.o ABSOLUTE
    ../clib/microlib/stubs.s                 0x00000000   Number         0  iusefp.o ABSOLUTE
    ../fplib/microlib/d2f.c                  0x00000000   Number         0  d2f.o ABSOLUTE
    ../fplib/microlib/f2d.c                  0x00000000   Number         0  f2d.o ABSOLUTE
    ../fplib/microlib/fpadd.c                0x00000000   Number         0  fadd.o ABSOLUTE
    ../fplib/microlib/fpadd.c                0x00000000   Number         0  dadd.o ABSOLUTE
    ../fplib/microlib/fpcmp.c                0x00000000   Number         0  fcmple.o ABSOLUTE
    ../fplib/microlib/fpcmp.c                0x00000000   Number         0  fcmplt.o ABSOLUTE
    ../fplib/microlib/fpcmp.c                0x00000000   Number         0  fcmpgt.o ABSOLUTE
    ../fplib/microlib/fpcmp.c                0x00000000   Number         0  dcmple.o ABSOLUTE
    ../fplib/microlib/fpdiv.c                0x00000000   Number         0  fdiv.o ABSOLUTE
    ../fplib/microlib/fpdiv.c                0x00000000   Number         0  ddiv.o ABSOLUTE
    ../fplib/microlib/fpepilogue.c           0x00000000   Number         0  fepilogue.o ABSOLUTE
    ../fplib/microlib/fpepilogue.c           0x00000000   Number         0  depilogue.o ABSOLUTE
    ../fplib/microlib/fpfix.c                0x00000000   Number         0  ffixi.o ABSOLUTE
    ../fplib/microlib/fpfix.c                0x00000000   Number         0  ffixl.o ABSOLUTE
    ../fplib/microlib/fpfix.c                0x00000000   Number         0  dfixi.o ABSOLUTE
    ../fplib/microlib/fpflt.c                0x00000000   Number         0  fflti.o ABSOLUTE
    ../fplib/microlib/fpflt.c                0x00000000   Number         0  ffltui.o ABSOLUTE
    ../fplib/microlib/fpflt.c                0x00000000   Number         0  dflti.o ABSOLUTE
    ../fplib/microlib/fpflt.c                0x00000000   Number         0  dfltui.o ABSOLUTE
    ../fplib/microlib/fpmul.c                0x00000000   Number         0  fmul.o ABSOLUTE
    ../fplib/microlib/fpmul.c                0x00000000   Number         0  dmul.o ABSOLUTE
    PilotHoverbike.c                         0x00000000   Number         0  pilothoverbike.o ABSOLUTE
    PilotUser.c                              0x00000000   Number         0  pilotuser.o ABSOLUTE
    RTE/Device/GD32F103C8/startup_gd32f10x_hd.s 0x00000000   Number         0  startup_gd32f10x_hd.o ABSOLUTE
    RemoteAdc.c                              0x00000000   Number         0  remoteadc.o ABSOLUTE
    RemoteAutodetect.c                       0x00000000   Number         0  remoteautodetect.o ABSOLUTE
    RemoteROS2.c                             0x00000000   Number         0  remoteros2.o ABSOLUTE
    SEGGER_RTT.c                             0x00000000   Number         0  segger_rtt.o ABSOLUTE
    bldc.c                                   0x00000000   Number         0  bldc.o ABSOLUTE
    bldcBC.c                                 0x00000000   Number         0  bldcbc.o ABSOLUTE
    bldcSINE.c                               0x00000000   Number         0  bldcsine.o ABSOLUTE
    comms.c                                  0x00000000   Number         0  comms.o ABSOLUTE
    commsMasterSlave.c                       0x00000000   Number         0  commsmasterslave.o ABSOLUTE
    dc.s                                     0x00000000   Number         0  dc.o ABSOLUTE
    driver.c                                 0x00000000   Number         0  driver.o ABSOLUTE
    gd32f10x_adc.c                           0x00000000   Number         0  gd32f10x_adc.o ABSOLUTE
    gd32f10x_dma.c                           0x00000000   Number         0  gd32f10x_dma.o ABSOLUTE
    gd32f10x_exti.c                          0x00000000   Number         0  gd32f10x_exti.o ABSOLUTE
    gd32f10x_fmc.c                           0x00000000   Number         0  gd32f10x_fmc.o ABSOLUTE
    gd32f10x_fwdgt.c                         0x00000000   Number         0  gd32f10x_fwdgt.o ABSOLUTE
    gd32f10x_gpio.c                          0x00000000   Number         0  gd32f10x_gpio.o ABSOLUTE
    gd32f10x_i2c.c                           0x00000000   Number         0  gd32f10x_i2c.o ABSOLUTE
    gd32f10x_misc.c                          0x00000000   Number         0  gd32f10x_misc.o ABSOLUTE
    gd32f10x_pmu.c                           0x00000000   Number         0  gd32f10x_pmu.o ABSOLUTE
    gd32f10x_rcu.c                           0x00000000   Number         0  gd32f10x_rcu.o ABSOLUTE
    gd32f10x_timer.c                         0x00000000   Number         0  gd32f10x_timer.o ABSOLUTE
    gd32f10x_usart.c                         0x00000000   Number         0  gd32f10x_usart.o ABSOLUTE
    gd32f10x_wwdgt.c                         0x00000000   Number         0  gd32f10x_wwdgt.o ABSOLUTE
    handlers.s                               0x00000000   Number         0  handlers.o ABSOLUTE
    i2c.c                                    0x00000000   Number         0  i2c.o ABSOLUTE
    init.s                                   0x00000000   Number         0  init.o ABSOLUTE
    it.c                                     0x00000000   Number         0  it.o ABSOLUTE
    led.c                                    0x00000000   Number         0  led.o ABSOLUTE
    main.c                                   0x00000000   Number         0  main.o ABSOLUTE
    mpu6050.c                                0x00000000   Number         0  mpu6050.o ABSOLUTE
    remoteCrsf.c                             0x00000000   Number         0  remotecrsf.o ABSOLUTE
    remoteDummy.c                            0x00000000   Number         0  remotedummy.o ABSOLUTE
    remoteUart.c                             0x00000000   Number         0  remoteuart.o ABSOLUTE
    remoteUartBus.c                          0x00000000   Number         0  remoteuartbus.o ABSOLUTE
    setup.c                                  0x00000000   Number         0  setup.o ABSOLUTE
    system_gd32f10x.c                        0x00000000   Number         0  system_gd32f10x.o ABSOLUTE
    RESET                                    0x08000000   Section      304  startup_gd32f10x_hd.o(RESET)
    .ARM.Collect$$$$00000000                 0x08000130   Section        0  entry.o(.ARM.Collect$$$$00000000)
    .ARM.Collect$$$$00000001                 0x08000130   Section        4  entry2.o(.ARM.Collect$$$$00000001)
    .ARM.Collect$$$$00000004                 0x08000134   Section        4  entry5.o(.ARM.Collect$$$$00000004)
    .ARM.Collect$$$$00000008                 0x08000138   Section        0  entry7b.o(.ARM.Collect$$$$00000008)
    .ARM.Collect$$$$0000000A                 0x08000138   Section        0  entry8b.o(.ARM.Collect$$$$0000000A)
    .ARM.Collect$$$$0000000B                 0x08000138   Section        8  entry9a.o(.ARM.Collect$$$$0000000B)
    __lit__00000000                          0x08000140   Data           4  entry2.o(.ARM.Collect$$$$00002712)
    .ARM.Collect$$$$0000000D                 0x08000140   Section        0  entry10a.o(.ARM.Collect$$$$0000000D)
    .ARM.Collect$$$$0000000F                 0x08000140   Section        0  entry11a.o(.ARM.Collect$$$$0000000F)
    .ARM.Collect$$$$00002712                 0x08000140   Section        4  entry2.o(.ARM.Collect$$$$00002712)
    [Anonymous Symbol]                       0x08000144   Section        0  main.o(.text)
    [Anonymous Symbol]                       0x08000924   Section        0  bldc.o(.text)
    [Anonymous Symbol]                       0x0800102c   Section        0  driver.o(.text)
    [Anonymous Symbol]                       0x08001238   Section        0  bldcbc.o(.text)
    [Anonymous Symbol]                       0x080012a8   Section        0  setup.o(.text)
    [Anonymous Symbol]                       0x080018f4   Section        0  it.o(.text)
    [Anonymous Symbol]                       0x08001a6c   Section        0  remotedummy.o(.text)
    [Anonymous Symbol]                       0x08001b28   Section        0  gd32f10x_adc.o(.text)
    [Anonymous Symbol]                       0x08001fb8   Section        0  gd32f10x_dma.o(.text)
    [Anonymous Symbol]                       0x080023bc   Section        0  gd32f10x_fmc.o(.text)
    [Anonymous Symbol]                       0x080033f0   Section        0  gd32f10x_fwdgt.o(.text)
    [Anonymous Symbol]                       0x080034a8   Section        0  gd32f10x_gpio.o(.text)
    [Anonymous Symbol]                       0x08003724   Section        0  gd32f10x_misc.o(.text)
    [Anonymous Symbol]                       0x0800380c   Section        0  gd32f10x_rcu.o(.text)
    [Anonymous Symbol]                       0x08003de4   Section        0  gd32f10x_timer.o(.text)
    .text                                    0x08004b3c   Section       36  startup_gd32f10x_hd.o(.text)
    [Anonymous Symbol]                       0x08004b60   Section        0  system_gd32f10x.o(.text)
    .text                                    0x08004cc6   Section        0  fadd.o(.text)
    .text                                    0x08004d76   Section        0  fmul.o(.text)
    .text                                    0x08004dda   Section        0  fdiv.o(.text)
    .text                                    0x08004e56   Section        0  dadd.o(.text)
    .text                                    0x08004fa4   Section        0  dmul.o(.text)
    .text                                    0x08005088   Section        0  ddiv.o(.text)
    .text                                    0x08005166   Section        0  fcmple.o(.text)
    .text                                    0x08005182   Section        0  fcmplt.o(.text)
    .text                                    0x0800519e   Section        0  fcmpgt.o(.text)
    .text                                    0x080051ba   Section        0  dcmple.o(.text)
    .text                                    0x080051f0   Section        0  fflti.o(.text)
    .text                                    0x08005202   Section        0  ffltui.o(.text)
    .text                                    0x0800520c   Section        0  dflti.o(.text)
    .text                                    0x0800522e   Section        0  dfltui.o(.text)
    .text                                    0x08005248   Section        0  ffixi.o(.text)
    .text                                    0x0800527a   Section        0  ffixl.o(.text)
    .text                                    0x080052bc   Section        0  dfixi.o(.text)
    .text                                    0x080052fa   Section        0  f2d.o(.text)
    .text                                    0x08005320   Section        0  d2f.o(.text)
    .text                                    0x08005358   Section        0  llshl.o(.text)
    .text                                    0x08005376   Section        0  llushr.o(.text)
    .text                                    0x08005396   Section        0  llsshr.o(.text)
    .text                                    0x080053ba   Section        0  iusefp.o(.text)
    .text                                    0x080053ba   Section        0  fepilogue.o(.text)
    .text                                    0x08005428   Section        0  depilogue.o(.text)
    .text                                    0x080054e4   Section       48  init.o(.text)
    i.__scatterload_copy                     0x08005514   Section       14  handlers.o(i.__scatterload_copy)
    i.__scatterload_null                     0x08005522   Section        2  handlers.o(i.__scatterload_null)
    i.__scatterload_zeroinit                 0x08005524   Section       14  handlers.o(i.__scatterload_zeroinit)
    .L__const.up_or_down.up_down             0x08005532   Data          12  bldc.o(.rodata..L__const.up_or_down.up_down)
    .L__const.rcu_clock_freq_get.apb2_exp    0x0800553e   Data           8  gd32f10x_rcu.o(.rodata.cst8)
    STACK                                    0x20000168   Section     8192  startup_gd32f10x_hd.o(STACK)

    Global Symbols

    Symbol Name                              Value     Ov Type        Size  Object(Section)

    BuildAttributes$$THM_ISAv4$P$D$K$B$S$PE$A:L22UL41UL21$X:L11$S22US41US21$IEEE1$IW$~IW$USESV6$~STKCKD$USESV7$~SHL$OTIME$ROPI$EBA8$MICROLIB$REQ8$PRES8$EABIv2 0x00000000   Number         0  anon$$obj.o ABSOLUTE
    __cpp_initialize__aeabi_                  - Undefined Weak Reference
    __cxa_finalize                            - Undefined Weak Reference
    __decompress                              - Undefined Weak Reference
    _clock_init                               - Undefined Weak Reference
    _microlib_exit                            - Undefined Weak Reference
    __Vectors_Size                           0x00000130   Number         0  startup_gd32f10x_hd.o ABSOLUTE
    __Vectors                                0x08000000   Data           4  startup_gd32f10x_hd.o(RESET)
    __Vectors_End                            0x08000130   Data           0  startup_gd32f10x_hd.o(RESET)
    __main                                   0x08000131   Thumb Code     0  entry.o(.ARM.Collect$$$$00000000)
    _main_stk                                0x08000131   Thumb Code     0  entry2.o(.ARM.Collect$$$$00000001)
    _main_scatterload                        0x08000135   Thumb Code     0  entry5.o(.ARM.Collect$$$$00000004)
    __main_after_scatterload                 0x08000139   Thumb Code     0  entry5.o(.ARM.Collect$$$$00000004)
    _main_clock                              0x08000139   Thumb Code     0  entry7b.o(.ARM.Collect$$$$00000008)
    _main_cpp_init                           0x08000139   Thumb Code     0  entry8b.o(.ARM.Collect$$$$0000000A)
    _main_init                               0x08000139   Thumb Code     0  entry9a.o(.ARM.Collect$$$$0000000B)
    __rt_final_cpp                           0x08000141   Thumb Code     0  entry10a.o(.ARM.Collect$$$$0000000D)
    __rt_final_exit                          0x08000141   Thumb Code     0  entry11a.o(.ARM.Collect$$$$0000000F)
    main                                     0x08000145   Thumb Code  1712  main.o(.text)
    ShutOff                                  0x080007f5   Thumb Code   144  main.o(.text)
    ShowBatteryState                         0x08000885   Thumb Code   160  main.o(.text)
    modulo                                   0x08000925   Thumb Code    22  bldc.o(.text)
    up_or_down                               0x0800093d   Thumb Code    66  bldc.o(.text)
    SetEnable                                0x08000981   Thumb Code    12  bldc.o(.text)
    SetBldcInput                             0x0800098d   Thumb Code    92  bldc.o(.text)
    SetFilter                                0x080009e9   Thumb Code    44  bldc.o(.text)
    CalculateBLDC                            0x08000a15   Thumb Code  1560  bldc.o(.text)
    PID_Init                                 0x0800102d   Thumb Code   124  driver.o(.text)
    PID_Update                               0x080010a9   Thumb Code   120  driver.o(.text)
    DriverInit                               0x08001121   Thumb Code    80  driver.o(.text)
    Driver                                   0x08001189   Thumb Code   174  driver.o(.text)
    bldc_get_pwm                             0x08001239   Thumb Code   106  bldcbc.o(.text)
    InitBldc                                 0x080012a5   Thumb Code     2  bldcbc.o(.text)
    Interrupt_init                           0x080012a9   Thumb Code     8  setup.o(.text)
    Watchdog_init                            0x080012b1   Thumb Code    44  setup.o(.text)
    TimeoutTimer_init                        0x080012dd   Thumb Code    94  setup.o(.text)
    GPIO_init                                0x0800133d   Thumb Code   296  setup.o(.text)
    PWM_init                                 0x08001465   Thumb Code   362  setup.o(.text)
    ADC_init                                 0x080015d1   Thumb Code   276  setup.o(.text)
    USART0_Init                              0x080016e5   Thumb Code     2  setup.o(.text)
    USART1_Init                              0x080016e9   Thumb Code     2  setup.o(.text)
    USART2_Init                              0x080016ed   Thumb Code     2  setup.o(.text)
    flashErase                               0x080016f1   Thumb Code    30  setup.o(.text)
    flashRead                                0x08001711   Thumb Code     4  setup.o(.text)
    flashWrite                               0x08001715   Thumb Code    54  setup.o(.text)
    flashWriteBuffer                         0x0800174d   Thumb Code    84  setup.o(.text)
    flashReadBuffer                          0x080017a1   Thumb Code    34  setup.o(.text)
    ConfigReset                              0x080017c5   Thumb Code    38  setup.o(.text)
    ConfigWrite                              0x080017ed   Thumb Code   144  setup.o(.text)
    ConfigRead                               0x0800187d   Thumb Code   120  setup.o(.text)
    SysTick_Handler                          0x080018f5   Thumb Code    16  it.o(.text)
    ResetTimeout                             0x08001905   Thumb Code    14  it.o(.text)
    TIMER3_IRQHandler                        0x08001915   Thumb Code    76  it.o(.text)
    TIMER0_UP_IRQHandler                     0x08001961   Thumb Code    92  it.o(.text)
    DMA0_Channel0_IRQHandler                 0x080019bd   Thumb Code   102  it.o(.text)
    millis                                   0x08001a25   Thumb Code    12  it.o(.text)
    Delay                                    0x08001a31   Thumb Code    28  it.o(.text)
    NMI_Handler                              0x08001a4d   Thumb Code     2  it.o(.text)
    HardFault_Handler                        0x08001a51   Thumb Code     2  it.o(.text)
    MemManage_Handler                        0x08001a55   Thumb Code     2  it.o(.text)
    BusFault_Handler                         0x08001a59   Thumb Code     2  it.o(.text)
    UsageFault_Handler                       0x08001a5d   Thumb Code     2  it.o(.text)
    SVC_Handler                              0x08001a61   Thumb Code     2  it.o(.text)
    DebugMon_Handler                         0x08001a65   Thumb Code     2  it.o(.text)
    PendSV_Handler                           0x08001a69   Thumb Code     2  it.o(.text)
    RemoteUpdate                             0x08001a6d   Thumb Code   164  remotedummy.o(.text)
    RemoteCallback                           0x08001b21   Thumb Code     2  remotedummy.o(.text)
    RemoteCalculate                          0x08001b25   Thumb Code     2  remotedummy.o(.text)
    adc_deinit                               0x08001b29   Thumb Code    72  gd32f10x_adc.o(.text)
    adc_mode_config                          0x08001b71   Thumb Code    24  gd32f10x_adc.o(.text)
    adc_special_function_config              0x08001b89   Thumb Code    90  gd32f10x_adc.o(.text)
    adc_data_alignment_config                0x08001be5   Thumb Code    18  gd32f10x_adc.o(.text)
    adc_enable                               0x08001bf9   Thumb Code    18  gd32f10x_adc.o(.text)
    adc_disable                              0x08001c0d   Thumb Code    10  gd32f10x_adc.o(.text)
    adc_calibration_enable                   0x08001c19   Thumb Code    32  gd32f10x_adc.o(.text)
    adc_tempsensor_vrefint_enable            0x08001c39   Thumb Code    18  gd32f10x_adc.o(.text)
    adc_tempsensor_vrefint_disable           0x08001c4d   Thumb Code    18  gd32f10x_adc.o(.text)
    adc_dma_mode_enable                      0x08001c61   Thumb Code    10  gd32f10x_adc.o(.text)
    adc_dma_mode_disable                     0x08001c6d   Thumb Code    10  gd32f10x_adc.o(.text)
    adc_discontinuous_mode_config            0x08001c79   Thumb Code    60  gd32f10x_adc.o(.text)
    adc_channel_length_config                0x08001cb5   Thumb Code    58  gd32f10x_adc.o(.text)
    adc_regular_channel_config               0x08001cf1   Thumb Code   116  gd32f10x_adc.o(.text)
    adc_inserted_channel_config              0x08001d65   Thumb Code   100  gd32f10x_adc.o(.text)
    adc_inserted_channel_offset_config       0x08001dc9   Thumb Code    26  gd32f10x_adc.o(.text)
    adc_external_trigger_source_config       0x08001de5   Thumb Code    34  gd32f10x_adc.o(.text)
    adc_external_trigger_config              0x08001e09   Thumb Code    62  gd32f10x_adc.o(.text)
    adc_software_trigger_enable              0x08001e49   Thumb Code    28  gd32f10x_adc.o(.text)
    adc_regular_data_read                    0x08001e65   Thumb Code     6  gd32f10x_adc.o(.text)
    adc_inserted_data_read                   0x08001e6d   Thumb Code    20  gd32f10x_adc.o(.text)
    adc_sync_mode_convert_value_read         0x08001e81   Thumb Code    12  gd32f10x_adc.o(.text)
    adc_watchdog_single_channel_enable       0x08001e8d   Thumb Code    34  gd32f10x_adc.o(.text)
    adc_watchdog_group_channel_enable        0x08001eb1   Thumb Code    40  gd32f10x_adc.o(.text)
    adc_watchdog_disable                     0x08001ee5   Thumb Code    16  gd32f10x_adc.o(.text)
    adc_watchdog_threshold_config            0x08001ef5   Thumb Code    14  gd32f10x_adc.o(.text)
    adc_flag_get                             0x08001f05   Thumb Code    10  gd32f10x_adc.o(.text)
    adc_flag_clear                           0x08001f11   Thumb Code    10  gd32f10x_adc.o(.text)
    adc_regular_software_startconv_flag_get  0x08001f1d   Thumb Code     8  gd32f10x_adc.o(.text)
    adc_inserted_software_startconv_flag_get 0x08001f25   Thumb Code     8  gd32f10x_adc.o(.text)
    adc_interrupt_flag_get                   0x08001f2d   Thumb Code    48  gd32f10x_adc.o(.text)
    adc_interrupt_flag_clear                 0x08001f5d   Thumb Code    10  gd32f10x_adc.o(.text)
    adc_interrupt_enable                     0x08001f69   Thumb Code    40  gd32f10x_adc.o(.text)
    adc_interrupt_disable                    0x08001f91   Thumb Code    40  gd32f10x_adc.o(.text)
    dma_deinit                               0x08001fb9   Thumb Code    60  gd32f10x_dma.o(.text)
    dma_struct_para_init                     0x08001ff5   Thumb Code    20  gd32f10x_dma.o(.text)
    dma_init                                 0x08002009   Thumb Code   116  gd32f10x_dma.o(.text)
    dma_circulation_enable                   0x0800207d   Thumb Code    36  gd32f10x_dma.o(.text)
    dma_circulation_disable                  0x080020a1   Thumb Code    36  gd32f10x_dma.o(.text)
    dma_memory_to_memory_enable              0x080020c5   Thumb Code    36  gd32f10x_dma.o(.text)
    dma_memory_to_memory_disable             0x080020e9   Thumb Code    36  gd32f10x_dma.o(.text)
    dma_channel_enable                       0x0800210d   Thumb Code    36  gd32f10x_dma.o(.text)
    dma_channel_disable                      0x08002131   Thumb Code    36  gd32f10x_dma.o(.text)
    dma_periph_address_config                0x08002155   Thumb Code    30  gd32f10x_dma.o(.text)
    dma_memory_address_config                0x08002175   Thumb Code    30  gd32f10x_dma.o(.text)
    dma_transfer_number_config               0x08002195   Thumb Code    32  gd32f10x_dma.o(.text)
    dma_transfer_number_get                  0x080021b5   Thumb Code    30  gd32f10x_dma.o(.text)
    dma_priority_config                      0x080021d5   Thumb Code    38  gd32f10x_dma.o(.text)
    dma_memory_width_config                  0x080021fd   Thumb Code    38  gd32f10x_dma.o(.text)
    dma_periph_width_config                  0x08002225   Thumb Code    38  gd32f10x_dma.o(.text)
    dma_memory_increase_enable               0x0800224d   Thumb Code    36  gd32f10x_dma.o(.text)
    dma_memory_increase_disable              0x08002271   Thumb Code    36  gd32f10x_dma.o(.text)
    dma_periph_increase_enable               0x08002295   Thumb Code    36  gd32f10x_dma.o(.text)
    dma_periph_increase_disable              0x080022b9   Thumb Code    36  gd32f10x_dma.o(.text)
    dma_transfer_direction_config            0x080022dd   Thumb Code    42  gd32f10x_dma.o(.text)
    dma_flag_get                             0x08002309   Thumb Code    16  gd32f10x_dma.o(.text)
    dma_flag_clear                           0x08002319   Thumb Code    14  gd32f10x_dma.o(.text)
    dma_interrupt_flag_get                   0x08002329   Thumb Code    58  gd32f10x_dma.o(.text)
    dma_interrupt_flag_clear                 0x08002365   Thumb Code    14  gd32f10x_dma.o(.text)
    dma_interrupt_enable                     0x08002375   Thumb Code    34  gd32f10x_dma.o(.text)
    dma_interrupt_disable                    0x08002399   Thumb Code    34  gd32f10x_dma.o(.text)
    fmc_wscnt_set                            0x080023bd   Thumb Code    20  gd32f10x_fmc.o(.text)
    fmc_unlock                               0x080023d1   Thumb Code    80  gd32f10x_fmc.o(.text)
    fmc_bank0_unlock                         0x08002421   Thumb Code    38  gd32f10x_fmc.o(.text)
    fmc_bank1_unlock                         0x08002449   Thumb Code    38  gd32f10x_fmc.o(.text)
    fmc_lock                                 0x08002471   Thumb Code    44  gd32f10x_fmc.o(.text)
    fmc_bank0_lock                           0x0800249d   Thumb Code    18  gd32f10x_fmc.o(.text)
    fmc_bank1_lock                           0x080024b1   Thumb Code    18  gd32f10x_fmc.o(.text)
    fmc_page_erase                           0x080024c5   Thumb Code   462  gd32f10x_fmc.o(.text)
    fmc_bank0_ready_wait                     0x08002695   Thumb Code    68  gd32f10x_fmc.o(.text)
    fmc_bank1_ready_wait                     0x080026d9   Thumb Code    68  gd32f10x_fmc.o(.text)
    fmc_mass_erase                           0x0800271d   Thumb Code   458  gd32f10x_fmc.o(.text)
    fmc_bank0_erase                          0x080028e9   Thumb Code   150  gd32f10x_fmc.o(.text)
    fmc_bank1_erase                          0x08002981   Thumb Code   150  gd32f10x_fmc.o(.text)
    fmc_word_program                         0x08002a19   Thumb Code   424  gd32f10x_fmc.o(.text)
    fmc_halfword_program                     0x08002bc1   Thumb Code   424  gd32f10x_fmc.o(.text)
    ob_unlock                                0x08002d69   Thumb Code    44  gd32f10x_fmc.o(.text)
    ob_lock                                  0x08002d95   Thumb Code    18  gd32f10x_fmc.o(.text)
    ob_erase                                 0x08002da9   Thumb Code   270  gd32f10x_fmc.o(.text)
    ob_spc_get                               0x08002eb9   Thumb Code    16  gd32f10x_fmc.o(.text)
    ob_write_protection_enable               0x08002ec9   Thumb Code   380  gd32f10x_fmc.o(.text)
    ob_security_protection_config            0x08003045   Thumb Code   260  gd32f10x_fmc.o(.text)
    ob_user_write                            0x08003149   Thumb Code   184  gd32f10x_fmc.o(.text)
    ob_data_program                          0x08003201   Thumb Code   152  gd32f10x_fmc.o(.text)
    ob_user_get                              0x08003299   Thumb Code    16  gd32f10x_fmc.o(.text)
    ob_data_get                              0x080032a9   Thumb Code    16  gd32f10x_fmc.o(.text)
    ob_write_protection_get                  0x080032b9   Thumb Code    12  gd32f10x_fmc.o(.text)
    fmc_interrupt_enable                     0x080032c5   Thumb Code    30  gd32f10x_fmc.o(.text)
    fmc_interrupt_disable                    0x080032e5   Thumb Code    32  gd32f10x_fmc.o(.text)
    fmc_flag_get                             0x08003305   Thumb Code    26  gd32f10x_fmc.o(.text)
    fmc_flag_clear                           0x08003321   Thumb Code    30  gd32f10x_fmc.o(.text)
    fmc_interrupt_flag_get                   0x08003341   Thumb Code    72  gd32f10x_fmc.o(.text)
    fmc_interrupt_flag_clear                 0x08003389   Thumb Code    30  gd32f10x_fmc.o(.text)
    fmc_bank0_state_get                      0x080033a9   Thumb Code    36  gd32f10x_fmc.o(.text)
    fmc_bank1_state_get                      0x080033cd   Thumb Code    36  gd32f10x_fmc.o(.text)
    fwdgt_write_enable                       0x080033f1   Thumb Code    16  gd32f10x_fwdgt.o(.text)
    fwdgt_write_disable                      0x08003401   Thumb Code    14  gd32f10x_fwdgt.o(.text)
    fwdgt_enable                             0x08003411   Thumb Code    16  gd32f10x_fwdgt.o(.text)
    fwdgt_counter_reload                     0x08003421   Thumb Code    16  gd32f10x_fwdgt.o(.text)
    fwdgt_config                             0x08003431   Thumb Code   100  gd32f10x_fwdgt.o(.text)
    fwdgt_flag_get                           0x08003495   Thumb Code    18  gd32f10x_fwdgt.o(.text)
    gpio_deinit                              0x080034a9   Thumb Code    42  gd32f10x_gpio.o(.text)
    gpio_afio_deinit                         0x080034d5   Thumb Code    22  gd32f10x_gpio.o(.text)
    gpio_init                                0x080034ed   Thumb Code   170  gd32f10x_gpio.o(.text)
    gpio_bit_set                             0x08003599   Thumb Code     4  gd32f10x_gpio.o(.text)
    gpio_bit_reset                           0x0800359d   Thumb Code     4  gd32f10x_gpio.o(.text)
    gpio_bit_write                           0x080035a1   Thumb Code    12  gd32f10x_gpio.o(.text)
    gpio_port_write                          0x080035ad   Thumb Code     4  gd32f10x_gpio.o(.text)
    gpio_input_bit_get                       0x080035b1   Thumb Code    10  gd32f10x_gpio.o(.text)
    gpio_input_port_get                      0x080035bd   Thumb Code     6  gd32f10x_gpio.o(.text)
    gpio_output_bit_get                      0x080035c5   Thumb Code    10  gd32f10x_gpio.o(.text)
    gpio_output_port_get                     0x080035d1   Thumb Code     6  gd32f10x_gpio.o(.text)
    gpio_pin_remap_config                    0x080035d9   Thumb Code   128  gd32f10x_gpio.o(.text)
    gpio_exti_source_select                  0x08003659   Thumb Code   130  gd32f10x_gpio.o(.text)
    gpio_event_output_config                 0x080036dd   Thumb Code    22  gd32f10x_gpio.o(.text)
    gpio_event_output_enable                 0x080036f5   Thumb Code    16  gd32f10x_gpio.o(.text)
    gpio_event_output_disable                0x08003705   Thumb Code    16  gd32f10x_gpio.o(.text)
    gpio_pin_lock                            0x08003715   Thumb Code    16  gd32f10x_gpio.o(.text)
    nvic_priority_group_set                  0x08003725   Thumb Code    20  gd32f10x_misc.o(.text)
    nvic_irq_enable                          0x08003739   Thumb Code   100  gd32f10x_misc.o(.text)
    nvic_irq_disable                         0x0800379d   Thumb Code    28  gd32f10x_misc.o(.text)
    nvic_vector_table_set                    0x080037b9   Thumb Code    24  gd32f10x_misc.o(.text)
    system_lowpower_set                      0x080037d1   Thumb Code    16  gd32f10x_misc.o(.text)
    system_lowpower_reset                    0x080037e1   Thumb Code    18  gd32f10x_misc.o(.text)
    systick_clksource_set                    0x080037f5   Thumb Code    24  gd32f10x_misc.o(.text)
    rcu_deinit                               0x0800380d   Thumb Code   106  gd32f10x_rcu.o(.text)
    rcu_osci_stab_wait                       0x08003879   Thumb Code   264  gd32f10x_rcu.o(.text)
    rcu_periph_clock_enable                  0x08003981   Thumb Code    30  gd32f10x_rcu.o(.text)
    rcu_periph_clock_disable                 0x080039a1   Thumb Code    32  gd32f10x_rcu.o(.text)
    rcu_periph_clock_sleep_enable            0x080039c1   Thumb Code    30  gd32f10x_rcu.o(.text)
    rcu_periph_clock_sleep_disable           0x080039e1   Thumb Code    32  gd32f10x_rcu.o(.text)
    rcu_periph_reset_enable                  0x08003a01   Thumb Code    30  gd32f10x_rcu.o(.text)
    rcu_periph_reset_disable                 0x08003a21   Thumb Code    32  gd32f10x_rcu.o(.text)
    rcu_bkp_reset_enable                     0x08003a41   Thumb Code    18  gd32f10x_rcu.o(.text)
    rcu_bkp_reset_disable                    0x08003a55   Thumb Code    18  gd32f10x_rcu.o(.text)
    rcu_system_clock_source_config           0x08003a69   Thumb Code    20  gd32f10x_rcu.o(.text)
    rcu_system_clock_source_get              0x08003a7d   Thumb Code    16  gd32f10x_rcu.o(.text)
    rcu_ahb_clock_config                     0x08003a8d   Thumb Code    20  gd32f10x_rcu.o(.text)
    rcu_apb1_clock_config                    0x08003aa1   Thumb Code    20  gd32f10x_rcu.o(.text)
    rcu_apb2_clock_config                    0x08003ab5   Thumb Code    20  gd32f10x_rcu.o(.text)
    rcu_ckout0_config                        0x08003ac9   Thumb Code    20  gd32f10x_rcu.o(.text)
    rcu_pll_config                           0x08003add   Thumb Code    32  gd32f10x_rcu.o(.text)
    rcu_predv0_config                        0x08003afd   Thumb Code    26  gd32f10x_rcu.o(.text)
    rcu_adc_clock_config                     0x08003b19   Thumb Code    64  gd32f10x_rcu.o(.text)
    rcu_usb_clock_config                     0x08003b59   Thumb Code    20  gd32f10x_rcu.o(.text)
    rcu_rtc_clock_config                     0x08003b6d   Thumb Code    20  gd32f10x_rcu.o(.text)
    rcu_flag_get                             0x08003b81   Thumb Code    26  gd32f10x_rcu.o(.text)
    rcu_all_reset_flag_clear                 0x08003b9d   Thumb Code    18  gd32f10x_rcu.o(.text)
    rcu_interrupt_flag_get                   0x08003bb1   Thumb Code    26  gd32f10x_rcu.o(.text)
    rcu_interrupt_flag_clear                 0x08003bcd   Thumb Code    30  gd32f10x_rcu.o(.text)
    rcu_interrupt_enable                     0x08003bed   Thumb Code    30  gd32f10x_rcu.o(.text)
    rcu_interrupt_disable                    0x08003c0d   Thumb Code    32  gd32f10x_rcu.o(.text)
    rcu_osci_on                              0x08003c2d   Thumb Code    30  gd32f10x_rcu.o(.text)
    rcu_osci_off                             0x08003c4d   Thumb Code    32  gd32f10x_rcu.o(.text)
    rcu_osci_bypass_mode_enable              0x08003c6d   Thumb Code    64  gd32f10x_rcu.o(.text)
    rcu_osci_bypass_mode_disable             0x08003cad   Thumb Code    64  gd32f10x_rcu.o(.text)
    rcu_hxtal_clock_monitor_enable           0x08003ced   Thumb Code    18  gd32f10x_rcu.o(.text)
    rcu_hxtal_clock_monitor_disable          0x08003d01   Thumb Code    18  gd32f10x_rcu.o(.text)
    rcu_irc8m_adjust_value_set               0x08003d15   Thumb Code    18  gd32f10x_rcu.o(.text)
    rcu_deepsleep_voltage_set                0x08003d29   Thumb Code    16  gd32f10x_rcu.o(.text)
    rcu_clock_freq_get                       0x08003d39   Thumb Code   156  gd32f10x_rcu.o(.text)
    timer_deinit                             0x08003de5   Thumb Code   194  gd32f10x_timer.o(.text)
    timer_struct_para_init                   0x08003ea9   Thumb Code    18  gd32f10x_timer.o(.text)
    timer_init                               0x08003ebd   Thumb Code   288  gd32f10x_timer.o(.text)
    timer_enable                             0x08003fdd   Thumb Code    10  gd32f10x_timer.o(.text)
    timer_disable                            0x08003fe9   Thumb Code    10  gd32f10x_timer.o(.text)
    timer_auto_reload_shadow_enable          0x08003ff5   Thumb Code    10  gd32f10x_timer.o(.text)
    timer_auto_reload_shadow_disable         0x08004001   Thumb Code    10  gd32f10x_timer.o(.text)
    timer_update_event_enable                0x0800400d   Thumb Code    10  gd32f10x_timer.o(.text)
    timer_update_event_disable               0x08004019   Thumb Code    10  gd32f10x_timer.o(.text)
    timer_counter_alignment                  0x08004025   Thumb Code    16  gd32f10x_timer.o(.text)
    timer_counter_up_direction               0x08004035   Thumb Code    10  gd32f10x_timer.o(.text)
    timer_counter_down_direction             0x08004041   Thumb Code    10  gd32f10x_timer.o(.text)
    timer_prescaler_config                   0x0800404d   Thumb Code    18  gd32f10x_timer.o(.text)
    timer_repetition_value_config            0x08004061   Thumb Code     4  gd32f10x_timer.o(.text)
    timer_autoreload_value_config            0x08004065   Thumb Code     4  gd32f10x_timer.o(.text)
    timer_counter_value_config               0x08004069   Thumb Code     4  gd32f10x_timer.o(.text)
    timer_counter_read                       0x0800406d   Thumb Code     4  gd32f10x_timer.o(.text)
    timer_prescaler_read                     0x08004071   Thumb Code     6  gd32f10x_timer.o(.text)
    timer_single_pulse_mode_config           0x08004079   Thumb Code    28  gd32f10x_timer.o(.text)
    timer_update_source_config               0x08004095   Thumb Code    28  gd32f10x_timer.o(.text)
    timer_dma_enable                         0x080040b1   Thumb Code     8  gd32f10x_timer.o(.text)
    timer_dma_disable                        0x080040b9   Thumb Code    10  gd32f10x_timer.o(.text)
    timer_channel_dma_request_source_select  0x080040c5   Thumb Code    28  gd32f10x_timer.o(.text)
    timer_dma_transfer_config                0x080040e1   Thumb Code    24  gd32f10x_timer.o(.text)
    timer_event_software_generate            0x080040f9   Thumb Code     8  gd32f10x_timer.o(.text)
    timer_break_struct_para_init             0x08004101   Thumb Code    12  gd32f10x_timer.o(.text)
    timer_break_config                       0x0800410d   Thumb Code    38  gd32f10x_timer.o(.text)
    timer_break_enable                       0x08004135   Thumb Code    10  gd32f10x_timer.o(.text)
    timer_break_disable                      0x08004141   Thumb Code    10  gd32f10x_timer.o(.text)
    timer_automatic_output_enable            0x0800414d   Thumb Code    10  gd32f10x_timer.o(.text)
    timer_automatic_output_disable           0x08004159   Thumb Code    10  gd32f10x_timer.o(.text)
    timer_primary_output_config              0x08004165   Thumb Code    18  gd32f10x_timer.o(.text)
    timer_channel_control_shadow_config      0x08004179   Thumb Code    16  gd32f10x_timer.o(.text)
    timer_channel_control_shadow_update_config 0x08004189   Thumb Code    30  gd32f10x_timer.o(.text)
    timer_channel_output_struct_para_init    0x080041a9   Thumb Code    10  gd32f10x_timer.o(.text)
    timer_channel_output_config              0x080041b5   Thumb Code   532  gd32f10x_timer.o(.text)
    timer_channel_output_mode_config         0x080043c9   Thumb Code    56  gd32f10x_timer.o(.text)
    timer_channel_output_pulse_value_config  0x08004401   Thumb Code    16  gd32f10x_timer.o(.text)
    timer_channel_output_shadow_config       0x08004411   Thumb Code    56  gd32f10x_timer.o(.text)
    timer_channel_output_fast_config         0x08004449   Thumb Code    56  gd32f10x_timer.o(.text)
    timer_channel_output_clear_config        0x08004481   Thumb Code    56  gd32f10x_timer.o(.text)
    timer_channel_output_polarity_config     0x080044b9   Thumb Code    68  gd32f10x_timer.o(.text)
    timer_channel_complementary_output_polarity_config 0x080044fd   Thumb Code    56  gd32f10x_timer.o(.text)
    timer_channel_output_state_config        0x08004535   Thumb Code    68  gd32f10x_timer.o(.text)
    timer_channel_complementary_output_state_config 0x08004579   Thumb Code    56  gd32f10x_timer.o(.text)
    timer_channel_input_struct_para_init     0x080045b1   Thumb Code    12  gd32f10x_timer.o(.text)
    timer_input_capture_config               0x080045bd   Thumb Code   350  gd32f10x_timer.o(.text)
    timer_channel_input_capture_prescaler_config 0x0800471d   Thumb Code    56  gd32f10x_timer.o(.text)
    timer_channel_capture_value_register_read 0x08004755   Thumb Code    18  gd32f10x_timer.o(.text)
    timer_input_pwm_capture_config           0x08004769   Thumb Code   354  gd32f10x_timer.o(.text)
    timer_hall_mode_config                   0x080048cd   Thumb Code    28  gd32f10x_timer.o(.text)
    timer_input_trigger_source_select        0x080048e9   Thumb Code    16  gd32f10x_timer.o(.text)
    timer_master_output_trigger_source_select 0x080048f9   Thumb Code    16  gd32f10x_timer.o(.text)
    timer_slave_mode_select                  0x08004909   Thumb Code    16  gd32f10x_timer.o(.text)
    timer_master_slave_mode_config           0x08004919   Thumb Code    28  gd32f10x_timer.o(.text)
    timer_external_trigger_config            0x08004935   Thumb Code    34  gd32f10x_timer.o(.text)
    timer_quadrature_decoder_mode_config     0x08004959   Thumb Code    78  gd32f10x_timer.o(.text)
    timer_internal_clock_config              0x080049a9   Thumb Code    10  gd32f10x_timer.o(.text)
    timer_internal_trigger_as_external_clock_config 0x080049b5   Thumb Code    32  gd32f10x_timer.o(.text)
    timer_external_trigger_as_external_clock_config 0x080049d5   Thumb Code   172  gd32f10x_timer.o(.text)
    timer_external_clock_mode0_config        0x08004a81   Thumb Code    50  gd32f10x_timer.o(.text)
    timer_external_clock_mode1_config        0x08004ab5   Thumb Code    42  gd32f10x_timer.o(.text)
    timer_external_clock_mode1_disable       0x08004ae1   Thumb Code    10  gd32f10x_timer.o(.text)
    timer_interrupt_enable                   0x08004aed   Thumb Code     8  gd32f10x_timer.o(.text)
    timer_interrupt_disable                  0x08004af5   Thumb Code    10  gd32f10x_timer.o(.text)
    timer_interrupt_flag_get                 0x08004b01   Thumb Code    22  gd32f10x_timer.o(.text)
    timer_interrupt_flag_clear               0x08004b19   Thumb Code    10  gd32f10x_timer.o(.text)
    timer_flag_get                           0x08004b25   Thumb Code    10  gd32f10x_timer.o(.text)
    timer_flag_clear                         0x08004b31   Thumb Code    10  gd32f10x_timer.o(.text)
    Reset_Handler                            0x08004b3d   Thumb Code     8  startup_gd32f10x_hd.o(.text)
    ADC0_1_IRQHandler                        0x08004b57   Thumb Code     0  startup_gd32f10x_hd.o(.text)
    ADC2_IRQHandler                          0x08004b57   Thumb Code     0  startup_gd32f10x_hd.o(.text)
    CAN0_EWMC_IRQHandler                     0x08004b57   Thumb Code     0  startup_gd32f10x_hd.o(.text)
    CAN0_RX1_IRQHandler                      0x08004b57   Thumb Code     0  startup_gd32f10x_hd.o(.text)
    DMA0_Channel1_IRQHandler                 0x08004b57   Thumb Code     0  startup_gd32f10x_hd.o(.text)
    DMA0_Channel2_IRQHandler                 0x08004b57   Thumb Code     0  startup_gd32f10x_hd.o(.text)
    DMA0_Channel3_IRQHandler                 0x08004b57   Thumb Code     0  startup_gd32f10x_hd.o(.text)
    DMA0_Channel4_IRQHandler                 0x08004b57   Thumb Code     0  startup_gd32f10x_hd.o(.text)
    DMA0_Channel5_IRQHandler                 0x08004b57   Thumb Code     0  startup_gd32f10x_hd.o(.text)
    DMA0_Channel6_IRQHandler                 0x08004b57   Thumb Code     0  startup_gd32f10x_hd.o(.text)
    DMA1_Channel0_IRQHandler                 0x08004b57   Thumb Code     0  startup_gd32f10x_hd.o(.text)
    DMA1_Channel1_IRQHandler                 0x08004b57   Thumb Code     0  startup_gd32f10x_hd.o(.text)
    DMA1_Channel2_IRQHandler                 0x08004b57   Thumb Code     0  startup_gd32f10x_hd.o(.text)
    DMA1_Channel3_4_IRQHandler               0x08004b57   Thumb Code     0  startup_gd32f10x_hd.o(.text)
    EXMC_IRQHandler                          0x08004b57   Thumb Code     0  startup_gd32f10x_hd.o(.text)
    EXTI0_IRQHandler                         0x08004b57   Thumb Code     0  startup_gd32f10x_hd.o(.text)
    EXTI10_15_IRQHandler                     0x08004b57   Thumb Code     0  startup_gd32f10x_hd.o(.text)
    EXTI1_IRQHandler                         0x08004b57   Thumb Code     0  startup_gd32f10x_hd.o(.text)
    EXTI2_IRQHandler                         0x08004b57   Thumb Code     0  startup_gd32f10x_hd.o(.text)
    EXTI3_IRQHandler                         0x08004b57   Thumb Code     0  startup_gd32f10x_hd.o(.text)
    EXTI4_IRQHandler                         0x08004b57   Thumb Code     0  startup_gd32f10x_hd.o(.text)
    EXTI5_9_IRQHandler                       0x08004b57   Thumb Code     0  startup_gd32f10x_hd.o(.text)
    FMC_IRQHandler                           0x08004b57   Thumb Code     0  startup_gd32f10x_hd.o(.text)
    I2C0_ER_IRQHandler                       0x08004b57   Thumb Code     0  startup_gd32f10x_hd.o(.text)
    I2C0_EV_IRQHandler                       0x08004b57   Thumb Code     0  startup_gd32f10x_hd.o(.text)
    I2C1_ER_IRQHandler                       0x08004b57   Thumb Code     0  startup_gd32f10x_hd.o(.text)
    I2C1_EV_IRQHandler                       0x08004b57   Thumb Code     0  startup_gd32f10x_hd.o(.text)
    LVD_IRQHandler                           0x08004b57   Thumb Code     0  startup_gd32f10x_hd.o(.text)
    RCU_IRQHandler                           0x08004b57   Thumb Code     0  startup_gd32f10x_hd.o(.text)
    RTC_Alarm_IRQHandler                     0x08004b57   Thumb Code     0  startup_gd32f10x_hd.o(.text)
    RTC_IRQHandler                           0x08004b57   Thumb Code     0  startup_gd32f10x_hd.o(.text)
    SDIO_IRQHandler                          0x08004b57   Thumb Code     0  startup_gd32f10x_hd.o(.text)
    SPI0_IRQHandler                          0x08004b57   Thumb Code     0  startup_gd32f10x_hd.o(.text)
    SPI1_IRQHandler                          0x08004b57   Thumb Code     0  startup_gd32f10x_hd.o(.text)
    SPI2_IRQHandler                          0x08004b57   Thumb Code     0  startup_gd32f10x_hd.o(.text)
    TAMPER_IRQHandler                        0x08004b57   Thumb Code     0  startup_gd32f10x_hd.o(.text)
    TIMER0_BRK_IRQHandler                    0x08004b57   Thumb Code     0  startup_gd32f10x_hd.o(.text)
    TIMER0_Channel_IRQHandler                0x08004b57   Thumb Code     0  startup_gd32f10x_hd.o(.text)
    TIMER0_TRG_CMT_IRQHandler                0x08004b57   Thumb Code     0  startup_gd32f10x_hd.o(.text)
    TIMER1_IRQHandler                        0x08004b57   Thumb Code     0  startup_gd32f10x_hd.o(.text)
    TIMER2_IRQHandler                        0x08004b57   Thumb Code     0  startup_gd32f10x_hd.o(.text)
    TIMER4_IRQHandler                        0x08004b57   Thumb Code     0  startup_gd32f10x_hd.o(.text)
    TIMER5_IRQHandler                        0x08004b57   Thumb Code     0  startup_gd32f10x_hd.o(.text)
    TIMER6_IRQHandler                        0x08004b57   Thumb Code     0  startup_gd32f10x_hd.o(.text)
    TIMER7_BRK_IRQHandler                    0x08004b57   Thumb Code     0  startup_gd32f10x_hd.o(.text)
    TIMER7_Channel_IRQHandler                0x08004b57   Thumb Code     0  startup_gd32f10x_hd.o(.text)
    TIMER7_TRG_CMT_IRQHandler                0x08004b57   Thumb Code     0  startup_gd32f10x_hd.o(.text)
    TIMER7_UP_IRQHandler                     0x08004b57   Thumb Code     0  startup_gd32f10x_hd.o(.text)
    UART3_IRQHandler                         0x08004b57   Thumb Code     0  startup_gd32f10x_hd.o(.text)
    UART4_IRQHandler                         0x08004b57   Thumb Code     0  startup_gd32f10x_hd.o(.text)
    USART0_IRQHandler                        0x08004b57   Thumb Code     0  startup_gd32f10x_hd.o(.text)
    USART1_IRQHandler                        0x08004b57   Thumb Code     0  startup_gd32f10x_hd.o(.text)
    USART2_IRQHandler                        0x08004b57   Thumb Code     0  startup_gd32f10x_hd.o(.text)
    USBD_HP_CAN0_TX_IRQHandler               0x08004b57   Thumb Code     0  startup_gd32f10x_hd.o(.text)
    USBD_LP_CAN0_RX0_IRQHandler              0x08004b57   Thumb Code     0  startup_gd32f10x_hd.o(.text)
    USBD_WKUP_IRQHandler                     0x08004b57   Thumb Code     0  startup_gd32f10x_hd.o(.text)
    WWDGT_IRQHandler                         0x08004b57   Thumb Code     0  startup_gd32f10x_hd.o(.text)
    SystemInit                               0x08004b61   Thumb Code   266  system_gd32f10x.o(.text)
    SystemCoreClockUpdate                    0x08004c6d   Thumb Code    90  system_gd32f10x.o(.text)
    __aeabi_fadd                             0x08004cc7   Thumb Code   164  fadd.o(.text)
    __aeabi_fsub                             0x08004d6b   Thumb Code     6  fadd.o(.text)
    __aeabi_frsub                            0x08004d71   Thumb Code     6  fadd.o(.text)
    __aeabi_fmul                             0x08004d77   Thumb Code   100  fmul.o(.text)
    __aeabi_fdiv                             0x08004ddb   Thumb Code   124  fdiv.o(.text)
    __aeabi_dadd                             0x08004e57   Thumb Code   322  dadd.o(.text)
    __aeabi_dsub                             0x08004f99   Thumb Code     6  dadd.o(.text)
    __aeabi_drsub                            0x08004f9f   Thumb Code     6  dadd.o(.text)
    __aeabi_dmul                             0x08004fa5   Thumb Code   228  dmul.o(.text)
    __aeabi_ddiv                             0x08005089   Thumb Code   222  ddiv.o(.text)
    __aeabi_fcmple                           0x08005167   Thumb Code    28  fcmple.o(.text)
    __aeabi_fcmplt                           0x08005183   Thumb Code    28  fcmplt.o(.text)
    __aeabi_fcmpgt                           0x0800519f   Thumb Code    28  fcmpgt.o(.text)
    __aeabi_dcmple                           0x080051bb   Thumb Code    54  dcmple.o(.text)
    __aeabi_i2f                              0x080051f1   Thumb Code    18  fflti.o(.text)
    __aeabi_ui2f                             0x08005203   Thumb Code    10  ffltui.o(.text)
    __aeabi_i2d                              0x0800520d   Thumb Code    34  dflti.o(.text)
    __aeabi_ui2d                             0x0800522f   Thumb Code    26  dfltui.o(.text)
    __aeabi_f2iz                             0x08005249   Thumb Code    50  ffixi.o(.text)
    __aeabi_f2lz                             0x0800527b   Thumb Code    66  ffixl.o(.text)
    __aeabi_d2iz                             0x080052bd   Thumb Code    62  dfixi.o(.text)
    __aeabi_f2d                              0x080052fb   Thumb Code    38  f2d.o(.text)
    __aeabi_d2f                              0x08005321   Thumb Code    56  d2f.o(.text)
    __aeabi_llsl                             0x08005359   Thumb Code    30  llshl.o(.text)
    _ll_shift_l                              0x08005359   Thumb Code     0  llshl.o(.text)
    __aeabi_llsr                             0x08005377   Thumb Code    32  llushr.o(.text)
    _ll_ushift_r                             0x08005377   Thumb Code     0  llushr.o(.text)
    __aeabi_lasr                             0x08005397   Thumb Code    36  llsshr.o(.text)
    _ll_sshift_r                             0x08005397   Thumb Code     0  llsshr.o(.text)
    __I$use$fp                               0x080053bb   Thumb Code     0  iusefp.o(.text)
    _float_round                             0x080053bb   Thumb Code    18  fepilogue.o(.text)
    _float_epilogue                          0x080053cd   Thumb Code    92  fepilogue.o(.text)
    _double_round                            0x08005429   Thumb Code    30  depilogue.o(.text)
    _double_epilogue                         0x08005447   Thumb Code   156  depilogue.o(.text)
    __scatterload                            0x080054e5   Thumb Code    38  init.o(.text)
    __scatterload_rt2                        0x080054e5   Thumb Code     0  init.o(.text)
    __scatterload_copy                       0x08005515   Thumb Code    14  handlers.o(i.__scatterload_copy)
    __scatterload_null                       0x08005523   Thumb Code     2  handlers.o(i.__scatterload_null)
    __scatterload_zeroinit                   0x08005525   Thumb Code    14  handlers.o(i.__scatterload_zeroinit)
    hall_to_pos                              0x08005546   Data           8  bldc.o(.rodata.hall_to_pos)
    lookUpTableAngle                         0x08005550   Data         724  main.o(.rodata.lookUpTableAngle)
    Region$$Table$$Base                      0x08005824   Number         0  anon$$obj.o(Region$$Table)
    Region$$Table$$Limit                     0x08005844   Number         0  anon$$obj.o(Region$$Table)
    SystemCoreClock                          0x20000000   Data           4  system_gd32f10x.o(.data.SystemCoreClock)
    batteryVoltage                           0x20000004   Data           4  bldc.o(.data.batteryVoltage)
    beepsBackwards                           0x20000008   Data           1  main.o(.data.beepsBackwards)
    currentDC                                0x2000000c   Data           4  bldc.o(.data.currentDC)
    iDrivingMode                             0x20000010   Data           1  main.o(.data.iDrivingMode)
    iFILTER_SHIFT                            0x20000011   Data           1  bldc.o(.data.iFILTER_SHIFT)
    offsetdc                                 0x20000012   Data           2  bldc.o(.data.offsetdc)
    revs32Scale                              0x20000014   Data           4  bldc.o(.data.revs32Scale)
    revs32ScaleSlow                          0x20000018   Data           4  bldc.o(.data.revs32ScaleSlow)
    speedLimit                               0x2000001c   Data           2  main.o(.data.speedLimit)
    wState                                   0x2000001e   Data           1  main.o(.data.wState)
    adc_buffer                               0x20000020   Data           4  bldc.o(.bss.adc_buffer)
    bPilotTimeout                            0x20000024   Data           1  main.o(.bss.bPilotTimeout)
    bRemoteTimeout                           0x20000025   Data           1  main.o(.bss.bRemoteTimeout)
    bldc_enable                              0x20000026   Data           1  bldc.o(.bss.bldc_enable)
    bldc_inputFilterPwm                      0x20000028   Data           4  bldc.o(.bss.bldc_inputFilterPwm)
    bldc_outputFilterPwm                     0x2000002c   Data           4  bldc.o(.bss.bldc_outputFilterPwm)
    buzzerFreq                               0x20000030   Data           1  bldc.o(.bss.buzzerFreq)
    buzzerPattern                            0x20000031   Data           1  bldc.o(.bss.buzzerPattern)
    buzzerTimer                              0x20000032   Data           2  bldc.o(.bss.buzzerTimer)
    buzzerToggle                             0x20000034   Data           1  bldc.o(.bss.buzzerToggle)
    dma_init_struct_adc                      0x20000038   Data          28  setup.o(.bss.dma_init_struct_adc)
    enable                                   0x20000054   Data           1  main.o(.bss.enable)
    filter_reg                               0x20000058   Data           4  bldc.o(.bss.filter_reg)
    hall                                     0x2000005c   Data           1  bldc.o(.bss.hall)
    hall_a                                   0x2000005d   Data           1  bldc.o(.bss.hall_a)
    hall_b                                   0x2000005e   Data           1  bldc.o(.bss.hall_b)
    hall_c                                   0x2000005f   Data           1  bldc.o(.bss.hall_c)
    iAdcCounter                              0x20000060   Data           4  it.o(.bss.iAdcCounter)
    iAdcRate                                 0x20000064   Data           4  it.o(.bss.iAdcRate)
    iAdcTime                                 0x20000068   Data           4  it.o(.bss.iAdcTime)
    iBldcInput                               0x2000006c   Data           4  bldc.o(.bss.iBldcInput)
    iBug                                     0x20000070   Data           4  main.o(.bss.iBug)
    iBuzzCounter                             0x20000074   Data           4  bldc.o(.bss.iBuzzCounter)
    iBuzzRate                                0x20000078   Data           4  bldc.o(.bss.iBuzzRate)
    iBuzzTime                                0x2000007c   Data           4  bldc.o(.bss.iBuzzTime)
    iDrivingModeOverride                     0x20000080   Data           1  bldc.o(.bss.iDrivingModeOverride)
    iOdom                                    0x20000084   Data           4  bldc.o(.bss.iOdom)
    iOdomLast                                0x20000088   Data           4  bldc.o(.bss.iOdomLast)
    iPwmCounter                              0x2000008c   Data           4  it.o(.bss.iPwmCounter)
    iPwmRate                                 0x20000090   Data           4  it.o(.bss.iPwmRate)
    iPwmTime                                 0x20000094   Data           4  it.o(.bss.iPwmTime)
    iTimeNextLoop                            0x20000098   Data           4  main.o(.bss.iTimeNextLoop)
    inactivity_timeout_counter               0x2000009c   Data           4  main.o(.bss.inactivity_timeout_counter)
    lastPos                                  0x200000a0   Data           1  bldc.o(.bss.lastPos)
    msTicks                                  0x200000a4   Data           4  it.o(.bss.msTicks)
    oConfig                                  0x200000a8   Data          20  setup.o(.bss.oConfig)
    offsetcount                              0x200000bc   Data           2  bldc.o(.bss.offsetcount)
    pid                                      0x200000c0   Data          40  driver.o(.bss.pid)
    pos                                      0x200000e8   Data           1  bldc.o(.bss.pos)
    pwmSlave                                 0x200000ea   Data           2  main.o(.bss.pwmSlave)
    realSpeed                                0x200000ec   Data           4  bldc.o(.bss.realSpeed)
    revs32                                   0x200000f0   Data           4  bldc.o(.bss.revs32)
    revs32_reg                               0x200000f4   Data           4  bldc.o(.bss.revs32_reg)
    revs32x                                  0x200000f8   Data           4  bldc.o(.bss.revs32x)
    speed                                    0x200000fc   Data           4  main.o(.bss.speed)
    speedCounter                             0x20000100   Data           4  bldc.o(.bss.speedCounter)
    speedCounterLog                          0x20000104   Data           4  bldc.o(.bss.speedCounterLog)
    speedCounterSlow                         0x20000108   Data           4  bldc.o(.bss.speedCounterSlow)
    speedCounterSlowLog                      0x2000010c   Data           4  bldc.o(.bss.speedCounterSlowLog)
    speedShutoff                             0x20000110   Data           4  main.o(.bss.speedShutoff)
    steer                                    0x20000114   Data           4  main.o(.bss.steer)
    steerCounter                             0x20000118   Data           4  main.o(.bss.steerCounter)
    timedOut                                 0x2000011c   Data           1  it.o(.bss.timedOut)
    timeoutCounter_ms                        0x20000120   Data           4  it.o(.bss.timeoutCounter_ms)
    timeoutTimer_paramter_struct             0x20000124   Data          16  setup.o(.bss.timeoutTimer_paramter_struct)
    timerBldc_break_parameter_struct         0x20000134   Data          14  setup.o(.bss.timerBldc_break_parameter_struct)
    timerBldc_oc_parameter_struct            0x20000142   Data          12  setup.o(.bss.timerBldc_oc_parameter_struct)
    timerBldc_paramter_struct                0x20000150   Data          16  setup.o(.bss.timerBldc_paramter_struct)
    torque32                                 0x20000160   Data           4  bldc.o(.bss.torque32)
    torque32_reg                             0x20000164   Data           4  bldc.o(.bss.torque32_reg)
    __initial_sp                             0x20002168   Data           0  startup_gd32f10x_hd.o(STACK)



==============================================================================

Memory Map of the image

  Image Entry point : 0x08000131

  Load Region LR_IROM1 (Base: 0x08000000, Size: 0x00005868, Max: 0x00010000, ABSOLUTE)

    Execution Region ER_IROM1 (Exec base: 0x08000000, Load base: 0x08000000, Size: 0x00005844, Max: 0x00010000, ABSOLUTE)

    Exec Addr    Load Addr    Size         Type   Attr      Idx    E Section Name        Object

    0x08000000   0x08000000   0x00000130   Data   RO          311    RESET               startup_gd32f10x_hd.o
    0x08000130   0x08000130   0x00000000   Code   RO          327  * .ARM.Collect$$$$00000000  mc_w.l(entry.o)
    0x08000130   0x08000130   0x00000004   Code   RO          376    .ARM.Collect$$$$00000001  mc_w.l(entry2.o)
    0x08000134   0x08000134   0x00000004   Code   RO          379    .ARM.Collect$$$$00000004  mc_w.l(entry5.o)
    0x08000138   0x08000138   0x00000000   Code   RO          381    .ARM.Collect$$$$00000008  mc_w.l(entry7b.o)
    0x08000138   0x08000138   0x00000000   Code   RO          383    .ARM.Collect$$$$0000000A  mc_w.l(entry8b.o)
    0x08000138   0x08000138   0x00000008   Code   RO          384    .ARM.Collect$$$$0000000B  mc_w.l(entry9a.o)
    0x08000140   0x08000140   0x00000000   Code   RO          386    .ARM.Collect$$$$0000000D  mc_w.l(entry10a.o)
    0x08000140   0x08000140   0x00000000   Code   RO          388    .ARM.Collect$$$$0000000F  mc_w.l(entry11a.o)
    0x08000140   0x08000140   0x00000004   Code   RO          377    .ARM.Collect$$$$00002712  mc_w.l(entry2.o)
    0x08000144   0x08000144   0x000007e0   Code   RO            1    .text               main.o
    0x08000924   0x08000924   0x00000708   Code   RO           31    .text               bldc.o
    0x0800102c   0x0800102c   0x0000020a   Code   RO           82    .text               driver.o
    0x08001236   0x08001236   0x00000002   PAD
    0x08001238   0x08001238   0x0000006e   Code   RO           91    .text               bldcbc.o
    0x080012a6   0x080012a6   0x00000002   PAD
    0x080012a8   0x080012a8   0x0000064c   Code   RO          100    .text               setup.o
    0x080018f4   0x080018f4   0x00000176   Code   RO          119    .text               it.o
    0x08001a6a   0x08001a6a   0x00000002   PAD
    0x08001a6c   0x08001a6c   0x000000ba   Code   RO          157    .text               remotedummy.o
    0x08001b26   0x08001b26   0x00000002   PAD
    0x08001b28   0x08001b28   0x00000490   Code   RO          202    .text               gd32f10x_adc.o
    0x08001fb8   0x08001fb8   0x00000402   Code   RO          210    .text               gd32f10x_dma.o
    0x080023ba   0x080023ba   0x00000002   PAD
    0x080023bc   0x080023bc   0x00001034   Code   RO          226    .text               gd32f10x_fmc.o
    0x080033f0   0x080033f0   0x000000b6   Code   RO          235    .text               gd32f10x_fwdgt.o
    0x080034a6   0x080034a6   0x00000002   PAD
    0x080034a8   0x080034a8   0x0000027c   Code   RO          243    .text               gd32f10x_gpio.o
    0x08003724   0x08003724   0x000000e8   Code   RO          259    .text               gd32f10x_misc.o
    0x0800380c   0x0800380c   0x000005d8   Code   RO          275    .text               gd32f10x_rcu.o
    0x08003de4   0x08003de4   0x00000d56   Code   RO          284    .text               gd32f10x_timer.o
    0x08004b3a   0x08004b3a   0x00000002   PAD
    0x08004b3c   0x08004b3c   0x00000024   Code   RO          312    .text               startup_gd32f10x_hd.o
    0x08004b60   0x08004b60   0x00000166   Code   RO          318    .text               system_gd32f10x.o
    0x08004cc6   0x08004cc6   0x000000b0   Code   RO          338    .text               mf_w.l(fadd.o)
    0x08004d76   0x08004d76   0x00000064   Code   RO          340    .text               mf_w.l(fmul.o)
    0x08004dda   0x08004dda   0x0000007c   Code   RO          342    .text               mf_w.l(fdiv.o)
    0x08004e56   0x08004e56   0x0000014e   Code   RO          344    .text               mf_w.l(dadd.o)
    0x08004fa4   0x08004fa4   0x000000e4   Code   RO          346    .text               mf_w.l(dmul.o)
    0x08005088   0x08005088   0x000000de   Code   RO          348    .text               mf_w.l(ddiv.o)
    0x08005166   0x08005166   0x0000001c   Code   RO          350    .text               mf_w.l(fcmple.o)
    0x08005182   0x08005182   0x0000001c   Code   RO          352    .text               mf_w.l(fcmplt.o)
    0x0800519e   0x0800519e   0x0000001c   Code   RO          354    .text               mf_w.l(fcmpgt.o)
    0x080051ba   0x080051ba   0x00000036   Code   RO          356    .text               mf_w.l(dcmple.o)
    0x080051f0   0x080051f0   0x00000012   Code   RO          358    .text               mf_w.l(fflti.o)
    0x08005202   0x08005202   0x0000000a   Code   RO          360    .text               mf_w.l(ffltui.o)
    0x0800520c   0x0800520c   0x00000022   Code   RO          362    .text               mf_w.l(dflti.o)
    0x0800522e   0x0800522e   0x0000001a   Code   RO          364    .text               mf_w.l(dfltui.o)
    0x08005248   0x08005248   0x00000032   Code   RO          366    .text               mf_w.l(ffixi.o)
    0x0800527a   0x0800527a   0x00000042   Code   RO          368    .text               mf_w.l(ffixl.o)
    0x080052bc   0x080052bc   0x0000003e   Code   RO          370    .text               mf_w.l(dfixi.o)
    0x080052fa   0x080052fa   0x00000026   Code   RO          372    .text               mf_w.l(f2d.o)
    0x08005320   0x08005320   0x00000038   Code   RO          374    .text               mf_w.l(d2f.o)
    0x08005358   0x08005358   0x0000001e   Code   RO          390    .text               mc_w.l(llshl.o)
    0x08005376   0x08005376   0x00000020   Code   RO          392    .text               mc_w.l(llushr.o)
    0x08005396   0x08005396   0x00000024   Code   RO          394    .text               mc_w.l(llsshr.o)
    0x080053ba   0x080053ba   0x00000000   Code   RO          396    .text               mc_w.l(iusefp.o)
    0x080053ba   0x080053ba   0x0000006e   Code   RO          397    .text               mf_w.l(fepilogue.o)
    0x08005428   0x08005428   0x000000ba   Code   RO          399    .text               mf_w.l(depilogue.o)
    0x080054e2   0x080054e2   0x00000002   PAD
    0x080054e4   0x080054e4   0x00000030   Code   RO          401    .text               mc_w.l(init.o)
    0x08005514   0x08005514   0x0000000e   Code   RO          405    i.__scatterload_copy  mc_w.l(handlers.o)
    0x08005522   0x08005522   0x00000002   Code   RO          406    i.__scatterload_null  mc_w.l(handlers.o)
    0x08005524   0x08005524   0x0000000e   Code   RO          407    i.__scatterload_zeroinit  mc_w.l(handlers.o)
    0x08005532   0x08005532   0x0000000c   Data   RO           63    .rodata..L__const.up_or_down.up_down  bldc.o
    0x0800553e   0x0800553e   0x00000008   Data   RO          277    .rodata.cst8        gd32f10x_rcu.o
    0x08005546   0x08005546   0x00000008   Data   RO           64    .rodata.hall_to_pos  bldc.o
    0x0800554e   0x0800554e   0x00000002   PAD
    0x08005550   0x08005550   0x000002d4   Data   RO           19    .rodata.lookUpTableAngle  main.o
    0x08005824   0x08005824   0x00000020   Data   RO          404    Region$$Table       anon$$obj.o


    Execution Region RW_IRAM1 (Exec base: 0x20000000, Load base: 0x08005848, Size: 0x00002168, Max: 0x00005000, ABSOLUTE)

    Exec Addr    Load Addr    Size         Type   Attr      Idx    E Section Name        Object

    0x20000000   0x08005848   0x00000004   Data   RW          320    .data.SystemCoreClock  system_gd32f10x.o
    0x20000004   0x0800584c   0x00000004   Data   RW           33    .data.batteryVoltage  bldc.o
    0x20000008   0x08005850   0x00000001   Data   RW           16    .data.beepsBackwards  main.o
    0x20000009   0x08005851   0x00000003   PAD
    0x2000000c   0x08005854   0x00000004   Data   RW           34    .data.currentDC     bldc.o
    0x20000010   0x08005858   0x00000001   Data   RW            3    .data.iDrivingMode  main.o
    0x20000011   0x08005859   0x00000001   Data   RW           50    .data.iFILTER_SHIFT  bldc.o
    0x20000012   0x0800585a   0x00000002   Data   RW           53    .data.offsetdc      bldc.o
    0x20000014   0x0800585c   0x00000004   Data   RW           42    .data.revs32Scale   bldc.o
    0x20000018   0x08005860   0x00000004   Data   RW           43    .data.revs32ScaleSlow  bldc.o
    0x2000001c   0x08005864   0x00000002   Data   RW           11    .data.speedLimit    main.o
    0x2000001e   0x08005866   0x00000001   Data   RW           12    .data.wState        main.o
    0x2000001f   0x08005867   0x00000001   PAD
    0x20000020        -       0x00000004   Zero   RW           69    .bss.adc_buffer     bldc.o
    0x20000024        -       0x00000001   Zero   RW            5    .bss.bPilotTimeout  main.o
    0x20000025        -       0x00000001   Zero   RW            4    .bss.bRemoteTimeout  main.o
    0x20000026        -       0x00000001   Zero   RW           45    .bss.bldc_enable    bldc.o
    0x20000027   0x08005867   0x00000001   PAD
    0x20000028        -       0x00000004   Zero   RW           47    .bss.bldc_inputFilterPwm  bldc.o
    0x2000002c        -       0x00000004   Zero   RW           48    .bss.bldc_outputFilterPwm  bldc.o
    0x20000030        -       0x00000001   Zero   RW           59    .bss.buzzerFreq     bldc.o
    0x20000031        -       0x00000001   Zero   RW           60    .bss.buzzerPattern  bldc.o
    0x20000032        -       0x00000002   Zero   RW           51    .bss.buzzerTimer    bldc.o
    0x20000034        -       0x00000001   Zero   RW           58    .bss.buzzerToggle   bldc.o
    0x20000035   0x08005867   0x00000003   PAD
    0x20000038        -       0x0000001c   Zero   RW          106    .bss.dma_init_struct_adc  setup.o
    0x20000054        -       0x00000001   Zero   RW           20    .bss.enable         main.o
    0x20000055   0x08005867   0x00000003   PAD
    0x20000058        -       0x00000004   Zero   RW           65    .bss.filter_reg     bldc.o
    0x2000005c        -       0x00000001   Zero   RW           46    .bss.hall           bldc.o
    0x2000005d        -       0x00000001   Zero   RW           70    .bss.hall_a         bldc.o
    0x2000005e        -       0x00000001   Zero   RW           71    .bss.hall_b         bldc.o
    0x2000005f        -       0x00000001   Zero   RW           72    .bss.hall_c         bldc.o
    0x20000060        -       0x00000004   Zero   RW          131    .bss.iAdcCounter    it.o
    0x20000064        -       0x00000004   Zero   RW          133    .bss.iAdcRate       it.o
    0x20000068        -       0x00000004   Zero   RW          132    .bss.iAdcTime       it.o
    0x2000006c        -       0x00000004   Zero   RW           44    .bss.iBldcInput     bldc.o
    0x20000070        -       0x00000004   Zero   RW            6    .bss.iBug           main.o
    0x20000074        -       0x00000004   Zero   RW           66    .bss.iBuzzCounter   bldc.o
    0x20000078        -       0x00000004   Zero   RW           68    .bss.iBuzzRate      bldc.o
    0x2000007c        -       0x00000004   Zero   RW           67    .bss.iBuzzTime      bldc.o
    0x20000080        -       0x00000001   Zero   RW           49    .bss.iDrivingModeOverride  bldc.o
    0x20000081   0x08005867   0x00000003   PAD
    0x20000084        -       0x00000004   Zero   RW           61    .bss.iOdom          bldc.o
    0x20000088        -       0x00000004   Zero   RW           62    .bss.iOdomLast      bldc.o
    0x2000008c        -       0x00000004   Zero   RW          126    .bss.iPwmCounter    it.o
    0x20000090        -       0x00000004   Zero   RW          128    .bss.iPwmRate       it.o
    0x20000094        -       0x00000004   Zero   RW          127    .bss.iPwmTime       it.o
    0x20000098        -       0x00000004   Zero   RW           22    .bss.iTimeNextLoop  main.o
    0x2000009c        -       0x00000004   Zero   RW           18    .bss.inactivity_timeout_counter  main.o
    0x200000a0        -       0x00000001   Zero   RW           74    .bss.lastPos        bldc.o
    0x200000a1   0x08005867   0x00000003   PAD
    0x200000a4        -       0x00000004   Zero   RW          123    .bss.msTicks        it.o
    0x200000a8        -       0x00000014   Zero   RW          107    .bss.oConfig        setup.o
    0x200000bc        -       0x00000002   Zero   RW           52    .bss.offsetcount    bldc.o
    0x200000be   0x08005867   0x00000002   PAD
    0x200000c0        -       0x00000028   Zero   RW           84    .bss.pid            driver.o
    0x200000e8        -       0x00000001   Zero   RW           73    .bss.pos            bldc.o
    0x200000e9   0x08005867   0x00000001   PAD
    0x200000ea        -       0x00000002   Zero   RW           21    .bss.pwmSlave       main.o
    0x200000ec        -       0x00000004   Zero   RW           35    .bss.realSpeed      bldc.o
    0x200000f0        -       0x00000004   Zero   RW           36    .bss.revs32         bldc.o
    0x200000f4        -       0x00000004   Zero   RW           38    .bss.revs32_reg     bldc.o
    0x200000f8        -       0x00000004   Zero   RW           41    .bss.revs32x        bldc.o
    0x200000fc        -       0x00000004   Zero   RW            9    .bss.speed          main.o
    0x20000100        -       0x00000004   Zero   RW           54    .bss.speedCounter   bldc.o
    0x20000104        -       0x00000004   Zero   RW           56    .bss.speedCounterLog  bldc.o
    0x20000108        -       0x00000004   Zero   RW           55    .bss.speedCounterSlow  bldc.o
    0x2000010c        -       0x00000004   Zero   RW           57    .bss.speedCounterSlowLog  bldc.o
    0x20000110        -       0x00000004   Zero   RW           10    .bss.speedShutoff   main.o
    0x20000114        -       0x00000004   Zero   RW           14    .bss.steer          main.o
    0x20000118        -       0x00000004   Zero   RW            8    .bss.steerCounter   main.o
    0x2000011c        -       0x00000001   Zero   RW          122    .bss.timedOut       it.o
    0x2000011d   0x08005867   0x00000003   PAD
    0x20000120        -       0x00000004   Zero   RW          121    .bss.timeoutCounter_ms  it.o
    0x20000124        -       0x00000010   Zero   RW          102    .bss.timeoutTimer_paramter_struct  setup.o
    0x20000134        -       0x0000000e   Zero   RW          105    .bss.timerBldc_break_parameter_struct  setup.o
    0x20000142        -       0x0000000c   Zero   RW          104    .bss.timerBldc_oc_parameter_struct  setup.o
    0x2000014e   0x08005867   0x00000002   PAD
    0x20000150        -       0x00000010   Zero   RW          103    .bss.timerBldc_paramter_struct  setup.o
    0x20000160        -       0x00000004   Zero   RW           37    .bss.torque32       bldc.o
    0x20000164        -       0x00000004   Zero   RW           39    .bss.torque32_reg   bldc.o
    0x20000168        -       0x00002000   Zero   RW          309    STACK               startup_gd32f10x_hd.o


==============================================================================

Image component sizes


      Code (inc. data)   RO Data    RW Data    ZI Data      Debug   Object Name

      1800          0         20         19         95       4918   bldc.o
       110          6          0          0          0        953   bldcbc.o
       522         28          0          0         40       2826   driver.o
      1168         12          0          0          0       8244   gd32f10x_adc.o
      1026          0          0          0          0       7161   gd32f10x_dma.o
      4148          0          0          0          0      20412   gd32f10x_fmc.o
       182          0          0          0          0       1773   gd32f10x_fwdgt.o
       636          0          0          0          0       5053   gd32f10x_gpio.o
       232          0          0          0          0       3268   gd32f10x_misc.o
      1496         20          8          0          0      11583   gd32f10x_rcu.o
      3414         40          0          0          0      18238   gd32f10x_timer.o
       374          0          0          0         33       2958   it.o
      2016          0        724          5         33       7512   main.o
       186         16          0          0          0       1009   remotedummy.o
      1612          0          0          0        106       9464   setup.o
        36          8        304          0       8192        852   startup_gd32f10x_hd.o
       358          0          0          4          0       1467   system_gd32f10x.o

    ----------------------------------------------------------------------
     19330        130       1090         32       8520     107691   Object Totals
         0          0         32          0          0          0   (incl. Generated)
        14          0          2          4         21          0   (incl. Padding)

    ----------------------------------------------------------------------

      Code (inc. data)   RO Data    RW Data    ZI Data      Debug   Library Member Name

         0          0          0          0          0          0   entry.o
         0          0          0          0          0          0   entry10a.o
         0          0          0          0          0          0   entry11a.o
         8          4          0          0          0          0   entry2.o
         4          0          0          0          0          0   entry5.o
         0          0          0          0          0          0   entry7b.o
         0          0          0          0          0          0   entry8b.o
         8          4          0          0          0          0   entry9a.o
        30          0          0          0          0          0   handlers.o
        48         10          0          0          0         68   init.o
         0          0          0          0          0          0   iusefp.o
        30          0          0          0          0         68   llshl.o
        36          0          0          0          0         68   llsshr.o
        32          0          0          0          0         68   llushr.o
        56          0          0          0          0         88   d2f.o
       334          0          0          0          0        148   dadd.o
        54          0          0          0          0         80   dcmple.o
       222          0          0          0          0        100   ddiv.o
       186          0          0          0          0        176   depilogue.o
        62          0          0          0          0         80   dfixi.o
        34          0          0          0          0         76   dflti.o
        26          0          0          0          0         76   dfltui.o
       228          0          0          0          0         96   dmul.o
        38          0          0          0          0         68   f2d.o
       176          0          0          0          0        140   fadd.o
        28          0          0          0          0         68   fcmpgt.o
        28          0          0          0          0         68   fcmple.o
        28          0          0          0          0         68   fcmplt.o
       124          0          0          0          0         88   fdiv.o
       110          0          0          0          0        168   fepilogue.o
        50          0          0          0          0         68   ffixi.o
        66          0          0          0          0         76   ffixl.o
        18          0          0          0          0         68   fflti.o
        10          0          0          0          0         68   ffltui.o
       100          0          0          0          0         76   fmul.o

    ----------------------------------------------------------------------
      2176         18          0          0          0       2216   Library Totals
         2          0          0          0          0          0   (incl. Padding)

    ----------------------------------------------------------------------

      Code (inc. data)   RO Data    RW Data    ZI Data      Debug   Library Name

       196         18          0          0          0        272   mc_w.l
      1978          0          0          0          0       1944   mf_w.l

    ----------------------------------------------------------------------
      2176         18          0          0          0       2216   Library Totals

    ----------------------------------------------------------------------

==============================================================================


      Code (inc. data)   RO Data    RW Data    ZI Data      Debug   

     21506        148       1090         32       8520     108615   Grand Totals
     21506        148       1090         32       8520     108615   ELF Image Totals
     21506        148       1090         32          0          0   ROM Totals

==============================================================================

    Total RO  Size (Code + RO Data)                22596 (  22.07kB)
    Total RW  Size (RW Data + ZI Data)              8552 (   8.35kB)
    Total ROM Size (Code + RO Data + RW Data)      22628 (  22.10kB)

==============================================================================

