Component: Arm Compiler for Embedded 6.23 Tool: armlink [5f102400]

==============================================================================

Section Cross References

    main.o(.text) refers to setup.o(.text) for ConfigRead
    main.o(.text) refers to gd32e23x_gpio.o(.text) for gpio_bit_write
    main.o(.text) refers to i2c.o(.text) for I2C_Init
    main.o(.text) refers to imumpu6050.o(.text) for MPU_Init
    main.o(.text) refers to bldcsine.o(.text) for InitBldc
    main.o(.text) refers to driver.o(.text) for DriverInit
    main.o(.text) refers to gd32e23x_fwdgt.o(.text) for fwdgt_counter_reload
    main.o(.text) refers to it.o(.text) for Delay
    main.o(.text) refers to remotedummy.o(.text) for RemoteUpdate
    main.o(.text) refers to dflti.o(.text) for __aeabi_i2d
    main.o(.text) refers to ddiv.o(.text) for __aeabi_ddiv
    main.o(.text) refers to dadd.o(.text) for __aeabi_dsub
    main.o(.text) refers to dmul.o(.text) for __aeabi_dmul
    main.o(.text) refers to dfixi.o(.text) for __aeabi_d2iz
    main.o(.text) refers to ffltui.o(.text) for __aeabi_ui2f
    main.o(.text) refers to f2d.o(.text) for __aeabi_f2d
    main.o(.text) refers to d2f.o(.text) for __aeabi_d2f
    main.o(.text) refers to fflti.o(.text) for __aeabi_i2f
    main.o(.text) refers to fmul.o(.text) for __aeabi_fmul
    main.o(.text) refers to ffixi.o(.text) for __aeabi_f2iz
    main.o(.text) refers to fadd.o(.text) for __aeabi_fsub
    main.o(.text) refers to fdiv.o(.text) for __aeabi_fdiv
    main.o(.text) refers to fcmplt.o(.text) for __aeabi_fcmplt
    main.o(.text) refers to bldc.o(.text) for SetBldcInput
    main.o(.text) refers to fcmple.o(.text) for __aeabi_fcmple
    main.o(.text) refers to dcmple.o(.text) for __aeabi_dcmple
    main.o(.text) refers to main.o(.bss.iBug) for iBug
    main.o(.text) refers to system_gd32e23x.o(.data.SystemCoreClock) for SystemCoreClock
    main.o(.text) refers to main.o(.data.iDrivingMode) for iDrivingMode
    main.o(.text) refers to bldc.o(.bss.buzzerFreq) for buzzerFreq
    main.o(.text) refers to main.o(.bss.iTimeNextLoop) for iTimeNextLoop
    main.o(.text) refers to main.o(.bss.speedShutoff) for speedShutoff
    main.o(.text) refers to main.o(.bss.steerCounter) for steerCounter
    main.o(.text) refers to main.o(.bss.speed) for speed
    main.o(.text) refers to main.o(.bss.steer) for steer
    main.o(.text) refers to main.o(.bss.pwmSlave) for pwmSlave
    main.o(.text) refers to main.o(.data.speedLimit) for speedLimit
    main.o(.text) refers to main.o(.rodata.lookUpTableAngle) for lookUpTableAngle
    main.o(.text) refers to bldc.o(.data.batteryVoltage) for batteryVoltage
    main.o(.text) refers to main.o(.data.wState) for wState
    main.o(.text) refers to bldc.o(.bss.buzzerPattern) for buzzerPattern
    main.o(.text) refers to main.o(.bss.inactivity_timeout_counter) for inactivity_timeout_counter
    main.o(.text) refers to main.o(.bss.enable) for enable
    main.o(.text) refers to main.o(.bss.bPilotTimeout) for bPilotTimeout
    main.o(.text) refers to main.o(.bss.bRemoteTimeout) for bRemoteTimeout
    main.o(.ARM.exidx) refers to main.o(.text) for [Anonymous Symbol]
    bldc.o(.text) refers to bldc.o(.rodata..L__const.up_or_down.up_down) for [Anonymous Symbol]
    bldc.o(.text) refers to bldc.o(.bss.bldc_enable) for bldc_enable
    bldc.o(.text) refers to dflti.o(.text) for __aeabi_i2d
    bldc.o(.text) refers to ddiv.o(.text) for __aeabi_ddiv
    bldc.o(.text) refers to dmul.o(.text) for __aeabi_dmul
    bldc.o(.text) refers to dfixi.o(.text) for __aeabi_d2iz
    bldc.o(.text) refers to main.o(.data.iDrivingMode) for iDrivingMode
    bldc.o(.text) refers to system_gd32e23x.o(.data.SystemCoreClock) for SystemCoreClock
    bldc.o(.text) refers to bldc.o(.bss.iBldcInput) for iBldcInput
    bldc.o(.text) refers to bldc.o(.data.iFILTER_SHIFT) for iFILTER_SHIFT
    bldc.o(.text) refers to bldc.o(.bss.bldc_outputFilterPwm) for bldc_outputFilterPwm
    bldc.o(.text) refers to bldc.o(.bss.filter_reg) for filter_reg
    bldc.o(.text) refers to f2d.o(.text) for __aeabi_f2d
    bldc.o(.text) refers to dfltui.o(.text) for __aeabi_ui2d
    bldc.o(.text) refers to dadd.o(.text) for __aeabi_dadd
    bldc.o(.text) refers to d2f.o(.text) for __aeabi_d2f
    bldc.o(.text) refers to gd32e23x_gpio.o(.text) for gpio_bit_write
    bldc.o(.text) refers to fcmpgt.o(.text) for __aeabi_fcmpgt
    bldc.o(.text) refers to gd32e23x_timer.o(.text) for timer_automatic_output_disable
    bldc.o(.text) refers to driver.o(.text) for Driver
    bldc.o(.text) refers to bldcsine.o(.text) for bldc_get_pwm
    bldc.o(.text) refers to bldc.o(.bss.offsetcount) for offsetcount
    bldc.o(.text) refers to bldc.o(.data.offsetdc) for offsetdc
    bldc.o(.text) refers to bldc.o(.bss.adc_buffer) for adc_buffer
    bldc.o(.text) refers to bldc.o(.bss.buzzerTimer) for buzzerTimer
    bldc.o(.text) refers to bldc.o(.data.batteryVoltage) for batteryVoltage
    bldc.o(.text) refers to main.o(.bss.iBug) for iBug
    bldc.o(.text) refers to it.o(.bss.msTicks) for msTicks
    bldc.o(.text) refers to bldc.o(.bss.iBuzzTime) for iBuzzTime
    bldc.o(.text) refers to bldc.o(.bss.iBuzzCounter) for iBuzzCounter
    bldc.o(.text) refers to bldc.o(.bss.iBuzzRate) for iBuzzRate
    bldc.o(.text) refers to bldc.o(.bss.buzzerFreq) for buzzerFreq
    bldc.o(.text) refers to bldc.o(.bss.buzzerPattern) for buzzerPattern
    bldc.o(.text) refers to bldc.o(.bss.buzzerToggle) for buzzerToggle
    bldc.o(.text) refers to bldc.o(.data.currentDC) for currentDC
    bldc.o(.text) refers to it.o(.bss.timedOut) for timedOut
    bldc.o(.text) refers to bldc.o(.bss.iDrivingModeOverride) for iDrivingModeOverride
    bldc.o(.text) refers to bldc.o(.bss.bldc_inputFilterPwm) for bldc_inputFilterPwm
    bldc.o(.text) refers to bldc.o(.bss.hall_a) for hall_a
    bldc.o(.text) refers to bldc.o(.bss.hall_b) for hall_b
    bldc.o(.text) refers to bldc.o(.bss.hall_c) for hall_c
    bldc.o(.text) refers to bldc.o(.bss.hall) for hall
    bldc.o(.text) refers to bldc.o(.rodata.hall_to_pos) for hall_to_pos
    bldc.o(.text) refers to bldc.o(.bss.pos) for pos
    bldc.o(.text) refers to bldc.o(.bss.lastPos) for lastPos
    bldc.o(.text) refers to bldc.o(.bss.iOdom) for iOdom
    bldc.o(.text) refers to bldc.o(.bss.speedCounterSlow) for speedCounterSlow
    bldc.o(.text) refers to bldc.o(.bss.iOdomLast) for iOdomLast
    bldc.o(.text) refers to bldc.o(.bss.speedCounterSlowLog) for speedCounterSlowLog
    bldc.o(.text) refers to bldc.o(.data.revs32ScaleSlow) for revs32ScaleSlow
    bldc.o(.text) refers to bldc.o(.bss.revs32_reg) for revs32_reg
    bldc.o(.text) refers to bldc.o(.bss.revs32) for revs32
    bldc.o(.text) refers to bldc.o(.bss.torque32_reg) for torque32_reg
    bldc.o(.text) refers to bldc.o(.bss.torque32) for torque32
    bldc.o(.text) refers to bldc.o(.bss.speedCounter) for speedCounter
    bldc.o(.text) refers to bldc.o(.bss.realSpeed32_reg) for realSpeed32_reg
    bldc.o(.text) refers to bldc.o(.bss.realSpeed) for realSpeed
    bldc.o(.ARM.exidx) refers to bldc.o(.text) for [Anonymous Symbol]
    driver.o(.text) refers to fmul.o(.text) for __aeabi_fmul
    driver.o(.text) refers to ffixl.o(.text) for __aeabi_f2lz
    driver.o(.text) refers to ffixi.o(.text) for __aeabi_f2iz
    driver.o(.text) refers to fdiv.o(.text) for __aeabi_fdiv
    driver.o(.text) refers to llmul.o(.text) for __aeabi_lmul
    driver.o(.text) refers to fflti.o(.text) for __aeabi_i2f
    driver.o(.text) refers to main.o(.data.iDrivingMode) for iDrivingMode
    driver.o(.text) refers to driver.o(.bss.pid) for pid
    driver.o(.text) refers to system_gd32e23x.o(.data.SystemCoreClock) for SystemCoreClock
    driver.o(.text) refers to bldc.o(.bss.iOdom) for iOdom
    driver.o(.text) refers to bldc.o(.bss.torque32) for torque32
    driver.o(.text) refers to bldc.o(.bss.revs32) for revs32
    driver.o(.ARM.exidx) refers to driver.o(.text) for [Anonymous Symbol]
    bldcsine.o(.text) refers to gd32e23x_syscfg.o(.text) for syscfg_exti_line_config
    bldcsine.o(.text) refers to gd32e23x_exti.o(.text) for exti_init
    bldcsine.o(.text) refers to gd32e23x_misc.o(.text) for nvic_irq_enable
    bldcsine.o(.text) refers to gd32e23x_rcu.o(.text) for rcu_periph_clock_enable
    bldcsine.o(.text) refers to bldcsine.o(.bss.aHallEXTI) for aHallEXTI
    bldcsine.o(.text) refers to gd32e23x_gpio.o(.text) for gpio_input_bit_get
    bldcsine.o(.text) refers to bldcsine.o(.bss.bInterrupt) for bInterrupt
    bldcsine.o(.text) refers to bldcsine.o(.bss.hall_time_last) for hall_time_last
    bldcsine.o(.text) refers to bldc.o(.bss.buzzerTimer) for buzzerTimer
    bldcsine.o(.text) refers to bldcsine.o(.bss.hall_time_step) for hall_time_step
    bldcsine.o(.text) refers to bldc.o(.bss.hall) for hall
    bldcsine.o(.text) refers to bldcsine.o(.bss.hall_last) for hall_last
    bldcsine.o(.text) refers to bldcsine.o(.bss.pwmGo) for pwmGo
    bldcsine.o(.text) refers to bldcsine.o(.rodata.cst8) for [Anonymous Symbol]
    bldcsine.o(.text) refers to bldcsine.o(.bss.sector) for sector
    bldcsine.o(.text) refers to bldcsine.o(.bss.angle_deg_add) for angle_deg_add
    bldcsine.o(.text) refers to bldcsine.o(.bss.sector10x) for sector10x
    bldcsine.o(.text) refers to bldcsine.o(.bss.angle_deg) for angle_deg
    bldcsine.o(.text) refers to bldcsine.o(.bss.hall_time_step_LPR) for hall_time_step_LPR
    bldcsine.o(.text) refers to bldcsine.o(.bss.sectorChange) for sectorChange
    bldcsine.o(.text) refers to bldcsine.o(.bss.hall_time_step_LP) for hall_time_step_LP
    bldcsine.o(.text) refers to bldcsine.o(.bss.iDT) for iDT
    bldcsine.o(.text) refers to bldcsine.o(.bss.iAdd) for iAdd
    bldcsine.o(.text) refers to bldcsine.o(.rodata.sine_table) for [Anonymous Symbol]
    bldcsine.o(.text) refers to bldcsine.o(.bss.angle_deg_final) for angle_deg_final
    bldcsine.o(.text) refers to bldcsine.o(.bss.angle_idx) for angle_idx
    bldcsine.o(.ARM.exidx) refers to bldcsine.o(.text) for [Anonymous Symbol]
    setup.o(.text) refers to gd32e23x_gpio.o(.text) for gpio_mode_set
    setup.o(.text) refers to gd32e23x_rcu.o(.text) for rcu_flag_get
    setup.o(.text) refers to gd32e23x_fwdgt.o(.text) for fwdgt_config
    setup.o(.text) refers to gd32e23x_timer.o(.text) for timer_deinit
    setup.o(.text) refers to gd32e23x_misc.o(.text) for nvic_irq_enable
    setup.o(.text) refers to setup.o(.bss.timeoutTimer_paramter_struct) for timeoutTimer_paramter_struct
    setup.o(.text) refers to setup.o(.bss.timerBldc_paramter_struct) for timerBldc_paramter_struct
    setup.o(.text) refers to system_gd32e23x.o(.data.SystemCoreClock) for SystemCoreClock
    setup.o(.text) refers to setup.o(.bss.timerBldc_oc_parameter_struct) for timerBldc_oc_parameter_struct
    setup.o(.text) refers to setup.o(.bss.timerBldc_break_parameter_struct) for timerBldc_break_parameter_struct
    setup.o(.text) refers to gd32e23x_dma.o(.text) for dma_deinit
    setup.o(.text) refers to gd32e23x_adc.o(.text) for adc_channel_length_config
    setup.o(.text) refers to setup.o(.bss.dma_init_struct_adc) for dma_init_struct_adc
    setup.o(.text) refers to bldc.o(.bss.adc_buffer) for adc_buffer
    setup.o(.text) refers to gd32e23x_fmc.o(.text) for fmc_unlock
    setup.o(.text) refers to setup.o(.bss.oConfig) for oConfig
    setup.o(.text) refers to system_gd32e23x.o(.text) for SystemCoreClockUpdate
    setup.o(.text) refers to setup.o(.bss.pll_mul) for pll_mul
    setup.o(.text) refers to it.o(.text) for millis
    setup.o(.text) refers to setup.o(.bss.iTestClock) for iTestClock
    setup.o(.ARM.exidx) refers to setup.o(.text) for [Anonymous Symbol]
    it.o(.text) refers to it.o(.bss.msTicks) for msTicks
    it.o(.text) refers to it.o(.bss.timeoutCounter_ms) for timeoutCounter_ms
    it.o(.text) refers to gd32e23x_timer.o(.text) for timer_interrupt_flag_clear
    it.o(.text) refers to it.o(.bss.timedOut) for timedOut
    it.o(.text) refers to main.o(.bss.speed) for speed
    it.o(.text) refers to gd32e23x_adc.o(.text) for adc_software_trigger_enable
    it.o(.text) refers to it.o(.bss.TIMER0_BRK_UP_TRG_COM_IRQHandler.interrupt_toggle) for [Anonymous Symbol]
    it.o(.text) refers to it.o(.bss.iPwmTime) for iPwmTime
    it.o(.text) refers to it.o(.bss.iPwmCounter) for iPwmCounter
    it.o(.text) refers to it.o(.bss.iPwmRate) for iPwmRate
    it.o(.text) refers to gd32e23x_dma.o(.text) for dma_interrupt_flag_get
    it.o(.text) refers to bldc.o(.text) for CalculateBLDC
    it.o(.text) refers to it.o(.bss.iAdcTime) for iAdcTime
    it.o(.text) refers to it.o(.bss.iAdcCounter) for iAdcCounter
    it.o(.text) refers to it.o(.bss.iAdcRate) for iAdcRate
    it.o(.ARM.exidx) refers to it.o(.text) for [Anonymous Symbol]
    comms.o(.text) refers to gd32e23x_usart.o(.text) for usart_data_transmit
    comms.o(.ARM.exidx) refers to comms.o(.text) for [Anonymous Symbol]
    remotedummy.o(.text) refers to it.o(.text) for ResetTimeout
    remotedummy.o(.text) refers to main.o(.data.iDrivingMode) for iDrivingMode
    remotedummy.o(.text) refers to main.o(.bss.steer) for steer
    remotedummy.o(.text) refers to it.o(.bss.msTicks) for msTicks
    remotedummy.o(.text) refers to main.o(.bss.speed) for speed
    remotedummy.o(.ARM.exidx) refers to remotedummy.o(.text) for [Anonymous Symbol]
    i2c.o(.text) refers to gd32e23x_rcu.o(.text) for rcu_periph_clock_enable
    i2c.o(.text) refers to gd32e23x_gpio.o(.text) for gpio_mode_set
    i2c.o(.text) refers to gd32e23x_i2c.o(.text) for i2c_deinit
    i2c.o(.text) refers to printf8.o(i.__0sprintf$8) for __2sprintf
    i2c.o(.text) refers to segger_rtt.o(.text) for SEGGER_RTT_WriteString
    i2c.o(.text) refers to i2c.o(.data.iFound) for iFound
    i2c.o(.text) refers to i2c.o(.data.aiFound) for aiFound
    i2c.o(.text) refers to it.o(.text) for Delay
    i2c.o(.text) refers to i2c.o(.bss.aiDump) for aiDump
    i2c.o(.ARM.exidx) refers to i2c.o(.text) for [Anonymous Symbol]
    imumpu6050.o(.text) refers to gd32e23x_gpio.o(.text) for gpio_bit_write
    imumpu6050.o(.text) refers to imumpu6050.o(.bss.aiLowPass) for aiLowPass
    imumpu6050.o(.text) refers to imumpu6050.o(.bss.mpuStatus) for mpuStatus
    imumpu6050.o(.text) refers to i2c.o(.text) for i2c_readBytes
    imumpu6050.o(.text) refers to it.o(.text) for Delay
    imumpu6050.o(.text) refers to imumpu6050.o(.bss.mpuData) for mpuData
    imumpu6050.o(.ARM.exidx) refers to imumpu6050.o(.text) for [Anonymous Symbol]
    segger_rtt.o(.text) refers to memseta.o(.text) for __aeabi_memclr4
    segger_rtt.o(.text) refers to memcpya.o(.text) for __aeabi_memcpy
    segger_rtt.o(.text) refers to segger_rtt.o(.bss._SEGGER_RTT) for _SEGGER_RTT
    segger_rtt.o(.text) refers to segger_rtt.o(.rodata.str1.1) for [Anonymous Symbol]
    segger_rtt.o(.text) refers to segger_rtt.o(.bss._acUpBuffer) for [Anonymous Symbol]
    segger_rtt.o(.text) refers to segger_rtt.o(.bss._acDownBuffer) for [Anonymous Symbol]
    segger_rtt.o(.text) refers to segger_rtt.o(.rodata._DoInit._aInitStr) for [Anonymous Symbol]
    segger_rtt.o(.text) refers to strlen.o(.text) for strlen
    segger_rtt.o(.text) refers to segger_rtt.o(.rodata.cst16) for [Anonymous Symbol]
    segger_rtt.o(.text) refers to segger_rtt.o(.bss._ActiveTerminal) for [Anonymous Symbol]
    segger_rtt.o(.ARM.exidx) refers to segger_rtt.o(.text) for [Anonymous Symbol]
    gd32e23x_adc.o(.text) refers to gd32e23x_rcu.o(.text) for rcu_periph_reset_enable
    gd32e23x_adc.o(.ARM.exidx) refers to gd32e23x_adc.o(.text) for [Anonymous Symbol]
    gd32e23x_dma.o(.ARM.exidx) refers to gd32e23x_dma.o(.text) for [Anonymous Symbol]
    gd32e23x_exti.o(.ARM.exidx) refers to gd32e23x_exti.o(.text) for [Anonymous Symbol]
    gd32e23x_fmc.o(.ARM.exidx) refers to gd32e23x_fmc.o(.text) for [Anonymous Symbol]
    gd32e23x_fwdgt.o(.ARM.exidx) refers to gd32e23x_fwdgt.o(.text) for [Anonymous Symbol]
    gd32e23x_gpio.o(.text) refers to gd32e23x_rcu.o(.text) for rcu_periph_reset_enable
    gd32e23x_gpio.o(.text) refers to gd32e23x_gpio.o(.rodata..Lswitch.table.gpio_deinit.1) for [Anonymous Symbol]
    gd32e23x_gpio.o(.ARM.exidx) refers to gd32e23x_gpio.o(.text) for [Anonymous Symbol]
    gd32e23x_i2c.o(.text) refers to gd32e23x_rcu.o(.text) for rcu_periph_reset_enable
    gd32e23x_i2c.o(.ARM.exidx) refers to gd32e23x_i2c.o(.text) for [Anonymous Symbol]
    gd32e23x_misc.o(.ARM.exidx) refers to gd32e23x_misc.o(.text) for [Anonymous Symbol]
    gd32e23x_pmu.o(.text) refers to gd32e23x_rcu.o(.text) for rcu_periph_reset_enable
    gd32e23x_pmu.o(.text) refers to gd32e23x_pmu.o(.bss.pmu_to_deepsleepmode.reg_snap.0) for [Anonymous Symbol]
    gd32e23x_pmu.o(.text) refers to gd32e23x_pmu.o(.bss.pmu_to_deepsleepmode.reg_snap.1) for [Anonymous Symbol]
    gd32e23x_pmu.o(.text) refers to gd32e23x_pmu.o(.bss.pmu_to_deepsleepmode.reg_snap.2) for [Anonymous Symbol]
    gd32e23x_pmu.o(.ARM.exidx) refers to gd32e23x_pmu.o(.text) for [Anonymous Symbol]
    gd32e23x_rcu.o(.text) refers to gd32e23x_rcu.o(.rodata.cst8) for [Anonymous Symbol]
    gd32e23x_rcu.o(.ARM.exidx) refers to gd32e23x_rcu.o(.text) for [Anonymous Symbol]
    gd32e23x_syscfg.o(.text) refers to gd32e23x_rcu.o(.text) for rcu_periph_reset_enable
    gd32e23x_syscfg.o(.ARM.exidx) refers to gd32e23x_syscfg.o(.text) for [Anonymous Symbol]
    gd32e23x_timer.o(.text) refers to gd32e23x_rcu.o(.text) for rcu_periph_reset_enable
    gd32e23x_timer.o(.ARM.exidx) refers to gd32e23x_timer.o(.text) for [Anonymous Symbol]
    gd32e23x_usart.o(.text) refers to gd32e23x_rcu.o(.text) for rcu_periph_reset_enable
    gd32e23x_usart.o(.ARM.exidx) refers to gd32e23x_usart.o(.text) for [Anonymous Symbol]
    gd32e23x_wwdgt.o(.text) refers to gd32e23x_rcu.o(.text) for rcu_periph_reset_enable
    gd32e23x_wwdgt.o(.ARM.exidx) refers to gd32e23x_wwdgt.o(.text) for [Anonymous Symbol]
    startup_gd32e23x.o(RESET) refers to startup_gd32e23x.o(STACK) for __initial_sp
    startup_gd32e23x.o(RESET) refers to startup_gd32e23x.o(.text) for Reset_Handler
    startup_gd32e23x.o(RESET) refers to it.o(.text) for NMI_Handler
    startup_gd32e23x.o(RESET) refers to bldcsine.o(.text) for EXTI0_1_IRQHandler
    startup_gd32e23x.o(.text) refers to system_gd32e23x.o(.text) for SystemInit
    startup_gd32e23x.o(.text) refers to entry.o(.ARM.Collect$$$$00000000) for __main
    system_gd32e23x.o(.text) refers to gd32e23x_misc.o(.text) for nvic_vector_table_set
    system_gd32e23x.o(.text) refers to system_gd32e23x.o(.data.SystemCoreClock) for SystemCoreClock
    system_gd32e23x.o(.ARM.exidx) refers to system_gd32e23x.o(.text) for [Anonymous Symbol]
    entry.o(.ARM.Collect$$$$00000000) refers (Special) to entry10a.o(.ARM.Collect$$$$0000000D) for __rt_final_cpp
    entry.o(.ARM.Collect$$$$00000000) refers (Special) to entry11a.o(.ARM.Collect$$$$0000000F) for __rt_final_exit
    entry.o(.ARM.Collect$$$$00000000) refers (Special) to entry7b.o(.ARM.Collect$$$$00000008) for _main_clock
    entry.o(.ARM.Collect$$$$00000000) refers (Special) to entry8b.o(.ARM.Collect$$$$0000000A) for _main_cpp_init
    entry.o(.ARM.Collect$$$$00000000) refers (Special) to entry9a.o(.ARM.Collect$$$$0000000B) for _main_init
    entry.o(.ARM.Collect$$$$00000000) refers (Special) to entry5.o(.ARM.Collect$$$$00000004) for _main_scatterload
    entry.o(.ARM.Collect$$$$00000000) refers (Special) to entry2.o(.ARM.Collect$$$$00000001) for _main_stk
    printfb.o(i.__0fprintf$bare) refers to printfb.o(i._printf_core) for _printf_core
    printfb.o(i.__0fprintf$bare) refers to fputc.o(i.fputc) for fputc
    printfb.o(i.__0printf$bare) refers to printfb.o(i._printf_core) for _printf_core
    printfb.o(i.__0printf$bare) refers to fputc.o(i.fputc) for fputc
    printfb.o(i.__0printf$bare) refers to stdout.o(.data) for __stdout
    printfb.o(i.__0snprintf$bare) refers to printfb.o(i._printf_core) for _printf_core
    printfb.o(i.__0snprintf$bare) refers to printfb.o(i._snputc) for _snputc
    printfb.o(i.__0sprintf$bare) refers to printfb.o(i._printf_core) for _printf_core
    printfb.o(i.__0sprintf$bare) refers to printfb.o(i._sputc) for _sputc
    printfb.o(i.__0vfprintf$bare) refers to printfb.o(i._printf_core) for _printf_core
    printfb.o(i.__0vfprintf$bare) refers to fputc.o(i.fputc) for fputc
    printfb.o(i.__0vprintf$bare) refers to printfb.o(i._printf_core) for _printf_core
    printfb.o(i.__0vprintf$bare) refers to fputc.o(i.fputc) for fputc
    printfb.o(i.__0vprintf$bare) refers to stdout.o(.data) for __stdout
    printfb.o(i.__0vsnprintf$bare) refers to printfb.o(i._printf_core) for _printf_core
    printfb.o(i.__0vsnprintf$bare) refers to printfb.o(i._snputc) for _snputc
    printfb.o(i.__0vsprintf$bare) refers to printfb.o(i._printf_core) for _printf_core
    printfb.o(i.__0vsprintf$bare) refers to printfb.o(i._sputc) for _sputc
    printf0.o(i.__0fprintf$0) refers to printf0.o(i._printf_core) for _printf_core
    printf0.o(i.__0fprintf$0) refers to fputc.o(i.fputc) for fputc
    printf0.o(i.__0printf$0) refers to printf0.o(i._printf_core) for _printf_core
    printf0.o(i.__0printf$0) refers to fputc.o(i.fputc) for fputc
    printf0.o(i.__0printf$0) refers to stdout.o(.data) for __stdout
    printf0.o(i.__0snprintf$0) refers to printf0.o(i._printf_core) for _printf_core
    printf0.o(i.__0snprintf$0) refers to printf0.o(i._snputc) for _snputc
    printf0.o(i.__0sprintf$0) refers to printf0.o(i._printf_core) for _printf_core
    printf0.o(i.__0sprintf$0) refers to printf0.o(i._sputc) for _sputc
    printf0.o(i.__0vfprintf$0) refers to printf0.o(i._printf_core) for _printf_core
    printf0.o(i.__0vfprintf$0) refers to fputc.o(i.fputc) for fputc
    printf0.o(i.__0vprintf$0) refers to printf0.o(i._printf_core) for _printf_core
    printf0.o(i.__0vprintf$0) refers to fputc.o(i.fputc) for fputc
    printf0.o(i.__0vprintf$0) refers to stdout.o(.data) for __stdout
    printf0.o(i.__0vsnprintf$0) refers to printf0.o(i._printf_core) for _printf_core
    printf0.o(i.__0vsnprintf$0) refers to printf0.o(i._snputc) for _snputc
    printf0.o(i.__0vsprintf$0) refers to printf0.o(i._printf_core) for _printf_core
    printf0.o(i.__0vsprintf$0) refers to printf0.o(i._sputc) for _sputc
    printf1.o(i.__0fprintf$1) refers to printf1.o(i._printf_core) for _printf_core
    printf1.o(i.__0fprintf$1) refers to fputc.o(i.fputc) for fputc
    printf1.o(i.__0printf$1) refers to printf1.o(i._printf_core) for _printf_core
    printf1.o(i.__0printf$1) refers to fputc.o(i.fputc) for fputc
    printf1.o(i.__0printf$1) refers to stdout.o(.data) for __stdout
    printf1.o(i.__0snprintf$1) refers to printf1.o(i._printf_core) for _printf_core
    printf1.o(i.__0snprintf$1) refers to printf1.o(i._snputc) for _snputc
    printf1.o(i.__0sprintf$1) refers to printf1.o(i._printf_core) for _printf_core
    printf1.o(i.__0sprintf$1) refers to printf1.o(i._sputc) for _sputc
    printf1.o(i.__0vfprintf$1) refers to printf1.o(i._printf_core) for _printf_core
    printf1.o(i.__0vfprintf$1) refers to fputc.o(i.fputc) for fputc
    printf1.o(i.__0vprintf$1) refers to printf1.o(i._printf_core) for _printf_core
    printf1.o(i.__0vprintf$1) refers to fputc.o(i.fputc) for fputc
    printf1.o(i.__0vprintf$1) refers to stdout.o(.data) for __stdout
    printf1.o(i.__0vsnprintf$1) refers to printf1.o(i._printf_core) for _printf_core
    printf1.o(i.__0vsnprintf$1) refers to printf1.o(i._snputc) for _snputc
    printf1.o(i.__0vsprintf$1) refers to printf1.o(i._printf_core) for _printf_core
    printf1.o(i.__0vsprintf$1) refers to printf1.o(i._sputc) for _sputc
    printf1.o(i._printf_core) refers to uidiv_div0.o(.text) for __aeabi_uidivmod
    printf2.o(i.__0fprintf$2) refers to printf2.o(i._printf_core) for _printf_core
    printf2.o(i.__0fprintf$2) refers to fputc.o(i.fputc) for fputc
    printf2.o(i.__0printf$2) refers to printf2.o(i._printf_core) for _printf_core
    printf2.o(i.__0printf$2) refers to fputc.o(i.fputc) for fputc
    printf2.o(i.__0printf$2) refers to stdout.o(.data) for __stdout
    printf2.o(i.__0snprintf$2) refers to printf2.o(i._printf_core) for _printf_core
    printf2.o(i.__0snprintf$2) refers to printf2.o(i._snputc) for _snputc
    printf2.o(i.__0sprintf$2) refers to printf2.o(i._printf_core) for _printf_core
    printf2.o(i.__0sprintf$2) refers to printf2.o(i._sputc) for _sputc
    printf2.o(i.__0vfprintf$2) refers to printf2.o(i._printf_core) for _printf_core
    printf2.o(i.__0vfprintf$2) refers to fputc.o(i.fputc) for fputc
    printf2.o(i.__0vprintf$2) refers to printf2.o(i._printf_core) for _printf_core
    printf2.o(i.__0vprintf$2) refers to fputc.o(i.fputc) for fputc
    printf2.o(i.__0vprintf$2) refers to stdout.o(.data) for __stdout
    printf2.o(i.__0vsnprintf$2) refers to printf2.o(i._printf_core) for _printf_core
    printf2.o(i.__0vsnprintf$2) refers to printf2.o(i._snputc) for _snputc
    printf2.o(i.__0vsprintf$2) refers to printf2.o(i._printf_core) for _printf_core
    printf2.o(i.__0vsprintf$2) refers to printf2.o(i._sputc) for _sputc
    printf3.o(i.__0fprintf$3) refers to printf3.o(i._printf_core) for _printf_core
    printf3.o(i.__0fprintf$3) refers to fputc.o(i.fputc) for fputc
    printf3.o(i.__0printf$3) refers to printf3.o(i._printf_core) for _printf_core
    printf3.o(i.__0printf$3) refers to fputc.o(i.fputc) for fputc
    printf3.o(i.__0printf$3) refers to stdout.o(.data) for __stdout
    printf3.o(i.__0snprintf$3) refers to printf3.o(i._printf_core) for _printf_core
    printf3.o(i.__0snprintf$3) refers to printf3.o(i._snputc) for _snputc
    printf3.o(i.__0sprintf$3) refers to printf3.o(i._printf_core) for _printf_core
    printf3.o(i.__0sprintf$3) refers to printf3.o(i._sputc) for _sputc
    printf3.o(i.__0vfprintf$3) refers to printf3.o(i._printf_core) for _printf_core
    printf3.o(i.__0vfprintf$3) refers to fputc.o(i.fputc) for fputc
    printf3.o(i.__0vprintf$3) refers to printf3.o(i._printf_core) for _printf_core
    printf3.o(i.__0vprintf$3) refers to fputc.o(i.fputc) for fputc
    printf3.o(i.__0vprintf$3) refers to stdout.o(.data) for __stdout
    printf3.o(i.__0vsnprintf$3) refers to printf3.o(i._printf_core) for _printf_core
    printf3.o(i.__0vsnprintf$3) refers to printf3.o(i._snputc) for _snputc
    printf3.o(i.__0vsprintf$3) refers to printf3.o(i._printf_core) for _printf_core
    printf3.o(i.__0vsprintf$3) refers to printf3.o(i._sputc) for _sputc
    printf3.o(i._printf_core) refers to uidiv_div0.o(.text) for __aeabi_uidivmod
    printf4.o(i.__0fprintf$4) refers to printf4.o(i._printf_core) for _printf_core
    printf4.o(i.__0fprintf$4) refers to fputc.o(i.fputc) for fputc
    printf4.o(i.__0printf$4) refers to printf4.o(i._printf_core) for _printf_core
    printf4.o(i.__0printf$4) refers to fputc.o(i.fputc) for fputc
    printf4.o(i.__0printf$4) refers to stdout.o(.data) for __stdout
    printf4.o(i.__0snprintf$4) refers to printf4.o(i._printf_core) for _printf_core
    printf4.o(i.__0snprintf$4) refers to printf4.o(i._snputc) for _snputc
    printf4.o(i.__0sprintf$4) refers to printf4.o(i._printf_core) for _printf_core
    printf4.o(i.__0sprintf$4) refers to printf4.o(i._sputc) for _sputc
    printf4.o(i.__0vfprintf$4) refers to printf4.o(i._printf_core) for _printf_core
    printf4.o(i.__0vfprintf$4) refers to fputc.o(i.fputc) for fputc
    printf4.o(i.__0vprintf$4) refers to printf4.o(i._printf_core) for _printf_core
    printf4.o(i.__0vprintf$4) refers to fputc.o(i.fputc) for fputc
    printf4.o(i.__0vprintf$4) refers to stdout.o(.data) for __stdout
    printf4.o(i.__0vsnprintf$4) refers to printf4.o(i._printf_core) for _printf_core
    printf4.o(i.__0vsnprintf$4) refers to printf4.o(i._snputc) for _snputc
    printf4.o(i.__0vsprintf$4) refers to printf4.o(i._printf_core) for _printf_core
    printf4.o(i.__0vsprintf$4) refers to printf4.o(i._sputc) for _sputc
    printf4.o(i._printf_core) refers to uldiv.o(.text) for __aeabi_uldivmod
    printf5.o(i.__0fprintf$5) refers to printf5.o(i._printf_core) for _printf_core
    printf5.o(i.__0fprintf$5) refers to fputc.o(i.fputc) for fputc
    printf5.o(i.__0printf$5) refers to printf5.o(i._printf_core) for _printf_core
    printf5.o(i.__0printf$5) refers to fputc.o(i.fputc) for fputc
    printf5.o(i.__0printf$5) refers to stdout.o(.data) for __stdout
    printf5.o(i.__0snprintf$5) refers to printf5.o(i._printf_core) for _printf_core
    printf5.o(i.__0snprintf$5) refers to printf5.o(i._snputc) for _snputc
    printf5.o(i.__0sprintf$5) refers to printf5.o(i._printf_core) for _printf_core
    printf5.o(i.__0sprintf$5) refers to printf5.o(i._sputc) for _sputc
    printf5.o(i.__0vfprintf$5) refers to printf5.o(i._printf_core) for _printf_core
    printf5.o(i.__0vfprintf$5) refers to fputc.o(i.fputc) for fputc
    printf5.o(i.__0vprintf$5) refers to printf5.o(i._printf_core) for _printf_core
    printf5.o(i.__0vprintf$5) refers to fputc.o(i.fputc) for fputc
    printf5.o(i.__0vprintf$5) refers to stdout.o(.data) for __stdout
    printf5.o(i.__0vsnprintf$5) refers to printf5.o(i._printf_core) for _printf_core
    printf5.o(i.__0vsnprintf$5) refers to printf5.o(i._snputc) for _snputc
    printf5.o(i.__0vsprintf$5) refers to printf5.o(i._printf_core) for _printf_core
    printf5.o(i.__0vsprintf$5) refers to printf5.o(i._sputc) for _sputc
    printf5.o(i._printf_core) refers to uldiv.o(.text) for __aeabi_uldivmod
    printf6.o(i.__0fprintf$6) refers to printf6.o(i._printf_core) for _printf_core
    printf6.o(i.__0fprintf$6) refers to fputc.o(i.fputc) for fputc
    printf6.o(i.__0printf$6) refers to printf6.o(i._printf_core) for _printf_core
    printf6.o(i.__0printf$6) refers to fputc.o(i.fputc) for fputc
    printf6.o(i.__0printf$6) refers to stdout.o(.data) for __stdout
    printf6.o(i.__0snprintf$6) refers to printf6.o(i._printf_core) for _printf_core
    printf6.o(i.__0snprintf$6) refers to printf6.o(i._snputc) for _snputc
    printf6.o(i.__0sprintf$6) refers to printf6.o(i._printf_core) for _printf_core
    printf6.o(i.__0sprintf$6) refers to printf6.o(i._sputc) for _sputc
    printf6.o(i.__0vfprintf$6) refers to printf6.o(i._printf_core) for _printf_core
    printf6.o(i.__0vfprintf$6) refers to fputc.o(i.fputc) for fputc
    printf6.o(i.__0vprintf$6) refers to printf6.o(i._printf_core) for _printf_core
    printf6.o(i.__0vprintf$6) refers to fputc.o(i.fputc) for fputc
    printf6.o(i.__0vprintf$6) refers to stdout.o(.data) for __stdout
    printf6.o(i.__0vsnprintf$6) refers to printf6.o(i._printf_core) for _printf_core
    printf6.o(i.__0vsnprintf$6) refers to printf6.o(i._snputc) for _snputc
    printf6.o(i.__0vsprintf$6) refers to printf6.o(i._printf_core) for _printf_core
    printf6.o(i.__0vsprintf$6) refers to printf6.o(i._sputc) for _sputc
    printf6.o(i._printf_core) refers to printf6.o(i._printf_pre_padding) for _printf_pre_padding
    printf6.o(i._printf_core) refers to printf6.o(i._printf_post_padding) for _printf_post_padding
    printf6.o(i._printf_core) refers to uidiv_div0.o(.text) for __aeabi_uidivmod
    printf7.o(i.__0fprintf$7) refers to printf7.o(i._printf_core) for _printf_core
    printf7.o(i.__0fprintf$7) refers to fputc.o(i.fputc) for fputc
    printf7.o(i.__0printf$7) refers to printf7.o(i._printf_core) for _printf_core
    printf7.o(i.__0printf$7) refers to fputc.o(i.fputc) for fputc
    printf7.o(i.__0printf$7) refers to stdout.o(.data) for __stdout
    printf7.o(i.__0snprintf$7) refers to printf7.o(i._printf_core) for _printf_core
    printf7.o(i.__0snprintf$7) refers to printf7.o(i._snputc) for _snputc
    printf7.o(i.__0sprintf$7) refers to printf7.o(i._printf_core) for _printf_core
    printf7.o(i.__0sprintf$7) refers to printf7.o(i._sputc) for _sputc
    printf7.o(i.__0vfprintf$7) refers to printf7.o(i._printf_core) for _printf_core
    printf7.o(i.__0vfprintf$7) refers to fputc.o(i.fputc) for fputc
    printf7.o(i.__0vprintf$7) refers to printf7.o(i._printf_core) for _printf_core
    printf7.o(i.__0vprintf$7) refers to fputc.o(i.fputc) for fputc
    printf7.o(i.__0vprintf$7) refers to stdout.o(.data) for __stdout
    printf7.o(i.__0vsnprintf$7) refers to printf7.o(i._printf_core) for _printf_core
    printf7.o(i.__0vsnprintf$7) refers to printf7.o(i._snputc) for _snputc
    printf7.o(i.__0vsprintf$7) refers to printf7.o(i._printf_core) for _printf_core
    printf7.o(i.__0vsprintf$7) refers to printf7.o(i._sputc) for _sputc
    printf7.o(i._printf_core) refers to printf7.o(i._printf_pre_padding) for _printf_pre_padding
    printf7.o(i._printf_core) refers to printf7.o(i._printf_post_padding) for _printf_post_padding
    printf7.o(i._printf_core) refers to uldiv.o(.text) for __aeabi_uldivmod
    printf8.o(i.__0fprintf$8) refers to printf8.o(i._printf_core) for _printf_core
    printf8.o(i.__0fprintf$8) refers to fputc.o(i.fputc) for fputc
    printf8.o(i.__0printf$8) refers to printf8.o(i._printf_core) for _printf_core
    printf8.o(i.__0printf$8) refers to fputc.o(i.fputc) for fputc
    printf8.o(i.__0printf$8) refers to stdout.o(.data) for __stdout
    printf8.o(i.__0snprintf$8) refers to printf8.o(i._printf_core) for _printf_core
    printf8.o(i.__0snprintf$8) refers to printf8.o(i._snputc) for _snputc
    printf8.o(i.__0sprintf$8) refers to printf8.o(i._printf_core) for _printf_core
    printf8.o(i.__0sprintf$8) refers to printf8.o(i._sputc) for _sputc
    printf8.o(i.__0vfprintf$8) refers to printf8.o(i._printf_core) for _printf_core
    printf8.o(i.__0vfprintf$8) refers to fputc.o(i.fputc) for fputc
    printf8.o(i.__0vprintf$8) refers to printf8.o(i._printf_core) for _printf_core
    printf8.o(i.__0vprintf$8) refers to fputc.o(i.fputc) for fputc
    printf8.o(i.__0vprintf$8) refers to stdout.o(.data) for __stdout
    printf8.o(i.__0vsnprintf$8) refers to printf8.o(i._printf_core) for _printf_core
    printf8.o(i.__0vsnprintf$8) refers to printf8.o(i._snputc) for _snputc
    printf8.o(i.__0vsprintf$8) refers to printf8.o(i._printf_core) for _printf_core
    printf8.o(i.__0vsprintf$8) refers to printf8.o(i._sputc) for _sputc
    printf8.o(i._printf_core) refers to printf8.o(i._printf_pre_padding) for _printf_pre_padding
    printf8.o(i._printf_core) refers to printf8.o(i._printf_post_padding) for _printf_post_padding
    printf8.o(i._printf_core) refers to uldiv.o(.text) for __aeabi_uldivmod
    printfa.o(i.__0fprintf) refers (Special) to iusefp.o(.text) for __I$use$fp
    printfa.o(i.__0fprintf) refers to printfa.o(i._printf_core) for _printf_core
    printfa.o(i.__0fprintf) refers to fputc.o(i.fputc) for fputc
    printfa.o(i.__0printf) refers (Special) to iusefp.o(.text) for __I$use$fp
    printfa.o(i.__0printf) refers to printfa.o(i._printf_core) for _printf_core
    printfa.o(i.__0printf) refers to fputc.o(i.fputc) for fputc
    printfa.o(i.__0printf) refers to stdout.o(.data) for __stdout
    printfa.o(i.__0snprintf) refers (Special) to iusefp.o(.text) for __I$use$fp
    printfa.o(i.__0snprintf) refers to printfa.o(i._printf_core) for _printf_core
    printfa.o(i.__0snprintf) refers to printfa.o(i._snputc) for _snputc
    printfa.o(i.__0sprintf) refers (Special) to iusefp.o(.text) for __I$use$fp
    printfa.o(i.__0sprintf) refers to printfa.o(i._printf_core) for _printf_core
    printfa.o(i.__0sprintf) refers to printfa.o(i._sputc) for _sputc
    printfa.o(i.__0vfprintf) refers (Special) to iusefp.o(.text) for __I$use$fp
    printfa.o(i.__0vfprintf) refers to printfa.o(i._printf_core) for _printf_core
    printfa.o(i.__0vfprintf) refers to fputc.o(i.fputc) for fputc
    printfa.o(i.__0vprintf) refers (Special) to iusefp.o(.text) for __I$use$fp
    printfa.o(i.__0vprintf) refers to printfa.o(i._printf_core) for _printf_core
    printfa.o(i.__0vprintf) refers to fputc.o(i.fputc) for fputc
    printfa.o(i.__0vprintf) refers to stdout.o(.data) for __stdout
    printfa.o(i.__0vsnprintf) refers (Special) to iusefp.o(.text) for __I$use$fp
    printfa.o(i.__0vsnprintf) refers to printfa.o(i._printf_core) for _printf_core
    printfa.o(i.__0vsnprintf) refers to printfa.o(i._snputc) for _snputc
    printfa.o(i.__0vsprintf) refers (Special) to iusefp.o(.text) for __I$use$fp
    printfa.o(i.__0vsprintf) refers to printfa.o(i._printf_core) for _printf_core
    printfa.o(i.__0vsprintf) refers to printfa.o(i._sputc) for _sputc
    printfa.o(i._fp_digits) refers (Special) to iusefp.o(.text) for __I$use$fp
    printfa.o(i._fp_digits) refers to dmul.o(.text) for __aeabi_dmul
    printfa.o(i._fp_digits) refers to ddiv.o(.text) for __aeabi_ddiv
    printfa.o(i._fp_digits) refers to cdrcmple.o(.text) for __aeabi_cdrcmple
    printfa.o(i._fp_digits) refers to dadd.o(.text) for __aeabi_dadd
    printfa.o(i._fp_digits) refers to dfixul.o(.text) for __aeabi_d2ulz
    printfa.o(i._fp_digits) refers to uldiv.o(.text) for __aeabi_uldivmod
    printfa.o(i._printf_core) refers (Special) to iusefp.o(.text) for __I$use$fp
    printfa.o(i._printf_core) refers to printfa.o(i._printf_pre_padding) for _printf_pre_padding
    printfa.o(i._printf_core) refers to uldiv.o(.text) for __aeabi_uldivmod
    printfa.o(i._printf_core) refers to printfa.o(i._printf_post_padding) for _printf_post_padding
    printfa.o(i._printf_core) refers to printfa.o(i._fp_digits) for _fp_digits
    printfa.o(i._printf_core) refers to uidiv_div0.o(.text) for __aeabi_uidivmod
    printfa.o(i._printf_post_padding) refers (Special) to iusefp.o(.text) for __I$use$fp
    printfa.o(i._printf_pre_padding) refers (Special) to iusefp.o(.text) for __I$use$fp
    printfa.o(i._snputc) refers (Special) to iusefp.o(.text) for __I$use$fp
    printfa.o(i._sputc) refers (Special) to iusefp.o(.text) for __I$use$fp
    fadd.o(.text) refers (Special) to iusefp.o(.text) for __I$use$fp
    fadd.o(.text) refers to fepilogue.o(.text) for _float_epilogue
    fmul.o(.text) refers (Special) to iusefp.o(.text) for __I$use$fp
    fdiv.o(.text) refers (Special) to iusefp.o(.text) for __I$use$fp
    fdiv.o(.text) refers to fepilogue.o(.text) for _float_round
    dadd.o(.text) refers (Special) to iusefp.o(.text) for __I$use$fp
    dadd.o(.text) refers to llshl.o(.text) for __aeabi_llsl
    dadd.o(.text) refers to llsshr.o(.text) for __aeabi_lasr
    dadd.o(.text) refers to depilogue.o(.text) for _double_epilogue
    dmul.o(.text) refers (Special) to iusefp.o(.text) for __I$use$fp
    dmul.o(.text) refers to depilogue.o(.text) for _double_epilogue
    ddiv.o(.text) refers (Special) to iusefp.o(.text) for __I$use$fp
    ddiv.o(.text) refers to depilogue.o(.text) for _double_round
    fcmple.o(.text) refers (Special) to iusefp.o(.text) for __I$use$fp
    fcmplt.o(.text) refers (Special) to iusefp.o(.text) for __I$use$fp
    fcmpgt.o(.text) refers (Special) to iusefp.o(.text) for __I$use$fp
    dcmple.o(.text) refers (Special) to iusefp.o(.text) for __I$use$fp
    fflti.o(.text) refers (Special) to iusefp.o(.text) for __I$use$fp
    fflti.o(.text) refers to fepilogue.o(.text) for _float_epilogue
    ffltui.o(.text) refers (Special) to iusefp.o(.text) for __I$use$fp
    ffltui.o(.text) refers to fepilogue.o(.text) for _float_epilogue
    dflti.o(.text) refers (Special) to iusefp.o(.text) for __I$use$fp
    dflti.o(.text) refers to depilogue.o(.text) for _double_epilogue
    dfltui.o(.text) refers (Special) to iusefp.o(.text) for __I$use$fp
    dfltui.o(.text) refers to depilogue.o(.text) for _double_epilogue
    ffixi.o(.text) refers (Special) to iusefp.o(.text) for __I$use$fp
    ffixl.o(.text) refers (Special) to iusefp.o(.text) for __I$use$fp
    ffixl.o(.text) refers to llshl.o(.text) for __aeabi_llsl
    dfixi.o(.text) refers (Special) to iusefp.o(.text) for __I$use$fp
    dfixi.o(.text) refers to llushr.o(.text) for __aeabi_llsr
    f2d.o(.text) refers (Special) to iusefp.o(.text) for __I$use$fp
    d2f.o(.text) refers (Special) to iusefp.o(.text) for __I$use$fp
    d2f.o(.text) refers to fepilogue.o(.text) for _float_round
    entry2.o(.ARM.Collect$$$$00000001) refers to entry2.o(.ARM.Collect$$$$00002712) for __lit__00000000
    entry2.o(.ARM.Collect$$$$00002712) refers to startup_gd32e23x.o(STACK) for __initial_sp
    entry2.o(__vectab_stack_and_reset_area) refers to startup_gd32e23x.o(STACK) for __initial_sp
    entry2.o(__vectab_stack_and_reset_area) refers to entry.o(.ARM.Collect$$$$00000000) for __main
    entry5.o(.ARM.Collect$$$$00000004) refers to init.o(.text) for __scatterload
    entry9a.o(.ARM.Collect$$$$0000000B) refers to main.o(.text) for main
    entry9b.o(.ARM.Collect$$$$0000000C) refers to main.o(.text) for main
    fputc.o(i.fputc) refers (Special) to iusesemip.o(.text) for __I$use$semihosting$fputc
    fputc.o(i.fputc) refers (Special) to semi.o(.text) for __semihosting_library_function
    fputc_h.o(i._fputc$hlt) refers (Special) to iusesemip.o(.text) for __I$use$semihosting$fputc
    fputc_h.o(i._fputc$hlt) refers (Special) to semi.o(.text) for __semihosting_library_function
    uldiv.o(.text) refers to llushr.o(.text) for __aeabi_llsr
    uldiv.o(.text) refers to llshl.o(.text) for __aeabi_llsl
    fepilogue.o(.text) refers (Special) to iusefp.o(.text) for __I$use$fp
    depilogue.o(.text) refers (Special) to iusefp.o(.text) for __I$use$fp
    depilogue.o(.text) refers to depilogue.o(i.__ARM_clz) for __ARM_clz
    depilogue.o(.text) refers to llshl.o(.text) for __aeabi_llsl
    depilogue.o(.text) refers to llushr.o(.text) for __aeabi_llsr
    dfixul.o(.text) refers (Special) to iusefp.o(.text) for __I$use$fp
    dfixul.o(.text) refers to llushr.o(.text) for __aeabi_llsr
    dfixul.o(.text) refers to llshl.o(.text) for __aeabi_llsl
    cdrcmple.o(.text) refers (Special) to iusefp.o(.text) for __I$use$fp
    init.o(.text) refers to entry5.o(.ARM.Collect$$$$00000004) for __main_after_scatterload
    idiv_div0.o(.text) refers to uidiv_div0.o(.text) for __aeabi_uidivmod
    depilogue.o(i.__ARM_clz) refers (Special) to iusefp.o(.text) for __I$use$fp


==============================================================================

Removing Unused input sections from the image.

    Removing main.o(.ARM.exidx), (24 bytes).
    Removing main.o(.data.iBug8), (1 bytes).
    Removing main.o(.data.wStateSlave), (1 bytes).
    Removing main.o(.bss.activateWeakening), (1 bytes).
    Removing main.o(.data.beepsBackwards), (1 bytes).
    Removing main.o(.bss.slaveError), (1 bytes).
    Removing main.o(.ARM.use_no_argv), (4 bytes).
    Removing bldc.o(.ARM.exidx), (48 bytes).
    Removing bldc.o(.bss.revs32x), (4 bytes).
    Removing bldc.o(.data.revs32Scale), (4 bytes).
    Removing bldc.o(.bss.speedCounterLog), (4 bytes).
    Removing driver.o(.ARM.exidx), (32 bytes).
    Removing bldcbc.o(.text), (0 bytes).
    Removing bldcsine.o(.ARM.exidx), (56 bytes).
    Removing bldcsine.o(.bss.fGradient), (4 bytes).
    Removing bldcsine.o(.bss.fGradientX), (4 bytes).
    Removing setup.o(.ARM.exidx), (168 bytes).
    Removing setup.o(.bss.dev_id), (4 bytes).
    Removing setup.o(.bss.dma_init_struct_usart), (28 bytes).
    Removing setup.o(.bss.usart0_rx_buf), (1 bytes).
    Removing setup.o(.bss.usart1_rx_buf), (1 bytes).
    Removing setup.o(.bss.usart2_rx_buf), (1 bytes).
    Removing it.o(.ARM.exidx), (120 bytes).
    Removing it.o(.bss.iPwmTicks), (4 bytes).
    Removing it.o(.bss.iPwmTicks0), (4 bytes).
    Removing it.o(.bss.iAdcTicks), (4 bytes).
    Removing it.o(.bss.iAdcTicks0), (4 bytes).
    Removing it.o(.bss.iCounterUsart0), (4 bytes).
    Removing it.o(.bss.iCounter2Usart0), (4 bytes).
    Removing it.o(.bss.iCounterUsart1), (4 bytes).
    Removing it.o(.bss.iCounter2Usart1), (4 bytes).
    Removing it.o(.bss.iCounterUsart2), (4 bytes).
    Removing it.o(.bss.iCounter2Usart2), (4 bytes).
    Removing led.o(.text), (0 bytes).
    Removing comms.o(.text), (124 bytes).
    Removing comms.o(.ARM.exidx), (16 bytes).
    Removing remoteuart.o(.text), (0 bytes).
    Removing remotecrsf.o(.text), (0 bytes).
    Removing remotedummy.o(.ARM.exidx), (24 bytes).
    Removing remotedummy.o(.bss.iTimeRTT), (4 bytes).
    Removing remoteuartbus.o(.text), (0 bytes).
    Removing commsmasterslave.o(.text), (0 bytes).
    Removing commsmasterslave.o(.bss.mosfetOutMaster), (1 bytes).
    Removing commsmasterslave.o(.bss.beepsBackwardsMaster), (1 bytes).
    Removing remoteadc.o(.text), (0 bytes).
    Removing remoteautodetect.o(.text), (0 bytes).
    Removing remoteautodetect.o(.bss.i), (2 bytes).
    Removing remoteros2.o(.text), (0 bytes).
    Removing i2c.o(.ARM.exidx), (72 bytes).
    Removing mpu6050.o(.text), (0 bytes).
    Removing imumpu6050.o(.ARM.exidx), (32 bytes).
    Removing imumpu6050.o(.rodata.reg), (30 bytes).
    Removing imumpu6050.o(.rodata.hw), (12 bytes).
    Removing bmi160.o(.text), (0 bytes).
    Removing pilothoverbike.o(.text), (0 bytes).
    Removing pilotuser.o(.text), (0 bytes).
    Removing segger_rtt.o(.ARM.exidx), (256 bytes).
    Removing gd32e23x_adc.o(.ARM.exidx), (272 bytes).
    Removing gd32e23x_dma.o(.ARM.exidx), (216 bytes).
    Removing gd32e23x_exti.o(.ARM.exidx), (96 bytes).
    Removing gd32e23x_fmc.o(.ARM.exidx), (240 bytes).
    Removing gd32e23x_fwdgt.o(.ARM.exidx), (72 bytes).
    Removing gd32e23x_gpio.o(.ARM.exidx), (120 bytes).
    Removing gd32e23x_i2c.o(.ARM.exidx), (280 bytes).
    Removing gd32e23x_misc.o(.ARM.exidx), (56 bytes).
    Removing gd32e23x_pmu.o(.text), (456 bytes).
    Removing gd32e23x_pmu.o(.ARM.exidx), (104 bytes).
    Removing gd32e23x_pmu.o(.bss.pmu_to_deepsleepmode.reg_snap.0), (4 bytes).
    Removing gd32e23x_pmu.o(.bss.pmu_to_deepsleepmode.reg_snap.1), (4 bytes).
    Removing gd32e23x_pmu.o(.bss.pmu_to_deepsleepmode.reg_snap.2), (4 bytes).
    Removing gd32e23x_rcu.o(.ARM.exidx), (312 bytes).
    Removing gd32e23x_syscfg.o(.ARM.exidx), (80 bytes).
    Removing gd32e23x_timer.o(.ARM.exidx), (584 bytes).
    Removing gd32e23x_usart.o(.text), (1692 bytes).
    Removing gd32e23x_usart.o(.ARM.exidx), (592 bytes).
    Removing gd32e23x_wwdgt.o(.text), (156 bytes).
    Removing gd32e23x_wwdgt.o(.ARM.exidx), (56 bytes).
    Removing startup_gd32e23x.o(HEAP), (1024 bytes).
    Removing system_gd32e23x.o(.ARM.exidx), (16 bytes).
    Removing dfixul.o(.text), (64 bytes).
    Removing cdrcmple.o(.text), (40 bytes).

81 unused section(s) (total 7666 bytes) removed from the image.

==============================================================================

Image Symbol Table

    Local Symbols

    Symbol Name                              Value     Ov Type        Size  Object(Section)

    ../clib/division.s                       0x00000000   Number         0  aeabi_sdivfast.o ABSOLUTE
    ../clib/division.s                       0x00000000   Number         0  aeabi_sdivfast_div0.o ABSOLUTE
    ../clib/longlong.c                       0x00000000   Number         0  llmul.o ABSOLUTE
    ../clib/microlib/division.c              0x00000000   Number         0  uidiv.o ABSOLUTE
    ../clib/microlib/division.c              0x00000000   Number         0  uldiv.o ABSOLUTE
    ../clib/microlib/division.c              0x00000000   Number         0  uidiv_div0.o ABSOLUTE
    ../clib/microlib/division.c              0x00000000   Number         0  idiv_div0.o ABSOLUTE
    ../clib/microlib/division.c              0x00000000   Number         0  idiv0.o ABSOLUTE
    ../clib/microlib/init/entry.s            0x00000000   Number         0  entry.o ABSOLUTE
    ../clib/microlib/init/entry.s            0x00000000   Number         0  entry2.o ABSOLUTE
    ../clib/microlib/init/entry.s            0x00000000   Number         0  entry5.o ABSOLUTE
    ../clib/microlib/init/entry.s            0x00000000   Number         0  entry7a.o ABSOLUTE
    ../clib/microlib/init/entry.s            0x00000000   Number         0  entry7b.o ABSOLUTE
    ../clib/microlib/init/entry.s            0x00000000   Number         0  entry8a.o ABSOLUTE
    ../clib/microlib/init/entry.s            0x00000000   Number         0  entry8b.o ABSOLUTE
    ../clib/microlib/init/entry.s            0x00000000   Number         0  entry9a.o ABSOLUTE
    ../clib/microlib/init/entry.s            0x00000000   Number         0  entry9b.o ABSOLUTE
    ../clib/microlib/init/entry.s            0x00000000   Number         0  entry10a.o ABSOLUTE
    ../clib/microlib/init/entry.s            0x00000000   Number         0  entry10b.o ABSOLUTE
    ../clib/microlib/init/entry.s            0x00000000   Number         0  entry11a.o ABSOLUTE
    ../clib/microlib/init/entry.s            0x00000000   Number         0  entry11b.o ABSOLUTE
    ../clib/microlib/longlong.c              0x00000000   Number         0  llshl.o ABSOLUTE
    ../clib/microlib/longlong.c              0x00000000   Number         0  llushr.o ABSOLUTE
    ../clib/microlib/longlong.c              0x00000000   Number         0  llsshr.o ABSOLUTE
    ../clib/microlib/printf/printf.c         0x00000000   Number         0  printfb.o ABSOLUTE
    ../clib/microlib/printf/printf.c         0x00000000   Number         0  printf0.o ABSOLUTE
    ../clib/microlib/printf/printf.c         0x00000000   Number         0  printf1.o ABSOLUTE
    ../clib/microlib/printf/printf.c         0x00000000   Number         0  printf2.o ABSOLUTE
    ../clib/microlib/printf/printf.c         0x00000000   Number         0  printf3.o ABSOLUTE
    ../clib/microlib/printf/printf.c         0x00000000   Number         0  printf4.o ABSOLUTE
    ../clib/microlib/printf/printf.c         0x00000000   Number         0  printf5.o ABSOLUTE
    ../clib/microlib/printf/printf.c         0x00000000   Number         0  printf6.o ABSOLUTE
    ../clib/microlib/printf/printf.c         0x00000000   Number         0  printf7.o ABSOLUTE
    ../clib/microlib/printf/printf.c         0x00000000   Number         0  printf8.o ABSOLUTE
    ../clib/microlib/printf/printf.c         0x00000000   Number         0  printfa.o ABSOLUTE
    ../clib/microlib/printf/stubs.s          0x00000000   Number         0  printfstubs.o ABSOLUTE
    ../clib/microlib/stdio/fputc.c           0x00000000   Number         0  fputc.o ABSOLUTE
    ../clib/microlib/stdio/fputc.c           0x00000000   Number         0  fputc_h.o ABSOLUTE
    ../clib/microlib/stdio/semi.s            0x00000000   Number         0  semi.o ABSOLUTE
    ../clib/microlib/stdio/streams.c         0x00000000   Number         0  stdout.o ABSOLUTE
    ../clib/microlib/string/memcpy.c         0x00000000   Number         0  memcpya.o ABSOLUTE
    ../clib/microlib/string/memcpy.c         0x00000000   Number         0  memcpyb.o ABSOLUTE
    ../clib/microlib/string/memset.c         0x00000000   Number         0  memseta.o ABSOLUTE
    ../clib/microlib/string/strlen.c         0x00000000   Number         0  strlen.o ABSOLUTE
    ../clib/microlib/stubs.s                 0x00000000   Number         0  iusefp.o ABSOLUTE
    ../clib/microlib/stubs.s                 0x00000000   Number         0  iusesemip.o ABSOLUTE
    ../fplib/microlib/d2f.c                  0x00000000   Number         0  d2f.o ABSOLUTE
    ../fplib/microlib/f2d.c                  0x00000000   Number         0  f2d.o ABSOLUTE
    ../fplib/microlib/fpadd.c                0x00000000   Number         0  fadd.o ABSOLUTE
    ../fplib/microlib/fpadd.c                0x00000000   Number         0  dadd.o ABSOLUTE
    ../fplib/microlib/fpcmp.c                0x00000000   Number         0  fcmple.o ABSOLUTE
    ../fplib/microlib/fpcmp.c                0x00000000   Number         0  fcmplt.o ABSOLUTE
    ../fplib/microlib/fpcmp.c                0x00000000   Number         0  fcmpgt.o ABSOLUTE
    ../fplib/microlib/fpcmp.c                0x00000000   Number         0  dcmple.o ABSOLUTE
    ../fplib/microlib/fpdiv.c                0x00000000   Number         0  fdiv.o ABSOLUTE
    ../fplib/microlib/fpdiv.c                0x00000000   Number         0  ddiv.o ABSOLUTE
    ../fplib/microlib/fpepilogue.c           0x00000000   Number         0  fepilogue.o ABSOLUTE
    ../fplib/microlib/fpepilogue.c           0x00000000   Number         0  depilogue.o ABSOLUTE
    ../fplib/microlib/fpfix.c                0x00000000   Number         0  ffixi.o ABSOLUTE
    ../fplib/microlib/fpfix.c                0x00000000   Number         0  ffixl.o ABSOLUTE
    ../fplib/microlib/fpfix.c                0x00000000   Number         0  dfixi.o ABSOLUTE
    ../fplib/microlib/fpfix.c                0x00000000   Number         0  dfixul.o ABSOLUTE
    ../fplib/microlib/fpflt.c                0x00000000   Number         0  fflti.o ABSOLUTE
    ../fplib/microlib/fpflt.c                0x00000000   Number         0  ffltui.o ABSOLUTE
    ../fplib/microlib/fpflt.c                0x00000000   Number         0  dflti.o ABSOLUTE
    ../fplib/microlib/fpflt.c                0x00000000   Number         0  dfltui.o ABSOLUTE
    ../fplib/microlib/fpmul.c                0x00000000   Number         0  fmul.o ABSOLUTE
    ../fplib/microlib/fpmul.c                0x00000000   Number         0  dmul.o ABSOLUTE
    PilotHoverbike.c                         0x00000000   Number         0  pilothoverbike.o ABSOLUTE
    PilotUser.c                              0x00000000   Number         0  pilotuser.o ABSOLUTE
    RTE/Device/GD32E230C8/startup_gd32e23x.s 0x00000000   Number         0  startup_gd32e23x.o ABSOLUTE
    RemoteAdc.c                              0x00000000   Number         0  remoteadc.o ABSOLUTE
    RemoteAutodetect.c                       0x00000000   Number         0  remoteautodetect.o ABSOLUTE
    RemoteROS2.c                             0x00000000   Number         0  remoteros2.o ABSOLUTE
    SEGGER_RTT.c                             0x00000000   Number         0  segger_rtt.o ABSOLUTE
    bldc.c                                   0x00000000   Number         0  bldc.o ABSOLUTE
    bldcBC.c                                 0x00000000   Number         0  bldcbc.o ABSOLUTE
    bldcSINE.c                               0x00000000   Number         0  bldcsine.o ABSOLUTE
    bmi160.c                                 0x00000000   Number         0  bmi160.o ABSOLUTE
    cdrcmple.s                               0x00000000   Number         0  cdrcmple.o ABSOLUTE
    comms.c                                  0x00000000   Number         0  comms.o ABSOLUTE
    commsMasterSlave.c                       0x00000000   Number         0  commsmasterslave.o ABSOLUTE
    dc.s                                     0x00000000   Number         0  dc.o ABSOLUTE
    driver.c                                 0x00000000   Number         0  driver.o ABSOLUTE
    gd32e23x_adc.c                           0x00000000   Number         0  gd32e23x_adc.o ABSOLUTE
    gd32e23x_dma.c                           0x00000000   Number         0  gd32e23x_dma.o ABSOLUTE
    gd32e23x_exti.c                          0x00000000   Number         0  gd32e23x_exti.o ABSOLUTE
    gd32e23x_fmc.c                           0x00000000   Number         0  gd32e23x_fmc.o ABSOLUTE
    gd32e23x_fwdgt.c                         0x00000000   Number         0  gd32e23x_fwdgt.o ABSOLUTE
    gd32e23x_gpio.c                          0x00000000   Number         0  gd32e23x_gpio.o ABSOLUTE
    gd32e23x_i2c.c                           0x00000000   Number         0  gd32e23x_i2c.o ABSOLUTE
    gd32e23x_misc.c                          0x00000000   Number         0  gd32e23x_misc.o ABSOLUTE
    gd32e23x_pmu.c                           0x00000000   Number         0  gd32e23x_pmu.o ABSOLUTE
    gd32e23x_rcu.c                           0x00000000   Number         0  gd32e23x_rcu.o ABSOLUTE
    gd32e23x_syscfg.c                        0x00000000   Number         0  gd32e23x_syscfg.o ABSOLUTE
    gd32e23x_timer.c                         0x00000000   Number         0  gd32e23x_timer.o ABSOLUTE
    gd32e23x_usart.c                         0x00000000   Number         0  gd32e23x_usart.o ABSOLUTE
    gd32e23x_wwdgt.c                         0x00000000   Number         0  gd32e23x_wwdgt.o ABSOLUTE
    handlers.s                               0x00000000   Number         0  handlers.o ABSOLUTE
    i2c.c                                    0x00000000   Number         0  i2c.o ABSOLUTE
    imuMPU6050.c                             0x00000000   Number         0  imumpu6050.o ABSOLUTE
    init.s                                   0x00000000   Number         0  init.o ABSOLUTE
    it.c                                     0x00000000   Number         0  it.o ABSOLUTE
    led.c                                    0x00000000   Number         0  led.o ABSOLUTE
    main.c                                   0x00000000   Number         0  main.o ABSOLUTE
    mpu6050.c                                0x00000000   Number         0  mpu6050.o ABSOLUTE
    remoteCrsf.c                             0x00000000   Number         0  remotecrsf.o ABSOLUTE
    remoteDummy.c                            0x00000000   Number         0  remotedummy.o ABSOLUTE
    remoteUart.c                             0x00000000   Number         0  remoteuart.o ABSOLUTE
    remoteUartBus.c                          0x00000000   Number         0  remoteuartbus.o ABSOLUTE
    setup.c                                  0x00000000   Number         0  setup.o ABSOLUTE
    system_gd32e23x.c                        0x00000000   Number         0  system_gd32e23x.o ABSOLUTE
    RESET                                    0x08000000   Section      204  startup_gd32e23x.o(RESET)
    .ARM.Collect$$$$00000000                 0x080000cc   Section        0  entry.o(.ARM.Collect$$$$00000000)
    .ARM.Collect$$$$00000001                 0x080000cc   Section        4  entry2.o(.ARM.Collect$$$$00000001)
    .ARM.Collect$$$$00000004                 0x080000d0   Section        4  entry5.o(.ARM.Collect$$$$00000004)
    .ARM.Collect$$$$00000008                 0x080000d4   Section        0  entry7b.o(.ARM.Collect$$$$00000008)
    .ARM.Collect$$$$0000000A                 0x080000d4   Section        0  entry8b.o(.ARM.Collect$$$$0000000A)
    .ARM.Collect$$$$0000000B                 0x080000d4   Section        8  entry9a.o(.ARM.Collect$$$$0000000B)
    __lit__00000000                          0x080000dc   Data           4  entry2.o(.ARM.Collect$$$$00002712)
    .ARM.Collect$$$$0000000D                 0x080000dc   Section        0  entry10a.o(.ARM.Collect$$$$0000000D)
    .ARM.Collect$$$$0000000F                 0x080000dc   Section        0  entry11a.o(.ARM.Collect$$$$0000000F)
    .ARM.Collect$$$$00002712                 0x080000dc   Section        4  entry2.o(.ARM.Collect$$$$00002712)
    [Anonymous Symbol]                       0x080000e0   Section        0  main.o(.text)
    __arm_cp.0_39                            0x080004a8   Number         4  main.o(.text)
    __arm_cp.0_40                            0x080004ac   Number         4  main.o(.text)
    __arm_cp.0_41                            0x080004b0   Number         4  main.o(.text)
    __arm_cp.0_42                            0x080004b4   Number         4  main.o(.text)
    __arm_cp.0_43                            0x080004b8   Number         4  main.o(.text)
    __arm_cp.0_47                            0x080004c8   Number         4  main.o(.text)
    __arm_cp.0_51                            0x080004d8   Number         4  main.o(.text)
    __arm_cp.0_52                            0x080004dc   Number         4  main.o(.text)
    __arm_cp.0_53                            0x080004e0   Number         4  main.o(.text)
    __arm_cp.0_55                            0x080004e8   Number         4  main.o(.text)
    __arm_cp.0_56                            0x080004ec   Number         4  main.o(.text)
    __arm_cp.0_5                             0x080006b0   Number         4  main.o(.text)
    __arm_cp.0_6                             0x080006b4   Number         4  main.o(.text)
    __arm_cp.0_7                             0x080006b8   Number         4  main.o(.text)
    __arm_cp.0_8                             0x080006bc   Number         4  main.o(.text)
    __arm_cp.0_9                             0x080006c0   Number         4  main.o(.text)
    __arm_cp.0_11                            0x080006c4   Number         4  main.o(.text)
    __arm_cp.0_12                            0x080006c8   Number         4  main.o(.text)
    __arm_cp.0_13                            0x080006cc   Number         4  main.o(.text)
    __arm_cp.0_17                            0x080006d0   Number         4  main.o(.text)
    __arm_cp.0_20                            0x080006d4   Number         4  main.o(.text)
    __arm_cp.0_21                            0x080006d8   Number         4  main.o(.text)
    __arm_cp.0_22                            0x080006dc   Number         4  main.o(.text)
    __arm_cp.0_23                            0x080006e0   Number         4  main.o(.text)
    __arm_cp.0_24                            0x080006e4   Number         4  main.o(.text)
    __arm_cp.0_25                            0x080006e8   Number         4  main.o(.text)
    __arm_cp.0_26                            0x080006ec   Number         4  main.o(.text)
    __arm_cp.0_27                            0x080006f0   Number         4  main.o(.text)
    __arm_cp.0_28                            0x080006f4   Number         4  main.o(.text)
    __arm_cp.0_29                            0x080006f8   Number         4  main.o(.text)
    __arm_cp.0_30                            0x080006fc   Number         4  main.o(.text)
    __arm_cp.0_31                            0x08000700   Number         4  main.o(.text)
    __arm_cp.0_32                            0x08000704   Number         4  main.o(.text)
    __arm_cp.0_33                            0x08000708   Number         4  main.o(.text)
    __arm_cp.0_34                            0x0800070c   Number         4  main.o(.text)
    __arm_cp.0_35                            0x08000710   Number         4  main.o(.text)
    __arm_cp.0_36                            0x08000714   Number         4  main.o(.text)
    __arm_cp.0_37                            0x08000718   Number         4  main.o(.text)
    __arm_cp.0_38                            0x0800071c   Number         4  main.o(.text)
    __arm_cp.1_0                             0x0800078c   Number         4  main.o(.text)
    __arm_cp.1_1                             0x08000790   Number         4  main.o(.text)
    __arm_cp.1_2                             0x08000794   Number         4  main.o(.text)
    __arm_cp.1_3                             0x08000798   Number         4  main.o(.text)
    __arm_cp.2_0                             0x0800081c   Number         4  main.o(.text)
    __arm_cp.2_1                             0x08000820   Number         4  main.o(.text)
    __arm_cp.2_2                             0x08000824   Number         4  main.o(.text)
    __arm_cp.2_3                             0x08000828   Number         4  main.o(.text)
    [Anonymous Symbol]                       0x0800082c   Section        0  bldc.o(.text)
    __arm_cp.1_0                             0x08000864   Number         4  bldc.o(.text)
    __arm_cp.2_0                             0x08000870   Number         4  bldc.o(.text)
    __arm_cp.3_0                             0x080008d8   Number         4  bldc.o(.text)
    __arm_cp.3_1                             0x080008dc   Number         4  bldc.o(.text)
    __arm_cp.3_2                             0x080008e0   Number         4  bldc.o(.text)
    __arm_cp.3_3                             0x080008e4   Number         4  bldc.o(.text)
    __arm_cp.4_0                             0x08000900   Number         4  bldc.o(.text)
    __arm_cp.4_1                             0x08000904   Number         4  bldc.o(.text)
    __arm_cp.4_2                             0x08000908   Number         4  bldc.o(.text)
    __arm_cp.5_62                            0x08000c4c   Number         4  bldc.o(.text)
    __arm_cp.5_63                            0x08000c50   Number         4  bldc.o(.text)
    __arm_cp.5_2                             0x08000d2c   Number         4  bldc.o(.text)
    __arm_cp.5_3                             0x08000d30   Number         4  bldc.o(.text)
    __arm_cp.5_4                             0x08000d34   Number         4  bldc.o(.text)
    __arm_cp.5_5                             0x08000d38   Number         4  bldc.o(.text)
    __arm_cp.5_6                             0x08000d3c   Number         4  bldc.o(.text)
    __arm_cp.5_7                             0x08000d40   Number         4  bldc.o(.text)
    __arm_cp.5_8                             0x08000d44   Number         4  bldc.o(.text)
    __arm_cp.5_9                             0x08000d48   Number         4  bldc.o(.text)
    __arm_cp.5_10                            0x08000d4c   Number         4  bldc.o(.text)
    __arm_cp.5_11                            0x08000d50   Number         4  bldc.o(.text)
    __arm_cp.5_12                            0x08000d54   Number         4  bldc.o(.text)
    __arm_cp.5_13                            0x08000d58   Number         4  bldc.o(.text)
    __arm_cp.5_14                            0x08000d5c   Number         4  bldc.o(.text)
    __arm_cp.5_15                            0x08000d60   Number         4  bldc.o(.text)
    __arm_cp.5_16                            0x08000d64   Number         4  bldc.o(.text)
    __arm_cp.5_17                            0x08000d68   Number         4  bldc.o(.text)
    __arm_cp.5_18                            0x08000d6c   Number         4  bldc.o(.text)
    __arm_cp.5_19                            0x08000d70   Number         4  bldc.o(.text)
    __arm_cp.5_20                            0x08000d74   Number         4  bldc.o(.text)
    __arm_cp.5_21                            0x08000d78   Number         4  bldc.o(.text)
    __arm_cp.5_22                            0x08000d7c   Number         4  bldc.o(.text)
    __arm_cp.5_23                            0x08000d80   Number         4  bldc.o(.text)
    __arm_cp.5_24                            0x08000d84   Number         4  bldc.o(.text)
    __arm_cp.5_25                            0x08000d88   Number         4  bldc.o(.text)
    __arm_cp.5_26                            0x08000d8c   Number         4  bldc.o(.text)
    __arm_cp.5_27                            0x08000d90   Number         4  bldc.o(.text)
    __arm_cp.5_28                            0x08000d94   Number         4  bldc.o(.text)
    __arm_cp.5_29                            0x08000d98   Number         4  bldc.o(.text)
    __arm_cp.5_30                            0x08000d9c   Number         4  bldc.o(.text)
    __arm_cp.5_31                            0x08000da0   Number         4  bldc.o(.text)
    __arm_cp.5_32                            0x08000da4   Number         4  bldc.o(.text)
    __arm_cp.5_33                            0x08000da8   Number         4  bldc.o(.text)
    __arm_cp.5_34                            0x08000dac   Number         4  bldc.o(.text)
    __arm_cp.5_35                            0x08000db0   Number         4  bldc.o(.text)
    __arm_cp.5_36                            0x08000db4   Number         4  bldc.o(.text)
    __arm_cp.5_37                            0x08000db8   Number         4  bldc.o(.text)
    __arm_cp.5_38                            0x08000dbc   Number         4  bldc.o(.text)
    __arm_cp.5_39                            0x08000dc0   Number         4  bldc.o(.text)
    __arm_cp.5_40                            0x08000dc4   Number         4  bldc.o(.text)
    __arm_cp.5_41                            0x08000dc8   Number         4  bldc.o(.text)
    __arm_cp.5_42                            0x08000dcc   Number         4  bldc.o(.text)
    __arm_cp.5_43                            0x08000dd0   Number         4  bldc.o(.text)
    __arm_cp.5_44                            0x08000dd4   Number         4  bldc.o(.text)
    __arm_cp.5_45                            0x08000dd8   Number         4  bldc.o(.text)
    __arm_cp.5_46                            0x08000ddc   Number         4  bldc.o(.text)
    __arm_cp.5_47                            0x08000de0   Number         4  bldc.o(.text)
    __arm_cp.5_48                            0x08000de4   Number         4  bldc.o(.text)
    __arm_cp.5_49                            0x08000de8   Number         4  bldc.o(.text)
    __arm_cp.5_50                            0x08000dec   Number         4  bldc.o(.text)
    __arm_cp.5_51                            0x08000df0   Number         4  bldc.o(.text)
    __arm_cp.5_52                            0x08000df4   Number         4  bldc.o(.text)
    __arm_cp.5_53                            0x08000df8   Number         4  bldc.o(.text)
    __arm_cp.5_54                            0x08000dfc   Number         4  bldc.o(.text)
    __arm_cp.5_55                            0x08000e00   Number         4  bldc.o(.text)
    __arm_cp.5_56                            0x08000e04   Number         4  bldc.o(.text)
    __arm_cp.5_57                            0x08000e08   Number         4  bldc.o(.text)
    __arm_cp.5_58                            0x08000e0c   Number         4  bldc.o(.text)
    __arm_cp.5_59                            0x08000e10   Number         4  bldc.o(.text)
    __arm_cp.5_60                            0x08000e14   Number         4  bldc.o(.text)
    __arm_cp.5_61                            0x08000e18   Number         4  bldc.o(.text)
    [Anonymous Symbol]                       0x08000e1c   Section        0  driver.o(.text)
    __arm_cp.0_0                             0x08000e88   Number         4  driver.o(.text)
    __arm_cp.2_0                             0x08000f78   Number         4  driver.o(.text)
    __arm_cp.2_1                             0x08000f7c   Number         4  driver.o(.text)
    __arm_cp.2_2                             0x08000f80   Number         4  driver.o(.text)
    __arm_cp.3_0                             0x08001098   Number         4  driver.o(.text)
    __arm_cp.3_1                             0x0800109c   Number         4  driver.o(.text)
    __arm_cp.3_2                             0x080010a0   Number         4  driver.o(.text)
    __arm_cp.3_3                             0x080010a4   Number         4  driver.o(.text)
    [Anonymous Symbol]                       0x080010a8   Section        0  bldcsine.o(.text)
    __arm_cp.1_0                             0x08001180   Number         4  bldcsine.o(.text)
    __arm_cp.2_0                             0x080011f8   Number         4  bldcsine.o(.text)
    __arm_cp.2_1                             0x080011fc   Number         4  bldcsine.o(.text)
    __arm_cp.2_2                             0x08001200   Number         4  bldcsine.o(.text)
    __arm_cp.2_3                             0x08001204   Number         4  bldcsine.o(.text)
    __arm_cp.2_4                             0x08001208   Number         4  bldcsine.o(.text)
    __arm_cp.2_5                             0x0800120c   Number         4  bldcsine.o(.text)
    __arm_cp.2_6                             0x08001210   Number         4  bldcsine.o(.text)
    __arm_cp.2_7                             0x08001214   Number         4  bldcsine.o(.text)
    __arm_cp.2_8                             0x08001218   Number         4  bldcsine.o(.text)
    __arm_cp.6_0                             0x08001394   Number         4  bldcsine.o(.text)
    __arm_cp.6_1                             0x08001398   Number         4  bldcsine.o(.text)
    __arm_cp.6_2                             0x0800139c   Number         4  bldcsine.o(.text)
    __arm_cp.6_3                             0x080013a0   Number         4  bldcsine.o(.text)
    __arm_cp.6_4                             0x080013a4   Number         4  bldcsine.o(.text)
    __arm_cp.6_5                             0x080013a8   Number         4  bldcsine.o(.text)
    __arm_cp.6_6                             0x080013ac   Number         4  bldcsine.o(.text)
    __arm_cp.6_7                             0x080013b0   Number         4  bldcsine.o(.text)
    __arm_cp.6_8                             0x080013b4   Number         4  bldcsine.o(.text)
    __arm_cp.6_9                             0x080013b8   Number         4  bldcsine.o(.text)
    __arm_cp.6_10                            0x080013bc   Number         4  bldcsine.o(.text)
    __arm_cp.6_11                            0x080013c0   Number         4  bldcsine.o(.text)
    __arm_cp.6_12                            0x080013c4   Number         4  bldcsine.o(.text)
    __arm_cp.6_13                            0x080013c8   Number         4  bldcsine.o(.text)
    __arm_cp.6_14                            0x080013cc   Number         4  bldcsine.o(.text)
    __arm_cp.6_15                            0x080013d0   Number         4  bldcsine.o(.text)
    __arm_cp.6_16                            0x080013d4   Number         4  bldcsine.o(.text)
    __arm_cp.6_17                            0x080013d8   Number         4  bldcsine.o(.text)
    __arm_cp.6_18                            0x080013dc   Number         4  bldcsine.o(.text)
    __arm_cp.6_19                            0x080013e0   Number         4  bldcsine.o(.text)
    __arm_cp.6_20                            0x080013e4   Number         4  bldcsine.o(.text)
    __arm_cp.6_21                            0x080013e8   Number         4  bldcsine.o(.text)
    __arm_cp.6_22                            0x080013ec   Number         4  bldcsine.o(.text)
    __arm_cp.6_23                            0x080013f0   Number         4  bldcsine.o(.text)
    [Anonymous Symbol]                       0x080013f4   Section        0  setup.o(.text)
    __arm_cp.3_0                             0x08001490   Number         4  setup.o(.text)
    __arm_cp.3_1                             0x08001494   Number         4  setup.o(.text)
    __arm_cp.4_0                             0x080014e8   Number         4  setup.o(.text)
    __arm_cp.4_1                             0x080014ec   Number         4  setup.o(.text)
    __arm_cp.4_2                             0x080014f0   Number         4  setup.o(.text)
    __arm_cp.5_0                             0x08001768   Number         4  setup.o(.text)
    __arm_cp.5_1                             0x0800176c   Number         4  setup.o(.text)
    __arm_cp.5_2                             0x08001770   Number         4  setup.o(.text)
    __arm_cp.5_3                             0x08001774   Number         4  setup.o(.text)
    __arm_cp.6_0                             0x080018f0   Number         4  setup.o(.text)
    __arm_cp.6_1                             0x080018f4   Number         4  setup.o(.text)
    __arm_cp.6_2                             0x080018f8   Number         4  setup.o(.text)
    __arm_cp.6_3                             0x080018fc   Number         4  setup.o(.text)
    __arm_cp.6_4                             0x08001900   Number         4  setup.o(.text)
    __arm_cp.6_5                             0x08001904   Number         4  setup.o(.text)
    __arm_cp.7_0                             0x080019dc   Number         4  setup.o(.text)
    __arm_cp.7_1                             0x080019e0   Number         4  setup.o(.text)
    __arm_cp.7_2                             0x080019e4   Number         4  setup.o(.text)
    __arm_cp.7_3                             0x080019e8   Number         4  setup.o(.text)
    __arm_cp.16_0                            0x08001aa4   Number         4  setup.o(.text)
    __arm_cp.16_1                            0x08001aa8   Number         4  setup.o(.text)
    __arm_cp.17_0                            0x08001b0c   Number         4  setup.o(.text)
    __arm_cp.17_1                            0x08001b10   Number         4  setup.o(.text)
    __arm_cp.17_2                            0x08001b14   Number         4  setup.o(.text)
    __arm_cp.17_3                            0x08001b18   Number         4  setup.o(.text)
    __arm_cp.18_0                            0x08001b74   Number         4  setup.o(.text)
    __arm_cp.18_1                            0x08001b78   Number         4  setup.o(.text)
    __arm_cp.18_2                            0x08001b7c   Number         4  setup.o(.text)
    __arm_cp.18_3                            0x08001b80   Number         4  setup.o(.text)
    __arm_cp.18_4                            0x08001b84   Number         4  setup.o(.text)
    __arm_cp.19_0                            0x08001ba0   Number         4  setup.o(.text)
    __arm_cp.19_1                            0x08001ba4   Number         4  setup.o(.text)
    __arm_cp.19_2                            0x08001ba8   Number         4  setup.o(.text)
    __arm_cp.20_0                            0x08001bd4   Number         4  setup.o(.text)
    __arm_cp.20_1                            0x08001bd8   Number         4  setup.o(.text)
    [Anonymous Symbol]                       0x08001bdc   Section        0  it.o(.text)
    __arm_cp.0_0                             0x08001be8   Number         4  it.o(.text)
    __arm_cp.1_0                             0x08001bf4   Number         4  it.o(.text)
    __arm_cp.2_0                             0x08001c28   Number         4  it.o(.text)
    __arm_cp.2_1                             0x08001c2c   Number         4  it.o(.text)
    __arm_cp.2_2                             0x08001c30   Number         4  it.o(.text)
    __arm_cp.2_3                             0x08001c34   Number         4  it.o(.text)
    __arm_cp.2_4                             0x08001c38   Number         4  it.o(.text)
    __arm_cp.3_0                             0x08001c98   Number         4  it.o(.text)
    __arm_cp.3_1                             0x08001c9c   Number         4  it.o(.text)
    __arm_cp.3_2                             0x08001ca0   Number         4  it.o(.text)
    __arm_cp.3_3                             0x08001ca4   Number         4  it.o(.text)
    __arm_cp.3_4                             0x08001ca8   Number         4  it.o(.text)
    __arm_cp.3_5                             0x08001cac   Number         4  it.o(.text)
    __arm_cp.4_0                             0x08001cfc   Number         4  it.o(.text)
    __arm_cp.4_1                             0x08001d00   Number         4  it.o(.text)
    __arm_cp.4_2                             0x08001d04   Number         4  it.o(.text)
    __arm_cp.4_3                             0x08001d08   Number         4  it.o(.text)
    __arm_cp.5_0                             0x08001d14   Number         4  it.o(.text)
    __arm_cp.6_0                             0x08001d2c   Number         4  it.o(.text)
    [Anonymous Symbol]                       0x08001d40   Section        0  remotedummy.o(.text)
    __arm_cp.0_0                             0x08001da0   Number         4  remotedummy.o(.text)
    __arm_cp.0_2                             0x08001db4   Number         4  remotedummy.o(.text)
    __arm_cp.0_3                             0x08001db8   Number         4  remotedummy.o(.text)
    __arm_cp.0_4                             0x08001dbc   Number         4  remotedummy.o(.text)
    [Anonymous Symbol]                       0x08001dc4   Section        0  i2c.o(.text)
    __arm_cp.0_0                             0x08001e34   Number         4  i2c.o(.text)
    __arm_cp.0_1                             0x08001e38   Number         4  i2c.o(.text)
    __arm_cp.0_2                             0x08001e3c   Number         4  i2c.o(.text)
    __arm_cp.0_3                             0x08001e40   Number         4  i2c.o(.text)
    __arm_cp.0_4                             0x08001e44   Number         4  i2c.o(.text)
    __arm_cp.1_0                             0x08001f34   Number         4  i2c.o(.text)
    __arm_cp.1_1                             0x08001f38   Number         4  i2c.o(.text)
    __arm_cp.1_2                             0x08001f3c   Number         4  i2c.o(.text)
    __arm_cp.5_0                             0x080020d0   Number         4  i2c.o(.text)
    __arm_cp.5_1                             0x080020d4   Number         4  i2c.o(.text)
    __arm_cp.5_2                             0x080020d8   Number         4  i2c.o(.text)
    __arm_cp.7_0                             0x08002188   Number         4  i2c.o(.text)
    __arm_cp.7_1                             0x0800218c   Number         4  i2c.o(.text)
    __arm_cp.7_2                             0x08002190   Number         4  i2c.o(.text)
    __arm_cp.8_0                             0x08002224   Number         4  i2c.o(.text)
    __arm_cp.8_1                             0x08002228   Number         4  i2c.o(.text)
    [Anonymous Symbol]                       0x0800223c   Section        0  imumpu6050.o(.text)
    __arm_cp.1_0                             0x080022c4   Number         4  imumpu6050.o(.text)
    __arm_cp.1_1                             0x080022c8   Number         4  imumpu6050.o(.text)
    __arm_cp.1_2                             0x080022cc   Number         4  imumpu6050.o(.text)
    __arm_cp.2_0                             0x080023c0   Number         4  imumpu6050.o(.text)
    __arm_cp.3_0                             0x08002440   Number         4  imumpu6050.o(.text)
    __arm_cp.3_1                             0x08002444   Number         4  imumpu6050.o(.text)
    __arm_cp.3_2                             0x08002448   Number         4  imumpu6050.o(.text)
    __arm_cp.3_3                             0x0800244c   Number         4  imumpu6050.o(.text)
    [Anonymous Symbol]                       0x08002450   Section        0  segger_rtt.o(.text)
    __arm_cp.0_0                             0x08002518   Number         4  segger_rtt.o(.text)
    __arm_cp.0_1                             0x0800251c   Number         4  segger_rtt.o(.text)
    __arm_cp.0_2                             0x08002520   Number         4  segger_rtt.o(.text)
    __arm_cp.0_3                             0x08002524   Number         4  segger_rtt.o(.text)
    __arm_cp.0_4                             0x08002528   Number         4  segger_rtt.o(.text)
    __arm_cp.1_0                             0x080025f4   Number         4  segger_rtt.o(.text)
    __arm_cp.1_1                             0x080025f8   Number         4  segger_rtt.o(.text)
    __arm_cp.1_2                             0x080025fc   Number         4  segger_rtt.o(.text)
    __arm_cp.1_3                             0x08002600   Number         4  segger_rtt.o(.text)
    __arm_cp.1_4                             0x08002604   Number         4  segger_rtt.o(.text)
    __arm_cp.4_0                             0x080026d8   Number         4  segger_rtt.o(.text)
    __arm_cp.5_0                             0x08002754   Number         4  segger_rtt.o(.text)
    __arm_cp.6_0                             0x0800288c   Number         4  segger_rtt.o(.text)
    __arm_cp.7_0                             0x080029c4   Number         4  segger_rtt.o(.text)
    __arm_cp.8_0                             0x08002a44   Number         4  segger_rtt.o(.text)
    __arm_cp.8_1                             0x08002a48   Number         4  segger_rtt.o(.text)
    __arm_cp.8_2                             0x08002a4c   Number         4  segger_rtt.o(.text)
    __arm_cp.8_3                             0x08002a50   Number         4  segger_rtt.o(.text)
    __arm_cp.8_4                             0x08002a54   Number         4  segger_rtt.o(.text)
    __arm_cp.9_0                             0x08002ad4   Number         4  segger_rtt.o(.text)
    __arm_cp.9_1                             0x08002ad8   Number         4  segger_rtt.o(.text)
    __arm_cp.9_2                             0x08002adc   Number         4  segger_rtt.o(.text)
    __arm_cp.9_3                             0x08002ae0   Number         4  segger_rtt.o(.text)
    __arm_cp.9_4                             0x08002ae4   Number         4  segger_rtt.o(.text)
    __arm_cp.10_0                            0x08002b68   Number         4  segger_rtt.o(.text)
    __arm_cp.10_1                            0x08002b6c   Number         4  segger_rtt.o(.text)
    __arm_cp.10_2                            0x08002b70   Number         4  segger_rtt.o(.text)
    __arm_cp.10_3                            0x08002b74   Number         4  segger_rtt.o(.text)
    __arm_cp.10_4                            0x08002b78   Number         4  segger_rtt.o(.text)
    __arm_cp.11_0                            0x08002bac   Number         4  segger_rtt.o(.text)
    __arm_cp.12_0                            0x08002c44   Number         4  segger_rtt.o(.text)
    __arm_cp.12_1                            0x08002c48   Number         4  segger_rtt.o(.text)
    __arm_cp.12_2                            0x08002c4c   Number         4  segger_rtt.o(.text)
    __arm_cp.12_3                            0x08002c50   Number         4  segger_rtt.o(.text)
    __arm_cp.12_4                            0x08002c54   Number         4  segger_rtt.o(.text)
    __arm_cp.13_0                            0x08002cfc   Number         4  segger_rtt.o(.text)
    __arm_cp.13_1                            0x08002d00   Number         4  segger_rtt.o(.text)
    __arm_cp.13_2                            0x08002d04   Number         4  segger_rtt.o(.text)
    __arm_cp.13_3                            0x08002d08   Number         4  segger_rtt.o(.text)
    __arm_cp.13_4                            0x08002d0c   Number         4  segger_rtt.o(.text)
    __arm_cp.14_0                            0x08002dec   Number         4  segger_rtt.o(.text)
    __arm_cp.14_1                            0x08002df0   Number         4  segger_rtt.o(.text)
    __arm_cp.14_2                            0x08002df4   Number         4  segger_rtt.o(.text)
    __arm_cp.14_3                            0x08002df8   Number         4  segger_rtt.o(.text)
    __arm_cp.14_4                            0x08002dfc   Number         4  segger_rtt.o(.text)
    __arm_cp.16_0                            0x08002e70   Number         4  segger_rtt.o(.text)
    __arm_cp.16_1                            0x08002e74   Number         4  segger_rtt.o(.text)
    __arm_cp.16_2                            0x08002e78   Number         4  segger_rtt.o(.text)
    __arm_cp.16_3                            0x08002e7c   Number         4  segger_rtt.o(.text)
    __arm_cp.16_4                            0x08002e80   Number         4  segger_rtt.o(.text)
    __arm_cp.17_0                            0x08002e94   Number         4  segger_rtt.o(.text)
    __arm_cp.18_0                            0x08002ea8   Number         4  segger_rtt.o(.text)
    __arm_cp.19_0                            0x08002f58   Number         4  segger_rtt.o(.text)
    __arm_cp.19_1                            0x08002f5c   Number         4  segger_rtt.o(.text)
    __arm_cp.19_2                            0x08002f60   Number         4  segger_rtt.o(.text)
    __arm_cp.19_3                            0x08002f64   Number         4  segger_rtt.o(.text)
    __arm_cp.19_4                            0x08002f68   Number         4  segger_rtt.o(.text)
    __arm_cp.20_0                            0x08003018   Number         4  segger_rtt.o(.text)
    __arm_cp.20_1                            0x0800301c   Number         4  segger_rtt.o(.text)
    __arm_cp.20_2                            0x08003020   Number         4  segger_rtt.o(.text)
    __arm_cp.20_3                            0x08003024   Number         4  segger_rtt.o(.text)
    __arm_cp.20_4                            0x08003028   Number         4  segger_rtt.o(.text)
    __arm_cp.21_0                            0x080030c4   Number         4  segger_rtt.o(.text)
    __arm_cp.21_1                            0x080030c8   Number         4  segger_rtt.o(.text)
    __arm_cp.21_2                            0x080030cc   Number         4  segger_rtt.o(.text)
    __arm_cp.21_3                            0x080030d0   Number         4  segger_rtt.o(.text)
    __arm_cp.21_4                            0x080030d4   Number         4  segger_rtt.o(.text)
    __arm_cp.22_0                            0x08003174   Number         4  segger_rtt.o(.text)
    __arm_cp.22_1                            0x08003178   Number         4  segger_rtt.o(.text)
    __arm_cp.22_2                            0x0800317c   Number         4  segger_rtt.o(.text)
    __arm_cp.22_3                            0x08003180   Number         4  segger_rtt.o(.text)
    __arm_cp.22_4                            0x08003184   Number         4  segger_rtt.o(.text)
    __arm_cp.23_0                            0x08003204   Number         4  segger_rtt.o(.text)
    __arm_cp.23_1                            0x08003208   Number         4  segger_rtt.o(.text)
    __arm_cp.23_2                            0x0800320c   Number         4  segger_rtt.o(.text)
    __arm_cp.23_3                            0x08003210   Number         4  segger_rtt.o(.text)
    __arm_cp.23_4                            0x08003214   Number         4  segger_rtt.o(.text)
    __arm_cp.24_0                            0x08003294   Number         4  segger_rtt.o(.text)
    __arm_cp.24_1                            0x08003298   Number         4  segger_rtt.o(.text)
    __arm_cp.24_2                            0x0800329c   Number         4  segger_rtt.o(.text)
    __arm_cp.24_3                            0x080032a0   Number         4  segger_rtt.o(.text)
    __arm_cp.24_4                            0x080032a4   Number         4  segger_rtt.o(.text)
    __arm_cp.25_0                            0x08003324   Number         4  segger_rtt.o(.text)
    __arm_cp.25_1                            0x08003328   Number         4  segger_rtt.o(.text)
    __arm_cp.25_2                            0x0800332c   Number         4  segger_rtt.o(.text)
    __arm_cp.25_3                            0x08003330   Number         4  segger_rtt.o(.text)
    __arm_cp.25_4                            0x08003334   Number         4  segger_rtt.o(.text)
    __arm_cp.26_0                            0x080033b4   Number         4  segger_rtt.o(.text)
    __arm_cp.26_1                            0x080033b8   Number         4  segger_rtt.o(.text)
    __arm_cp.26_2                            0x080033bc   Number         4  segger_rtt.o(.text)
    __arm_cp.26_3                            0x080033c0   Number         4  segger_rtt.o(.text)
    __arm_cp.26_4                            0x080033c4   Number         4  segger_rtt.o(.text)
    __arm_cp.27_0                            0x0800341c   Number         4  segger_rtt.o(.text)
    __arm_cp.27_1                            0x08003420   Number         4  segger_rtt.o(.text)
    __arm_cp.27_2                            0x08003424   Number         4  segger_rtt.o(.text)
    __arm_cp.27_3                            0x08003428   Number         4  segger_rtt.o(.text)
    __arm_cp.27_4                            0x0800342c   Number         4  segger_rtt.o(.text)
    __arm_cp.28_0                            0x08003578   Number         4  segger_rtt.o(.text)
    __arm_cp.28_1                            0x0800357c   Number         4  segger_rtt.o(.text)
    __arm_cp.28_2                            0x08003580   Number         4  segger_rtt.o(.text)
    __arm_cp.28_3                            0x08003584   Number         4  segger_rtt.o(.text)
    __arm_cp.28_4                            0x08003588   Number         4  segger_rtt.o(.text)
    __arm_cp.28_5                            0x0800358c   Number         4  segger_rtt.o(.text)
    __arm_cp.28_6                            0x08003590   Number         4  segger_rtt.o(.text)
    __arm_cp.29_9                            0x08003964   Number         4  segger_rtt.o(.text)
    __arm_cp.29_10                           0x08003968   Number         4  segger_rtt.o(.text)
    __arm_cp.29_11                           0x0800396c   Number         4  segger_rtt.o(.text)
    __arm_cp.29_12                           0x08003970   Number         4  segger_rtt.o(.text)
    __arm_cp.29_0                            0x080039c8   Number         4  segger_rtt.o(.text)
    __arm_cp.29_5                            0x080039cc   Number         4  segger_rtt.o(.text)
    __arm_cp.29_6                            0x080039d0   Number         4  segger_rtt.o(.text)
    __arm_cp.30_0                            0x080039f8   Number         4  segger_rtt.o(.text)
    __arm_cp.31_0                            0x08003a1c   Number         4  segger_rtt.o(.text)
    [Anonymous Symbol]                       0x08003a20   Section        0  gd32e23x_adc.o(.text)
    __arm_cp.0_0                             0x08003a38   Number         4  gd32e23x_adc.o(.text)
    __arm_cp.1_0                             0x08003a50   Number         4  gd32e23x_adc.o(.text)
    __arm_cp.2_0                             0x08003a60   Number         4  gd32e23x_adc.o(.text)
    __arm_cp.3_0                             0x08003a84   Number         4  gd32e23x_adc.o(.text)
    __arm_cp.4_0                             0x08003a98   Number         4  gd32e23x_adc.o(.text)
    __arm_cp.5_0                             0x08003aac   Number         4  gd32e23x_adc.o(.text)
    __arm_cp.6_0                             0x08003ac0   Number         4  gd32e23x_adc.o(.text)
    __arm_cp.7_0                             0x08003ad4   Number         4  gd32e23x_adc.o(.text)
    __arm_cp.8_0                             0x08003b18   Number         4  gd32e23x_adc.o(.text)
    __arm_cp.9_0                             0x08003b84   Number         4  gd32e23x_adc.o(.text)
    __arm_cp.10_0                            0x08003ba0   Number         4  gd32e23x_adc.o(.text)
    __arm_cp.11_0                            0x08003be0   Number         4  gd32e23x_adc.o(.text)
    __arm_cp.12_0                            0x08003c6c   Number         4  gd32e23x_adc.o(.text)
    __arm_cp.13_0                            0x08003cc4   Number         4  gd32e23x_adc.o(.text)
    __arm_cp.14_0                            0x08003ce4   Number         4  gd32e23x_adc.o(.text)
    __arm_cp.14_1                            0x08003ce8   Number         4  gd32e23x_adc.o(.text)
    __arm_cp.15_0                            0x08003d2c   Number         4  gd32e23x_adc.o(.text)
    __arm_cp.16_0                            0x08003d50   Number         4  gd32e23x_adc.o(.text)
    __arm_cp.16_1                            0x08003d54   Number         4  gd32e23x_adc.o(.text)
    __arm_cp.16_2                            0x08003d58   Number         4  gd32e23x_adc.o(.text)
    __arm_cp.17_0                            0x08003d84   Number         4  gd32e23x_adc.o(.text)
    __arm_cp.18_0                            0x08003d90   Number         4  gd32e23x_adc.o(.text)
    __arm_cp.19_0                            0x08003dd8   Number         4  gd32e23x_adc.o(.text)
    __arm_cp.20_0                            0x08003de8   Number         4  gd32e23x_adc.o(.text)
    __arm_cp.21_0                            0x08003df8   Number         4  gd32e23x_adc.o(.text)
    __arm_cp.22_0                            0x08003e2c   Number         4  gd32e23x_adc.o(.text)
    __arm_cp.23_0                            0x08003e3c   Number         4  gd32e23x_adc.o(.text)
    __arm_cp.24_0                            0x08003e74   Number         4  gd32e23x_adc.o(.text)
    __arm_cp.25_0                            0x08003eac   Number         4  gd32e23x_adc.o(.text)
    __arm_cp.26_0                            0x08003ecc   Number         4  gd32e23x_adc.o(.text)
    __arm_cp.26_1                            0x08003ed0   Number         4  gd32e23x_adc.o(.text)
    __arm_cp.26_2                            0x08003ed4   Number         4  gd32e23x_adc.o(.text)
    __arm_cp.27_0                            0x08003ef8   Number         4  gd32e23x_adc.o(.text)
    __arm_cp.27_1                            0x08003efc   Number         4  gd32e23x_adc.o(.text)
    __arm_cp.28_0                            0x08003f18   Number         4  gd32e23x_adc.o(.text)
    __arm_cp.28_1                            0x08003f1c   Number         4  gd32e23x_adc.o(.text)
    __arm_cp.29_0                            0x08003f30   Number         4  gd32e23x_adc.o(.text)
    __arm_cp.29_1                            0x08003f34   Number         4  gd32e23x_adc.o(.text)
    __arm_cp.30_0                            0x08003f4c   Number         4  gd32e23x_adc.o(.text)
    __arm_cp.31_0                            0x08003f78   Number         4  gd32e23x_adc.o(.text)
    __arm_cp.31_1                            0x08003f7c   Number         4  gd32e23x_adc.o(.text)
    __arm_cp.32_0                            0x08003f8c   Number         4  gd32e23x_adc.o(.text)
    __arm_cp.33_0                            0x08003f9c   Number         4  gd32e23x_adc.o(.text)
    [Anonymous Symbol]                       0x08003fa0   Section        0  gd32e23x_dma.o(.text)
    __arm_cp.0_0                             0x08003fcc   Number         4  gd32e23x_dma.o(.text)
    __arm_cp.2_0                             0x08004054   Number         4  gd32e23x_dma.o(.text)
    __arm_cp.3_0                             0x08004068   Number         4  gd32e23x_dma.o(.text)
    __arm_cp.4_0                             0x0800407c   Number         4  gd32e23x_dma.o(.text)
    __arm_cp.5_0                             0x08004090   Number         4  gd32e23x_dma.o(.text)
    __arm_cp.6_0                             0x080040a8   Number         4  gd32e23x_dma.o(.text)
    __arm_cp.7_0                             0x080040c0   Number         4  gd32e23x_dma.o(.text)
    __arm_cp.8_0                             0x080040d4   Number         4  gd32e23x_dma.o(.text)
    __arm_cp.9_0                             0x080040e4   Number         4  gd32e23x_dma.o(.text)
    __arm_cp.10_0                            0x080040f4   Number         4  gd32e23x_dma.o(.text)
    __arm_cp.11_0                            0x08004104   Number         4  gd32e23x_dma.o(.text)
    __arm_cp.12_0                            0x08004114   Number         4  gd32e23x_dma.o(.text)
    __arm_cp.13_0                            0x08004130   Number         4  gd32e23x_dma.o(.text)
    __arm_cp.14_0                            0x0800414c   Number         4  gd32e23x_dma.o(.text)
    __arm_cp.15_0                            0x08004168   Number         4  gd32e23x_dma.o(.text)
    __arm_cp.16_0                            0x0800417c   Number         4  gd32e23x_dma.o(.text)
    __arm_cp.17_0                            0x08004190   Number         4  gd32e23x_dma.o(.text)
    __arm_cp.18_0                            0x080041a4   Number         4  gd32e23x_dma.o(.text)
    __arm_cp.19_0                            0x080041b8   Number         4  gd32e23x_dma.o(.text)
    __arm_cp.20_0                            0x080041d8   Number         4  gd32e23x_dma.o(.text)
    __arm_cp.21_0                            0x080041ec   Number         4  gd32e23x_dma.o(.text)
    __arm_cp.22_0                            0x08004200   Number         4  gd32e23x_dma.o(.text)
    __arm_cp.23_0                            0x0800423c   Number         4  gd32e23x_dma.o(.text)
    __arm_cp.24_0                            0x08004250   Number         4  gd32e23x_dma.o(.text)
    __arm_cp.25_0                            0x08004264   Number         4  gd32e23x_dma.o(.text)
    __arm_cp.26_0                            0x08004278   Number         4  gd32e23x_dma.o(.text)
    [Anonymous Symbol]                       0x0800427c   Section        0  gd32e23x_exti.o(.text)
    __arm_cp.0_0                             0x08004290   Number         4  gd32e23x_exti.o(.text)
    __arm_cp.0_1                             0x08004294   Number         4  gd32e23x_exti.o(.text)
    __arm_cp.1_0                             0x08004300   Number         4  gd32e23x_exti.o(.text)
    __arm_cp.2_0                             0x08004310   Number         4  gd32e23x_exti.o(.text)
    __arm_cp.3_0                             0x08004320   Number         4  gd32e23x_exti.o(.text)
    __arm_cp.4_0                             0x08004330   Number         4  gd32e23x_exti.o(.text)
    __arm_cp.5_0                             0x08004340   Number         4  gd32e23x_exti.o(.text)
    __arm_cp.6_0                             0x08004350   Number         4  gd32e23x_exti.o(.text)
    __arm_cp.7_0                             0x0800435c   Number         4  gd32e23x_exti.o(.text)
    __arm_cp.8_0                             0x08004378   Number         4  gd32e23x_exti.o(.text)
    __arm_cp.9_0                             0x08004384   Number         4  gd32e23x_exti.o(.text)
    __arm_cp.10_0                            0x08004394   Number         4  gd32e23x_exti.o(.text)
    __arm_cp.11_0                            0x080043a4   Number         4  gd32e23x_exti.o(.text)
    [Anonymous Symbol]                       0x080043a8   Section        0  gd32e23x_fmc.o(.text)
    __arm_cp.0_0                             0x080043bc   Number         4  gd32e23x_fmc.o(.text)
    __arm_cp.0_1                             0x080043c0   Number         4  gd32e23x_fmc.o(.text)
    __arm_cp.0_2                             0x080043c4   Number         4  gd32e23x_fmc.o(.text)
    __arm_cp.1_0                             0x080043d4   Number         4  gd32e23x_fmc.o(.text)
    __arm_cp.2_0                             0x080043e8   Number         4  gd32e23x_fmc.o(.text)
    __arm_cp.3_0                             0x080043f8   Number         4  gd32e23x_fmc.o(.text)
    __arm_cp.4_0                             0x08004408   Number         4  gd32e23x_fmc.o(.text)
    __arm_cp.5_0                             0x08004494   Number         4  gd32e23x_fmc.o(.text)
    __arm_cp.5_1                             0x08004498   Number         4  gd32e23x_fmc.o(.text)
    __arm_cp.6_0                             0x080044d8   Number         4  gd32e23x_fmc.o(.text)
    __arm_cp.7_0                             0x0800455c   Number         4  gd32e23x_fmc.o(.text)
    __arm_cp.7_1                             0x08004560   Number         4  gd32e23x_fmc.o(.text)
    __arm_cp.8_0                             0x08004604   Number         4  gd32e23x_fmc.o(.text)
    __arm_cp.8_1                             0x08004608   Number         4  gd32e23x_fmc.o(.text)
    __arm_cp.9_0                             0x08004694   Number         4  gd32e23x_fmc.o(.text)
    __arm_cp.9_1                             0x08004698   Number         4  gd32e23x_fmc.o(.text)
    __arm_cp.10_0                            0x080046b8   Number         4  gd32e23x_fmc.o(.text)
    __arm_cp.10_1                            0x080046bc   Number         4  gd32e23x_fmc.o(.text)
    __arm_cp.10_2                            0x080046c0   Number         4  gd32e23x_fmc.o(.text)
    __arm_cp.11_0                            0x080046d4   Number         4  gd32e23x_fmc.o(.text)
    __arm_cp.12_0                            0x080046e8   Number         4  gd32e23x_fmc.o(.text)
    __arm_cp.14_0                            0x080047f8   Number         4  gd32e23x_fmc.o(.text)
    __arm_cp.14_1                            0x080047fc   Number         4  gd32e23x_fmc.o(.text)
    __arm_cp.14_2                            0x08004800   Number         4  gd32e23x_fmc.o(.text)
    __arm_cp.14_3                            0x08004804   Number         4  gd32e23x_fmc.o(.text)
    __arm_cp.14_4                            0x08004808   Number         4  gd32e23x_fmc.o(.text)
    __arm_cp.15_0                            0x08004818   Number         4  gd32e23x_fmc.o(.text)
    __arm_cp.16_0                            0x080048b8   Number         4  gd32e23x_fmc.o(.text)
    __arm_cp.16_1                            0x080048bc   Number         4  gd32e23x_fmc.o(.text)
    __arm_cp.16_2                            0x080048c0   Number         4  gd32e23x_fmc.o(.text)
    __arm_cp.16_3                            0x080048c4   Number         4  gd32e23x_fmc.o(.text)
    __arm_cp.16_4                            0x080048c8   Number         4  gd32e23x_fmc.o(.text)
    __arm_cp.17_0                            0x080049c8   Number         4  gd32e23x_fmc.o(.text)
    __arm_cp.17_1                            0x080049cc   Number         4  gd32e23x_fmc.o(.text)
    __arm_cp.17_2                            0x080049d0   Number         4  gd32e23x_fmc.o(.text)
    __arm_cp.17_3                            0x080049d4   Number         4  gd32e23x_fmc.o(.text)
    __arm_cp.18_0                            0x08004ad0   Number         4  gd32e23x_fmc.o(.text)
    __arm_cp.18_1                            0x08004ad4   Number         4  gd32e23x_fmc.o(.text)
    __arm_cp.18_2                            0x08004ad8   Number         4  gd32e23x_fmc.o(.text)
    __arm_cp.19_0                            0x08004b74   Number         4  gd32e23x_fmc.o(.text)
    __arm_cp.19_1                            0x08004b78   Number         4  gd32e23x_fmc.o(.text)
    __arm_cp.19_2                            0x08004b7c   Number         4  gd32e23x_fmc.o(.text)
    __arm_cp.19_3                            0x08004b80   Number         4  gd32e23x_fmc.o(.text)
    __arm_cp.20_0                            0x08004b90   Number         4  gd32e23x_fmc.o(.text)
    __arm_cp.21_0                            0x08004b9c   Number         4  gd32e23x_fmc.o(.text)
    __arm_cp.22_0                            0x08004ba8   Number         4  gd32e23x_fmc.o(.text)
    __arm_cp.23_0                            0x08004bb8   Number         4  gd32e23x_fmc.o(.text)
    __arm_cp.24_0                            0x08004bc8   Number         4  gd32e23x_fmc.o(.text)
    __arm_cp.25_0                            0x08004bd8   Number         4  gd32e23x_fmc.o(.text)
    __arm_cp.26_0                            0x08004be4   Number         4  gd32e23x_fmc.o(.text)
    __arm_cp.27_0                            0x08004c0c   Number         4  gd32e23x_fmc.o(.text)
    __arm_cp.28_0                            0x08004c18   Number         4  gd32e23x_fmc.o(.text)
    __arm_cp.29_0                            0x08004c3c   Number         4  gd32e23x_fmc.o(.text)
    [Anonymous Symbol]                       0x08004c40   Section        0  gd32e23x_fwdgt.o(.text)
    __arm_cp.0_0                             0x08004c48   Number         4  gd32e23x_fwdgt.o(.text)
    __arm_cp.0_1                             0x08004c4c   Number         4  gd32e23x_fwdgt.o(.text)
    __arm_cp.1_0                             0x08004c58   Number         4  gd32e23x_fwdgt.o(.text)
    __arm_cp.2_0                             0x08004c64   Number         4  gd32e23x_fwdgt.o(.text)
    __arm_cp.2_1                             0x08004c68   Number         4  gd32e23x_fwdgt.o(.text)
    __arm_cp.3_0                             0x08004c90   Number         4  gd32e23x_fwdgt.o(.text)
    __arm_cp.3_1                             0x08004c94   Number         4  gd32e23x_fwdgt.o(.text)
    __arm_cp.3_2                             0x08004c98   Number         4  gd32e23x_fwdgt.o(.text)
    __arm_cp.4_0                             0x08004cc4   Number         4  gd32e23x_fwdgt.o(.text)
    __arm_cp.4_1                             0x08004cc8   Number         4  gd32e23x_fwdgt.o(.text)
    __arm_cp.4_2                             0x08004ccc   Number         4  gd32e23x_fwdgt.o(.text)
    __arm_cp.4_3                             0x08004cd0   Number         4  gd32e23x_fwdgt.o(.text)
    __arm_cp.5_0                             0x08004cfc   Number         4  gd32e23x_fwdgt.o(.text)
    __arm_cp.5_1                             0x08004d00   Number         4  gd32e23x_fwdgt.o(.text)
    __arm_cp.5_2                             0x08004d04   Number         4  gd32e23x_fwdgt.o(.text)
    __arm_cp.5_3                             0x08004d08   Number         4  gd32e23x_fwdgt.o(.text)
    __arm_cp.6_0                             0x08004d14   Number         4  gd32e23x_fwdgt.o(.text)
    __arm_cp.6_1                             0x08004d18   Number         4  gd32e23x_fwdgt.o(.text)
    __arm_cp.7_0                             0x08004d5c   Number         4  gd32e23x_fwdgt.o(.text)
    __arm_cp.7_1                             0x08004d60   Number         4  gd32e23x_fwdgt.o(.text)
    __arm_cp.7_2                             0x08004d64   Number         4  gd32e23x_fwdgt.o(.text)
    __arm_cp.7_3                             0x08004d68   Number         4  gd32e23x_fwdgt.o(.text)
    __arm_cp.7_4                             0x08004d6c   Number         4  gd32e23x_fwdgt.o(.text)
    __arm_cp.8_0                             0x08004d7c   Number         4  gd32e23x_fwdgt.o(.text)
    [Anonymous Symbol]                       0x08004d80   Section        0  gd32e23x_gpio.o(.text)
    __arm_cp.0_0                             0x08004db4   Number         4  gd32e23x_gpio.o(.text)
    __arm_cp.14_0                            0x08004ef8   Number         4  gd32e23x_gpio.o(.text)
    [Anonymous Symbol]                       0x08004efc   Section        0  gd32e23x_i2c.o(.text)
    __arm_cp.0_0                             0x08004f24   Number         4  gd32e23x_i2c.o(.text)
    __arm_cp.0_1                             0x08004f28   Number         4  gd32e23x_i2c.o(.text)
    __arm_cp.0_2                             0x08004f2c   Number         4  gd32e23x_i2c.o(.text)
    __arm_cp.1_0                             0x0800502c   Number         4  gd32e23x_i2c.o(.text)
    __arm_cp.1_1                             0x08005030   Number         4  gd32e23x_i2c.o(.text)
    __arm_cp.1_2                             0x08005034   Number         4  gd32e23x_i2c.o(.text)
    __arm_cp.1_3                             0x08005038   Number         4  gd32e23x_i2c.o(.text)
    __arm_cp.1_4                             0x0800503c   Number         4  gd32e23x_i2c.o(.text)
    __arm_cp.1_5                             0x08005040   Number         4  gd32e23x_i2c.o(.text)
    __arm_cp.1_6                             0x08005044   Number         4  gd32e23x_i2c.o(.text)
    __arm_cp.1_7                             0x08005048   Number         4  gd32e23x_i2c.o(.text)
    __arm_cp.2_0                             0x08005064   Number         4  gd32e23x_i2c.o(.text)
    __arm_cp.30_0                            0x080051e0   Number         4  gd32e23x_i2c.o(.text)
    __arm_cp.33_0                            0x0800524c   Number         4  gd32e23x_i2c.o(.text)
    __arm_cp.33_1                            0x08005250   Number         4  gd32e23x_i2c.o(.text)
    __arm_cp.34_0                            0x08005274   Number         4  gd32e23x_i2c.o(.text)
    [Anonymous Symbol]                       0x08005278   Section        0  gd32e23x_misc.o(.text)
    __arm_cp.0_0                             0x080052c4   Number         4  gd32e23x_misc.o(.text)
    __arm_cp.0_1                             0x080052c8   Number         4  gd32e23x_misc.o(.text)
    __arm_cp.0_2                             0x080052cc   Number         4  gd32e23x_misc.o(.text)
    __arm_cp.1_0                             0x080052f4   Number         4  gd32e23x_misc.o(.text)
    __arm_cp.2_0                             0x0800530c   Number         4  gd32e23x_misc.o(.text)
    __arm_cp.2_1                             0x08005310   Number         4  gd32e23x_misc.o(.text)
    __arm_cp.3_0                             0x08005320   Number         4  gd32e23x_misc.o(.text)
    __arm_cp.3_1                             0x08005324   Number         4  gd32e23x_misc.o(.text)
    __arm_cp.4_0                             0x08005334   Number         4  gd32e23x_misc.o(.text)
    __arm_cp.5_0                             0x08005344   Number         4  gd32e23x_misc.o(.text)
    __arm_cp.6_0                             0x08005360   Number         4  gd32e23x_misc.o(.text)
    [Anonymous Symbol]                       0x08005364   Section        0  gd32e23x_rcu.o(.text)
    __arm_cp.0_0                             0x080053c8   Number         4  gd32e23x_rcu.o(.text)
    __arm_cp.0_1                             0x080053cc   Number         4  gd32e23x_rcu.o(.text)
    __arm_cp.0_2                             0x080053d0   Number         4  gd32e23x_rcu.o(.text)
    __arm_cp.0_3                             0x080053d4   Number         4  gd32e23x_rcu.o(.text)
    __arm_cp.1_0                             0x080053ec   Number         4  gd32e23x_rcu.o(.text)
    __arm_cp.2_0                             0x08005404   Number         4  gd32e23x_rcu.o(.text)
    __arm_cp.3_0                             0x0800541c   Number         4  gd32e23x_rcu.o(.text)
    __arm_cp.4_0                             0x08005434   Number         4  gd32e23x_rcu.o(.text)
    __arm_cp.5_0                             0x0800544c   Number         4  gd32e23x_rcu.o(.text)
    __arm_cp.6_0                             0x08005464   Number         4  gd32e23x_rcu.o(.text)
    __arm_cp.7_0                             0x08005478   Number         4  gd32e23x_rcu.o(.text)
    __arm_cp.8_0                             0x0800548c   Number         4  gd32e23x_rcu.o(.text)
    __arm_cp.9_0                             0x080054a0   Number         4  gd32e23x_rcu.o(.text)
    __arm_cp.10_0                            0x080054b0   Number         4  gd32e23x_rcu.o(.text)
    __arm_cp.11_0                            0x080054c4   Number         4  gd32e23x_rcu.o(.text)
    __arm_cp.12_0                            0x080054d8   Number         4  gd32e23x_rcu.o(.text)
    __arm_cp.13_0                            0x080054ec   Number         4  gd32e23x_rcu.o(.text)
    __arm_cp.14_0                            0x080055b8   Number         4  gd32e23x_rcu.o(.text)
    __arm_cp.14_1                            0x080055bc   Number         4  gd32e23x_rcu.o(.text)
    __arm_cp.15_0                            0x080055d4   Number         4  gd32e23x_rcu.o(.text)
    __arm_cp.16_0                            0x080055f0   Number         4  gd32e23x_rcu.o(.text)
    __arm_cp.16_1                            0x080055f4   Number         4  gd32e23x_rcu.o(.text)
    __arm_cp.17_0                            0x0800560c   Number         4  gd32e23x_rcu.o(.text)
    __arm_cp.18_0                            0x08005624   Number         4  gd32e23x_rcu.o(.text)
    __arm_cp.19_0                            0x08005638   Number         4  gd32e23x_rcu.o(.text)
    __arm_cp.20_0                            0x08005650   Number         4  gd32e23x_rcu.o(.text)
    __arm_cp.21_0                            0x08005668   Number         4  gd32e23x_rcu.o(.text)
    __arm_cp.22_0                            0x0800567c   Number         4  gd32e23x_rcu.o(.text)
    __arm_cp.23_0                            0x08005694   Number         4  gd32e23x_rcu.o(.text)
    __arm_cp.24_0                            0x080056ac   Number         4  gd32e23x_rcu.o(.text)
    __arm_cp.25_0                            0x080056c4   Number         4  gd32e23x_rcu.o(.text)
    __arm_cp.26_0                            0x080056dc   Number         4  gd32e23x_rcu.o(.text)
    __arm_cp.27_0                            0x080057b0   Number         4  gd32e23x_rcu.o(.text)
    __arm_cp.27_1                            0x080057b4   Number         4  gd32e23x_rcu.o(.text)
    __arm_cp.27_2                            0x080057b8   Number         4  gd32e23x_rcu.o(.text)
    __arm_cp.27_3                            0x080057bc   Number         4  gd32e23x_rcu.o(.text)
    __arm_cp.27_4                            0x080057c0   Number         4  gd32e23x_rcu.o(.text)
    __arm_cp.28_0                            0x080057d8   Number         4  gd32e23x_rcu.o(.text)
    __arm_cp.29_0                            0x080057f0   Number         4  gd32e23x_rcu.o(.text)
    __arm_cp.30_0                            0x0800582c   Number         4  gd32e23x_rcu.o(.text)
    __arm_cp.31_0                            0x08005868   Number         4  gd32e23x_rcu.o(.text)
    __arm_cp.32_0                            0x0800587c   Number         4  gd32e23x_rcu.o(.text)
    __arm_cp.33_0                            0x08005890   Number         4  gd32e23x_rcu.o(.text)
    __arm_cp.34_0                            0x080058a4   Number         4  gd32e23x_rcu.o(.text)
    __arm_cp.35_0                            0x080058b8   Number         4  gd32e23x_rcu.o(.text)
    __arm_cp.36_0                            0x080058d0   Number         4  gd32e23x_rcu.o(.text)
    __arm_cp.36_1                            0x080058d4   Number         4  gd32e23x_rcu.o(.text)
    __arm_cp.37_0                            0x080058ec   Number         4  gd32e23x_rcu.o(.text)
    __arm_cp.38_0                            0x080059ec   Number         4  gd32e23x_rcu.o(.text)
    __arm_cp.38_1                            0x080059f0   Number         4  gd32e23x_rcu.o(.text)
    __arm_cp.38_2                            0x080059f4   Number         4  gd32e23x_rcu.o(.text)
    __arm_cp.38_4                            0x08005a08   Number         4  gd32e23x_rcu.o(.text)
    __arm_cp.38_5                            0x08005a0c   Number         4  gd32e23x_rcu.o(.text)
    __arm_cp.38_6                            0x08005a10   Number         4  gd32e23x_rcu.o(.text)
    [Anonymous Symbol]                       0x08005a14   Section        0  gd32e23x_syscfg.o(.text)
    __arm_cp.1_0                             0x08005a38   Number         4  gd32e23x_syscfg.o(.text)
    __arm_cp.2_0                             0x08005a48   Number         4  gd32e23x_syscfg.o(.text)
    __arm_cp.3_0                             0x08005a5c   Number         4  gd32e23x_syscfg.o(.text)
    __arm_cp.4_0                             0x08005a70   Number         4  gd32e23x_syscfg.o(.text)
    __arm_cp.5_0                             0x08005ae0   Number         4  gd32e23x_syscfg.o(.text)
    __arm_cp.6_0                             0x08005af0   Number         4  gd32e23x_syscfg.o(.text)
    __arm_cp.7_0                             0x08005b04   Number         4  gd32e23x_syscfg.o(.text)
    __arm_cp.8_0                             0x08005b14   Number         4  gd32e23x_syscfg.o(.text)
    __arm_cp.9_0                             0x08005b24   Number         4  gd32e23x_syscfg.o(.text)
    [Anonymous Symbol]                       0x08005b28   Section        0  gd32e23x_timer.o(.text)
    __arm_cp.0_0                             0x08005b8c   Number         4  gd32e23x_timer.o(.text)
    __arm_cp.0_1                             0x08005b90   Number         4  gd32e23x_timer.o(.text)
    __arm_cp.0_2                             0x08005b94   Number         4  gd32e23x_timer.o(.text)
    __arm_cp.0_3                             0x08005b98   Number         4  gd32e23x_timer.o(.text)
    __arm_cp.0_4                             0x08005b9c   Number         4  gd32e23x_timer.o(.text)
    __arm_cp.0_5                             0x08005ba0   Number         4  gd32e23x_timer.o(.text)
    __arm_cp.0_6                             0x08005ba4   Number         4  gd32e23x_timer.o(.text)
    __arm_cp.0_7                             0x08005ba8   Number         4  gd32e23x_timer.o(.text)
    __arm_cp.0_8                             0x08005bac   Number         4  gd32e23x_timer.o(.text)
    __arm_cp.0_9                             0x08005bb0   Number         4  gd32e23x_timer.o(.text)
    __arm_cp.1_0                             0x08005bc4   Number         4  gd32e23x_timer.o(.text)
    __arm_cp.2_0                             0x08005c5c   Number         4  gd32e23x_timer.o(.text)
    __arm_cp.2_1                             0x08005c60   Number         4  gd32e23x_timer.o(.text)
    __arm_cp.2_2                             0x08005c64   Number         4  gd32e23x_timer.o(.text)
    __arm_cp.2_3                             0x08005c68   Number         4  gd32e23x_timer.o(.text)
    __arm_cp.2_4                             0x08005c6c   Number         4  gd32e23x_timer.o(.text)
    __arm_cp.2_5                             0x08005c70   Number         4  gd32e23x_timer.o(.text)
    __arm_cp.2_6                             0x08005c74   Number         4  gd32e23x_timer.o(.text)
    __arm_cp.2_7                             0x08005c78   Number         4  gd32e23x_timer.o(.text)
    __arm_cp.30_0                            0x08005dcc   Number         4  gd32e23x_timer.o(.text)
    __arm_cp.42_0                            0x080060a4   Number         4  gd32e23x_timer.o(.text)
    __arm_cp.42_1                            0x080060a8   Number         4  gd32e23x_timer.o(.text)
    __arm_cp.42_2                            0x080060ac   Number         4  gd32e23x_timer.o(.text)
    __arm_cp.42_3                            0x080060b0   Number         4  gd32e23x_timer.o(.text)
    __arm_cp.42_4                            0x080060b4   Number         4  gd32e23x_timer.o(.text)
    __arm_cp.53_0                            0x0800651c   Number         4  gd32e23x_timer.o(.text)
    __arm_cp.56_0                            0x080066e4   Number         4  gd32e23x_timer.o(.text)
    __arm_cp.56_1                            0x080066e8   Number         4  gd32e23x_timer.o(.text)
    __arm_cp.56_2                            0x080066ec   Number         4  gd32e23x_timer.o(.text)
    __arm_cp.63_0                            0x080067b4   Number         4  gd32e23x_timer.o(.text)
    .text                                    0x08006914   Section       28  startup_gd32e23x.o(.text)
    [Anonymous Symbol]                       0x08006930   Section        0  system_gd32e23x.o(.text)
    __arm_cp.0_0                             0x08006a04   Number         4  system_gd32e23x.o(.text)
    __arm_cp.0_1                             0x08006a08   Number         4  system_gd32e23x.o(.text)
    __arm_cp.0_2                             0x08006a0c   Number         4  system_gd32e23x.o(.text)
    __arm_cp.0_3                             0x08006a10   Number         4  system_gd32e23x.o(.text)
    __arm_cp.0_4                             0x08006a14   Number         4  system_gd32e23x.o(.text)
    __arm_cp.0_5                             0x08006a18   Number         4  system_gd32e23x.o(.text)
    __arm_cp.1_0                             0x08006a78   Number         4  system_gd32e23x.o(.text)
    __arm_cp.1_1                             0x08006a7c   Number         4  system_gd32e23x.o(.text)
    __arm_cp.1_2                             0x08006a80   Number         4  system_gd32e23x.o(.text)
    __arm_cp.1_3                             0x08006a84   Number         4  system_gd32e23x.o(.text)
    .text                                    0x08006a98   Section        0  llmul.o(.text)
    .text                                    0x08006ac8   Section        0  memcpya.o(.text)
    .text                                    0x08006aec   Section        0  memseta.o(.text)
    .text                                    0x08006b10   Section        0  strlen.o(.text)
    .text                                    0x08006b1e   Section        0  fadd.o(.text)
    .text                                    0x08006bd0   Section        0  fmul.o(.text)
    .text                                    0x08006c4a   Section        0  fdiv.o(.text)
    .text                                    0x08006cc8   Section        0  dadd.o(.text)
    .text                                    0x08006e2c   Section        0  dmul.o(.text)
    .text                                    0x08006efc   Section        0  ddiv.o(.text)
    .text                                    0x08006fec   Section        0  fcmple.o(.text)
    .text                                    0x08007008   Section        0  fcmplt.o(.text)
    .text                                    0x08007024   Section        0  fcmpgt.o(.text)
    .text                                    0x08007040   Section        0  dcmple.o(.text)
    .text                                    0x0800706c   Section        0  fflti.o(.text)
    .text                                    0x08007082   Section        0  ffltui.o(.text)
    .text                                    0x08007090   Section        0  dflti.o(.text)
    .text                                    0x080070b8   Section        0  dfltui.o(.text)
    .text                                    0x080070d4   Section        0  ffixi.o(.text)
    .text                                    0x08007106   Section        0  ffixl.o(.text)
    .text                                    0x08007148   Section        0  dfixi.o(.text)
    .text                                    0x08007190   Section        0  f2d.o(.text)
    .text                                    0x080071b8   Section        0  d2f.o(.text)
    .text                                    0x080071f0   Section        0  uldiv.o(.text)
    .text                                    0x08007250   Section        0  llshl.o(.text)
    .text                                    0x08007270   Section        0  llushr.o(.text)
    .text                                    0x08007292   Section        0  llsshr.o(.text)
    .text                                    0x080072b8   Section        0  iusefp.o(.text)
    .text                                    0x080072b8   Section        0  fepilogue.o(.text)
    .text                                    0x0800733a   Section        0  depilogue.o(.text)
    .text                                    0x080073f8   Section       48  init.o(.text)
    i.__0sprintf$8                           0x08007428   Section        0  printf8.o(i.__0sprintf$8)
    i.__ARM_clz                              0x08007450   Section        0  depilogue.o(i.__ARM_clz)
    i.__scatterload_copy                     0x0800747e   Section       14  handlers.o(i.__scatterload_copy)
    i.__scatterload_null                     0x0800748c   Section        2  handlers.o(i.__scatterload_null)
    i.__scatterload_zeroinit                 0x0800748e   Section       14  handlers.o(i.__scatterload_zeroinit)
    _printf_core                             0x0800749d   Thumb Code  1020  printf8.o(i._printf_core)
    i._printf_core                           0x0800749c   Section        0  printf8.o(i._printf_core)
    _printf_post_padding                     0x080078c5   Thumb Code    32  printf8.o(i._printf_post_padding)
    i._printf_post_padding                   0x080078c4   Section        0  printf8.o(i._printf_post_padding)
    _printf_pre_padding                      0x080078e5   Thumb Code    44  printf8.o(i._printf_pre_padding)
    i._printf_pre_padding                    0x080078e4   Section        0  printf8.o(i._printf_pre_padding)
    _sputc                                   0x08007911   Thumb Code    10  printf8.o(i._sputc)
    i._sputc                                 0x08007910   Section        0  printf8.o(i._sputc)
    [Anonymous Symbol]                       0x0800791a   Section        0  bldc.o(.rodata..L__const.up_or_down.up_down)
    [Anonymous Symbol]                       0x08007926   Section        0  gd32e23x_gpio.o(.rodata..Lswitch.table.gpio_deinit.1)
    _DoInit._aInitStr                        0x08007932   Data          17  segger_rtt.o(.rodata._DoInit._aInitStr)
    [Anonymous Symbol]                       0x08007932   Section        0  segger_rtt.o(.rodata._DoInit._aInitStr)
    _aTerminalId                             0x08007943   Data          16  segger_rtt.o(.rodata.cst16)
    [Anonymous Symbol]                       0x08007943   Section        0  segger_rtt.o(.rodata.cst16)
    hall_to_sector                           0x08007953   Data           8  bldcsine.o(.rodata.cst8)
    [Anonymous Symbol]                       0x08007953   Section        0  bldcsine.o(.rodata.cst8)
    [Anonymous Symbol]                       0x0800795b   Section        0  gd32e23x_rcu.o(.rodata.cst8)
    sine_table                               0x08007c40   Data         720  bldcsine.o(.rodata.sine_table)
    [Anonymous Symbol]                       0x08007c40   Section        0  bldcsine.o(.rodata.sine_table)
    [Anonymous Symbol]                       0x08007f10   Section        0  segger_rtt.o(.rodata.str1.1)
    TIMER0_BRK_UP_TRG_COM_IRQHandler.interrupt_toggle 0x20000028   Data           1  it.o(.bss.TIMER0_BRK_UP_TRG_COM_IRQHandler.interrupt_toggle)
    [Anonymous Symbol]                       0x20000028   Section        0  it.o(.bss.TIMER0_BRK_UP_TRG_COM_IRQHandler.interrupt_toggle)
    _ActiveTerminal                          0x20000029   Data           1  segger_rtt.o(.bss._ActiveTerminal)
    [Anonymous Symbol]                       0x20000029   Section        0  segger_rtt.o(.bss._ActiveTerminal)
    _acDownBuffer                            0x200000d4   Data          16  segger_rtt.o(.bss._acDownBuffer)
    [Anonymous Symbol]                       0x200000d4   Section        0  segger_rtt.o(.bss._acDownBuffer)
    _acUpBuffer                              0x200000e4   Data        1024  segger_rtt.o(.bss._acUpBuffer)
    [Anonymous Symbol]                       0x200000e4   Section        0  segger_rtt.o(.bss._acUpBuffer)
    STACK                                    0x200007a8   Section     1024  startup_gd32e23x.o(STACK)

    Global Symbols

    Symbol Name                              Value     Ov Type        Size  Object(Section)

    BuildAttributes$$THM_ISAv3M$S$8M$PE$A:L22$X:L11$S22$IEEE1$IW$~IW$USESV6$~STKCKD$USESV7$~SHL$OTIME$ROPI$EBA8$MICROLIB$REQ8$PRES8$EABIv2 0x00000000   Number         0  anon$$obj.o ABSOLUTE
    _printf_a                                0x00000000   Number         0  printfstubs.o ABSOLUTE
    _printf_c                                0x00000000   Number         0  printfstubs.o ABSOLUTE
    _printf_charcount                        0x00000000   Number         0  printfstubs.o ABSOLUTE
    _printf_d                                0x00000000   Number         0  printfstubs.o ABSOLUTE
    _printf_e                                0x00000000   Number         0  printfstubs.o ABSOLUTE
    _printf_f                                0x00000000   Number         0  printfstubs.o ABSOLUTE
    _printf_flags                            0x00000000   Number         0  printfstubs.o ABSOLUTE
    _printf_fp_dec                           0x00000000   Number         0  printfstubs.o ABSOLUTE
    _printf_fp_hex                           0x00000000   Number         0  printfstubs.o ABSOLUTE
    _printf_g                                0x00000000   Number         0  printfstubs.o ABSOLUTE
    _printf_i                                0x00000000   Number         0  printfstubs.o ABSOLUTE
    _printf_int_dec                          0x00000000   Number         0  printfstubs.o ABSOLUTE
    _printf_l                                0x00000000   Number         0  printfstubs.o ABSOLUTE
    _printf_lc                               0x00000000   Number         0  printfstubs.o ABSOLUTE
    _printf_ll                               0x00000000   Number         0  printfstubs.o ABSOLUTE
    _printf_lld                              0x00000000   Number         0  printfstubs.o ABSOLUTE
    _printf_lli                              0x00000000   Number         0  printfstubs.o ABSOLUTE
    _printf_llo                              0x00000000   Number         0  printfstubs.o ABSOLUTE
    _printf_llu                              0x00000000   Number         0  printfstubs.o ABSOLUTE
    _printf_llx                              0x00000000   Number         0  printfstubs.o ABSOLUTE
    _printf_longlong_dec                     0x00000000   Number         0  printfstubs.o ABSOLUTE
    _printf_longlong_hex                     0x00000000   Number         0  printfstubs.o ABSOLUTE
    _printf_longlong_oct                     0x00000000   Number         0  printfstubs.o ABSOLUTE
    _printf_ls                               0x00000000   Number         0  printfstubs.o ABSOLUTE
    _printf_mbtowc                           0x00000000   Number         0  printfstubs.o ABSOLUTE
    _printf_n                                0x00000000   Number         0  printfstubs.o ABSOLUTE
    _printf_o                                0x00000000   Number         0  printfstubs.o ABSOLUTE
    _printf_p                                0x00000000   Number         0  printfstubs.o ABSOLUTE
    _printf_percent                          0x00000000   Number         0  printfstubs.o ABSOLUTE
    _printf_pre_padding                      0x00000000   Number         0  printfstubs.o ABSOLUTE
    _printf_return_value                     0x00000000   Number         0  printfstubs.o ABSOLUTE
    _printf_s                                0x00000000   Number         0  printfstubs.o ABSOLUTE
    _printf_sizespec                         0x00000000   Number         0  printfstubs.o ABSOLUTE
    _printf_str                              0x00000000   Number         0  printfstubs.o ABSOLUTE
    _printf_truncate_signed                  0x00000000   Number         0  printfstubs.o ABSOLUTE
    _printf_truncate_unsigned                0x00000000   Number         0  printfstubs.o ABSOLUTE
    _printf_u                                0x00000000   Number         0  printfstubs.o ABSOLUTE
    _printf_wc                               0x00000000   Number         0  printfstubs.o ABSOLUTE
    _printf_wctomb                           0x00000000   Number         0  printfstubs.o ABSOLUTE
    _printf_widthprec                        0x00000000   Number         0  printfstubs.o ABSOLUTE
    _printf_x                                0x00000000   Number         0  printfstubs.o ABSOLUTE
    __cpp_initialize__aeabi_                  - Undefined Weak Reference
    __cxa_finalize                            - Undefined Weak Reference
    __decompress                              - Undefined Weak Reference
    _clock_init                               - Undefined Weak Reference
    _microlib_exit                            - Undefined Weak Reference
    __Vectors_Size                           0x000000cc   Number         0  startup_gd32e23x.o ABSOLUTE
    __Vectors                                0x08000000   Data           4  startup_gd32e23x.o(RESET)
    __Vectors_End                            0x080000cc   Data           0  startup_gd32e23x.o(RESET)
    __main                                   0x080000cd   Thumb Code     0  entry.o(.ARM.Collect$$$$00000000)
    _main_stk                                0x080000cd   Thumb Code     0  entry2.o(.ARM.Collect$$$$00000001)
    _main_scatterload                        0x080000d1   Thumb Code     0  entry5.o(.ARM.Collect$$$$00000004)
    __main_after_scatterload                 0x080000d5   Thumb Code     0  entry5.o(.ARM.Collect$$$$00000004)
    _main_clock                              0x080000d5   Thumb Code     0  entry7b.o(.ARM.Collect$$$$00000008)
    _main_cpp_init                           0x080000d5   Thumb Code     0  entry8b.o(.ARM.Collect$$$$0000000A)
    _main_init                               0x080000d5   Thumb Code     0  entry9a.o(.ARM.Collect$$$$0000000B)
    __rt_final_cpp                           0x080000dd   Thumb Code     0  entry10a.o(.ARM.Collect$$$$0000000D)
    __rt_final_exit                          0x080000dd   Thumb Code     0  entry11a.o(.ARM.Collect$$$$0000000F)
    main                                     0x080000e1   Thumb Code  1488  main.o(.text)
    ShutOff                                  0x08000721   Thumb Code   108  main.o(.text)
    ShowBatteryState                         0x0800079d   Thumb Code   128  main.o(.text)
    modulo                                   0x0800082d   Thumb Code    22  bldc.o(.text)
    up_or_down                               0x08000845   Thumb Code    32  bldc.o(.text)
    SetEnable                                0x08000869   Thumb Code     8  bldc.o(.text)
    SetBldcInput                             0x08000875   Thumb Code   100  bldc.o(.text)
    SetFilter                                0x080008e9   Thumb Code    24  bldc.o(.text)
    CalculateBLDC                            0x0800090d   Thumb Code  1056  bldc.o(.text)
    PID_Init                                 0x08000e1d   Thumb Code   108  driver.o(.text)
    PID_Update                               0x08000e8d   Thumb Code   150  driver.o(.text)
    DriverInit                               0x08000f25   Thumb Code    84  driver.o(.text)
    Driver                                   0x08000f9d   Thumb Code   252  driver.o(.text)
    InitEXTI                                 0x080010a9   Thumb Code    66  bldcsine.o(.text)
    InitBldc                                 0x080010ed   Thumb Code   148  bldcsine.o(.text)
    _HandleEXTI                              0x08001185   Thumb Code   116  bldcsine.o(.text)
    EXTI0_1_IRQHandler                       0x0800121d   Thumb Code     4  bldcsine.o(.text)
    EXTI2_3_IRQHandler                       0x08001221   Thumb Code     4  bldcsine.o(.text)
    EXTI4_15_IRQHandler                      0x08001225   Thumb Code     4  bldcsine.o(.text)
    bldc_get_pwm                             0x08001229   Thumb Code   364  bldcsine.o(.text)
    pinMode                                  0x080013f5   Thumb Code    54  setup.o(.text)
    pinModePull                              0x0800142b   Thumb Code    46  setup.o(.text)
    Interrupt_init                           0x08001459   Thumb Code     2  setup.o(.text)
    Watchdog_init                            0x0800145d   Thumb Code    52  setup.o(.text)
    TimeoutTimer_init                        0x08001499   Thumb Code    80  setup.o(.text)
    GPIO_init                                0x080014f5   Thumb Code   628  setup.o(.text)
    PWM_init                                 0x08001779   Thumb Code   376  setup.o(.text)
    ADC_init                                 0x08001909   Thumb Code   212  setup.o(.text)
    USART0_Init                              0x080019ed   Thumb Code     2  setup.o(.text)
    USART1_Init                              0x080019ef   Thumb Code     2  setup.o(.text)
    USART2_Init                              0x080019f1   Thumb Code     2  setup.o(.text)
    flashErase                               0x080019f3   Thumb Code    30  setup.o(.text)
    flashRead                                0x08001a11   Thumb Code     4  setup.o(.text)
    flashWrite                               0x08001a15   Thumb Code    38  setup.o(.text)
    flashWriteBuffer                         0x08001a3b   Thumb Code    56  setup.o(.text)
    flashReadBuffer                          0x08001a73   Thumb Code    20  setup.o(.text)
    ConfigReset                              0x08001a89   Thumb Code    28  setup.o(.text)
    ConfigWrite                              0x08001aad   Thumb Code    96  setup.o(.text)
    ConfigRead                               0x08001b1d   Thumb Code    88  setup.o(.text)
    Clock_init                               0x08001b89   Thumb Code    24  setup.o(.text)
    Clock_test                               0x08001bad   Thumb Code    40  setup.o(.text)
    SysTick_Handler                          0x08001bdd   Thumb Code    12  it.o(.text)
    ResetTimeout                             0x08001bed   Thumb Code     8  it.o(.text)
    TIMER13_IRQHandler                       0x08001bf9   Thumb Code    48  it.o(.text)
    TIMER0_BRK_UP_TRG_COM_IRQHandler         0x08001c3d   Thumb Code    92  it.o(.text)
    DMA_Channel0_IRQHandler                  0x08001cb1   Thumb Code    76  it.o(.text)
    millis                                   0x08001d0d   Thumb Code     8  it.o(.text)
    Delay                                    0x08001d19   Thumb Code    20  it.o(.text)
    NMI_Handler                              0x08001d31   Thumb Code     2  it.o(.text)
    HardFault_Handler                        0x08001d33   Thumb Code     2  it.o(.text)
    MemManage_Handler                        0x08001d35   Thumb Code     2  it.o(.text)
    BusFault_Handler                         0x08001d37   Thumb Code     2  it.o(.text)
    UsageFault_Handler                       0x08001d39   Thumb Code     2  it.o(.text)
    SVC_Handler                              0x08001d3b   Thumb Code     2  it.o(.text)
    DebugMon_Handler                         0x08001d3d   Thumb Code     2  it.o(.text)
    PendSV_Handler                           0x08001d3f   Thumb Code     2  it.o(.text)
    RemoteUpdate                             0x08001d41   Thumb Code    96  remotedummy.o(.text)
    RemoteCallback                           0x08001dc1   Thumb Code     2  remotedummy.o(.text)
    RemoteCalculate                          0x08001dc3   Thumb Code     2  remotedummy.o(.text)
    I2C_Init                                 0x08001dc5   Thumb Code   112  i2c.o(.text)
    i2c_writeBytes                           0x08001e49   Thumb Code   236  i2c.o(.text)
    i2c_writeByte                            0x08001f41   Thumb Code    20  i2c.o(.text)
    i2c_writeBit                             0x08001f55   Thumb Code    66  i2c.o(.text)
    i2c_readByte                             0x08001f97   Thumb Code    16  i2c.o(.text)
    i2c_readBytes                            0x08001fa9   Thumb Code   296  i2c.o(.text)
    i2c_readBit                              0x080020dd   Thumb Code    32  i2c.o(.text)
    i2c_scanner                              0x080020fd   Thumb Code   140  i2c.o(.text)
    dump_i2c_registers                       0x080021cd   Thumb Code    88  i2c.o(.text)
    DoLowPass                                0x0800223d   Thumb Code    70  imumpu6050.o(.text)
    MPU_Init                                 0x08002285   Thumb Code    64  imumpu6050.o(.text)
    mpu_config                               0x080022d1   Thumb Code   240  imumpu6050.o(.text)
    MPU_ReadAll                              0x080023c5   Thumb Code   124  imumpu6050.o(.text)
    SEGGER_RTT_ReadUpBufferNoLock            0x08002451   Thumb Code   200  segger_rtt.o(.text)
    SEGGER_RTT_ReadNoLock                    0x0800252d   Thumb Code   200  segger_rtt.o(.text)
    SEGGER_RTT_ReadUpBuffer                  0x08002609   Thumb Code    26  segger_rtt.o(.text)
    SEGGER_RTT_Read                          0x08002623   Thumb Code    26  segger_rtt.o(.text)
    SEGGER_RTT_WriteWithOverwriteNoLock      0x0800263d   Thumb Code   156  segger_rtt.o(.text)
    SEGGER_RTT_WriteSkipNoLock               0x080026dd   Thumb Code   120  segger_rtt.o(.text)
    SEGGER_RTT_WriteDownBufferNoLock         0x08002759   Thumb Code   308  segger_rtt.o(.text)
    SEGGER_RTT_WriteNoLock                   0x08002891   Thumb Code   308  segger_rtt.o(.text)
    SEGGER_RTT_WriteDownBuffer               0x080029c9   Thumb Code   124  segger_rtt.o(.text)
    SEGGER_RTT_Write                         0x08002a59   Thumb Code   124  segger_rtt.o(.text)
    SEGGER_RTT_WriteString                   0x08002ae9   Thumb Code   128  segger_rtt.o(.text)
    SEGGER_RTT_PutCharSkipNoLock             0x08002b7d   Thumb Code    48  segger_rtt.o(.text)
    SEGGER_RTT_PutCharSkip                   0x08002bb1   Thumb Code   148  segger_rtt.o(.text)
    SEGGER_RTT_PutChar                       0x08002c59   Thumb Code   164  segger_rtt.o(.text)
    SEGGER_RTT_GetKey                        0x08002d11   Thumb Code   220  segger_rtt.o(.text)
    SEGGER_RTT_WaitKey                       0x08002e01   Thumb Code    12  segger_rtt.o(.text)
    SEGGER_RTT_HasKey                        0x08002e0d   Thumb Code   100  segger_rtt.o(.text)
    SEGGER_RTT_HasData                       0x08002e85   Thumb Code    16  segger_rtt.o(.text)
    SEGGER_RTT_HasDataUp                     0x08002e99   Thumb Code    16  segger_rtt.o(.text)
    SEGGER_RTT_AllocDownBuffer               0x08002ead   Thumb Code   172  segger_rtt.o(.text)
    SEGGER_RTT_AllocUpBuffer                 0x08002f6d   Thumb Code   172  segger_rtt.o(.text)
    SEGGER_RTT_ConfigUpBuffer                0x0800302d   Thumb Code   152  segger_rtt.o(.text)
    SEGGER_RTT_ConfigDownBuffer              0x080030d9   Thumb Code   156  segger_rtt.o(.text)
    SEGGER_RTT_SetNameUpBuffer               0x08003189   Thumb Code   124  segger_rtt.o(.text)
    SEGGER_RTT_SetNameDownBuffer             0x08003219   Thumb Code   124  segger_rtt.o(.text)
    SEGGER_RTT_SetFlagsUpBuffer              0x080032a9   Thumb Code   124  segger_rtt.o(.text)
    SEGGER_RTT_SetFlagsDownBuffer            0x08003339   Thumb Code   124  segger_rtt.o(.text)
    SEGGER_RTT_Init                          0x080033c9   Thumb Code    84  segger_rtt.o(.text)
    SEGGER_RTT_SetTerminal                   0x08003431   Thumb Code   328  segger_rtt.o(.text)
    SEGGER_RTT_TerminalOut                   0x08003595   Thumb Code  1076  segger_rtt.o(.text)
    SEGGER_RTT_GetAvailWriteSpace            0x080039d5   Thumb Code    36  segger_rtt.o(.text)
    SEGGER_RTT_GetBytesInBuffer              0x080039fd   Thumb Code    32  segger_rtt.o(.text)
    adc_deinit                               0x08003a21   Thumb Code    24  gd32e23x_adc.o(.text)
    adc_enable                               0x08003a3d   Thumb Code    20  gd32e23x_adc.o(.text)
    adc_disable                              0x08003a55   Thumb Code    12  gd32e23x_adc.o(.text)
    adc_calibration_enable                   0x08003a65   Thumb Code    32  gd32e23x_adc.o(.text)
    adc_dma_mode_enable                      0x08003a89   Thumb Code    16  gd32e23x_adc.o(.text)
    adc_dma_mode_disable                     0x08003a9d   Thumb Code    16  gd32e23x_adc.o(.text)
    adc_tempsensor_vrefint_enable            0x08003ab1   Thumb Code    16  gd32e23x_adc.o(.text)
    adc_tempsensor_vrefint_disable           0x08003ac5   Thumb Code    16  gd32e23x_adc.o(.text)
    adc_discontinuous_mode_config            0x08003ad9   Thumb Code    64  gd32e23x_adc.o(.text)
    adc_special_function_config              0x08003b1d   Thumb Code   104  gd32e23x_adc.o(.text)
    adc_data_alignment_config                0x08003b89   Thumb Code    24  gd32e23x_adc.o(.text)
    adc_channel_length_config                0x08003ba5   Thumb Code    60  gd32e23x_adc.o(.text)
    adc_regular_channel_config               0x08003be5   Thumb Code   136  gd32e23x_adc.o(.text)
    adc_inserted_channel_config              0x08003c71   Thumb Code    84  gd32e23x_adc.o(.text)
    adc_inserted_channel_offset_config       0x08003cc9   Thumb Code    28  gd32e23x_adc.o(.text)
    adc_external_trigger_config              0x08003ced   Thumb Code    64  gd32e23x_adc.o(.text)
    adc_external_trigger_source_config       0x08003d31   Thumb Code    32  gd32e23x_adc.o(.text)
    adc_software_trigger_enable              0x08003d5d   Thumb Code    40  gd32e23x_adc.o(.text)
    adc_regular_data_read                    0x08003d89   Thumb Code     8  gd32e23x_adc.o(.text)
    adc_inserted_data_read                   0x08003d95   Thumb Code    68  gd32e23x_adc.o(.text)
    adc_flag_get                             0x08003ddd   Thumb Code    12  gd32e23x_adc.o(.text)
    adc_flag_clear                           0x08003ded   Thumb Code    12  gd32e23x_adc.o(.text)
    adc_interrupt_flag_get                   0x08003dfd   Thumb Code    48  gd32e23x_adc.o(.text)
    adc_interrupt_flag_clear                 0x08003e31   Thumb Code    12  gd32e23x_adc.o(.text)
    adc_interrupt_enable                     0x08003e41   Thumb Code    52  gd32e23x_adc.o(.text)
    adc_interrupt_disable                    0x08003e79   Thumb Code    52  gd32e23x_adc.o(.text)
    adc_watchdog_single_channel_enable       0x08003eb1   Thumb Code    28  gd32e23x_adc.o(.text)
    adc_watchdog_group_channel_enable        0x08003ed9   Thumb Code    32  gd32e23x_adc.o(.text)
    adc_watchdog_disable                     0x08003f0d   Thumb Code    12  gd32e23x_adc.o(.text)
    adc_watchdog_threshold_config            0x08003f21   Thumb Code    16  gd32e23x_adc.o(.text)
    adc_resolution_config                    0x08003f39   Thumb Code    20  gd32e23x_adc.o(.text)
    adc_oversample_mode_config               0x08003f51   Thumb Code    40  gd32e23x_adc.o(.text)
    adc_oversample_mode_enable               0x08003f81   Thumb Code    12  gd32e23x_adc.o(.text)
    adc_oversample_mode_disable              0x08003f91   Thumb Code    12  gd32e23x_adc.o(.text)
    dma_deinit                               0x08003fa1   Thumb Code    44  gd32e23x_dma.o(.text)
    dma_struct_para_init                     0x08003fd1   Thumb Code    20  gd32e23x_dma.o(.text)
    dma_init                                 0x08003fe5   Thumb Code   112  gd32e23x_dma.o(.text)
    dma_channel_disable                      0x08004059   Thumb Code    16  gd32e23x_dma.o(.text)
    dma_circulation_enable                   0x0800406d   Thumb Code    16  gd32e23x_dma.o(.text)
    dma_circulation_disable                  0x08004081   Thumb Code    16  gd32e23x_dma.o(.text)
    dma_memory_to_memory_enable              0x08004095   Thumb Code    20  gd32e23x_dma.o(.text)
    dma_memory_to_memory_disable             0x080040ad   Thumb Code    20  gd32e23x_dma.o(.text)
    dma_channel_enable                       0x080040c5   Thumb Code    16  gd32e23x_dma.o(.text)
    dma_periph_address_config                0x080040d9   Thumb Code    12  gd32e23x_dma.o(.text)
    dma_memory_address_config                0x080040e9   Thumb Code    12  gd32e23x_dma.o(.text)
    dma_transfer_number_config               0x080040f9   Thumb Code    12  gd32e23x_dma.o(.text)
    dma_transfer_number_get                  0x08004109   Thumb Code    12  gd32e23x_dma.o(.text)
    dma_priority_config                      0x08004119   Thumb Code    24  gd32e23x_dma.o(.text)
    dma_memory_width_config                  0x08004135   Thumb Code    24  gd32e23x_dma.o(.text)
    dma_periph_width_config                  0x08004151   Thumb Code    24  gd32e23x_dma.o(.text)
    dma_memory_increase_enable               0x0800416d   Thumb Code    16  gd32e23x_dma.o(.text)
    dma_memory_increase_disable              0x08004181   Thumb Code    16  gd32e23x_dma.o(.text)
    dma_periph_increase_enable               0x08004195   Thumb Code    16  gd32e23x_dma.o(.text)
    dma_periph_increase_disable              0x080041a9   Thumb Code    16  gd32e23x_dma.o(.text)
    dma_transfer_direction_config            0x080041bd   Thumb Code    28  gd32e23x_dma.o(.text)
    dma_flag_get                             0x080041dd   Thumb Code    16  gd32e23x_dma.o(.text)
    dma_flag_clear                           0x080041f1   Thumb Code    16  gd32e23x_dma.o(.text)
    dma_interrupt_flag_get                   0x08004205   Thumb Code    56  gd32e23x_dma.o(.text)
    dma_interrupt_flag_clear                 0x08004241   Thumb Code    16  gd32e23x_dma.o(.text)
    dma_interrupt_enable                     0x08004255   Thumb Code    16  gd32e23x_dma.o(.text)
    dma_interrupt_disable                    0x08004269   Thumb Code    16  gd32e23x_dma.o(.text)
    exti_deinit                              0x0800427d   Thumb Code    20  gd32e23x_exti.o(.text)
    exti_init                                0x08004299   Thumb Code   104  gd32e23x_exti.o(.text)
    exti_interrupt_enable                    0x08004305   Thumb Code    12  gd32e23x_exti.o(.text)
    exti_event_enable                        0x08004315   Thumb Code    12  gd32e23x_exti.o(.text)
    exti_interrupt_disable                   0x08004325   Thumb Code    12  gd32e23x_exti.o(.text)
    exti_event_disable                       0x08004335   Thumb Code    12  gd32e23x_exti.o(.text)
    exti_flag_get                            0x08004345   Thumb Code    12  gd32e23x_exti.o(.text)
    exti_flag_clear                          0x08004355   Thumb Code     8  gd32e23x_exti.o(.text)
    exti_interrupt_flag_get                  0x08004361   Thumb Code    24  gd32e23x_exti.o(.text)
    exti_interrupt_flag_clear                0x0800437d   Thumb Code     8  gd32e23x_exti.o(.text)
    exti_software_interrupt_enable           0x08004389   Thumb Code    12  gd32e23x_exti.o(.text)
    exti_software_interrupt_disable          0x08004399   Thumb Code    12  gd32e23x_exti.o(.text)
    fmc_unlock                               0x080043a9   Thumb Code    20  gd32e23x_fmc.o(.text)
    fmc_lock                                 0x080043c9   Thumb Code    12  gd32e23x_fmc.o(.text)
    fmc_wscnt_set                            0x080043d9   Thumb Code    16  gd32e23x_fmc.o(.text)
    fmc_prefetch_enable                      0x080043ed   Thumb Code    12  gd32e23x_fmc.o(.text)
    fmc_prefetch_disable                     0x080043fd   Thumb Code    12  gd32e23x_fmc.o(.text)
    fmc_page_erase                           0x0800440d   Thumb Code   136  gd32e23x_fmc.o(.text)
    fmc_ready_wait                           0x0800449d   Thumb Code    60  gd32e23x_fmc.o(.text)
    fmc_mass_erase                           0x080044dd   Thumb Code   128  gd32e23x_fmc.o(.text)
    fmc_doubleword_program                   0x08004565   Thumb Code   160  gd32e23x_fmc.o(.text)
    fmc_word_program                         0x0800460d   Thumb Code   136  gd32e23x_fmc.o(.text)
    ob_unlock                                0x0800469d   Thumb Code    28  gd32e23x_fmc.o(.text)
    ob_lock                                  0x080046c5   Thumb Code    16  gd32e23x_fmc.o(.text)
    ob_reset                                 0x080046d9   Thumb Code    16  gd32e23x_fmc.o(.text)
    option_byte_value_get                    0x080046ed   Thumb Code     4  gd32e23x_fmc.o(.text)
    ob_erase                                 0x080046f1   Thumb Code   264  gd32e23x_fmc.o(.text)
    ob_obstat_plevel_get                     0x0800480d   Thumb Code    12  gd32e23x_fmc.o(.text)
    ob_write_protection_enable               0x0800481d   Thumb Code   156  gd32e23x_fmc.o(.text)
    ob_security_protection_config            0x080048cd   Thumb Code   252  gd32e23x_fmc.o(.text)
    ob_user_write                            0x080049d9   Thumb Code   248  gd32e23x_fmc.o(.text)
    ob_data_program                          0x08004add   Thumb Code   152  gd32e23x_fmc.o(.text)
    ob_user_get                              0x08004b85   Thumb Code    12  gd32e23x_fmc.o(.text)
    ob_data_get                              0x08004b95   Thumb Code     8  gd32e23x_fmc.o(.text)
    ob_write_protection_get                  0x08004ba1   Thumb Code     8  gd32e23x_fmc.o(.text)
    fmc_interrupt_enable                     0x08004bad   Thumb Code    12  gd32e23x_fmc.o(.text)
    fmc_interrupt_disable                    0x08004bbd   Thumb Code    12  gd32e23x_fmc.o(.text)
    fmc_flag_get                             0x08004bcd   Thumb Code    12  gd32e23x_fmc.o(.text)
    fmc_flag_clear                           0x08004bdd   Thumb Code     8  gd32e23x_fmc.o(.text)
    fmc_interrupt_flag_get                   0x08004be9   Thumb Code    36  gd32e23x_fmc.o(.text)
    fmc_interrupt_flag_clear                 0x08004c11   Thumb Code     8  gd32e23x_fmc.o(.text)
    fmc_state_get                            0x08004c1d   Thumb Code    32  gd32e23x_fmc.o(.text)
    fwdgt_write_enable                       0x08004c41   Thumb Code     8  gd32e23x_fwdgt.o(.text)
    fwdgt_write_disable                      0x08004c51   Thumb Code     8  gd32e23x_fwdgt.o(.text)
    fwdgt_enable                             0x08004c5d   Thumb Code     8  gd32e23x_fwdgt.o(.text)
    fwdgt_prescaler_value_config             0x08004c6d   Thumb Code    36  gd32e23x_fwdgt.o(.text)
    fwdgt_reload_value_config                0x08004c9d   Thumb Code    40  gd32e23x_fwdgt.o(.text)
    fwdgt_window_value_config                0x08004cd5   Thumb Code    40  gd32e23x_fwdgt.o(.text)
    fwdgt_counter_reload                     0x08004d0d   Thumb Code     8  gd32e23x_fwdgt.o(.text)
    fwdgt_config                             0x08004d1d   Thumb Code    64  gd32e23x_fwdgt.o(.text)
    fwdgt_flag_get                           0x08004d71   Thumb Code    12  gd32e23x_fwdgt.o(.text)
    gpio_deinit                              0x08004d81   Thumb Code    52  gd32e23x_gpio.o(.text)
    gpio_mode_set                            0x08004db9   Thumb Code    66  gd32e23x_gpio.o(.text)
    gpio_output_options_set                  0x08004dfb   Thumb Code    70  gd32e23x_gpio.o(.text)
    gpio_bit_set                             0x08004e41   Thumb Code     4  gd32e23x_gpio.o(.text)
    gpio_bit_reset                           0x08004e45   Thumb Code     4  gd32e23x_gpio.o(.text)
    gpio_bit_write                           0x08004e49   Thumb Code    14  gd32e23x_gpio.o(.text)
    gpio_port_write                          0x08004e57   Thumb Code     4  gd32e23x_gpio.o(.text)
    gpio_input_bit_get                       0x08004e5b   Thumb Code    10  gd32e23x_gpio.o(.text)
    gpio_input_port_get                      0x08004e65   Thumb Code     6  gd32e23x_gpio.o(.text)
    gpio_output_bit_get                      0x08004e6b   Thumb Code    10  gd32e23x_gpio.o(.text)
    gpio_output_port_get                     0x08004e75   Thumb Code     6  gd32e23x_gpio.o(.text)
    gpio_af_set                              0x08004e7b   Thumb Code    94  gd32e23x_gpio.o(.text)
    gpio_pin_lock                            0x08004ed9   Thumb Code    18  gd32e23x_gpio.o(.text)
    gpio_bit_toggle                          0x08004eeb   Thumb Code     4  gd32e23x_gpio.o(.text)
    gpio_port_toggle                         0x08004ef1   Thumb Code     8  gd32e23x_gpio.o(.text)
    i2c_deinit                               0x08004efd   Thumb Code    40  gd32e23x_i2c.o(.text)
    i2c_clock_config                         0x08004f31   Thumb Code   252  gd32e23x_i2c.o(.text)
    i2c_mode_addr_config                     0x0800504d   Thumb Code    24  gd32e23x_i2c.o(.text)
    i2c_smbus_type_config                    0x08005069   Thumb Code    20  gd32e23x_i2c.o(.text)
    i2c_ack_config                           0x0800507d   Thumb Code    22  gd32e23x_i2c.o(.text)
    i2c_ackpos_config                        0x08005093   Thumb Code    20  gd32e23x_i2c.o(.text)
    i2c_master_addressing                    0x080050a7   Thumb Code    16  gd32e23x_i2c.o(.text)
    i2c_dualaddr_enable                      0x080050b7   Thumb Code    10  gd32e23x_i2c.o(.text)
    i2c_dualaddr_disable                     0x080050c1   Thumb Code    10  gd32e23x_i2c.o(.text)
    i2c_enable                               0x080050cb   Thumb Code    10  gd32e23x_i2c.o(.text)
    i2c_disable                              0x080050d5   Thumb Code    10  gd32e23x_i2c.o(.text)
    i2c_start_on_bus                         0x080050df   Thumb Code    12  gd32e23x_i2c.o(.text)
    i2c_stop_on_bus                          0x080050eb   Thumb Code    12  gd32e23x_i2c.o(.text)
    i2c_data_transmit                        0x080050f7   Thumb Code     4  gd32e23x_i2c.o(.text)
    i2c_data_receive                         0x080050fb   Thumb Code     6  gd32e23x_i2c.o(.text)
    i2c_dma_enable                           0x08005101   Thumb Code    14  gd32e23x_i2c.o(.text)
    i2c_dma_last_transfer_config             0x0800510f   Thumb Code    14  gd32e23x_i2c.o(.text)
    i2c_stretch_scl_low_config               0x0800511d   Thumb Code    12  gd32e23x_i2c.o(.text)
    i2c_slave_response_to_gcall_config       0x08005129   Thumb Code    12  gd32e23x_i2c.o(.text)
    i2c_software_reset_config                0x08005135   Thumb Code    14  gd32e23x_i2c.o(.text)
    i2c_pec_enable                           0x08005143   Thumb Code    12  gd32e23x_i2c.o(.text)
    i2c_pec_transfer_enable                  0x0800514f   Thumb Code    14  gd32e23x_i2c.o(.text)
    i2c_pec_value_get                        0x0800515d   Thumb Code     8  gd32e23x_i2c.o(.text)
    i2c_smbus_issue_alert                    0x08005165   Thumb Code    14  gd32e23x_i2c.o(.text)
    i2c_smbus_arp_enable                     0x08005173   Thumb Code    12  gd32e23x_i2c.o(.text)
    i2c_sam_enable                           0x0800517f   Thumb Code    12  gd32e23x_i2c.o(.text)
    i2c_sam_disable                          0x0800518b   Thumb Code    12  gd32e23x_i2c.o(.text)
    i2c_sam_timeout_enable                   0x08005197   Thumb Code    12  gd32e23x_i2c.o(.text)
    i2c_sam_timeout_disable                  0x080051a3   Thumb Code    12  gd32e23x_i2c.o(.text)
    i2c_flag_get                             0x080051af   Thumb Code    16  gd32e23x_i2c.o(.text)
    i2c_flag_clear                           0x080051c1   Thumb Code    32  gd32e23x_i2c.o(.text)
    i2c_interrupt_enable                     0x080051e5   Thumb Code    18  gd32e23x_i2c.o(.text)
    i2c_interrupt_disable                    0x080051f7   Thumb Code    18  gd32e23x_i2c.o(.text)
    i2c_interrupt_flag_get                   0x08005209   Thumb Code    68  gd32e23x_i2c.o(.text)
    i2c_interrupt_flag_clear                 0x08005255   Thumb Code    32  gd32e23x_i2c.o(.text)
    nvic_irq_enable                          0x08005279   Thumb Code    76  gd32e23x_misc.o(.text)
    nvic_irq_disable                         0x080052d1   Thumb Code    36  gd32e23x_misc.o(.text)
    nvic_system_reset                        0x080052f9   Thumb Code    20  gd32e23x_misc.o(.text)
    nvic_vector_table_set                    0x08005315   Thumb Code    12  gd32e23x_misc.o(.text)
    system_lowpower_set                      0x08005329   Thumb Code    12  gd32e23x_misc.o(.text)
    system_lowpower_reset                    0x08005339   Thumb Code    12  gd32e23x_misc.o(.text)
    systick_clksource_set                    0x08005349   Thumb Code    24  gd32e23x_misc.o(.text)
    rcu_deinit                               0x08005365   Thumb Code   100  gd32e23x_rcu.o(.text)
    rcu_periph_clock_enable                  0x080053d9   Thumb Code    20  gd32e23x_rcu.o(.text)
    rcu_periph_clock_disable                 0x080053f1   Thumb Code    20  gd32e23x_rcu.o(.text)
    rcu_periph_clock_sleep_enable            0x08005409   Thumb Code    20  gd32e23x_rcu.o(.text)
    rcu_periph_clock_sleep_disable           0x08005421   Thumb Code    20  gd32e23x_rcu.o(.text)
    rcu_periph_reset_enable                  0x08005439   Thumb Code    20  gd32e23x_rcu.o(.text)
    rcu_periph_reset_disable                 0x08005451   Thumb Code    20  gd32e23x_rcu.o(.text)
    rcu_bkp_reset_enable                     0x08005469   Thumb Code    16  gd32e23x_rcu.o(.text)
    rcu_bkp_reset_disable                    0x0800547d   Thumb Code    16  gd32e23x_rcu.o(.text)
    rcu_system_clock_source_config           0x08005491   Thumb Code    16  gd32e23x_rcu.o(.text)
    rcu_system_clock_source_get              0x080054a5   Thumb Code    12  gd32e23x_rcu.o(.text)
    rcu_ahb_clock_config                     0x080054b5   Thumb Code    16  gd32e23x_rcu.o(.text)
    rcu_apb1_clock_config                    0x080054c9   Thumb Code    16  gd32e23x_rcu.o(.text)
    rcu_apb2_clock_config                    0x080054dd   Thumb Code    16  gd32e23x_rcu.o(.text)
    rcu_adc_clock_config                     0x080054f1   Thumb Code   200  gd32e23x_rcu.o(.text)
    rcu_ckout_config                         0x080055c1   Thumb Code    20  gd32e23x_rcu.o(.text)
    rcu_pll_config                           0x080055d9   Thumb Code    24  gd32e23x_rcu.o(.text)
    rcu_usart_clock_config                   0x080055f9   Thumb Code    20  gd32e23x_rcu.o(.text)
    rcu_rtc_clock_config                     0x08005611   Thumb Code    20  gd32e23x_rcu.o(.text)
    rcu_hxtal_prediv_config                  0x08005629   Thumb Code    16  gd32e23x_rcu.o(.text)
    rcu_lxtal_drive_capability_config        0x0800563d   Thumb Code    20  gd32e23x_rcu.o(.text)
    rcu_flag_get                             0x08005655   Thumb Code    20  gd32e23x_rcu.o(.text)
    rcu_all_reset_flag_clear                 0x0800566d   Thumb Code    16  gd32e23x_rcu.o(.text)
    rcu_interrupt_flag_get                   0x08005681   Thumb Code    20  gd32e23x_rcu.o(.text)
    rcu_interrupt_flag_clear                 0x08005699   Thumb Code    20  gd32e23x_rcu.o(.text)
    rcu_interrupt_enable                     0x080056b1   Thumb Code    20  gd32e23x_rcu.o(.text)
    rcu_interrupt_disable                    0x080056c9   Thumb Code    20  gd32e23x_rcu.o(.text)
    rcu_osci_stab_wait                       0x080056e1   Thumb Code   208  gd32e23x_rcu.o(.text)
    rcu_osci_on                              0x080057c5   Thumb Code    20  gd32e23x_rcu.o(.text)
    rcu_osci_off                             0x080057dd   Thumb Code    20  gd32e23x_rcu.o(.text)
    rcu_osci_bypass_mode_enable              0x080057f5   Thumb Code    56  gd32e23x_rcu.o(.text)
    rcu_osci_bypass_mode_disable             0x08005831   Thumb Code    56  gd32e23x_rcu.o(.text)
    rcu_hxtal_clock_monitor_enable           0x0800586d   Thumb Code    16  gd32e23x_rcu.o(.text)
    rcu_hxtal_clock_monitor_disable          0x08005881   Thumb Code    16  gd32e23x_rcu.o(.text)
    rcu_irc8m_adjust_value_set               0x08005895   Thumb Code    16  gd32e23x_rcu.o(.text)
    rcu_irc28m_adjust_value_set              0x080058a9   Thumb Code    16  gd32e23x_rcu.o(.text)
    rcu_voltage_key_unlock                   0x080058bd   Thumb Code    20  gd32e23x_rcu.o(.text)
    rcu_deepsleep_voltage_set                0x080058d9   Thumb Code    20  gd32e23x_rcu.o(.text)
    rcu_clock_freq_get                       0x080058f1   Thumb Code   252  gd32e23x_rcu.o(.text)
    syscfg_deinit                            0x08005a15   Thumb Code    24  gd32e23x_syscfg.o(.text)
    syscfg_dma_remap_enable                  0x08005a2d   Thumb Code    12  gd32e23x_syscfg.o(.text)
    syscfg_dma_remap_disable                 0x08005a3d   Thumb Code    12  gd32e23x_syscfg.o(.text)
    syscfg_high_current_enable               0x08005a4d   Thumb Code    16  gd32e23x_syscfg.o(.text)
    syscfg_high_current_disable              0x08005a61   Thumb Code    16  gd32e23x_syscfg.o(.text)
    syscfg_exti_line_config                  0x08005a75   Thumb Code   108  gd32e23x_syscfg.o(.text)
    syscfg_lock_config                       0x08005ae5   Thumb Code    12  gd32e23x_syscfg.o(.text)
    irq_latency_set                          0x08005af5   Thumb Code    16  gd32e23x_syscfg.o(.text)
    syscfg_flag_get                          0x08005b09   Thumb Code    12  gd32e23x_syscfg.o(.text)
    syscfg_flag_clear                        0x08005b19   Thumb Code    12  gd32e23x_syscfg.o(.text)
    timer_deinit                             0x08005b29   Thumb Code   100  gd32e23x_timer.o(.text)
    timer_struct_para_init                   0x08005bb5   Thumb Code    16  gd32e23x_timer.o(.text)
    timer_init                               0x08005bc9   Thumb Code   148  gd32e23x_timer.o(.text)
    timer_enable                             0x08005c7d   Thumb Code    10  gd32e23x_timer.o(.text)
    timer_disable                            0x08005c87   Thumb Code    10  gd32e23x_timer.o(.text)
    timer_auto_reload_shadow_enable          0x08005c91   Thumb Code    10  gd32e23x_timer.o(.text)
    timer_auto_reload_shadow_disable         0x08005c9b   Thumb Code    10  gd32e23x_timer.o(.text)
    timer_update_event_enable                0x08005ca5   Thumb Code    10  gd32e23x_timer.o(.text)
    timer_update_event_disable               0x08005caf   Thumb Code    10  gd32e23x_timer.o(.text)
    timer_counter_alignment                  0x08005cb9   Thumb Code    16  gd32e23x_timer.o(.text)
    timer_counter_up_direction               0x08005cc9   Thumb Code    10  gd32e23x_timer.o(.text)
    timer_counter_down_direction             0x08005cd3   Thumb Code    10  gd32e23x_timer.o(.text)
    timer_prescaler_config                   0x08005cdd   Thumb Code    16  gd32e23x_timer.o(.text)
    timer_repetition_value_config            0x08005ced   Thumb Code     4  gd32e23x_timer.o(.text)
    timer_autoreload_value_config            0x08005cf1   Thumb Code     4  gd32e23x_timer.o(.text)
    timer_counter_value_config               0x08005cf5   Thumb Code     4  gd32e23x_timer.o(.text)
    timer_counter_read                       0x08005cf9   Thumb Code     4  gd32e23x_timer.o(.text)
    timer_prescaler_read                     0x08005cfd   Thumb Code     6  gd32e23x_timer.o(.text)
    timer_single_pulse_mode_config           0x08005d03   Thumb Code    26  gd32e23x_timer.o(.text)
    timer_update_source_config               0x08005d1d   Thumb Code    26  gd32e23x_timer.o(.text)
    timer_ocpre_clear_source_config          0x08005d37   Thumb Code    26  gd32e23x_timer.o(.text)
    timer_interrupt_enable                   0x08005d51   Thumb Code     8  gd32e23x_timer.o(.text)
    timer_interrupt_disable                  0x08005d59   Thumb Code     8  gd32e23x_timer.o(.text)
    timer_interrupt_flag_get                 0x08005d61   Thumb Code    20  gd32e23x_timer.o(.text)
    timer_interrupt_flag_clear               0x08005d75   Thumb Code     8  gd32e23x_timer.o(.text)
    timer_flag_get                           0x08005d7d   Thumb Code    10  gd32e23x_timer.o(.text)
    timer_flag_clear                         0x08005d87   Thumb Code     8  gd32e23x_timer.o(.text)
    timer_dma_enable                         0x08005d8f   Thumb Code     8  gd32e23x_timer.o(.text)
    timer_dma_disable                        0x08005d97   Thumb Code     8  gd32e23x_timer.o(.text)
    timer_channel_dma_request_source_select  0x08005d9f   Thumb Code    26  gd32e23x_timer.o(.text)
    timer_dma_transfer_config                0x08005db9   Thumb Code    20  gd32e23x_timer.o(.text)
    timer_event_software_generate            0x08005dd1   Thumb Code     8  gd32e23x_timer.o(.text)
    timer_break_struct_para_init             0x08005dd9   Thumb Code    18  gd32e23x_timer.o(.text)
    timer_break_config                       0x08005deb   Thumb Code    30  gd32e23x_timer.o(.text)
    timer_break_enable                       0x08005e09   Thumb Code    12  gd32e23x_timer.o(.text)
    timer_break_disable                      0x08005e15   Thumb Code    12  gd32e23x_timer.o(.text)
    timer_automatic_output_enable            0x08005e21   Thumb Code    12  gd32e23x_timer.o(.text)
    timer_automatic_output_disable           0x08005e2d   Thumb Code    12  gd32e23x_timer.o(.text)
    timer_primary_output_config              0x08005e39   Thumb Code    22  gd32e23x_timer.o(.text)
    timer_channel_control_shadow_config      0x08005e4f   Thumb Code    18  gd32e23x_timer.o(.text)
    timer_channel_control_shadow_update_config 0x08005e61   Thumb Code    26  gd32e23x_timer.o(.text)
    timer_channel_output_struct_para_init    0x08005e7b   Thumb Code    16  gd32e23x_timer.o(.text)
    timer_channel_output_config              0x08005e8d   Thumb Code   536  gd32e23x_timer.o(.text)
    timer_channel_output_mode_config         0x080060b9   Thumb Code    90  gd32e23x_timer.o(.text)
    timer_channel_output_pulse_value_config  0x08006113   Thumb Code    14  gd32e23x_timer.o(.text)
    timer_channel_output_shadow_config       0x08006121   Thumb Code    90  gd32e23x_timer.o(.text)
    timer_channel_output_fast_config         0x0800617d   Thumb Code    90  gd32e23x_timer.o(.text)
    timer_channel_output_clear_config        0x080061d9   Thumb Code    90  gd32e23x_timer.o(.text)
    timer_channel_output_polarity_config     0x08006235   Thumb Code    90  gd32e23x_timer.o(.text)
    timer_channel_complementary_output_polarity_config 0x08006291   Thumb Code    90  gd32e23x_timer.o(.text)
    timer_channel_output_state_config        0x080062ed   Thumb Code    90  gd32e23x_timer.o(.text)
    timer_channel_complementary_output_state_config 0x08006347   Thumb Code    54  gd32e23x_timer.o(.text)
    timer_channel_input_struct_para_init     0x0800637d   Thumb Code    14  gd32e23x_timer.o(.text)
    timer_input_capture_config               0x0800638d   Thumb Code   400  gd32e23x_timer.o(.text)
    timer_channel_input_capture_prescaler_config 0x08006521   Thumb Code    90  gd32e23x_timer.o(.text)
    timer_channel_capture_value_register_read 0x0800657b   Thumb Code    18  gd32e23x_timer.o(.text)
    timer_input_pwm_capture_config           0x0800658d   Thumb Code   344  gd32e23x_timer.o(.text)
    timer_hall_mode_config                   0x080066f1   Thumb Code    26  gd32e23x_timer.o(.text)
    timer_input_trigger_source_select        0x0800670b   Thumb Code    16  gd32e23x_timer.o(.text)
    timer_master_output_trigger_source_select 0x0800671b   Thumb Code    16  gd32e23x_timer.o(.text)
    timer_slave_mode_select                  0x0800672b   Thumb Code    16  gd32e23x_timer.o(.text)
    timer_master_slave_mode_config           0x0800673b   Thumb Code    26  gd32e23x_timer.o(.text)
    timer_external_trigger_config            0x08006755   Thumb Code    30  gd32e23x_timer.o(.text)
    timer_quadrature_decoder_mode_config     0x08006775   Thumb Code    64  gd32e23x_timer.o(.text)
    timer_internal_clock_config              0x080067b9   Thumb Code    10  gd32e23x_timer.o(.text)
    timer_internal_trigger_as_external_clock_config 0x080067c3   Thumb Code    30  gd32e23x_timer.o(.text)
    timer_external_trigger_as_external_clock_config 0x080067e1   Thumb Code   148  gd32e23x_timer.o(.text)
    timer_external_clock_mode0_config        0x08006875   Thumb Code    44  gd32e23x_timer.o(.text)
    timer_external_clock_mode1_config        0x080068a1   Thumb Code    40  gd32e23x_timer.o(.text)
    timer_external_clock_mode1_disable       0x080068c9   Thumb Code    12  gd32e23x_timer.o(.text)
    timer_channel_remap_config               0x080068d5   Thumb Code     4  gd32e23x_timer.o(.text)
    timer_write_chxval_register_config       0x080068d9   Thumb Code    30  gd32e23x_timer.o(.text)
    timer_output_value_selection_config      0x080068f7   Thumb Code    30  gd32e23x_timer.o(.text)
    Reset_Handler                            0x08006915   Thumb Code     8  startup_gd32e23x.o(.text)
    ADC_CMP_IRQHandler                       0x08006927   Thumb Code     0  startup_gd32e23x.o(.text)
    DMA_Channel1_2_IRQHandler                0x08006927   Thumb Code     0  startup_gd32e23x.o(.text)
    DMA_Channel3_4_IRQHandler                0x08006927   Thumb Code     0  startup_gd32e23x.o(.text)
    FMC_IRQHandler                           0x08006927   Thumb Code     0  startup_gd32e23x.o(.text)
    I2C0_ER_IRQHandler                       0x08006927   Thumb Code     0  startup_gd32e23x.o(.text)
    I2C0_EV_IRQHandler                       0x08006927   Thumb Code     0  startup_gd32e23x.o(.text)
    I2C1_ER_IRQHandler                       0x08006927   Thumb Code     0  startup_gd32e23x.o(.text)
    I2C1_EV_IRQHandler                       0x08006927   Thumb Code     0  startup_gd32e23x.o(.text)
    LVD_IRQHandler                           0x08006927   Thumb Code     0  startup_gd32e23x.o(.text)
    RCU_IRQHandler                           0x08006927   Thumb Code     0  startup_gd32e23x.o(.text)
    RTC_IRQHandler                           0x08006927   Thumb Code     0  startup_gd32e23x.o(.text)
    SPI0_IRQHandler                          0x08006927   Thumb Code     0  startup_gd32e23x.o(.text)
    SPI1_IRQHandler                          0x08006927   Thumb Code     0  startup_gd32e23x.o(.text)
    TIMER0_Channel_IRQHandler                0x08006927   Thumb Code     0  startup_gd32e23x.o(.text)
    TIMER14_IRQHandler                       0x08006927   Thumb Code     0  startup_gd32e23x.o(.text)
    TIMER15_IRQHandler                       0x08006927   Thumb Code     0  startup_gd32e23x.o(.text)
    TIMER16_IRQHandler                       0x08006927   Thumb Code     0  startup_gd32e23x.o(.text)
    TIMER2_IRQHandler                        0x08006927   Thumb Code     0  startup_gd32e23x.o(.text)
    TIMER5_IRQHandler                        0x08006927   Thumb Code     0  startup_gd32e23x.o(.text)
    USART0_IRQHandler                        0x08006927   Thumb Code     0  startup_gd32e23x.o(.text)
    USART1_IRQHandler                        0x08006927   Thumb Code     0  startup_gd32e23x.o(.text)
    WWDGT_IRQHandler                         0x08006927   Thumb Code     0  startup_gd32e23x.o(.text)
    SystemInit                               0x08006931   Thumb Code   212  system_gd32e23x.o(.text)
    SystemCoreClockUpdate                    0x08006a1d   Thumb Code    92  system_gd32e23x.o(.text)
    __aeabi_lmul                             0x08006a99   Thumb Code    48  llmul.o(.text)
    _ll_mul                                  0x08006a99   Thumb Code     0  llmul.o(.text)
    __aeabi_memcpy                           0x08006ac9   Thumb Code    36  memcpya.o(.text)
    __aeabi_memcpy4                          0x08006ac9   Thumb Code     0  memcpya.o(.text)
    __aeabi_memcpy8                          0x08006ac9   Thumb Code     0  memcpya.o(.text)
    __aeabi_memset                           0x08006aed   Thumb Code    14  memseta.o(.text)
    __aeabi_memset4                          0x08006aed   Thumb Code     0  memseta.o(.text)
    __aeabi_memset8                          0x08006aed   Thumb Code     0  memseta.o(.text)
    __aeabi_memclr                           0x08006afb   Thumb Code     4  memseta.o(.text)
    __aeabi_memclr4                          0x08006afb   Thumb Code     0  memseta.o(.text)
    __aeabi_memclr8                          0x08006afb   Thumb Code     0  memseta.o(.text)
    _memset$wrapper                          0x08006aff   Thumb Code    18  memseta.o(.text)
    strlen                                   0x08006b11   Thumb Code    14  strlen.o(.text)
    __aeabi_fadd                             0x08006b1f   Thumb Code   162  fadd.o(.text)
    __aeabi_fsub                             0x08006bc1   Thumb Code     8  fadd.o(.text)
    __aeabi_frsub                            0x08006bc9   Thumb Code     8  fadd.o(.text)
    __aeabi_fmul                             0x08006bd1   Thumb Code   122  fmul.o(.text)
    __aeabi_fdiv                             0x08006c4b   Thumb Code   124  fdiv.o(.text)
    __aeabi_dadd                             0x08006cc9   Thumb Code   328  dadd.o(.text)
    __aeabi_dsub                             0x08006e11   Thumb Code    12  dadd.o(.text)
    __aeabi_drsub                            0x08006e1d   Thumb Code    12  dadd.o(.text)
    __aeabi_dmul                             0x08006e2d   Thumb Code   202  dmul.o(.text)
    __aeabi_ddiv                             0x08006efd   Thumb Code   234  ddiv.o(.text)
    __aeabi_fcmple                           0x08006fed   Thumb Code    28  fcmple.o(.text)
    __aeabi_fcmplt                           0x08007009   Thumb Code    28  fcmplt.o(.text)
    __aeabi_fcmpgt                           0x08007025   Thumb Code    28  fcmpgt.o(.text)
    __aeabi_dcmple                           0x08007041   Thumb Code    44  dcmple.o(.text)
    __aeabi_i2f                              0x0800706d   Thumb Code    22  fflti.o(.text)
    __aeabi_ui2f                             0x08007083   Thumb Code    14  ffltui.o(.text)
    __aeabi_i2d                              0x08007091   Thumb Code    34  dflti.o(.text)
    __aeabi_ui2d                             0x080070b9   Thumb Code    24  dfltui.o(.text)
    __aeabi_f2iz                             0x080070d5   Thumb Code    50  ffixi.o(.text)
    __aeabi_f2lz                             0x08007107   Thumb Code    64  ffixl.o(.text)
    __aeabi_d2iz                             0x08007149   Thumb Code    62  dfixi.o(.text)
    __aeabi_f2d                              0x08007191   Thumb Code    40  f2d.o(.text)
    __aeabi_d2f                              0x080071b9   Thumb Code    56  d2f.o(.text)
    __aeabi_uldivmod                         0x080071f1   Thumb Code    96  uldiv.o(.text)
    __aeabi_llsl                             0x08007251   Thumb Code    32  llshl.o(.text)
    _ll_shift_l                              0x08007251   Thumb Code     0  llshl.o(.text)
    __aeabi_llsr                             0x08007271   Thumb Code    34  llushr.o(.text)
    _ll_ushift_r                             0x08007271   Thumb Code     0  llushr.o(.text)
    __aeabi_lasr                             0x08007293   Thumb Code    38  llsshr.o(.text)
    _ll_sshift_r                             0x08007293   Thumb Code     0  llsshr.o(.text)
    __I$use$fp                               0x080072b9   Thumb Code     0  iusefp.o(.text)
    _float_round                             0x080072b9   Thumb Code    16  fepilogue.o(.text)
    _float_epilogue                          0x080072c9   Thumb Code   114  fepilogue.o(.text)
    _double_round                            0x0800733b   Thumb Code    26  depilogue.o(.text)
    _double_epilogue                         0x08007355   Thumb Code   164  depilogue.o(.text)
    __scatterload                            0x080073f9   Thumb Code    38  init.o(.text)
    __scatterload_rt2                        0x080073f9   Thumb Code     0  init.o(.text)
    __0sprintf$8                             0x08007429   Thumb Code    36  printf8.o(i.__0sprintf$8)
    __1sprintf$8                             0x08007429   Thumb Code     0  printf8.o(i.__0sprintf$8)
    __2sprintf                               0x08007429   Thumb Code     0  printf8.o(i.__0sprintf$8)
    __ARM_clz                                0x08007451   Thumb Code    46  depilogue.o(i.__ARM_clz)
    __scatterload_copy                       0x0800747f   Thumb Code    14  handlers.o(i.__scatterload_copy)
    __scatterload_null                       0x0800748d   Thumb Code     2  handlers.o(i.__scatterload_null)
    __scatterload_zeroinit                   0x0800748f   Thumb Code    14  handlers.o(i.__scatterload_zeroinit)
    hall_to_pos                              0x08007963   Data           8  bldc.o(.rodata.hall_to_pos)
    lookUpTableAngle                         0x0800796c   Data         724  main.o(.rodata.lookUpTableAngle)
    Region$$Table$$Base                      0x08007f1c   Number         0  anon$$obj.o(Region$$Table)
    Region$$Table$$Limit                     0x08007f3c   Number         0  anon$$obj.o(Region$$Table)
    SystemCoreClock                          0x20000000   Data           4  system_gd32e23x.o(.data.SystemCoreClock)
    aiFound                                  0x20000004   Data          10  i2c.o(.data.aiFound)
    batteryVoltage                           0x20000010   Data           4  bldc.o(.data.batteryVoltage)
    currentDC                                0x20000014   Data           4  bldc.o(.data.currentDC)
    iDrivingMode                             0x20000018   Data           1  main.o(.data.iDrivingMode)
    iFILTER_SHIFT                            0x20000019   Data           1  bldc.o(.data.iFILTER_SHIFT)
    iFound                                   0x2000001a   Data           1  i2c.o(.data.iFound)
    offsetdc                                 0x2000001c   Data           2  bldc.o(.data.offsetdc)
    revs32ScaleSlow                          0x20000020   Data           4  bldc.o(.data.revs32ScaleSlow)
    speedLimit                               0x20000024   Data           2  main.o(.data.speedLimit)
    wState                                   0x20000026   Data           1  main.o(.data.wState)
    _SEGGER_RTT                              0x2000002c   Data         168  segger_rtt.o(.bss._SEGGER_RTT)
    aHallEXTI                                0x200004e4   Data          12  bldcsine.o(.bss.aHallEXTI)
    adc_buffer                               0x200004f0   Data           4  bldc.o(.bss.adc_buffer)
    aiDump                                   0x200004f4   Data         272  i2c.o(.bss.aiDump)
    aiLowPass                                0x20000604   Data          28  imumpu6050.o(.bss.aiLowPass)
    angle_deg                                0x20000620   Data           2  bldcsine.o(.bss.angle_deg)
    angle_deg_add                            0x20000622   Data           2  bldcsine.o(.bss.angle_deg_add)
    angle_deg_final                          0x20000624   Data           2  bldcsine.o(.bss.angle_deg_final)
    angle_idx                                0x20000626   Data           2  bldcsine.o(.bss.angle_idx)
    bInterrupt                               0x20000628   Data           1  bldcsine.o(.bss.bInterrupt)
    bPilotTimeout                            0x20000629   Data           1  main.o(.bss.bPilotTimeout)
    bRemoteTimeout                           0x2000062a   Data           1  main.o(.bss.bRemoteTimeout)
    bldc_enable                              0x2000062b   Data           1  bldc.o(.bss.bldc_enable)
    bldc_inputFilterPwm                      0x2000062c   Data           4  bldc.o(.bss.bldc_inputFilterPwm)
    bldc_outputFilterPwm                     0x20000630   Data           4  bldc.o(.bss.bldc_outputFilterPwm)
    buzzerFreq                               0x20000634   Data           1  bldc.o(.bss.buzzerFreq)
    buzzerPattern                            0x20000635   Data           1  bldc.o(.bss.buzzerPattern)
    buzzerTimer                              0x20000636   Data           2  bldc.o(.bss.buzzerTimer)
    buzzerToggle                             0x20000638   Data           1  bldc.o(.bss.buzzerToggle)
    dma_init_struct_adc                      0x2000063c   Data          28  setup.o(.bss.dma_init_struct_adc)
    enable                                   0x20000658   Data           1  main.o(.bss.enable)
    filter_reg                               0x2000065c   Data           4  bldc.o(.bss.filter_reg)
    hall                                     0x20000660   Data           1  bldc.o(.bss.hall)
    hall_a                                   0x20000661   Data           1  bldc.o(.bss.hall_a)
    hall_b                                   0x20000662   Data           1  bldc.o(.bss.hall_b)
    hall_c                                   0x20000663   Data           1  bldc.o(.bss.hall_c)
    hall_last                                0x20000664   Data           1  bldcsine.o(.bss.hall_last)
    hall_time_last                           0x20000666   Data           2  bldcsine.o(.bss.hall_time_last)
    hall_time_step                           0x20000668   Data           2  bldcsine.o(.bss.hall_time_step)
    hall_time_step_LP                        0x2000066c   Data           4  bldcsine.o(.bss.hall_time_step_LP)
    hall_time_step_LPR                       0x20000670   Data           4  bldcsine.o(.bss.hall_time_step_LPR)
    iAdcCounter                              0x20000674   Data           4  it.o(.bss.iAdcCounter)
    iAdcRate                                 0x20000678   Data           4  it.o(.bss.iAdcRate)
    iAdcTime                                 0x2000067c   Data           4  it.o(.bss.iAdcTime)
    iAdd                                     0x20000680   Data           2  bldcsine.o(.bss.iAdd)
    iBldcInput                               0x20000684   Data           4  bldc.o(.bss.iBldcInput)
    iBug                                     0x20000688   Data           4  main.o(.bss.iBug)
    iBuzzCounter                             0x2000068c   Data           4  bldc.o(.bss.iBuzzCounter)
    iBuzzRate                                0x20000690   Data           4  bldc.o(.bss.iBuzzRate)
    iBuzzTime                                0x20000694   Data           4  bldc.o(.bss.iBuzzTime)
    iDT                                      0x20000698   Data           2  bldcsine.o(.bss.iDT)
    iDrivingModeOverride                     0x2000069a   Data           1  bldc.o(.bss.iDrivingModeOverride)
    iOdom                                    0x2000069c   Data           4  bldc.o(.bss.iOdom)
    iOdomLast                                0x200006a0   Data           4  bldc.o(.bss.iOdomLast)
    iPwmCounter                              0x200006a4   Data           4  it.o(.bss.iPwmCounter)
    iPwmRate                                 0x200006a8   Data           4  it.o(.bss.iPwmRate)
    iPwmTime                                 0x200006ac   Data           4  it.o(.bss.iPwmTime)
    iTestClock                               0x200006b0   Data           4  setup.o(.bss.iTestClock)
    iTimeNextLoop                            0x200006b4   Data           4  main.o(.bss.iTimeNextLoop)
    inactivity_timeout_counter               0x200006b8   Data           4  main.o(.bss.inactivity_timeout_counter)
    lastPos                                  0x200006bc   Data           1  bldc.o(.bss.lastPos)
    mpuData                                  0x200006be   Data          14  imumpu6050.o(.bss.mpuData)
    mpuStatus                                0x200006cc   Data           1  imumpu6050.o(.bss.mpuStatus)
    msTicks                                  0x200006d0   Data           4  it.o(.bss.msTicks)
    oConfig                                  0x200006d4   Data          20  setup.o(.bss.oConfig)
    offsetcount                              0x200006e8   Data           2  bldc.o(.bss.offsetcount)
    pid                                      0x200006f0   Data          40  driver.o(.bss.pid)
    pll_mul                                  0x20000718   Data           4  setup.o(.bss.pll_mul)
    pos                                      0x2000071c   Data           1  bldc.o(.bss.pos)
    pwmGo                                    0x20000720   Data           4  bldcsine.o(.bss.pwmGo)
    pwmSlave                                 0x20000724   Data           2  main.o(.bss.pwmSlave)
    realSpeed                                0x20000728   Data           4  bldc.o(.bss.realSpeed)
    realSpeed32_reg                          0x2000072c   Data           4  bldc.o(.bss.realSpeed32_reg)
    revs32                                   0x20000730   Data           4  bldc.o(.bss.revs32)
    revs32_reg                               0x20000734   Data           4  bldc.o(.bss.revs32_reg)
    sector                                   0x20000738   Data           1  bldcsine.o(.bss.sector)
    sector10x                                0x20000739   Data           1  bldcsine.o(.bss.sector10x)
    sectorChange                             0x2000073a   Data           1  bldcsine.o(.bss.sectorChange)
    speed                                    0x2000073c   Data           4  main.o(.bss.speed)
    speedCounter                             0x20000740   Data           4  bldc.o(.bss.speedCounter)
    speedCounterSlow                         0x20000744   Data           4  bldc.o(.bss.speedCounterSlow)
    speedCounterSlowLog                      0x20000748   Data           4  bldc.o(.bss.speedCounterSlowLog)
    speedShutoff                             0x2000074c   Data           4  main.o(.bss.speedShutoff)
    steer                                    0x20000750   Data           4  main.o(.bss.steer)
    steerCounter                             0x20000754   Data           4  main.o(.bss.steerCounter)
    timedOut                                 0x20000758   Data           1  it.o(.bss.timedOut)
    timeoutCounter_ms                        0x2000075c   Data           4  it.o(.bss.timeoutCounter_ms)
    timeoutTimer_paramter_struct             0x20000760   Data          16  setup.o(.bss.timeoutTimer_paramter_struct)
    timerBldc_break_parameter_struct         0x20000770   Data          14  setup.o(.bss.timerBldc_break_parameter_struct)
    timerBldc_oc_parameter_struct            0x2000077e   Data          12  setup.o(.bss.timerBldc_oc_parameter_struct)
    timerBldc_paramter_struct                0x2000078c   Data          16  setup.o(.bss.timerBldc_paramter_struct)
    torque32                                 0x2000079c   Data           4  bldc.o(.bss.torque32)
    torque32_reg                             0x200007a0   Data           4  bldc.o(.bss.torque32_reg)
    __initial_sp                             0x20000ba8   Data           0  startup_gd32e23x.o(STACK)



==============================================================================

Memory Map of the image

  Image Entry point : 0x080000cd

  Load Region LR_IROM1 (Base: 0x08000000, Size: 0x00007f68, Max: 0x00010000, ABSOLUTE)

    Execution Region ER_IROM1 (Exec base: 0x08000000, Load base: 0x08000000, Size: 0x00007f3c, Max: 0x00010000, ABSOLUTE)

    Exec Addr    Load Addr    Size         Type   Attr      Idx    E Section Name        Object

    0x08000000   0x08000000   0x000000cc   Data   RO          373    RESET               startup_gd32e23x.o
    0x080000cc   0x080000cc   0x00000000   Code   RO          389  * .ARM.Collect$$$$00000000  mc_p.l(entry.o)
    0x080000cc   0x080000cc   0x00000004   Code   RO          701    .ARM.Collect$$$$00000001  mc_p.l(entry2.o)
    0x080000d0   0x080000d0   0x00000004   Code   RO          704    .ARM.Collect$$$$00000004  mc_p.l(entry5.o)
    0x080000d4   0x080000d4   0x00000000   Code   RO          706    .ARM.Collect$$$$00000008  mc_p.l(entry7b.o)
    0x080000d4   0x080000d4   0x00000000   Code   RO          708    .ARM.Collect$$$$0000000A  mc_p.l(entry8b.o)
    0x080000d4   0x080000d4   0x00000008   Code   RO          709    .ARM.Collect$$$$0000000B  mc_p.l(entry9a.o)
    0x080000dc   0x080000dc   0x00000000   Code   RO          711    .ARM.Collect$$$$0000000D  mc_p.l(entry10a.o)
    0x080000dc   0x080000dc   0x00000000   Code   RO          713    .ARM.Collect$$$$0000000F  mc_p.l(entry11a.o)
    0x080000dc   0x080000dc   0x00000004   Code   RO          702    .ARM.Collect$$$$00002712  mc_p.l(entry2.o)
    0x080000e0   0x080000e0   0x0000074c   Code   RO            1    .text               main.o
    0x0800082c   0x0800082c   0x000005f0   Code   RO           31    .text               bldc.o
    0x08000e1c   0x08000e1c   0x0000028c   Code   RO           82    .text               driver.o
    0x080010a8   0x080010a8   0x0000034c   Code   RO           93    .text               bldcsine.o
    0x080013f4   0x080013f4   0x000007e8   Code   RO          122    .text               setup.o
    0x08001bdc   0x08001bdc   0x00000164   Code   RO          144    .text               it.o
    0x08001d40   0x08001d40   0x00000084   Code   RO          183    .text               remotedummy.o
    0x08001dc4   0x08001dc4   0x00000478   Code   RO          208    .text               i2c.o
    0x0800223c   0x0800223c   0x00000214   Code   RO          220    .text               imumpu6050.o
    0x08002450   0x08002450   0x000015d0   Code   RO          236    .text               segger_rtt.o
    0x08003a20   0x08003a20   0x00000580   Code   RO          252    .text               gd32e23x_adc.o
    0x08003fa0   0x08003fa0   0x000002dc   Code   RO          260    .text               gd32e23x_dma.o
    0x0800427c   0x0800427c   0x0000012c   Code   RO          268    .text               gd32e23x_exti.o
    0x080043a8   0x080043a8   0x00000898   Code   RO          276    .text               gd32e23x_fmc.o
    0x08004c40   0x08004c40   0x00000140   Code   RO          285    .text               gd32e23x_fwdgt.o
    0x08004d80   0x08004d80   0x0000017c   Code   RO          293    .text               gd32e23x_gpio.o
    0x08004efc   0x08004efc   0x0000037c   Code   RO          302    .text               gd32e23x_i2c.o
    0x08005278   0x08005278   0x000000ec   Code   RO          310    .text               gd32e23x_misc.o
    0x08005364   0x08005364   0x000006b0   Code   RO          329    .text               gd32e23x_rcu.o
    0x08005a14   0x08005a14   0x00000114   Code   RO          338    .text               gd32e23x_syscfg.o
    0x08005b28   0x08005b28   0x00000dec   Code   RO          346    .text               gd32e23x_timer.o
    0x08006914   0x08006914   0x0000001c   Code   RO          374    .text               startup_gd32e23x.o
    0x08006930   0x08006930   0x00000168   Code   RO          380    .text               system_gd32e23x.o
    0x08006a98   0x08006a98   0x00000030   Code   RO          392    .text               mc_p.l(llmul.o)
    0x08006ac8   0x08006ac8   0x00000024   Code   RO          394    .text               mc_p.l(memcpya.o)
    0x08006aec   0x08006aec   0x00000024   Code   RO          396    .text               mc_p.l(memseta.o)
    0x08006b10   0x08006b10   0x0000000e   Code   RO          398    .text               mc_p.l(strlen.o)
    0x08006b1e   0x08006b1e   0x000000b2   Code   RO          663    .text               mf_p.l(fadd.o)
    0x08006bd0   0x08006bd0   0x0000007a   Code   RO          665    .text               mf_p.l(fmul.o)
    0x08006c4a   0x08006c4a   0x0000007c   Code   RO          667    .text               mf_p.l(fdiv.o)
    0x08006cc6   0x08006cc6   0x00000002   PAD
    0x08006cc8   0x08006cc8   0x00000164   Code   RO          669    .text               mf_p.l(dadd.o)
    0x08006e2c   0x08006e2c   0x000000d0   Code   RO          671    .text               mf_p.l(dmul.o)
    0x08006efc   0x08006efc   0x000000f0   Code   RO          673    .text               mf_p.l(ddiv.o)
    0x08006fec   0x08006fec   0x0000001c   Code   RO          675    .text               mf_p.l(fcmple.o)
    0x08007008   0x08007008   0x0000001c   Code   RO          677    .text               mf_p.l(fcmplt.o)
    0x08007024   0x08007024   0x0000001c   Code   RO          679    .text               mf_p.l(fcmpgt.o)
    0x08007040   0x08007040   0x0000002c   Code   RO          681    .text               mf_p.l(dcmple.o)
    0x0800706c   0x0800706c   0x00000016   Code   RO          683    .text               mf_p.l(fflti.o)
    0x08007082   0x08007082   0x0000000e   Code   RO          685    .text               mf_p.l(ffltui.o)
    0x08007090   0x08007090   0x00000028   Code   RO          687    .text               mf_p.l(dflti.o)
    0x080070b8   0x080070b8   0x0000001c   Code   RO          689    .text               mf_p.l(dfltui.o)
    0x080070d4   0x080070d4   0x00000032   Code   RO          691    .text               mf_p.l(ffixi.o)
    0x08007106   0x08007106   0x00000040   Code   RO          693    .text               mf_p.l(ffixl.o)
    0x08007146   0x08007146   0x00000002   PAD
    0x08007148   0x08007148   0x00000048   Code   RO          695    .text               mf_p.l(dfixi.o)
    0x08007190   0x08007190   0x00000028   Code   RO          697    .text               mf_p.l(f2d.o)
    0x080071b8   0x080071b8   0x00000038   Code   RO          699    .text               mf_p.l(d2f.o)
    0x080071f0   0x080071f0   0x00000060   Code   RO          726    .text               mc_p.l(uldiv.o)
    0x08007250   0x08007250   0x00000020   Code   RO          728    .text               mc_p.l(llshl.o)
    0x08007270   0x08007270   0x00000022   Code   RO          730    .text               mc_p.l(llushr.o)
    0x08007292   0x08007292   0x00000026   Code   RO          732    .text               mc_p.l(llsshr.o)
    0x080072b8   0x080072b8   0x00000000   Code   RO          734    .text               mc_p.l(iusefp.o)
    0x080072b8   0x080072b8   0x00000082   Code   RO          735    .text               mf_p.l(fepilogue.o)
    0x0800733a   0x0800733a   0x000000be   Code   RO          737    .text               mf_p.l(depilogue.o)
    0x080073f8   0x080073f8   0x00000030   Code   RO          745    .text               mc_p.l(init.o)
    0x08007428   0x08007428   0x00000028   Code   RO          611    i.__0sprintf$8      mc_p.l(printf8.o)
    0x08007450   0x08007450   0x0000002e   Code   RO          739    i.__ARM_clz         mf_p.l(depilogue.o)
    0x0800747e   0x0800747e   0x0000000e   Code   RO          761    i.__scatterload_copy  mc_p.l(handlers.o)
    0x0800748c   0x0800748c   0x00000002   Code   RO          762    i.__scatterload_null  mc_p.l(handlers.o)
    0x0800748e   0x0800748e   0x0000000e   Code   RO          763    i.__scatterload_zeroinit  mc_p.l(handlers.o)
    0x0800749c   0x0800749c   0x00000428   Code   RO          616    i._printf_core      mc_p.l(printf8.o)
    0x080078c4   0x080078c4   0x00000020   Code   RO          617    i._printf_post_padding  mc_p.l(printf8.o)
    0x080078e4   0x080078e4   0x0000002c   Code   RO          618    i._printf_pre_padding  mc_p.l(printf8.o)
    0x08007910   0x08007910   0x0000000a   Code   RO          620    i._sputc            mc_p.l(printf8.o)
    0x0800791a   0x0800791a   0x0000000c   Data   RO           63    .rodata..L__const.up_or_down.up_down  bldc.o
    0x08007926   0x08007926   0x0000000c   Data   RO          295    .rodata..Lswitch.table.gpio_deinit.1  gd32e23x_gpio.o
    0x08007932   0x08007932   0x00000011   Data   RO          241    .rodata._DoInit._aInitStr  segger_rtt.o
    0x08007943   0x08007943   0x00000010   Data   RO          239    .rodata.cst16       segger_rtt.o
    0x08007953   0x08007953   0x00000008   Data   RO          112    .rodata.cst8        bldcsine.o
    0x0800795b   0x0800795b   0x00000008   Data   RO          331    .rodata.cst8        gd32e23x_rcu.o
    0x08007963   0x08007963   0x00000008   Data   RO           64    .rodata.hall_to_pos  bldc.o
    0x0800796b   0x0800796b   0x00000001   PAD
    0x0800796c   0x0800796c   0x000002d4   Data   RO           19    .rodata.lookUpTableAngle  main.o
    0x08007c40   0x08007c40   0x000002d0   Data   RO          115    .rodata.sine_table  bldcsine.o
    0x08007f10   0x08007f10   0x00000009   Data   RO          242    .rodata.str1.1      segger_rtt.o
    0x08007f19   0x08007f19   0x00000003   PAD
    0x08007f1c   0x08007f1c   0x00000020   Data   RO          760    Region$$Table       anon$$obj.o


    Execution Region RW_IRAM1 (Exec base: 0x20000000, Load base: 0x08007f40, Size: 0x00000ba8, Max: 0x00002000, ABSOLUTE)

    Exec Addr    Load Addr    Size         Type   Attr      Idx    E Section Name        Object

    0x20000000   0x08007f40   0x00000004   Data   RW          382    .data.SystemCoreClock  system_gd32e23x.o
    0x20000004   0x08007f44   0x0000000a   Data   RW          211    .data.aiFound       i2c.o
    0x2000000e   0x08007f4e   0x00000002   PAD
    0x20000010   0x08007f50   0x00000004   Data   RW           33    .data.batteryVoltage  bldc.o
    0x20000014   0x08007f54   0x00000004   Data   RW           34    .data.currentDC     bldc.o
    0x20000018   0x08007f58   0x00000001   Data   RW            3    .data.iDrivingMode  main.o
    0x20000019   0x08007f59   0x00000001   Data   RW           50    .data.iFILTER_SHIFT  bldc.o
    0x2000001a   0x08007f5a   0x00000001   Data   RW          210    .data.iFound        i2c.o
    0x2000001b   0x08007f5b   0x00000001   PAD
    0x2000001c   0x08007f5c   0x00000002   Data   RW           53    .data.offsetdc      bldc.o
    0x2000001e   0x08007f5e   0x00000002   PAD
    0x20000020   0x08007f60   0x00000004   Data   RW           43    .data.revs32ScaleSlow  bldc.o
    0x20000024   0x08007f64   0x00000002   Data   RW           11    .data.speedLimit    main.o
    0x20000026   0x08007f66   0x00000001   Data   RW           12    .data.wState        main.o
    0x20000027   0x08007f67   0x00000001   PAD
    0x20000028        -       0x00000001   Zero   RW          159    .bss.TIMER0_BRK_UP_TRG_COM_IRQHandler.interrupt_toggle  it.o
    0x20000029        -       0x00000001   Zero   RW          240    .bss._ActiveTerminal  segger_rtt.o
    0x2000002a   0x08007f67   0x00000002   PAD
    0x2000002c        -       0x000000a8   Zero   RW          238    .bss._SEGGER_RTT    segger_rtt.o
    0x200000d4        -       0x00000010   Zero   RW          244    .bss._acDownBuffer  segger_rtt.o
    0x200000e4        -       0x00000400   Zero   RW          243    .bss._acUpBuffer    segger_rtt.o
    0x200004e4        -       0x0000000c   Zero   RW          103    .bss.aHallEXTI      bldcsine.o
    0x200004f0        -       0x00000004   Zero   RW           69    .bss.adc_buffer     bldc.o
    0x200004f4        -       0x00000110   Zero   RW          212    .bss.aiDump         i2c.o
    0x20000604        -       0x0000001c   Zero   RW          222    .bss.aiLowPass      imumpu6050.o
    0x20000620        -       0x00000002   Zero   RW           98    .bss.angle_deg      bldcsine.o
    0x20000622        -       0x00000002   Zero   RW           99    .bss.angle_deg_add  bldcsine.o
    0x20000624        -       0x00000002   Zero   RW          100    .bss.angle_deg_final  bldcsine.o
    0x20000626        -       0x00000002   Zero   RW          101    .bss.angle_idx      bldcsine.o
    0x20000628        -       0x00000001   Zero   RW          104    .bss.bInterrupt     bldcsine.o
    0x20000629        -       0x00000001   Zero   RW            5    .bss.bPilotTimeout  main.o
    0x2000062a        -       0x00000001   Zero   RW            4    .bss.bRemoteTimeout  main.o
    0x2000062b        -       0x00000001   Zero   RW           45    .bss.bldc_enable    bldc.o
    0x2000062c        -       0x00000004   Zero   RW           47    .bss.bldc_inputFilterPwm  bldc.o
    0x20000630        -       0x00000004   Zero   RW           48    .bss.bldc_outputFilterPwm  bldc.o
    0x20000634        -       0x00000001   Zero   RW           59    .bss.buzzerFreq     bldc.o
    0x20000635        -       0x00000001   Zero   RW           60    .bss.buzzerPattern  bldc.o
    0x20000636        -       0x00000002   Zero   RW           51    .bss.buzzerTimer    bldc.o
    0x20000638        -       0x00000001   Zero   RW           58    .bss.buzzerToggle   bldc.o
    0x20000639   0x08007f67   0x00000003   PAD
    0x2000063c        -       0x0000001c   Zero   RW          128    .bss.dma_init_struct_adc  setup.o
    0x20000658        -       0x00000001   Zero   RW           20    .bss.enable         main.o
    0x20000659   0x08007f67   0x00000003   PAD
    0x2000065c        -       0x00000004   Zero   RW           65    .bss.filter_reg     bldc.o
    0x20000660        -       0x00000001   Zero   RW           46    .bss.hall           bldc.o
    0x20000661        -       0x00000001   Zero   RW           70    .bss.hall_a         bldc.o
    0x20000662        -       0x00000001   Zero   RW           71    .bss.hall_b         bldc.o
    0x20000663        -       0x00000001   Zero   RW           72    .bss.hall_c         bldc.o
    0x20000664        -       0x00000001   Zero   RW          107    .bss.hall_last      bldcsine.o
    0x20000665   0x08007f67   0x00000001   PAD
    0x20000666        -       0x00000002   Zero   RW          105    .bss.hall_time_last  bldcsine.o
    0x20000668        -       0x00000002   Zero   RW          106    .bss.hall_time_step  bldcsine.o
    0x2000066a   0x08007f67   0x00000002   PAD
    0x2000066c        -       0x00000004   Zero   RW          114    .bss.hall_time_step_LP  bldcsine.o
    0x20000670        -       0x00000004   Zero   RW          113    .bss.hall_time_step_LPR  bldcsine.o
    0x20000674        -       0x00000004   Zero   RW          156    .bss.iAdcCounter    it.o
    0x20000678        -       0x00000004   Zero   RW          158    .bss.iAdcRate       it.o
    0x2000067c        -       0x00000004   Zero   RW          157    .bss.iAdcTime       it.o
    0x20000680        -       0x00000002   Zero   RW          111    .bss.iAdd           bldcsine.o
    0x20000682   0x08007f67   0x00000002   PAD
    0x20000684        -       0x00000004   Zero   RW           44    .bss.iBldcInput     bldc.o
    0x20000688        -       0x00000004   Zero   RW            6    .bss.iBug           main.o
    0x2000068c        -       0x00000004   Zero   RW           66    .bss.iBuzzCounter   bldc.o
    0x20000690        -       0x00000004   Zero   RW           68    .bss.iBuzzRate      bldc.o
    0x20000694        -       0x00000004   Zero   RW           67    .bss.iBuzzTime      bldc.o
    0x20000698        -       0x00000002   Zero   RW          110    .bss.iDT            bldcsine.o
    0x2000069a        -       0x00000001   Zero   RW           49    .bss.iDrivingModeOverride  bldc.o
    0x2000069b   0x08007f67   0x00000001   PAD
    0x2000069c        -       0x00000004   Zero   RW           61    .bss.iOdom          bldc.o
    0x200006a0        -       0x00000004   Zero   RW           62    .bss.iOdomLast      bldc.o
    0x200006a4        -       0x00000004   Zero   RW          151    .bss.iPwmCounter    it.o
    0x200006a8        -       0x00000004   Zero   RW          153    .bss.iPwmRate       it.o
    0x200006ac        -       0x00000004   Zero   RW          152    .bss.iPwmTime       it.o
    0x200006b0        -       0x00000004   Zero   RW          132    .bss.iTestClock     setup.o
    0x200006b4        -       0x00000004   Zero   RW           22    .bss.iTimeNextLoop  main.o
    0x200006b8        -       0x00000004   Zero   RW           18    .bss.inactivity_timeout_counter  main.o
    0x200006bc        -       0x00000001   Zero   RW           74    .bss.lastPos        bldc.o
    0x200006bd   0x08007f67   0x00000001   PAD
    0x200006be        -       0x0000000e   Zero   RW          226    .bss.mpuData        imumpu6050.o
    0x200006cc        -       0x00000001   Zero   RW          223    .bss.mpuStatus      imumpu6050.o
    0x200006cd   0x08007f67   0x00000003   PAD
    0x200006d0        -       0x00000004   Zero   RW          148    .bss.msTicks        it.o
    0x200006d4        -       0x00000014   Zero   RW          129    .bss.oConfig        setup.o
    0x200006e8        -       0x00000002   Zero   RW           52    .bss.offsetcount    bldc.o
    0x200006ea   0x08007f67   0x00000006   PAD
    0x200006f0        -       0x00000028   Zero   RW           84    .bss.pid            driver.o
    0x20000718        -       0x00000004   Zero   RW          131    .bss.pll_mul        setup.o
    0x2000071c        -       0x00000001   Zero   RW           73    .bss.pos            bldc.o
    0x2000071d   0x08007f67   0x00000003   PAD
    0x20000720        -       0x00000004   Zero   RW          102    .bss.pwmGo          bldcsine.o
    0x20000724        -       0x00000002   Zero   RW           21    .bss.pwmSlave       main.o
    0x20000726   0x08007f67   0x00000002   PAD
    0x20000728        -       0x00000004   Zero   RW           35    .bss.realSpeed      bldc.o
    0x2000072c        -       0x00000004   Zero   RW           40    .bss.realSpeed32_reg  bldc.o
    0x20000730        -       0x00000004   Zero   RW           36    .bss.revs32         bldc.o
    0x20000734        -       0x00000004   Zero   RW           38    .bss.revs32_reg     bldc.o
    0x20000738        -       0x00000001   Zero   RW           96    .bss.sector         bldcsine.o
    0x20000739        -       0x00000001   Zero   RW           97    .bss.sector10x      bldcsine.o
    0x2000073a        -       0x00000001   Zero   RW           95    .bss.sectorChange   bldcsine.o
    0x2000073b   0x08007f67   0x00000001   PAD
    0x2000073c        -       0x00000004   Zero   RW            9    .bss.speed          main.o
    0x20000740        -       0x00000004   Zero   RW           54    .bss.speedCounter   bldc.o
    0x20000744        -       0x00000004   Zero   RW           55    .bss.speedCounterSlow  bldc.o
    0x20000748        -       0x00000004   Zero   RW           57    .bss.speedCounterSlowLog  bldc.o
    0x2000074c        -       0x00000004   Zero   RW           10    .bss.speedShutoff   main.o
    0x20000750        -       0x00000004   Zero   RW           14    .bss.steer          main.o
    0x20000754        -       0x00000004   Zero   RW            8    .bss.steerCounter   main.o
    0x20000758        -       0x00000001   Zero   RW          147    .bss.timedOut       it.o
    0x20000759   0x08007f67   0x00000003   PAD
    0x2000075c        -       0x00000004   Zero   RW          146    .bss.timeoutCounter_ms  it.o
    0x20000760        -       0x00000010   Zero   RW          124    .bss.timeoutTimer_paramter_struct  setup.o
    0x20000770        -       0x0000000e   Zero   RW          127    .bss.timerBldc_break_parameter_struct  setup.o
    0x2000077e        -       0x0000000c   Zero   RW          126    .bss.timerBldc_oc_parameter_struct  setup.o
    0x2000078a   0x08007f67   0x00000002   PAD
    0x2000078c        -       0x00000010   Zero   RW          125    .bss.timerBldc_paramter_struct  setup.o
    0x2000079c        -       0x00000004   Zero   RW           37    .bss.torque32       bldc.o
    0x200007a0        -       0x00000004   Zero   RW           39    .bss.torque32_reg   bldc.o
    0x200007a4   0x08007f67   0x00000004   PAD
    0x200007a8        -       0x00000400   Zero   RW          371    STACK               startup_gd32e23x.o


==============================================================================

Image component sizes


      Code (inc. data)   RO Data    RW Data    ZI Data      Debug   Object Name

      1520        292         20         15         91       4653   bldc.o
       844        136        728          0         45       5785   bldcsine.o
       652         56          0          0         40       3448   driver.o
      1408        184          0          0          0       8237   gd32e23x_adc.o
       732        104          0          0          0       6045   gd32e23x_dma.o
       300         52          0          0          0       2993   gd32e23x_exti.o
      2200        212          0          0          0      10972   gd32e23x_fmc.o
       320         96          0          0          0       2827   gd32e23x_fwdgt.o
       380          8         12          0          0       4587   gd32e23x_gpio.o
       892         64          0          0          0       9007   gd32e23x_i2c.o
       236         44          0          0          0       3747   gd32e23x_misc.o
      1712        232          8          0          0      12869   gd32e23x_rcu.o
       276         36          0          0          0       2986   gd32e23x_syscfg.o
      3564        120          0          0          0      19001   gd32e23x_timer.o
      1144        136          0         11        272       7127   i2c.o
       532         32          0          0         43       4420   imumpu6050.o
       356         76          0          0         34       3023   it.o
      1868        216        724          4         33       7142   main.o
       132         32          0          0          0       1003   remotedummy.o
      5584        456         42          0       1209      27069   segger_rtt.o
      2024        140          0          0        114      10409   setup.o
        28          8        204          0       1024        668   startup_gd32e23x.o
       360         56          0          4          0       2070   system_gd32e23x.o

    ----------------------------------------------------------------------
     27064       2788       1774         40       2944     160088   Object Totals
         0          0         32          0          0          0   (incl. Generated)
         0          0          4          6         39          0   (incl. Padding)

    ----------------------------------------------------------------------

      Code (inc. data)   RO Data    RW Data    ZI Data      Debug   Library Member Name

         0          0          0          0          0          0   entry.o
         0          0          0          0          0          0   entry10a.o
         0          0          0          0          0          0   entry11a.o
         8          4          0          0          0          0   entry2.o
         4          0          0          0          0          0   entry5.o
         0          0          0          0          0          0   entry7b.o
         0          0          0          0          0          0   entry8b.o
         8          4          0          0          0          0   entry9a.o
        30          0          0          0          0          0   handlers.o
        48         10          0          0          0         68   init.o
         0          0          0          0          0          0   iusefp.o
        48          0          0          0          0         72   llmul.o
        32          0          0          0          0         68   llshl.o
        38          0          0          0          0         68   llsshr.o
        34          0          0          0          0         68   llushr.o
        36          0          0          0          0         60   memcpya.o
        36          0          0          0          0        100   memseta.o
      1190         48          0          0          0        384   printf8.o
        14          0          0          0          0         60   strlen.o
        96          0          0          0          0         84   uldiv.o
        56          0          0          0          0         68   d2f.o
       356          4          0          0          0        140   dadd.o
        44          0          0          0          0         68   dcmple.o
       240          6          0          0          0         84   ddiv.o
       236          0          0          0          0        216   depilogue.o
        72         10          0          0          0         72   dfixi.o
        40          6          0          0          0         68   dflti.o
        28          4          0          0          0         68   dfltui.o
       208          6          0          0          0         88   dmul.o
        40          0          0          0          0         60   f2d.o
       178          0          0          0          0        108   fadd.o
        28          0          0          0          0         60   fcmpgt.o
        28          0          0          0          0         60   fcmple.o
        28          0          0          0          0         60   fcmplt.o
       124          0          0          0          0         72   fdiv.o
       130          0          0          0          0        144   fepilogue.o
        50          0          0          0          0         60   ffixi.o
        64          0          0          0          0         68   ffixl.o
        22          0          0          0          0         68   fflti.o
        14          0          0          0          0         68   ffltui.o
       122          0          0          0          0         72   fmul.o

    ----------------------------------------------------------------------
      3734        102          0          0          0       2804   Library Totals
         4          0          0          0          0          0   (incl. Padding)

    ----------------------------------------------------------------------

      Code (inc. data)   RO Data    RW Data    ZI Data      Debug   Library Name

      1622         66          0          0          0       1032   mc_p.l
      2108         36          0          0          0       1772   mf_p.l

    ----------------------------------------------------------------------
      3734        102          0          0          0       2804   Library Totals

    ----------------------------------------------------------------------

==============================================================================


      Code (inc. data)   RO Data    RW Data    ZI Data      Debug   

     30798       2890       1774         40       2944     161172   Grand Totals
     30798       2890       1774         40       2944     161172   ELF Image Totals
     30798       2890       1774         40          0          0   ROM Totals

==============================================================================

    Total RO  Size (Code + RO Data)                32572 (  31.81kB)
    Total RW  Size (RW Data + ZI Data)              2984 (   2.91kB)
    Total ROM Size (Code + RO Data + RW Data)      32612 (  31.85kB)

==============================================================================

